(dp1
S'output'
p2
S''
sS'layer'
p3
S'Framework'
p4
sS'code'
p5
S''
sS'snapshot'
p6
(dp7
S'exception'
p8
(dp9
S'__hash__'
p10
S"<method-wrapper '__hash__' of exceptions.NameError object>"
p11
sS'__setattr__'
p12
S"<method-wrapper '__setattr__' of exceptions.NameError object>"
p13
sS'__reduce_ex__'
p14
S'<built-in method __reduce_ex__ of exceptions.NameError object>'
p15
sS'__getslice__'
p16
S"<method-wrapper '__getslice__' of exceptions.NameError object>"
p17
sS'__getitem__'
p18
S"<method-wrapper '__getitem__' of exceptions.NameError object>"
p19
sS'__setstate__'
p20
S'<built-in method __setstate__ of exceptions.NameError object>'
p21
sS'__reduce__'
p22
S'<built-in method __reduce__ of exceptions.NameError object>'
p23
sS'__str__'
p24
S"<method-wrapper '__str__' of exceptions.NameError object>"
p25
sS'__format__'
p26
S'<built-in method __format__ of exceptions.NameError object>'
p27
sS'__getattribute__'
p28
S"<method-wrapper '__getattribute__' of exceptions.NameError object>"
p29
sS'__class__'
p30
S"<type 'exceptions.NameError'>"
p31
sS'__unicode__'
p32
S'<built-in method __unicode__ of exceptions.NameError object>'
p33
sS'__delattr__'
p34
S"<method-wrapper '__delattr__' of exceptions.NameError object>"
p35
sS'__subclasshook__'
p36
S'<built-in method __subclasshook__ of type object>'
p37
sS'__repr__'
p38
S"<method-wrapper '__repr__' of exceptions.NameError object>"
p39
sS'args'
p40
S'("name \'layout\' is not defined",)'
p41
sS'__dict__'
p42
S'{}'
p43
sS'__sizeof__'
p44
S'<built-in method __sizeof__ of exceptions.NameError object>'
p45
sS'__doc__'
p46
S"'Name not found globally.'"
p47
sS'__init__'
p48
S"<method-wrapper '__init__' of exceptions.NameError object>"
p49
sS'__new__'
p50
S'<built-in method __new__ of type object>'
p51
ssS'evalue'
p52
S"name 'layout' is not defined"
p53
sS'request'
p54
ccopy_reg
_reconstructor
p55
(cgluon.html
BEAUTIFY
p56
c__builtin__
object
p57
NtRp58
(dp59
S'attributes'
p60
(dp61
sS'components'
p62
(lp63
g55
(cgluon.html
TABLE
p64
g57
NtRp65
(dp66
g60
(dp67
S'level'
p68
I5
ssS'parent'
p69
Nsg62
(lp70
g55
(cgluon.html
TR
p71
g57
NtRp72
(dp73
g60
(dp74
sg69
g65
sg62
(lp75
g55
(cgluon.html
TD
p76
g57
NtRp77
(dp78
g60
(dp79
S'_style'
p80
S'font-weight:bold;vertical-align:top'
p81
ssg69
g72
sg62
(lp82
S'ajax'
p83
asbag55
(g76
g57
NtRp84
(dp85
g60
(dp86
S'_valign'
p87
S'top'
p88
ssg69
g72
sg62
(lp89
S':'
asbag55
(g76
g57
NtRp90
(dp91
g60
(dp92
sg69
g72
sg62
(lp93
g55
(g56
g57
NtRp94
(dp95
g60
(dp96
g68
I5
ssg69
g90
sg62
(lp97
S'False'
p98
asbasbasbag55
(g71
g57
NtRp99
(dp100
g60
(dp101
sg69
g65
sg62
(lp102
g55
(g76
g57
NtRp103
(dp104
g60
(dp105
g80
g81
ssg69
g99
sg62
(lp106
S'application'
p107
asbag55
(g76
g57
NtRp108
(dp109
g60
(dp110
g87
g88
ssg69
g99
sg62
(lp111
S':'
asbag55
(g76
g57
NtRp112
(dp113
g60
(dp114
sg69
g99
sg62
(lp115
g55
(g56
g57
NtRp116
(dp117
g60
(dp118
g68
I5
ssg69
g112
sg62
(lp119
S'reddit'
p120
asbasbasbag55
(g71
g57
NtRp121
(dp122
g60
(dp123
sg69
g65
sg62
(lp124
g55
(g76
g57
NtRp125
(dp126
g60
(dp127
g80
g81
ssg69
g121
sg62
(lp128
g40
asbag55
(g76
g57
NtRp129
(dp130
g60
(dp131
g87
g88
ssg69
g121
sg62
(lp132
S':'
asbag55
(g76
g57
NtRp133
(dp134
g60
(dp135
sg69
g121
sg62
(lp136
g55
(g56
g57
NtRp137
(dp138
g60
(dp139
g68
I5
ssg69
g133
sg62
(lp140
g55
(g64
g57
NtRp141
(dp142
g60
(dp143
g68
I4
ssg69
Nsg62
(lp144
sbasbasbasbag55
(g71
g57
NtRp145
(dp146
g60
(dp147
sg69
g65
sg62
(lp148
g55
(g76
g57
NtRp149
(dp150
g60
(dp151
g80
g81
ssg69
g145
sg62
(lp152
S'body'
p153
asbag55
(g76
g57
NtRp154
(dp155
g60
(dp156
g87
g88
ssg69
g145
sg62
(lp157
S':'
asbag55
(g76
g57
NtRp158
(dp159
g60
(dp160
sg69
g145
sg62
(lp161
g55
(g56
g57
NtRp162
(dp163
g60
(dp164
g68
I5
ssg69
g158
sg62
(lp165
S'<cStringIO.StringO object at 0xaf0a0480>'
p166
asbasbasbag55
(g71
g57
NtRp167
(dp168
g60
(dp169
sg69
g65
sg62
(lp170
g55
(g76
g57
NtRp171
(dp172
g60
(dp173
g80
g81
ssg69
g167
sg62
(lp174
S'cid'
p175
asbag55
(g76
g57
NtRp176
(dp177
g60
(dp178
g87
g88
ssg69
g167
sg62
(lp179
S':'
asbag55
(g76
g57
NtRp180
(dp181
g60
(dp182
sg69
g167
sg62
(lp183
g55
(g56
g57
NtRp184
(dp185
g60
(dp186
g68
I5
ssg69
g180
sg62
(lp187
S'None'
p188
asbasbasbag55
(g71
g57
NtRp189
(dp190
g60
(dp191
sg69
g65
sg62
(lp192
g55
(g76
g57
NtRp193
(dp194
g60
(dp195
g80
g81
ssg69
g189
sg62
(lp196
S'client'
p197
asbag55
(g76
g57
NtRp198
(dp199
g60
(dp200
g87
g88
ssg69
g189
sg62
(lp201
S':'
asbag55
(g76
g57
NtRp202
(dp203
g60
(dp204
sg69
g189
sg62
(lp205
g55
(g56
g57
NtRp206
(dp207
g60
(dp208
g68
I5
ssg69
g202
sg62
(lp209
S'127.0.0.1'
p210
asbasbasbag55
(g71
g57
NtRp211
(dp212
g60
(dp213
sg69
g65
sg62
(lp214
g55
(g76
g57
NtRp215
(dp216
g60
(dp217
g80
g81
ssg69
g211
sg62
(lp218
S'controller'
p219
asbag55
(g76
g57
NtRp220
(dp221
g60
(dp222
g87
g88
ssg69
g211
sg62
(lp223
S':'
asbag55
(g76
g57
NtRp224
(dp225
g60
(dp226
sg69
g211
sg62
(lp227
g55
(g56
g57
NtRp228
(dp229
g60
(dp230
g68
I5
ssg69
g224
sg62
(lp231
S'default'
p232
asbasbasbag55
(g71
g57
NtRp233
(dp234
g60
(dp235
sg69
g65
sg62
(lp236
g55
(g76
g57
NtRp237
(dp238
g60
(dp239
g80
g81
ssg69
g233
sg62
(lp240
S'cookies'
p241
asbag55
(g76
g57
NtRp242
(dp243
g60
(dp244
g87
g88
ssg69
g233
sg62
(lp245
S':'
asbag55
(g76
g57
NtRp246
(dp247
g60
(dp248
sg69
g233
sg62
(lp249
g55
(g56
g57
NtRp250
(dp251
g60
(dp252
g68
I5
ssg69
g246
sg62
(lp253
g55
(g64
g57
NtRp254
(dp255
g60
(dp256
g68
I4
ssg69
Nsg62
(lp257
g55
(g71
g57
NtRp258
(dp259
g60
(dp260
sg69
g254
sg62
(lp261
g55
(g76
g57
NtRp262
(dp263
g60
(dp264
g80
g81
ssg69
g258
sg62
(lp265
S'session_id_20120156_assignment_1'
p266
asbag55
(g76
g57
NtRp267
(dp268
g60
(dp269
g87
g88
ssg69
g258
sg62
(lp270
S':'
asbag55
(g76
g57
NtRp271
(dp272
g60
(dp273
sg69
g258
sg62
(lp274
g55
(g56
g57
NtRp275
(dp276
g60
(dp277
g68
I4
ssg69
g271
sg62
(lp278
S'127.0.0.1-6cad324c-0572-4be8-8f41-6fcaca863c93'
p279
ag55
(g64
g57
NtRp280
(dp281
g60
(dp282
g68
I3
ssg69
Nsg62
(lp283
g55
(g71
g57
NtRp284
(dp285
g60
(dp286
sg69
g280
sg62
(lp287
g55
(g76
g57
NtRp288
(dp289
g60
(dp290
g80
g81
ssg69
g284
sg62
(lp291
S'comment'
p292
asbag55
(g76
g57
NtRp293
(dp294
g60
(dp295
g87
g88
ssg69
g284
sg62
(lp296
S':'
asbag55
(g76
g57
NtRp297
(dp298
g60
(dp299
sg69
g284
sg62
(lp300
g55
(g56
g57
NtRp301
(dp302
g60
(dp303
g68
I3
ssg69
g297
sg62
(lp304
S''
asbasbasbag55
(g71
g57
NtRp305
(dp306
g60
(dp307
sg69
g280
sg62
(lp308
g55
(g76
g57
NtRp309
(dp310
g60
(dp311
g80
g81
ssg69
g305
sg62
(lp312
S'domain'
p313
asbag55
(g76
g57
NtRp314
(dp315
g60
(dp316
g87
g88
ssg69
g305
sg62
(lp317
S':'
asbag55
(g76
g57
NtRp318
(dp319
g60
(dp320
sg69
g305
sg62
(lp321
g55
(g56
g57
NtRp322
(dp323
g60
(dp324
g68
I3
ssg69
g318
sg62
(lp325
S''
asbasbasbag55
(g71
g57
NtRp326
(dp327
g60
(dp328
sg69
g280
sg62
(lp329
g55
(g76
g57
NtRp330
(dp331
g60
(dp332
g80
g81
ssg69
g326
sg62
(lp333
S'expires'
p334
asbag55
(g76
g57
NtRp335
(dp336
g60
(dp337
g87
g88
ssg69
g326
sg62
(lp338
S':'
asbag55
(g76
g57
NtRp339
(dp340
g60
(dp341
sg69
g326
sg62
(lp342
g55
(g56
g57
NtRp343
(dp344
g60
(dp345
g68
I3
ssg69
g339
sg62
(lp346
S''
asbasbasbag55
(g71
g57
NtRp347
(dp348
g60
(dp349
sg69
g280
sg62
(lp350
g55
(g76
g57
NtRp351
(dp352
g60
(dp353
g80
g81
ssg69
g347
sg62
(lp354
S'httponly'
p355
asbag55
(g76
g57
NtRp356
(dp357
g60
(dp358
g87
g88
ssg69
g347
sg62
(lp359
S':'
asbag55
(g76
g57
NtRp360
(dp361
g60
(dp362
sg69
g347
sg62
(lp363
g55
(g56
g57
NtRp364
(dp365
g60
(dp366
g68
I3
ssg69
g360
sg62
(lp367
S''
asbasbasbag55
(g71
g57
NtRp368
(dp369
g60
(dp370
sg69
g280
sg62
(lp371
g55
(g76
g57
NtRp372
(dp373
g60
(dp374
g80
g81
ssg69
g368
sg62
(lp375
S'max-age'
p376
asbag55
(g76
g57
NtRp377
(dp378
g60
(dp379
g87
g88
ssg69
g368
sg62
(lp380
S':'
asbag55
(g76
g57
NtRp381
(dp382
g60
(dp383
sg69
g368
sg62
(lp384
g55
(g56
g57
NtRp385
(dp386
g60
(dp387
g68
I3
ssg69
g381
sg62
(lp388
S''
asbasbasbag55
(g71
g57
NtRp389
(dp390
g60
(dp391
sg69
g280
sg62
(lp392
g55
(g76
g57
NtRp393
(dp394
g60
(dp395
g80
g81
ssg69
g389
sg62
(lp396
S'path'
p397
asbag55
(g76
g57
NtRp398
(dp399
g60
(dp400
g87
g88
ssg69
g389
sg62
(lp401
S':'
asbag55
(g76
g57
NtRp402
(dp403
g60
(dp404
sg69
g389
sg62
(lp405
g55
(g56
g57
NtRp406
(dp407
g60
(dp408
g68
I3
ssg69
g402
sg62
(lp409
S''
asbasbasbag55
(g71
g57
NtRp410
(dp411
g60
(dp412
sg69
g280
sg62
(lp413
g55
(g76
g57
NtRp414
(dp415
g60
(dp416
g80
g81
ssg69
g410
sg62
(lp417
S'secure'
p418
asbag55
(g76
g57
NtRp419
(dp420
g60
(dp421
g87
g88
ssg69
g410
sg62
(lp422
S':'
asbag55
(g76
g57
NtRp423
(dp424
g60
(dp425
sg69
g410
sg62
(lp426
g55
(g56
g57
NtRp427
(dp428
g60
(dp429
g68
I3
ssg69
g423
sg62
(lp430
S''
asbasbasbag55
(g71
g57
NtRp431
(dp432
g60
(dp433
sg69
g280
sg62
(lp434
g55
(g76
g57
NtRp435
(dp436
g60
(dp437
g80
g81
ssg69
g431
sg62
(lp438
S'version'
p439
asbag55
(g76
g57
NtRp440
(dp441
g60
(dp442
g87
g88
ssg69
g431
sg62
(lp443
S':'
asbag55
(g76
g57
NtRp444
(dp445
g60
(dp446
sg69
g431
sg62
(lp447
g55
(g56
g57
NtRp448
(dp449
g60
(dp450
g68
I3
ssg69
g444
sg62
(lp451
S''
asbasbasbasbasbasbasbag55
(g71
g57
NtRp452
(dp453
g60
(dp454
sg69
g254
sg62
(lp455
g55
(g76
g57
NtRp456
(dp457
g60
(dp458
g80
g81
ssg69
g452
sg62
(lp459
S'session_id_admin'
p460
asbag55
(g76
g57
NtRp461
(dp462
g60
(dp463
g87
g88
ssg69
g452
sg62
(lp464
S':'
asbag55
(g76
g57
NtRp465
(dp466
g60
(dp467
sg69
g452
sg62
(lp468
g55
(g56
g57
NtRp469
(dp470
g60
(dp471
g68
I4
ssg69
g465
sg62
(lp472
S'127.0.0.1-eea59e1b-9257-4df1-8c44-da77bf9e4ec2'
p473
ag55
(g64
g57
NtRp474
(dp475
g60
(dp476
g68
I3
ssg69
Nsg62
(lp477
g55
(g71
g57
NtRp478
(dp479
g60
(dp480
sg69
g474
sg62
(lp481
g55
(g76
g57
NtRp482
(dp483
g60
(dp484
g80
g81
ssg69
g478
sg62
(lp485
g292
asbag55
(g76
g57
NtRp486
(dp487
g60
(dp488
g87
g88
ssg69
g478
sg62
(lp489
S':'
asbag55
(g76
g57
NtRp490
(dp491
g60
(dp492
sg69
g478
sg62
(lp493
g55
(g56
g57
NtRp494
(dp495
g60
(dp496
g68
I3
ssg69
g490
sg62
(lp497
S''
asbasbasbag55
(g71
g57
NtRp498
(dp499
g60
(dp500
sg69
g474
sg62
(lp501
g55
(g76
g57
NtRp502
(dp503
g60
(dp504
g80
g81
ssg69
g498
sg62
(lp505
g313
asbag55
(g76
g57
NtRp506
(dp507
g60
(dp508
g87
g88
ssg69
g498
sg62
(lp509
S':'
asbag55
(g76
g57
NtRp510
(dp511
g60
(dp512
sg69
g498
sg62
(lp513
g55
(g56
g57
NtRp514
(dp515
g60
(dp516
g68
I3
ssg69
g510
sg62
(lp517
S''
asbasbasbag55
(g71
g57
NtRp518
(dp519
g60
(dp520
sg69
g474
sg62
(lp521
g55
(g76
g57
NtRp522
(dp523
g60
(dp524
g80
g81
ssg69
g518
sg62
(lp525
g334
asbag55
(g76
g57
NtRp526
(dp527
g60
(dp528
g87
g88
ssg69
g518
sg62
(lp529
S':'
asbag55
(g76
g57
NtRp530
(dp531
g60
(dp532
sg69
g518
sg62
(lp533
g55
(g56
g57
NtRp534
(dp535
g60
(dp536
g68
I3
ssg69
g530
sg62
(lp537
S''
asbasbasbag55
(g71
g57
NtRp538
(dp539
g60
(dp540
sg69
g474
sg62
(lp541
g55
(g76
g57
NtRp542
(dp543
g60
(dp544
g80
g81
ssg69
g538
sg62
(lp545
g355
asbag55
(g76
g57
NtRp546
(dp547
g60
(dp548
g87
g88
ssg69
g538
sg62
(lp549
S':'
asbag55
(g76
g57
NtRp550
(dp551
g60
(dp552
sg69
g538
sg62
(lp553
g55
(g56
g57
NtRp554
(dp555
g60
(dp556
g68
I3
ssg69
g550
sg62
(lp557
S''
asbasbasbag55
(g71
g57
NtRp558
(dp559
g60
(dp560
sg69
g474
sg62
(lp561
g55
(g76
g57
NtRp562
(dp563
g60
(dp564
g80
g81
ssg69
g558
sg62
(lp565
g376
asbag55
(g76
g57
NtRp566
(dp567
g60
(dp568
g87
g88
ssg69
g558
sg62
(lp569
S':'
asbag55
(g76
g57
NtRp570
(dp571
g60
(dp572
sg69
g558
sg62
(lp573
g55
(g56
g57
NtRp574
(dp575
g60
(dp576
g68
I3
ssg69
g570
sg62
(lp577
S''
asbasbasbag55
(g71
g57
NtRp578
(dp579
g60
(dp580
sg69
g474
sg62
(lp581
g55
(g76
g57
NtRp582
(dp583
g60
(dp584
g80
g81
ssg69
g578
sg62
(lp585
g397
asbag55
(g76
g57
NtRp586
(dp587
g60
(dp588
g87
g88
ssg69
g578
sg62
(lp589
S':'
asbag55
(g76
g57
NtRp590
(dp591
g60
(dp592
sg69
g578
sg62
(lp593
g55
(g56
g57
NtRp594
(dp595
g60
(dp596
g68
I3
ssg69
g590
sg62
(lp597
S''
asbasbasbag55
(g71
g57
NtRp598
(dp599
g60
(dp600
sg69
g474
sg62
(lp601
g55
(g76
g57
NtRp602
(dp603
g60
(dp604
g80
g81
ssg69
g598
sg62
(lp605
g418
asbag55
(g76
g57
NtRp606
(dp607
g60
(dp608
g87
g88
ssg69
g598
sg62
(lp609
S':'
asbag55
(g76
g57
NtRp610
(dp611
g60
(dp612
sg69
g598
sg62
(lp613
g55
(g56
g57
NtRp614
(dp615
g60
(dp616
g68
I3
ssg69
g610
sg62
(lp617
S''
asbasbasbag55
(g71
g57
NtRp618
(dp619
g60
(dp620
sg69
g474
sg62
(lp621
g55
(g76
g57
NtRp622
(dp623
g60
(dp624
g80
g81
ssg69
g618
sg62
(lp625
g439
asbag55
(g76
g57
NtRp626
(dp627
g60
(dp628
g87
g88
ssg69
g618
sg62
(lp629
S':'
asbag55
(g76
g57
NtRp630
(dp631
g60
(dp632
sg69
g618
sg62
(lp633
g55
(g56
g57
NtRp634
(dp635
g60
(dp636
g68
I3
ssg69
g630
sg62
(lp637
S''
asbasbasbasbasbasbasbag55
(g71
g57
NtRp638
(dp639
g60
(dp640
sg69
g254
sg62
(lp641
g55
(g76
g57
NtRp642
(dp643
g60
(dp644
g80
g81
ssg69
g638
sg62
(lp645
S'session_id_arihant'
p646
asbag55
(g76
g57
NtRp647
(dp648
g60
(dp649
g87
g88
ssg69
g638
sg62
(lp650
S':'
asbag55
(g76
g57
NtRp651
(dp652
g60
(dp653
sg69
g638
sg62
(lp654
g55
(g56
g57
NtRp655
(dp656
g60
(dp657
g68
I4
ssg69
g651
sg62
(lp658
S'127.0.0.1-fa99deb6-5977-491c-864a-b5d79c0d1842'
p659
ag55
(g64
g57
NtRp660
(dp661
g60
(dp662
g68
I3
ssg69
Nsg62
(lp663
g55
(g71
g57
NtRp664
(dp665
g60
(dp666
sg69
g660
sg62
(lp667
g55
(g76
g57
NtRp668
(dp669
g60
(dp670
g80
g81
ssg69
g664
sg62
(lp671
g292
asbag55
(g76
g57
NtRp672
(dp673
g60
(dp674
g87
g88
ssg69
g664
sg62
(lp675
S':'
asbag55
(g76
g57
NtRp676
(dp677
g60
(dp678
sg69
g664
sg62
(lp679
g55
(g56
g57
NtRp680
(dp681
g60
(dp682
g68
I3
ssg69
g676
sg62
(lp683
S''
asbasbasbag55
(g71
g57
NtRp684
(dp685
g60
(dp686
sg69
g660
sg62
(lp687
g55
(g76
g57
NtRp688
(dp689
g60
(dp690
g80
g81
ssg69
g684
sg62
(lp691
g313
asbag55
(g76
g57
NtRp692
(dp693
g60
(dp694
g87
g88
ssg69
g684
sg62
(lp695
S':'
asbag55
(g76
g57
NtRp696
(dp697
g60
(dp698
sg69
g684
sg62
(lp699
g55
(g56
g57
NtRp700
(dp701
g60
(dp702
g68
I3
ssg69
g696
sg62
(lp703
S''
asbasbasbag55
(g71
g57
NtRp704
(dp705
g60
(dp706
sg69
g660
sg62
(lp707
g55
(g76
g57
NtRp708
(dp709
g60
(dp710
g80
g81
ssg69
g704
sg62
(lp711
g334
asbag55
(g76
g57
NtRp712
(dp713
g60
(dp714
g87
g88
ssg69
g704
sg62
(lp715
S':'
asbag55
(g76
g57
NtRp716
(dp717
g60
(dp718
sg69
g704
sg62
(lp719
g55
(g56
g57
NtRp720
(dp721
g60
(dp722
g68
I3
ssg69
g716
sg62
(lp723
S''
asbasbasbag55
(g71
g57
NtRp724
(dp725
g60
(dp726
sg69
g660
sg62
(lp727
g55
(g76
g57
NtRp728
(dp729
g60
(dp730
g80
g81
ssg69
g724
sg62
(lp731
g355
asbag55
(g76
g57
NtRp732
(dp733
g60
(dp734
g87
g88
ssg69
g724
sg62
(lp735
S':'
asbag55
(g76
g57
NtRp736
(dp737
g60
(dp738
sg69
g724
sg62
(lp739
g55
(g56
g57
NtRp740
(dp741
g60
(dp742
g68
I3
ssg69
g736
sg62
(lp743
S''
asbasbasbag55
(g71
g57
NtRp744
(dp745
g60
(dp746
sg69
g660
sg62
(lp747
g55
(g76
g57
NtRp748
(dp749
g60
(dp750
g80
g81
ssg69
g744
sg62
(lp751
g376
asbag55
(g76
g57
NtRp752
(dp753
g60
(dp754
g87
g88
ssg69
g744
sg62
(lp755
S':'
asbag55
(g76
g57
NtRp756
(dp757
g60
(dp758
sg69
g744
sg62
(lp759
g55
(g56
g57
NtRp760
(dp761
g60
(dp762
g68
I3
ssg69
g756
sg62
(lp763
S''
asbasbasbag55
(g71
g57
NtRp764
(dp765
g60
(dp766
sg69
g660
sg62
(lp767
g55
(g76
g57
NtRp768
(dp769
g60
(dp770
g80
g81
ssg69
g764
sg62
(lp771
g397
asbag55
(g76
g57
NtRp772
(dp773
g60
(dp774
g87
g88
ssg69
g764
sg62
(lp775
S':'
asbag55
(g76
g57
NtRp776
(dp777
g60
(dp778
sg69
g764
sg62
(lp779
g55
(g56
g57
NtRp780
(dp781
g60
(dp782
g68
I3
ssg69
g776
sg62
(lp783
S''
asbasbasbag55
(g71
g57
NtRp784
(dp785
g60
(dp786
sg69
g660
sg62
(lp787
g55
(g76
g57
NtRp788
(dp789
g60
(dp790
g80
g81
ssg69
g784
sg62
(lp791
g418
asbag55
(g76
g57
NtRp792
(dp793
g60
(dp794
g87
g88
ssg69
g784
sg62
(lp795
S':'
asbag55
(g76
g57
NtRp796
(dp797
g60
(dp798
sg69
g784
sg62
(lp799
g55
(g56
g57
NtRp800
(dp801
g60
(dp802
g68
I3
ssg69
g796
sg62
(lp803
S''
asbasbasbag55
(g71
g57
NtRp804
(dp805
g60
(dp806
sg69
g660
sg62
(lp807
g55
(g76
g57
NtRp808
(dp809
g60
(dp810
g80
g81
ssg69
g804
sg62
(lp811
g439
asbag55
(g76
g57
NtRp812
(dp813
g60
(dp814
g87
g88
ssg69
g804
sg62
(lp815
S':'
asbag55
(g76
g57
NtRp816
(dp817
g60
(dp818
sg69
g804
sg62
(lp819
g55
(g56
g57
NtRp820
(dp821
g60
(dp822
g68
I3
ssg69
g816
sg62
(lp823
S''
asbasbasbasbasbasbasbag55
(g71
g57
NtRp824
(dp825
g60
(dp826
sg69
g254
sg62
(lp827
g55
(g76
g57
NtRp828
(dp829
g60
(dp830
g80
g81
ssg69
g824
sg62
(lp831
S'session_id_cataminder'
p832
asbag55
(g76
g57
NtRp833
(dp834
g60
(dp835
g87
g88
ssg69
g824
sg62
(lp836
S':'
asbag55
(g76
g57
NtRp837
(dp838
g60
(dp839
sg69
g824
sg62
(lp840
g55
(g56
g57
NtRp841
(dp842
g60
(dp843
g68
I4
ssg69
g837
sg62
(lp844
S'127.0.0.1-81b628a7-34a5-4e70-a95c-79ef710dcdbb'
p845
ag55
(g64
g57
NtRp846
(dp847
g60
(dp848
g68
I3
ssg69
Nsg62
(lp849
g55
(g71
g57
NtRp850
(dp851
g60
(dp852
sg69
g846
sg62
(lp853
g55
(g76
g57
NtRp854
(dp855
g60
(dp856
g80
g81
ssg69
g850
sg62
(lp857
g292
asbag55
(g76
g57
NtRp858
(dp859
g60
(dp860
g87
g88
ssg69
g850
sg62
(lp861
S':'
asbag55
(g76
g57
NtRp862
(dp863
g60
(dp864
sg69
g850
sg62
(lp865
g55
(g56
g57
NtRp866
(dp867
g60
(dp868
g68
I3
ssg69
g862
sg62
(lp869
S''
asbasbasbag55
(g71
g57
NtRp870
(dp871
g60
(dp872
sg69
g846
sg62
(lp873
g55
(g76
g57
NtRp874
(dp875
g60
(dp876
g80
g81
ssg69
g870
sg62
(lp877
g313
asbag55
(g76
g57
NtRp878
(dp879
g60
(dp880
g87
g88
ssg69
g870
sg62
(lp881
S':'
asbag55
(g76
g57
NtRp882
(dp883
g60
(dp884
sg69
g870
sg62
(lp885
g55
(g56
g57
NtRp886
(dp887
g60
(dp888
g68
I3
ssg69
g882
sg62
(lp889
S''
asbasbasbag55
(g71
g57
NtRp890
(dp891
g60
(dp892
sg69
g846
sg62
(lp893
g55
(g76
g57
NtRp894
(dp895
g60
(dp896
g80
g81
ssg69
g890
sg62
(lp897
g334
asbag55
(g76
g57
NtRp898
(dp899
g60
(dp900
g87
g88
ssg69
g890
sg62
(lp901
S':'
asbag55
(g76
g57
NtRp902
(dp903
g60
(dp904
sg69
g890
sg62
(lp905
g55
(g56
g57
NtRp906
(dp907
g60
(dp908
g68
I3
ssg69
g902
sg62
(lp909
S''
asbasbasbag55
(g71
g57
NtRp910
(dp911
g60
(dp912
sg69
g846
sg62
(lp913
g55
(g76
g57
NtRp914
(dp915
g60
(dp916
g80
g81
ssg69
g910
sg62
(lp917
g355
asbag55
(g76
g57
NtRp918
(dp919
g60
(dp920
g87
g88
ssg69
g910
sg62
(lp921
S':'
asbag55
(g76
g57
NtRp922
(dp923
g60
(dp924
sg69
g910
sg62
(lp925
g55
(g56
g57
NtRp926
(dp927
g60
(dp928
g68
I3
ssg69
g922
sg62
(lp929
S''
asbasbasbag55
(g71
g57
NtRp930
(dp931
g60
(dp932
sg69
g846
sg62
(lp933
g55
(g76
g57
NtRp934
(dp935
g60
(dp936
g80
g81
ssg69
g930
sg62
(lp937
g376
asbag55
(g76
g57
NtRp938
(dp939
g60
(dp940
g87
g88
ssg69
g930
sg62
(lp941
S':'
asbag55
(g76
g57
NtRp942
(dp943
g60
(dp944
sg69
g930
sg62
(lp945
g55
(g56
g57
NtRp946
(dp947
g60
(dp948
g68
I3
ssg69
g942
sg62
(lp949
S''
asbasbasbag55
(g71
g57
NtRp950
(dp951
g60
(dp952
sg69
g846
sg62
(lp953
g55
(g76
g57
NtRp954
(dp955
g60
(dp956
g80
g81
ssg69
g950
sg62
(lp957
g397
asbag55
(g76
g57
NtRp958
(dp959
g60
(dp960
g87
g88
ssg69
g950
sg62
(lp961
S':'
asbag55
(g76
g57
NtRp962
(dp963
g60
(dp964
sg69
g950
sg62
(lp965
g55
(g56
g57
NtRp966
(dp967
g60
(dp968
g68
I3
ssg69
g962
sg62
(lp969
S''
asbasbasbag55
(g71
g57
NtRp970
(dp971
g60
(dp972
sg69
g846
sg62
(lp973
g55
(g76
g57
NtRp974
(dp975
g60
(dp976
g80
g81
ssg69
g970
sg62
(lp977
g418
asbag55
(g76
g57
NtRp978
(dp979
g60
(dp980
g87
g88
ssg69
g970
sg62
(lp981
S':'
asbag55
(g76
g57
NtRp982
(dp983
g60
(dp984
sg69
g970
sg62
(lp985
g55
(g56
g57
NtRp986
(dp987
g60
(dp988
g68
I3
ssg69
g982
sg62
(lp989
S''
asbasbasbag55
(g71
g57
NtRp990
(dp991
g60
(dp992
sg69
g846
sg62
(lp993
g55
(g76
g57
NtRp994
(dp995
g60
(dp996
g80
g81
ssg69
g990
sg62
(lp997
g439
asbag55
(g76
g57
NtRp998
(dp999
g60
(dp1000
g87
g88
ssg69
g990
sg62
(lp1001
S':'
asbag55
(g76
g57
NtRp1002
(dp1003
g60
(dp1004
sg69
g990
sg62
(lp1005
g55
(g56
g57
NtRp1006
(dp1007
g60
(dp1008
g68
I3
ssg69
g1002
sg62
(lp1009
S''
asbasbasbasbasbasbasbag55
(g71
g57
NtRp1010
(dp1011
g60
(dp1012
sg69
g254
sg62
(lp1013
g55
(g76
g57
NtRp1014
(dp1015
g60
(dp1016
g80
g81
ssg69
g1010
sg62
(lp1017
S'session_id_courses'
p1018
asbag55
(g76
g57
NtRp1019
(dp1020
g60
(dp1021
g87
g88
ssg69
g1010
sg62
(lp1022
S':'
asbag55
(g76
g57
NtRp1023
(dp1024
g60
(dp1025
sg69
g1010
sg62
(lp1026
g55
(g56
g57
NtRp1027
(dp1028
g60
(dp1029
g68
I4
ssg69
g1023
sg62
(lp1030
S'127.0.0.1-1d46c4eb-fdfc-4abb-bb62-6bcf52d1fcaa'
p1031
ag55
(g64
g57
NtRp1032
(dp1033
g60
(dp1034
g68
I3
ssg69
Nsg62
(lp1035
g55
(g71
g57
NtRp1036
(dp1037
g60
(dp1038
sg69
g1032
sg62
(lp1039
g55
(g76
g57
NtRp1040
(dp1041
g60
(dp1042
g80
g81
ssg69
g1036
sg62
(lp1043
g292
asbag55
(g76
g57
NtRp1044
(dp1045
g60
(dp1046
g87
g88
ssg69
g1036
sg62
(lp1047
S':'
asbag55
(g76
g57
NtRp1048
(dp1049
g60
(dp1050
sg69
g1036
sg62
(lp1051
g55
(g56
g57
NtRp1052
(dp1053
g60
(dp1054
g68
I3
ssg69
g1048
sg62
(lp1055
S''
asbasbasbag55
(g71
g57
NtRp1056
(dp1057
g60
(dp1058
sg69
g1032
sg62
(lp1059
g55
(g76
g57
NtRp1060
(dp1061
g60
(dp1062
g80
g81
ssg69
g1056
sg62
(lp1063
g313
asbag55
(g76
g57
NtRp1064
(dp1065
g60
(dp1066
g87
g88
ssg69
g1056
sg62
(lp1067
S':'
asbag55
(g76
g57
NtRp1068
(dp1069
g60
(dp1070
sg69
g1056
sg62
(lp1071
g55
(g56
g57
NtRp1072
(dp1073
g60
(dp1074
g68
I3
ssg69
g1068
sg62
(lp1075
S''
asbasbasbag55
(g71
g57
NtRp1076
(dp1077
g60
(dp1078
sg69
g1032
sg62
(lp1079
g55
(g76
g57
NtRp1080
(dp1081
g60
(dp1082
g80
g81
ssg69
g1076
sg62
(lp1083
g334
asbag55
(g76
g57
NtRp1084
(dp1085
g60
(dp1086
g87
g88
ssg69
g1076
sg62
(lp1087
S':'
asbag55
(g76
g57
NtRp1088
(dp1089
g60
(dp1090
sg69
g1076
sg62
(lp1091
g55
(g56
g57
NtRp1092
(dp1093
g60
(dp1094
g68
I3
ssg69
g1088
sg62
(lp1095
S''
asbasbasbag55
(g71
g57
NtRp1096
(dp1097
g60
(dp1098
sg69
g1032
sg62
(lp1099
g55
(g76
g57
NtRp1100
(dp1101
g60
(dp1102
g80
g81
ssg69
g1096
sg62
(lp1103
g355
asbag55
(g76
g57
NtRp1104
(dp1105
g60
(dp1106
g87
g88
ssg69
g1096
sg62
(lp1107
S':'
asbag55
(g76
g57
NtRp1108
(dp1109
g60
(dp1110
sg69
g1096
sg62
(lp1111
g55
(g56
g57
NtRp1112
(dp1113
g60
(dp1114
g68
I3
ssg69
g1108
sg62
(lp1115
S''
asbasbasbag55
(g71
g57
NtRp1116
(dp1117
g60
(dp1118
sg69
g1032
sg62
(lp1119
g55
(g76
g57
NtRp1120
(dp1121
g60
(dp1122
g80
g81
ssg69
g1116
sg62
(lp1123
g376
asbag55
(g76
g57
NtRp1124
(dp1125
g60
(dp1126
g87
g88
ssg69
g1116
sg62
(lp1127
S':'
asbag55
(g76
g57
NtRp1128
(dp1129
g60
(dp1130
sg69
g1116
sg62
(lp1131
g55
(g56
g57
NtRp1132
(dp1133
g60
(dp1134
g68
I3
ssg69
g1128
sg62
(lp1135
S''
asbasbasbag55
(g71
g57
NtRp1136
(dp1137
g60
(dp1138
sg69
g1032
sg62
(lp1139
g55
(g76
g57
NtRp1140
(dp1141
g60
(dp1142
g80
g81
ssg69
g1136
sg62
(lp1143
g397
asbag55
(g76
g57
NtRp1144
(dp1145
g60
(dp1146
g87
g88
ssg69
g1136
sg62
(lp1147
S':'
asbag55
(g76
g57
NtRp1148
(dp1149
g60
(dp1150
sg69
g1136
sg62
(lp1151
g55
(g56
g57
NtRp1152
(dp1153
g60
(dp1154
g68
I3
ssg69
g1148
sg62
(lp1155
S''
asbasbasbag55
(g71
g57
NtRp1156
(dp1157
g60
(dp1158
sg69
g1032
sg62
(lp1159
g55
(g76
g57
NtRp1160
(dp1161
g60
(dp1162
g80
g81
ssg69
g1156
sg62
(lp1163
g418
asbag55
(g76
g57
NtRp1164
(dp1165
g60
(dp1166
g87
g88
ssg69
g1156
sg62
(lp1167
S':'
asbag55
(g76
g57
NtRp1168
(dp1169
g60
(dp1170
sg69
g1156
sg62
(lp1171
g55
(g56
g57
NtRp1172
(dp1173
g60
(dp1174
g68
I3
ssg69
g1168
sg62
(lp1175
S''
asbasbasbag55
(g71
g57
NtRp1176
(dp1177
g60
(dp1178
sg69
g1032
sg62
(lp1179
g55
(g76
g57
NtRp1180
(dp1181
g60
(dp1182
g80
g81
ssg69
g1176
sg62
(lp1183
g439
asbag55
(g76
g57
NtRp1184
(dp1185
g60
(dp1186
g87
g88
ssg69
g1176
sg62
(lp1187
S':'
asbag55
(g76
g57
NtRp1188
(dp1189
g60
(dp1190
sg69
g1176
sg62
(lp1191
g55
(g56
g57
NtRp1192
(dp1193
g60
(dp1194
g68
I3
ssg69
g1188
sg62
(lp1195
S''
asbasbasbasbasbasbasbag55
(g71
g57
NtRp1196
(dp1197
g60
(dp1198
sg69
g254
sg62
(lp1199
g55
(g76
g57
NtRp1200
(dp1201
g60
(dp1202
g80
g81
ssg69
g1196
sg62
(lp1203
S'session_id_iiit_fb'
p1204
asbag55
(g76
g57
NtRp1205
(dp1206
g60
(dp1207
g87
g88
ssg69
g1196
sg62
(lp1208
S':'
asbag55
(g76
g57
NtRp1209
(dp1210
g60
(dp1211
sg69
g1196
sg62
(lp1212
g55
(g56
g57
NtRp1213
(dp1214
g60
(dp1215
g68
I4
ssg69
g1209
sg62
(lp1216
S'127.0.0.1-04b7df24-4720-4bb5-98de-96b98776240d'
p1217
ag55
(g64
g57
NtRp1218
(dp1219
g60
(dp1220
g68
I3
ssg69
Nsg62
(lp1221
g55
(g71
g57
NtRp1222
(dp1223
g60
(dp1224
sg69
g1218
sg62
(lp1225
g55
(g76
g57
NtRp1226
(dp1227
g60
(dp1228
g80
g81
ssg69
g1222
sg62
(lp1229
g292
asbag55
(g76
g57
NtRp1230
(dp1231
g60
(dp1232
g87
g88
ssg69
g1222
sg62
(lp1233
S':'
asbag55
(g76
g57
NtRp1234
(dp1235
g60
(dp1236
sg69
g1222
sg62
(lp1237
g55
(g56
g57
NtRp1238
(dp1239
g60
(dp1240
g68
I3
ssg69
g1234
sg62
(lp1241
S''
asbasbasbag55
(g71
g57
NtRp1242
(dp1243
g60
(dp1244
sg69
g1218
sg62
(lp1245
g55
(g76
g57
NtRp1246
(dp1247
g60
(dp1248
g80
g81
ssg69
g1242
sg62
(lp1249
g313
asbag55
(g76
g57
NtRp1250
(dp1251
g60
(dp1252
g87
g88
ssg69
g1242
sg62
(lp1253
S':'
asbag55
(g76
g57
NtRp1254
(dp1255
g60
(dp1256
sg69
g1242
sg62
(lp1257
g55
(g56
g57
NtRp1258
(dp1259
g60
(dp1260
g68
I3
ssg69
g1254
sg62
(lp1261
S''
asbasbasbag55
(g71
g57
NtRp1262
(dp1263
g60
(dp1264
sg69
g1218
sg62
(lp1265
g55
(g76
g57
NtRp1266
(dp1267
g60
(dp1268
g80
g81
ssg69
g1262
sg62
(lp1269
g334
asbag55
(g76
g57
NtRp1270
(dp1271
g60
(dp1272
g87
g88
ssg69
g1262
sg62
(lp1273
S':'
asbag55
(g76
g57
NtRp1274
(dp1275
g60
(dp1276
sg69
g1262
sg62
(lp1277
g55
(g56
g57
NtRp1278
(dp1279
g60
(dp1280
g68
I3
ssg69
g1274
sg62
(lp1281
S''
asbasbasbag55
(g71
g57
NtRp1282
(dp1283
g60
(dp1284
sg69
g1218
sg62
(lp1285
g55
(g76
g57
NtRp1286
(dp1287
g60
(dp1288
g80
g81
ssg69
g1282
sg62
(lp1289
g355
asbag55
(g76
g57
NtRp1290
(dp1291
g60
(dp1292
g87
g88
ssg69
g1282
sg62
(lp1293
S':'
asbag55
(g76
g57
NtRp1294
(dp1295
g60
(dp1296
sg69
g1282
sg62
(lp1297
g55
(g56
g57
NtRp1298
(dp1299
g60
(dp1300
g68
I3
ssg69
g1294
sg62
(lp1301
S''
asbasbasbag55
(g71
g57
NtRp1302
(dp1303
g60
(dp1304
sg69
g1218
sg62
(lp1305
g55
(g76
g57
NtRp1306
(dp1307
g60
(dp1308
g80
g81
ssg69
g1302
sg62
(lp1309
g376
asbag55
(g76
g57
NtRp1310
(dp1311
g60
(dp1312
g87
g88
ssg69
g1302
sg62
(lp1313
S':'
asbag55
(g76
g57
NtRp1314
(dp1315
g60
(dp1316
sg69
g1302
sg62
(lp1317
g55
(g56
g57
NtRp1318
(dp1319
g60
(dp1320
g68
I3
ssg69
g1314
sg62
(lp1321
S''
asbasbasbag55
(g71
g57
NtRp1322
(dp1323
g60
(dp1324
sg69
g1218
sg62
(lp1325
g55
(g76
g57
NtRp1326
(dp1327
g60
(dp1328
g80
g81
ssg69
g1322
sg62
(lp1329
g397
asbag55
(g76
g57
NtRp1330
(dp1331
g60
(dp1332
g87
g88
ssg69
g1322
sg62
(lp1333
S':'
asbag55
(g76
g57
NtRp1334
(dp1335
g60
(dp1336
sg69
g1322
sg62
(lp1337
g55
(g56
g57
NtRp1338
(dp1339
g60
(dp1340
g68
I3
ssg69
g1334
sg62
(lp1341
S''
asbasbasbag55
(g71
g57
NtRp1342
(dp1343
g60
(dp1344
sg69
g1218
sg62
(lp1345
g55
(g76
g57
NtRp1346
(dp1347
g60
(dp1348
g80
g81
ssg69
g1342
sg62
(lp1349
g418
asbag55
(g76
g57
NtRp1350
(dp1351
g60
(dp1352
g87
g88
ssg69
g1342
sg62
(lp1353
S':'
asbag55
(g76
g57
NtRp1354
(dp1355
g60
(dp1356
sg69
g1342
sg62
(lp1357
g55
(g56
g57
NtRp1358
(dp1359
g60
(dp1360
g68
I3
ssg69
g1354
sg62
(lp1361
S''
asbasbasbag55
(g71
g57
NtRp1362
(dp1363
g60
(dp1364
sg69
g1218
sg62
(lp1365
g55
(g76
g57
NtRp1366
(dp1367
g60
(dp1368
g80
g81
ssg69
g1362
sg62
(lp1369
g439
asbag55
(g76
g57
NtRp1370
(dp1371
g60
(dp1372
g87
g88
ssg69
g1362
sg62
(lp1373
S':'
asbag55
(g76
g57
NtRp1374
(dp1375
g60
(dp1376
sg69
g1362
sg62
(lp1377
g55
(g56
g57
NtRp1378
(dp1379
g60
(dp1380
g68
I3
ssg69
g1374
sg62
(lp1381
S''
asbasbasbasbasbasbasbag55
(g71
g57
NtRp1382
(dp1383
g60
(dp1384
sg69
g254
sg62
(lp1385
g55
(g76
g57
NtRp1386
(dp1387
g60
(dp1388
g80
g81
ssg69
g1382
sg62
(lp1389
S'session_id_myapp'
p1390
asbag55
(g76
g57
NtRp1391
(dp1392
g60
(dp1393
g87
g88
ssg69
g1382
sg62
(lp1394
S':'
asbag55
(g76
g57
NtRp1395
(dp1396
g60
(dp1397
sg69
g1382
sg62
(lp1398
g55
(g56
g57
NtRp1399
(dp1400
g60
(dp1401
g68
I4
ssg69
g1395
sg62
(lp1402
S'127.0.0.1-f28af7a6-9d1e-4a86-bd34-27605492a231'
p1403
ag55
(g64
g57
NtRp1404
(dp1405
g60
(dp1406
g68
I3
ssg69
Nsg62
(lp1407
g55
(g71
g57
NtRp1408
(dp1409
g60
(dp1410
sg69
g1404
sg62
(lp1411
g55
(g76
g57
NtRp1412
(dp1413
g60
(dp1414
g80
g81
ssg69
g1408
sg62
(lp1415
g292
asbag55
(g76
g57
NtRp1416
(dp1417
g60
(dp1418
g87
g88
ssg69
g1408
sg62
(lp1419
S':'
asbag55
(g76
g57
NtRp1420
(dp1421
g60
(dp1422
sg69
g1408
sg62
(lp1423
g55
(g56
g57
NtRp1424
(dp1425
g60
(dp1426
g68
I3
ssg69
g1420
sg62
(lp1427
S''
asbasbasbag55
(g71
g57
NtRp1428
(dp1429
g60
(dp1430
sg69
g1404
sg62
(lp1431
g55
(g76
g57
NtRp1432
(dp1433
g60
(dp1434
g80
g81
ssg69
g1428
sg62
(lp1435
g313
asbag55
(g76
g57
NtRp1436
(dp1437
g60
(dp1438
g87
g88
ssg69
g1428
sg62
(lp1439
S':'
asbag55
(g76
g57
NtRp1440
(dp1441
g60
(dp1442
sg69
g1428
sg62
(lp1443
g55
(g56
g57
NtRp1444
(dp1445
g60
(dp1446
g68
I3
ssg69
g1440
sg62
(lp1447
S''
asbasbasbag55
(g71
g57
NtRp1448
(dp1449
g60
(dp1450
sg69
g1404
sg62
(lp1451
g55
(g76
g57
NtRp1452
(dp1453
g60
(dp1454
g80
g81
ssg69
g1448
sg62
(lp1455
g334
asbag55
(g76
g57
NtRp1456
(dp1457
g60
(dp1458
g87
g88
ssg69
g1448
sg62
(lp1459
S':'
asbag55
(g76
g57
NtRp1460
(dp1461
g60
(dp1462
sg69
g1448
sg62
(lp1463
g55
(g56
g57
NtRp1464
(dp1465
g60
(dp1466
g68
I3
ssg69
g1460
sg62
(lp1467
S''
asbasbasbag55
(g71
g57
NtRp1468
(dp1469
g60
(dp1470
sg69
g1404
sg62
(lp1471
g55
(g76
g57
NtRp1472
(dp1473
g60
(dp1474
g80
g81
ssg69
g1468
sg62
(lp1475
g355
asbag55
(g76
g57
NtRp1476
(dp1477
g60
(dp1478
g87
g88
ssg69
g1468
sg62
(lp1479
S':'
asbag55
(g76
g57
NtRp1480
(dp1481
g60
(dp1482
sg69
g1468
sg62
(lp1483
g55
(g56
g57
NtRp1484
(dp1485
g60
(dp1486
g68
I3
ssg69
g1480
sg62
(lp1487
S''
asbasbasbag55
(g71
g57
NtRp1488
(dp1489
g60
(dp1490
sg69
g1404
sg62
(lp1491
g55
(g76
g57
NtRp1492
(dp1493
g60
(dp1494
g80
g81
ssg69
g1488
sg62
(lp1495
g376
asbag55
(g76
g57
NtRp1496
(dp1497
g60
(dp1498
g87
g88
ssg69
g1488
sg62
(lp1499
S':'
asbag55
(g76
g57
NtRp1500
(dp1501
g60
(dp1502
sg69
g1488
sg62
(lp1503
g55
(g56
g57
NtRp1504
(dp1505
g60
(dp1506
g68
I3
ssg69
g1500
sg62
(lp1507
S''
asbasbasbag55
(g71
g57
NtRp1508
(dp1509
g60
(dp1510
sg69
g1404
sg62
(lp1511
g55
(g76
g57
NtRp1512
(dp1513
g60
(dp1514
g80
g81
ssg69
g1508
sg62
(lp1515
g397
asbag55
(g76
g57
NtRp1516
(dp1517
g60
(dp1518
g87
g88
ssg69
g1508
sg62
(lp1519
S':'
asbag55
(g76
g57
NtRp1520
(dp1521
g60
(dp1522
sg69
g1508
sg62
(lp1523
g55
(g56
g57
NtRp1524
(dp1525
g60
(dp1526
g68
I3
ssg69
g1520
sg62
(lp1527
S''
asbasbasbag55
(g71
g57
NtRp1528
(dp1529
g60
(dp1530
sg69
g1404
sg62
(lp1531
g55
(g76
g57
NtRp1532
(dp1533
g60
(dp1534
g80
g81
ssg69
g1528
sg62
(lp1535
g418
asbag55
(g76
g57
NtRp1536
(dp1537
g60
(dp1538
g87
g88
ssg69
g1528
sg62
(lp1539
S':'
asbag55
(g76
g57
NtRp1540
(dp1541
g60
(dp1542
sg69
g1528
sg62
(lp1543
g55
(g56
g57
NtRp1544
(dp1545
g60
(dp1546
g68
I3
ssg69
g1540
sg62
(lp1547
S''
asbasbasbag55
(g71
g57
NtRp1548
(dp1549
g60
(dp1550
sg69
g1404
sg62
(lp1551
g55
(g76
g57
NtRp1552
(dp1553
g60
(dp1554
g80
g81
ssg69
g1548
sg62
(lp1555
g439
asbag55
(g76
g57
NtRp1556
(dp1557
g60
(dp1558
g87
g88
ssg69
g1548
sg62
(lp1559
S':'
asbag55
(g76
g57
NtRp1560
(dp1561
g60
(dp1562
sg69
g1548
sg62
(lp1563
g55
(g56
g57
NtRp1564
(dp1565
g60
(dp1566
g68
I3
ssg69
g1560
sg62
(lp1567
S''
asbasbasbasbasbasbasbag55
(g71
g57
NtRp1568
(dp1569
g60
(dp1570
sg69
g254
sg62
(lp1571
g55
(g76
g57
NtRp1572
(dp1573
g60
(dp1574
g80
g81
ssg69
g1568
sg62
(lp1575
S'session_id_project'
p1576
asbag55
(g76
g57
NtRp1577
(dp1578
g60
(dp1579
g87
g88
ssg69
g1568
sg62
(lp1580
S':'
asbag55
(g76
g57
NtRp1581
(dp1582
g60
(dp1583
sg69
g1568
sg62
(lp1584
g55
(g56
g57
NtRp1585
(dp1586
g60
(dp1587
g68
I4
ssg69
g1581
sg62
(lp1588
S'127.0.0.1-029ca61b-f875-404a-b7ff-1634c44ab767'
p1589
ag55
(g64
g57
NtRp1590
(dp1591
g60
(dp1592
g68
I3
ssg69
Nsg62
(lp1593
g55
(g71
g57
NtRp1594
(dp1595
g60
(dp1596
sg69
g1590
sg62
(lp1597
g55
(g76
g57
NtRp1598
(dp1599
g60
(dp1600
g80
g81
ssg69
g1594
sg62
(lp1601
g292
asbag55
(g76
g57
NtRp1602
(dp1603
g60
(dp1604
g87
g88
ssg69
g1594
sg62
(lp1605
S':'
asbag55
(g76
g57
NtRp1606
(dp1607
g60
(dp1608
sg69
g1594
sg62
(lp1609
g55
(g56
g57
NtRp1610
(dp1611
g60
(dp1612
g68
I3
ssg69
g1606
sg62
(lp1613
S''
asbasbasbag55
(g71
g57
NtRp1614
(dp1615
g60
(dp1616
sg69
g1590
sg62
(lp1617
g55
(g76
g57
NtRp1618
(dp1619
g60
(dp1620
g80
g81
ssg69
g1614
sg62
(lp1621
g313
asbag55
(g76
g57
NtRp1622
(dp1623
g60
(dp1624
g87
g88
ssg69
g1614
sg62
(lp1625
S':'
asbag55
(g76
g57
NtRp1626
(dp1627
g60
(dp1628
sg69
g1614
sg62
(lp1629
g55
(g56
g57
NtRp1630
(dp1631
g60
(dp1632
g68
I3
ssg69
g1626
sg62
(lp1633
S''
asbasbasbag55
(g71
g57
NtRp1634
(dp1635
g60
(dp1636
sg69
g1590
sg62
(lp1637
g55
(g76
g57
NtRp1638
(dp1639
g60
(dp1640
g80
g81
ssg69
g1634
sg62
(lp1641
g334
asbag55
(g76
g57
NtRp1642
(dp1643
g60
(dp1644
g87
g88
ssg69
g1634
sg62
(lp1645
S':'
asbag55
(g76
g57
NtRp1646
(dp1647
g60
(dp1648
sg69
g1634
sg62
(lp1649
g55
(g56
g57
NtRp1650
(dp1651
g60
(dp1652
g68
I3
ssg69
g1646
sg62
(lp1653
S''
asbasbasbag55
(g71
g57
NtRp1654
(dp1655
g60
(dp1656
sg69
g1590
sg62
(lp1657
g55
(g76
g57
NtRp1658
(dp1659
g60
(dp1660
g80
g81
ssg69
g1654
sg62
(lp1661
g355
asbag55
(g76
g57
NtRp1662
(dp1663
g60
(dp1664
g87
g88
ssg69
g1654
sg62
(lp1665
S':'
asbag55
(g76
g57
NtRp1666
(dp1667
g60
(dp1668
sg69
g1654
sg62
(lp1669
g55
(g56
g57
NtRp1670
(dp1671
g60
(dp1672
g68
I3
ssg69
g1666
sg62
(lp1673
S''
asbasbasbag55
(g71
g57
NtRp1674
(dp1675
g60
(dp1676
sg69
g1590
sg62
(lp1677
g55
(g76
g57
NtRp1678
(dp1679
g60
(dp1680
g80
g81
ssg69
g1674
sg62
(lp1681
g376
asbag55
(g76
g57
NtRp1682
(dp1683
g60
(dp1684
g87
g88
ssg69
g1674
sg62
(lp1685
S':'
asbag55
(g76
g57
NtRp1686
(dp1687
g60
(dp1688
sg69
g1674
sg62
(lp1689
g55
(g56
g57
NtRp1690
(dp1691
g60
(dp1692
g68
I3
ssg69
g1686
sg62
(lp1693
S''
asbasbasbag55
(g71
g57
NtRp1694
(dp1695
g60
(dp1696
sg69
g1590
sg62
(lp1697
g55
(g76
g57
NtRp1698
(dp1699
g60
(dp1700
g80
g81
ssg69
g1694
sg62
(lp1701
g397
asbag55
(g76
g57
NtRp1702
(dp1703
g60
(dp1704
g87
g88
ssg69
g1694
sg62
(lp1705
S':'
asbag55
(g76
g57
NtRp1706
(dp1707
g60
(dp1708
sg69
g1694
sg62
(lp1709
g55
(g56
g57
NtRp1710
(dp1711
g60
(dp1712
g68
I3
ssg69
g1706
sg62
(lp1713
S''
asbasbasbag55
(g71
g57
NtRp1714
(dp1715
g60
(dp1716
sg69
g1590
sg62
(lp1717
g55
(g76
g57
NtRp1718
(dp1719
g60
(dp1720
g80
g81
ssg69
g1714
sg62
(lp1721
g418
asbag55
(g76
g57
NtRp1722
(dp1723
g60
(dp1724
g87
g88
ssg69
g1714
sg62
(lp1725
S':'
asbag55
(g76
g57
NtRp1726
(dp1727
g60
(dp1728
sg69
g1714
sg62
(lp1729
g55
(g56
g57
NtRp1730
(dp1731
g60
(dp1732
g68
I3
ssg69
g1726
sg62
(lp1733
S''
asbasbasbag55
(g71
g57
NtRp1734
(dp1735
g60
(dp1736
sg69
g1590
sg62
(lp1737
g55
(g76
g57
NtRp1738
(dp1739
g60
(dp1740
g80
g81
ssg69
g1734
sg62
(lp1741
g439
asbag55
(g76
g57
NtRp1742
(dp1743
g60
(dp1744
g87
g88
ssg69
g1734
sg62
(lp1745
S':'
asbag55
(g76
g57
NtRp1746
(dp1747
g60
(dp1748
sg69
g1734
sg62
(lp1749
g55
(g56
g57
NtRp1750
(dp1751
g60
(dp1752
g68
I3
ssg69
g1746
sg62
(lp1753
S''
asbasbasbasbasbasbasbag55
(g71
g57
NtRp1754
(dp1755
g60
(dp1756
sg69
g254
sg62
(lp1757
g55
(g76
g57
NtRp1758
(dp1759
g60
(dp1760
g80
g81
ssg69
g1754
sg62
(lp1761
S'session_id_reddit'
p1762
asbag55
(g76
g57
NtRp1763
(dp1764
g60
(dp1765
g87
g88
ssg69
g1754
sg62
(lp1766
S':'
asbag55
(g76
g57
NtRp1767
(dp1768
g60
(dp1769
sg69
g1754
sg62
(lp1770
g55
(g56
g57
NtRp1771
(dp1772
g60
(dp1773
g68
I4
ssg69
g1767
sg62
(lp1774
S'127.0.0.1-24289f39-32a1-48fb-a367-22792fb8b813'
p1775
ag55
(g64
g57
NtRp1776
(dp1777
g60
(dp1778
g68
I3
ssg69
Nsg62
(lp1779
g55
(g71
g57
NtRp1780
(dp1781
g60
(dp1782
sg69
g1776
sg62
(lp1783
g55
(g76
g57
NtRp1784
(dp1785
g60
(dp1786
g80
g81
ssg69
g1780
sg62
(lp1787
g292
asbag55
(g76
g57
NtRp1788
(dp1789
g60
(dp1790
g87
g88
ssg69
g1780
sg62
(lp1791
S':'
asbag55
(g76
g57
NtRp1792
(dp1793
g60
(dp1794
sg69
g1780
sg62
(lp1795
g55
(g56
g57
NtRp1796
(dp1797
g60
(dp1798
g68
I3
ssg69
g1792
sg62
(lp1799
S''
asbasbasbag55
(g71
g57
NtRp1800
(dp1801
g60
(dp1802
sg69
g1776
sg62
(lp1803
g55
(g76
g57
NtRp1804
(dp1805
g60
(dp1806
g80
g81
ssg69
g1800
sg62
(lp1807
g313
asbag55
(g76
g57
NtRp1808
(dp1809
g60
(dp1810
g87
g88
ssg69
g1800
sg62
(lp1811
S':'
asbag55
(g76
g57
NtRp1812
(dp1813
g60
(dp1814
sg69
g1800
sg62
(lp1815
g55
(g56
g57
NtRp1816
(dp1817
g60
(dp1818
g68
I3
ssg69
g1812
sg62
(lp1819
S''
asbasbasbag55
(g71
g57
NtRp1820
(dp1821
g60
(dp1822
sg69
g1776
sg62
(lp1823
g55
(g76
g57
NtRp1824
(dp1825
g60
(dp1826
g80
g81
ssg69
g1820
sg62
(lp1827
g334
asbag55
(g76
g57
NtRp1828
(dp1829
g60
(dp1830
g87
g88
ssg69
g1820
sg62
(lp1831
S':'
asbag55
(g76
g57
NtRp1832
(dp1833
g60
(dp1834
sg69
g1820
sg62
(lp1835
g55
(g56
g57
NtRp1836
(dp1837
g60
(dp1838
g68
I3
ssg69
g1832
sg62
(lp1839
S''
asbasbasbag55
(g71
g57
NtRp1840
(dp1841
g60
(dp1842
sg69
g1776
sg62
(lp1843
g55
(g76
g57
NtRp1844
(dp1845
g60
(dp1846
g80
g81
ssg69
g1840
sg62
(lp1847
g355
asbag55
(g76
g57
NtRp1848
(dp1849
g60
(dp1850
g87
g88
ssg69
g1840
sg62
(lp1851
S':'
asbag55
(g76
g57
NtRp1852
(dp1853
g60
(dp1854
sg69
g1840
sg62
(lp1855
g55
(g56
g57
NtRp1856
(dp1857
g60
(dp1858
g68
I3
ssg69
g1852
sg62
(lp1859
S''
asbasbasbag55
(g71
g57
NtRp1860
(dp1861
g60
(dp1862
sg69
g1776
sg62
(lp1863
g55
(g76
g57
NtRp1864
(dp1865
g60
(dp1866
g80
g81
ssg69
g1860
sg62
(lp1867
g376
asbag55
(g76
g57
NtRp1868
(dp1869
g60
(dp1870
g87
g88
ssg69
g1860
sg62
(lp1871
S':'
asbag55
(g76
g57
NtRp1872
(dp1873
g60
(dp1874
sg69
g1860
sg62
(lp1875
g55
(g56
g57
NtRp1876
(dp1877
g60
(dp1878
g68
I3
ssg69
g1872
sg62
(lp1879
S''
asbasbasbag55
(g71
g57
NtRp1880
(dp1881
g60
(dp1882
sg69
g1776
sg62
(lp1883
g55
(g76
g57
NtRp1884
(dp1885
g60
(dp1886
g80
g81
ssg69
g1880
sg62
(lp1887
g397
asbag55
(g76
g57
NtRp1888
(dp1889
g60
(dp1890
g87
g88
ssg69
g1880
sg62
(lp1891
S':'
asbag55
(g76
g57
NtRp1892
(dp1893
g60
(dp1894
sg69
g1880
sg62
(lp1895
g55
(g56
g57
NtRp1896
(dp1897
g60
(dp1898
g68
I3
ssg69
g1892
sg62
(lp1899
S''
asbasbasbag55
(g71
g57
NtRp1900
(dp1901
g60
(dp1902
sg69
g1776
sg62
(lp1903
g55
(g76
g57
NtRp1904
(dp1905
g60
(dp1906
g80
g81
ssg69
g1900
sg62
(lp1907
g418
asbag55
(g76
g57
NtRp1908
(dp1909
g60
(dp1910
g87
g88
ssg69
g1900
sg62
(lp1911
S':'
asbag55
(g76
g57
NtRp1912
(dp1913
g60
(dp1914
sg69
g1900
sg62
(lp1915
g55
(g56
g57
NtRp1916
(dp1917
g60
(dp1918
g68
I3
ssg69
g1912
sg62
(lp1919
S''
asbasbasbag55
(g71
g57
NtRp1920
(dp1921
g60
(dp1922
sg69
g1776
sg62
(lp1923
g55
(g76
g57
NtRp1924
(dp1925
g60
(dp1926
g80
g81
ssg69
g1920
sg62
(lp1927
g439
asbag55
(g76
g57
NtRp1928
(dp1929
g60
(dp1930
g87
g88
ssg69
g1920
sg62
(lp1931
S':'
asbag55
(g76
g57
NtRp1932
(dp1933
g60
(dp1934
sg69
g1920
sg62
(lp1935
g55
(g56
g57
NtRp1936
(dp1937
g60
(dp1938
g68
I3
ssg69
g1932
sg62
(lp1939
S''
asbasbasbasbasbasbasbag55
(g71
g57
NtRp1940
(dp1941
g60
(dp1942
sg69
g254
sg62
(lp1943
g55
(g76
g57
NtRp1944
(dp1945
g60
(dp1946
g80
g81
ssg69
g1940
sg62
(lp1947
S'session_id_testlayout'
p1948
asbag55
(g76
g57
NtRp1949
(dp1950
g60
(dp1951
g87
g88
ssg69
g1940
sg62
(lp1952
S':'
asbag55
(g76
g57
NtRp1953
(dp1954
g60
(dp1955
sg69
g1940
sg62
(lp1956
g55
(g56
g57
NtRp1957
(dp1958
g60
(dp1959
g68
I4
ssg69
g1953
sg62
(lp1960
S'127.0.0.1-0b2689a2-d3bd-4ee8-ad96-af4d7e3e9ad1'
p1961
ag55
(g64
g57
NtRp1962
(dp1963
g60
(dp1964
g68
I3
ssg69
Nsg62
(lp1965
g55
(g71
g57
NtRp1966
(dp1967
g60
(dp1968
sg69
g1962
sg62
(lp1969
g55
(g76
g57
NtRp1970
(dp1971
g60
(dp1972
g80
g81
ssg69
g1966
sg62
(lp1973
g292
asbag55
(g76
g57
NtRp1974
(dp1975
g60
(dp1976
g87
g88
ssg69
g1966
sg62
(lp1977
S':'
asbag55
(g76
g57
NtRp1978
(dp1979
g60
(dp1980
sg69
g1966
sg62
(lp1981
g55
(g56
g57
NtRp1982
(dp1983
g60
(dp1984
g68
I3
ssg69
g1978
sg62
(lp1985
S''
asbasbasbag55
(g71
g57
NtRp1986
(dp1987
g60
(dp1988
sg69
g1962
sg62
(lp1989
g55
(g76
g57
NtRp1990
(dp1991
g60
(dp1992
g80
g81
ssg69
g1986
sg62
(lp1993
g313
asbag55
(g76
g57
NtRp1994
(dp1995
g60
(dp1996
g87
g88
ssg69
g1986
sg62
(lp1997
S':'
asbag55
(g76
g57
NtRp1998
(dp1999
g60
(dp2000
sg69
g1986
sg62
(lp2001
g55
(g56
g57
NtRp2002
(dp2003
g60
(dp2004
g68
I3
ssg69
g1998
sg62
(lp2005
S''
asbasbasbag55
(g71
g57
NtRp2006
(dp2007
g60
(dp2008
sg69
g1962
sg62
(lp2009
g55
(g76
g57
NtRp2010
(dp2011
g60
(dp2012
g80
g81
ssg69
g2006
sg62
(lp2013
g334
asbag55
(g76
g57
NtRp2014
(dp2015
g60
(dp2016
g87
g88
ssg69
g2006
sg62
(lp2017
S':'
asbag55
(g76
g57
NtRp2018
(dp2019
g60
(dp2020
sg69
g2006
sg62
(lp2021
g55
(g56
g57
NtRp2022
(dp2023
g60
(dp2024
g68
I3
ssg69
g2018
sg62
(lp2025
S''
asbasbasbag55
(g71
g57
NtRp2026
(dp2027
g60
(dp2028
sg69
g1962
sg62
(lp2029
g55
(g76
g57
NtRp2030
(dp2031
g60
(dp2032
g80
g81
ssg69
g2026
sg62
(lp2033
g355
asbag55
(g76
g57
NtRp2034
(dp2035
g60
(dp2036
g87
g88
ssg69
g2026
sg62
(lp2037
S':'
asbag55
(g76
g57
NtRp2038
(dp2039
g60
(dp2040
sg69
g2026
sg62
(lp2041
g55
(g56
g57
NtRp2042
(dp2043
g60
(dp2044
g68
I3
ssg69
g2038
sg62
(lp2045
S''
asbasbasbag55
(g71
g57
NtRp2046
(dp2047
g60
(dp2048
sg69
g1962
sg62
(lp2049
g55
(g76
g57
NtRp2050
(dp2051
g60
(dp2052
g80
g81
ssg69
g2046
sg62
(lp2053
g376
asbag55
(g76
g57
NtRp2054
(dp2055
g60
(dp2056
g87
g88
ssg69
g2046
sg62
(lp2057
S':'
asbag55
(g76
g57
NtRp2058
(dp2059
g60
(dp2060
sg69
g2046
sg62
(lp2061
g55
(g56
g57
NtRp2062
(dp2063
g60
(dp2064
g68
I3
ssg69
g2058
sg62
(lp2065
S''
asbasbasbag55
(g71
g57
NtRp2066
(dp2067
g60
(dp2068
sg69
g1962
sg62
(lp2069
g55
(g76
g57
NtRp2070
(dp2071
g60
(dp2072
g80
g81
ssg69
g2066
sg62
(lp2073
g397
asbag55
(g76
g57
NtRp2074
(dp2075
g60
(dp2076
g87
g88
ssg69
g2066
sg62
(lp2077
S':'
asbag55
(g76
g57
NtRp2078
(dp2079
g60
(dp2080
sg69
g2066
sg62
(lp2081
g55
(g56
g57
NtRp2082
(dp2083
g60
(dp2084
g68
I3
ssg69
g2078
sg62
(lp2085
S''
asbasbasbag55
(g71
g57
NtRp2086
(dp2087
g60
(dp2088
sg69
g1962
sg62
(lp2089
g55
(g76
g57
NtRp2090
(dp2091
g60
(dp2092
g80
g81
ssg69
g2086
sg62
(lp2093
g418
asbag55
(g76
g57
NtRp2094
(dp2095
g60
(dp2096
g87
g88
ssg69
g2086
sg62
(lp2097
S':'
asbag55
(g76
g57
NtRp2098
(dp2099
g60
(dp2100
sg69
g2086
sg62
(lp2101
g55
(g56
g57
NtRp2102
(dp2103
g60
(dp2104
g68
I3
ssg69
g2098
sg62
(lp2105
S''
asbasbasbag55
(g71
g57
NtRp2106
(dp2107
g60
(dp2108
sg69
g1962
sg62
(lp2109
g55
(g76
g57
NtRp2110
(dp2111
g60
(dp2112
g80
g81
ssg69
g2106
sg62
(lp2113
g439
asbag55
(g76
g57
NtRp2114
(dp2115
g60
(dp2116
g87
g88
ssg69
g2106
sg62
(lp2117
S':'
asbag55
(g76
g57
NtRp2118
(dp2119
g60
(dp2120
sg69
g2106
sg62
(lp2121
g55
(g56
g57
NtRp2122
(dp2123
g60
(dp2124
g68
I3
ssg69
g2118
sg62
(lp2125
S''
asbasbasbasbasbasbasbag55
(g71
g57
NtRp2126
(dp2127
g60
(dp2128
sg69
g254
sg62
(lp2129
g55
(g76
g57
NtRp2130
(dp2131
g60
(dp2132
g80
g81
ssg69
g2126
sg62
(lp2133
S'session_id_try'
p2134
asbag55
(g76
g57
NtRp2135
(dp2136
g60
(dp2137
g87
g88
ssg69
g2126
sg62
(lp2138
S':'
asbag55
(g76
g57
NtRp2139
(dp2140
g60
(dp2141
sg69
g2126
sg62
(lp2142
g55
(g56
g57
NtRp2143
(dp2144
g60
(dp2145
g68
I4
ssg69
g2139
sg62
(lp2146
S'127.0.0.1-4d514347-24a9-48c9-9e7c-4ac4f4a70173'
p2147
ag55
(g64
g57
NtRp2148
(dp2149
g60
(dp2150
g68
I3
ssg69
Nsg62
(lp2151
g55
(g71
g57
NtRp2152
(dp2153
g60
(dp2154
sg69
g2148
sg62
(lp2155
g55
(g76
g57
NtRp2156
(dp2157
g60
(dp2158
g80
g81
ssg69
g2152
sg62
(lp2159
g292
asbag55
(g76
g57
NtRp2160
(dp2161
g60
(dp2162
g87
g88
ssg69
g2152
sg62
(lp2163
S':'
asbag55
(g76
g57
NtRp2164
(dp2165
g60
(dp2166
sg69
g2152
sg62
(lp2167
g55
(g56
g57
NtRp2168
(dp2169
g60
(dp2170
g68
I3
ssg69
g2164
sg62
(lp2171
S''
asbasbasbag55
(g71
g57
NtRp2172
(dp2173
g60
(dp2174
sg69
g2148
sg62
(lp2175
g55
(g76
g57
NtRp2176
(dp2177
g60
(dp2178
g80
g81
ssg69
g2172
sg62
(lp2179
g313
asbag55
(g76
g57
NtRp2180
(dp2181
g60
(dp2182
g87
g88
ssg69
g2172
sg62
(lp2183
S':'
asbag55
(g76
g57
NtRp2184
(dp2185
g60
(dp2186
sg69
g2172
sg62
(lp2187
g55
(g56
g57
NtRp2188
(dp2189
g60
(dp2190
g68
I3
ssg69
g2184
sg62
(lp2191
S''
asbasbasbag55
(g71
g57
NtRp2192
(dp2193
g60
(dp2194
sg69
g2148
sg62
(lp2195
g55
(g76
g57
NtRp2196
(dp2197
g60
(dp2198
g80
g81
ssg69
g2192
sg62
(lp2199
g334
asbag55
(g76
g57
NtRp2200
(dp2201
g60
(dp2202
g87
g88
ssg69
g2192
sg62
(lp2203
S':'
asbag55
(g76
g57
NtRp2204
(dp2205
g60
(dp2206
sg69
g2192
sg62
(lp2207
g55
(g56
g57
NtRp2208
(dp2209
g60
(dp2210
g68
I3
ssg69
g2204
sg62
(lp2211
S''
asbasbasbag55
(g71
g57
NtRp2212
(dp2213
g60
(dp2214
sg69
g2148
sg62
(lp2215
g55
(g76
g57
NtRp2216
(dp2217
g60
(dp2218
g80
g81
ssg69
g2212
sg62
(lp2219
g355
asbag55
(g76
g57
NtRp2220
(dp2221
g60
(dp2222
g87
g88
ssg69
g2212
sg62
(lp2223
S':'
asbag55
(g76
g57
NtRp2224
(dp2225
g60
(dp2226
sg69
g2212
sg62
(lp2227
g55
(g56
g57
NtRp2228
(dp2229
g60
(dp2230
g68
I3
ssg69
g2224
sg62
(lp2231
S''
asbasbasbag55
(g71
g57
NtRp2232
(dp2233
g60
(dp2234
sg69
g2148
sg62
(lp2235
g55
(g76
g57
NtRp2236
(dp2237
g60
(dp2238
g80
g81
ssg69
g2232
sg62
(lp2239
g376
asbag55
(g76
g57
NtRp2240
(dp2241
g60
(dp2242
g87
g88
ssg69
g2232
sg62
(lp2243
S':'
asbag55
(g76
g57
NtRp2244
(dp2245
g60
(dp2246
sg69
g2232
sg62
(lp2247
g55
(g56
g57
NtRp2248
(dp2249
g60
(dp2250
g68
I3
ssg69
g2244
sg62
(lp2251
S''
asbasbasbag55
(g71
g57
NtRp2252
(dp2253
g60
(dp2254
sg69
g2148
sg62
(lp2255
g55
(g76
g57
NtRp2256
(dp2257
g60
(dp2258
g80
g81
ssg69
g2252
sg62
(lp2259
g397
asbag55
(g76
g57
NtRp2260
(dp2261
g60
(dp2262
g87
g88
ssg69
g2252
sg62
(lp2263
S':'
asbag55
(g76
g57
NtRp2264
(dp2265
g60
(dp2266
sg69
g2252
sg62
(lp2267
g55
(g56
g57
NtRp2268
(dp2269
g60
(dp2270
g68
I3
ssg69
g2264
sg62
(lp2271
S''
asbasbasbag55
(g71
g57
NtRp2272
(dp2273
g60
(dp2274
sg69
g2148
sg62
(lp2275
g55
(g76
g57
NtRp2276
(dp2277
g60
(dp2278
g80
g81
ssg69
g2272
sg62
(lp2279
g418
asbag55
(g76
g57
NtRp2280
(dp2281
g60
(dp2282
g87
g88
ssg69
g2272
sg62
(lp2283
S':'
asbag55
(g76
g57
NtRp2284
(dp2285
g60
(dp2286
sg69
g2272
sg62
(lp2287
g55
(g56
g57
NtRp2288
(dp2289
g60
(dp2290
g68
I3
ssg69
g2284
sg62
(lp2291
S''
asbasbasbag55
(g71
g57
NtRp2292
(dp2293
g60
(dp2294
sg69
g2148
sg62
(lp2295
g55
(g76
g57
NtRp2296
(dp2297
g60
(dp2298
g80
g81
ssg69
g2292
sg62
(lp2299
g439
asbag55
(g76
g57
NtRp2300
(dp2301
g60
(dp2302
g87
g88
ssg69
g2292
sg62
(lp2303
S':'
asbag55
(g76
g57
NtRp2304
(dp2305
g60
(dp2306
sg69
g2292
sg62
(lp2307
g55
(g56
g57
NtRp2308
(dp2309
g60
(dp2310
g68
I3
ssg69
g2304
sg62
(lp2311
S''
asbasbasbasbasbasbasbag55
(g71
g57
NtRp2312
(dp2313
g60
(dp2314
sg69
g254
sg62
(lp2315
g55
(g76
g57
NtRp2316
(dp2317
g60
(dp2318
g80
g81
ssg69
g2312
sg62
(lp2319
S'session_id_vikramahuja'
p2320
asbag55
(g76
g57
NtRp2321
(dp2322
g60
(dp2323
g87
g88
ssg69
g2312
sg62
(lp2324
S':'
asbag55
(g76
g57
NtRp2325
(dp2326
g60
(dp2327
sg69
g2312
sg62
(lp2328
g55
(g56
g57
NtRp2329
(dp2330
g60
(dp2331
g68
I4
ssg69
g2325
sg62
(lp2332
S'127.0.0.1-a555d16d-54b5-476d-a152-f88918b513fe'
p2333
ag55
(g64
g57
NtRp2334
(dp2335
g60
(dp2336
g68
I3
ssg69
Nsg62
(lp2337
g55
(g71
g57
NtRp2338
(dp2339
g60
(dp2340
sg69
g2334
sg62
(lp2341
g55
(g76
g57
NtRp2342
(dp2343
g60
(dp2344
g80
g81
ssg69
g2338
sg62
(lp2345
g292
asbag55
(g76
g57
NtRp2346
(dp2347
g60
(dp2348
g87
g88
ssg69
g2338
sg62
(lp2349
S':'
asbag55
(g76
g57
NtRp2350
(dp2351
g60
(dp2352
sg69
g2338
sg62
(lp2353
g55
(g56
g57
NtRp2354
(dp2355
g60
(dp2356
g68
I3
ssg69
g2350
sg62
(lp2357
S''
asbasbasbag55
(g71
g57
NtRp2358
(dp2359
g60
(dp2360
sg69
g2334
sg62
(lp2361
g55
(g76
g57
NtRp2362
(dp2363
g60
(dp2364
g80
g81
ssg69
g2358
sg62
(lp2365
g313
asbag55
(g76
g57
NtRp2366
(dp2367
g60
(dp2368
g87
g88
ssg69
g2358
sg62
(lp2369
S':'
asbag55
(g76
g57
NtRp2370
(dp2371
g60
(dp2372
sg69
g2358
sg62
(lp2373
g55
(g56
g57
NtRp2374
(dp2375
g60
(dp2376
g68
I3
ssg69
g2370
sg62
(lp2377
S''
asbasbasbag55
(g71
g57
NtRp2378
(dp2379
g60
(dp2380
sg69
g2334
sg62
(lp2381
g55
(g76
g57
NtRp2382
(dp2383
g60
(dp2384
g80
g81
ssg69
g2378
sg62
(lp2385
g334
asbag55
(g76
g57
NtRp2386
(dp2387
g60
(dp2388
g87
g88
ssg69
g2378
sg62
(lp2389
S':'
asbag55
(g76
g57
NtRp2390
(dp2391
g60
(dp2392
sg69
g2378
sg62
(lp2393
g55
(g56
g57
NtRp2394
(dp2395
g60
(dp2396
g68
I3
ssg69
g2390
sg62
(lp2397
S''
asbasbasbag55
(g71
g57
NtRp2398
(dp2399
g60
(dp2400
sg69
g2334
sg62
(lp2401
g55
(g76
g57
NtRp2402
(dp2403
g60
(dp2404
g80
g81
ssg69
g2398
sg62
(lp2405
g355
asbag55
(g76
g57
NtRp2406
(dp2407
g60
(dp2408
g87
g88
ssg69
g2398
sg62
(lp2409
S':'
asbag55
(g76
g57
NtRp2410
(dp2411
g60
(dp2412
sg69
g2398
sg62
(lp2413
g55
(g56
g57
NtRp2414
(dp2415
g60
(dp2416
g68
I3
ssg69
g2410
sg62
(lp2417
S''
asbasbasbag55
(g71
g57
NtRp2418
(dp2419
g60
(dp2420
sg69
g2334
sg62
(lp2421
g55
(g76
g57
NtRp2422
(dp2423
g60
(dp2424
g80
g81
ssg69
g2418
sg62
(lp2425
g376
asbag55
(g76
g57
NtRp2426
(dp2427
g60
(dp2428
g87
g88
ssg69
g2418
sg62
(lp2429
S':'
asbag55
(g76
g57
NtRp2430
(dp2431
g60
(dp2432
sg69
g2418
sg62
(lp2433
g55
(g56
g57
NtRp2434
(dp2435
g60
(dp2436
g68
I3
ssg69
g2430
sg62
(lp2437
S''
asbasbasbag55
(g71
g57
NtRp2438
(dp2439
g60
(dp2440
sg69
g2334
sg62
(lp2441
g55
(g76
g57
NtRp2442
(dp2443
g60
(dp2444
g80
g81
ssg69
g2438
sg62
(lp2445
g397
asbag55
(g76
g57
NtRp2446
(dp2447
g60
(dp2448
g87
g88
ssg69
g2438
sg62
(lp2449
S':'
asbag55
(g76
g57
NtRp2450
(dp2451
g60
(dp2452
sg69
g2438
sg62
(lp2453
g55
(g56
g57
NtRp2454
(dp2455
g60
(dp2456
g68
I3
ssg69
g2450
sg62
(lp2457
S''
asbasbasbag55
(g71
g57
NtRp2458
(dp2459
g60
(dp2460
sg69
g2334
sg62
(lp2461
g55
(g76
g57
NtRp2462
(dp2463
g60
(dp2464
g80
g81
ssg69
g2458
sg62
(lp2465
g418
asbag55
(g76
g57
NtRp2466
(dp2467
g60
(dp2468
g87
g88
ssg69
g2458
sg62
(lp2469
S':'
asbag55
(g76
g57
NtRp2470
(dp2471
g60
(dp2472
sg69
g2458
sg62
(lp2473
g55
(g56
g57
NtRp2474
(dp2475
g60
(dp2476
g68
I3
ssg69
g2470
sg62
(lp2477
S''
asbasbasbag55
(g71
g57
NtRp2478
(dp2479
g60
(dp2480
sg69
g2334
sg62
(lp2481
g55
(g76
g57
NtRp2482
(dp2483
g60
(dp2484
g80
g81
ssg69
g2478
sg62
(lp2485
g439
asbag55
(g76
g57
NtRp2486
(dp2487
g60
(dp2488
g87
g88
ssg69
g2478
sg62
(lp2489
S':'
asbag55
(g76
g57
NtRp2490
(dp2491
g60
(dp2492
sg69
g2478
sg62
(lp2493
g55
(g56
g57
NtRp2494
(dp2495
g60
(dp2496
g68
I3
ssg69
g2490
sg62
(lp2497
S''
asbasbasbasbasbasbasbag55
(g71
g57
NtRp2498
(dp2499
g60
(dp2500
sg69
g254
sg62
(lp2501
g55
(g76
g57
NtRp2502
(dp2503
g60
(dp2504
g80
g81
ssg69
g2498
sg62
(lp2505
S'session_id_welcome'
p2506
asbag55
(g76
g57
NtRp2507
(dp2508
g60
(dp2509
g87
g88
ssg69
g2498
sg62
(lp2510
S':'
asbag55
(g76
g57
NtRp2511
(dp2512
g60
(dp2513
sg69
g2498
sg62
(lp2514
g55
(g56
g57
NtRp2515
(dp2516
g60
(dp2517
g68
I4
ssg69
g2511
sg62
(lp2518
S'127.0.0.1-a85dd4d7-ab1c-49ab-856d-4173a26ef319'
p2519
ag55
(g64
g57
NtRp2520
(dp2521
g60
(dp2522
g68
I3
ssg69
Nsg62
(lp2523
g55
(g71
g57
NtRp2524
(dp2525
g60
(dp2526
sg69
g2520
sg62
(lp2527
g55
(g76
g57
NtRp2528
(dp2529
g60
(dp2530
g80
g81
ssg69
g2524
sg62
(lp2531
g292
asbag55
(g76
g57
NtRp2532
(dp2533
g60
(dp2534
g87
g88
ssg69
g2524
sg62
(lp2535
S':'
asbag55
(g76
g57
NtRp2536
(dp2537
g60
(dp2538
sg69
g2524
sg62
(lp2539
g55
(g56
g57
NtRp2540
(dp2541
g60
(dp2542
g68
I3
ssg69
g2536
sg62
(lp2543
S''
asbasbasbag55
(g71
g57
NtRp2544
(dp2545
g60
(dp2546
sg69
g2520
sg62
(lp2547
g55
(g76
g57
NtRp2548
(dp2549
g60
(dp2550
g80
g81
ssg69
g2544
sg62
(lp2551
g313
asbag55
(g76
g57
NtRp2552
(dp2553
g60
(dp2554
g87
g88
ssg69
g2544
sg62
(lp2555
S':'
asbag55
(g76
g57
NtRp2556
(dp2557
g60
(dp2558
sg69
g2544
sg62
(lp2559
g55
(g56
g57
NtRp2560
(dp2561
g60
(dp2562
g68
I3
ssg69
g2556
sg62
(lp2563
S''
asbasbasbag55
(g71
g57
NtRp2564
(dp2565
g60
(dp2566
sg69
g2520
sg62
(lp2567
g55
(g76
g57
NtRp2568
(dp2569
g60
(dp2570
g80
g81
ssg69
g2564
sg62
(lp2571
g334
asbag55
(g76
g57
NtRp2572
(dp2573
g60
(dp2574
g87
g88
ssg69
g2564
sg62
(lp2575
S':'
asbag55
(g76
g57
NtRp2576
(dp2577
g60
(dp2578
sg69
g2564
sg62
(lp2579
g55
(g56
g57
NtRp2580
(dp2581
g60
(dp2582
g68
I3
ssg69
g2576
sg62
(lp2583
S''
asbasbasbag55
(g71
g57
NtRp2584
(dp2585
g60
(dp2586
sg69
g2520
sg62
(lp2587
g55
(g76
g57
NtRp2588
(dp2589
g60
(dp2590
g80
g81
ssg69
g2584
sg62
(lp2591
g355
asbag55
(g76
g57
NtRp2592
(dp2593
g60
(dp2594
g87
g88
ssg69
g2584
sg62
(lp2595
S':'
asbag55
(g76
g57
NtRp2596
(dp2597
g60
(dp2598
sg69
g2584
sg62
(lp2599
g55
(g56
g57
NtRp2600
(dp2601
g60
(dp2602
g68
I3
ssg69
g2596
sg62
(lp2603
S''
asbasbasbag55
(g71
g57
NtRp2604
(dp2605
g60
(dp2606
sg69
g2520
sg62
(lp2607
g55
(g76
g57
NtRp2608
(dp2609
g60
(dp2610
g80
g81
ssg69
g2604
sg62
(lp2611
g376
asbag55
(g76
g57
NtRp2612
(dp2613
g60
(dp2614
g87
g88
ssg69
g2604
sg62
(lp2615
S':'
asbag55
(g76
g57
NtRp2616
(dp2617
g60
(dp2618
sg69
g2604
sg62
(lp2619
g55
(g56
g57
NtRp2620
(dp2621
g60
(dp2622
g68
I3
ssg69
g2616
sg62
(lp2623
S''
asbasbasbag55
(g71
g57
NtRp2624
(dp2625
g60
(dp2626
sg69
g2520
sg62
(lp2627
g55
(g76
g57
NtRp2628
(dp2629
g60
(dp2630
g80
g81
ssg69
g2624
sg62
(lp2631
g397
asbag55
(g76
g57
NtRp2632
(dp2633
g60
(dp2634
g87
g88
ssg69
g2624
sg62
(lp2635
S':'
asbag55
(g76
g57
NtRp2636
(dp2637
g60
(dp2638
sg69
g2624
sg62
(lp2639
g55
(g56
g57
NtRp2640
(dp2641
g60
(dp2642
g68
I3
ssg69
g2636
sg62
(lp2643
S''
asbasbasbag55
(g71
g57
NtRp2644
(dp2645
g60
(dp2646
sg69
g2520
sg62
(lp2647
g55
(g76
g57
NtRp2648
(dp2649
g60
(dp2650
g80
g81
ssg69
g2644
sg62
(lp2651
g418
asbag55
(g76
g57
NtRp2652
(dp2653
g60
(dp2654
g87
g88
ssg69
g2644
sg62
(lp2655
S':'
asbag55
(g76
g57
NtRp2656
(dp2657
g60
(dp2658
sg69
g2644
sg62
(lp2659
g55
(g56
g57
NtRp2660
(dp2661
g60
(dp2662
g68
I3
ssg69
g2656
sg62
(lp2663
S''
asbasbasbag55
(g71
g57
NtRp2664
(dp2665
g60
(dp2666
sg69
g2520
sg62
(lp2667
g55
(g76
g57
NtRp2668
(dp2669
g60
(dp2670
g80
g81
ssg69
g2664
sg62
(lp2671
g439
asbag55
(g76
g57
NtRp2672
(dp2673
g60
(dp2674
g87
g88
ssg69
g2664
sg62
(lp2675
S':'
asbag55
(g76
g57
NtRp2676
(dp2677
g60
(dp2678
sg69
g2664
sg62
(lp2679
g55
(g56
g57
NtRp2680
(dp2681
g60
(dp2682
g68
I3
ssg69
g2676
sg62
(lp2683
S''
asbasbasbasbasbasbasbasbasbasbasbag55
(g71
g57
NtRp2684
(dp2685
g60
(dp2686
sg69
g65
sg62
(lp2687
g55
(g76
g57
NtRp2688
(dp2689
g60
(dp2690
g80
g81
ssg69
g2684
sg62
(lp2691
S'env'
p2692
asbag55
(g76
g57
NtRp2693
(dp2694
g60
(dp2695
g87
g88
ssg69
g2684
sg62
(lp2696
S':'
asbag55
(g76
g57
NtRp2697
(dp2698
g60
(dp2699
sg69
g2684
sg62
(lp2700
g55
(g56
g57
NtRp2701
(dp2702
g60
(dp2703
g68
I5
ssg69
g2697
sg62
(lp2704
g55
(g64
g57
NtRp2705
(dp2706
g60
(dp2707
g68
I4
ssg69
Nsg62
(lp2708
g55
(g71
g57
NtRp2709
(dp2710
g60
(dp2711
sg69
g2705
sg62
(lp2712
g55
(g76
g57
NtRp2713
(dp2714
g60
(dp2715
g80
g81
ssg69
g2709
sg62
(lp2716
S'app_folders'
p2717
asbag55
(g76
g57
NtRp2718
(dp2719
g60
(dp2720
g87
g88
ssg69
g2709
sg62
(lp2721
S':'
asbag55
(g76
g57
NtRp2722
(dp2723
g60
(dp2724
sg69
g2709
sg62
(lp2725
g55
(g56
g57
NtRp2726
(dp2727
g60
(dp2728
g68
I4
ssg69
g2722
sg62
(lp2729
S"set(['/home/pankaj/web2py/applications/admin/', '/home/pankaj/web2py/applications/welcome/', '/home/pankaj/web2py/applications/reddit/', '/home/pankaj/web2py/applications/try/'])"
p2730
asbasbasbag55
(g71
g57
NtRp2731
(dp2732
g60
(dp2733
sg69
g2705
sg62
(lp2734
g55
(g76
g57
NtRp2735
(dp2736
g60
(dp2737
g80
g81
ssg69
g2731
sg62
(lp2738
S'applications_parent'
p2739
asbag55
(g76
g57
NtRp2740
(dp2741
g60
(dp2742
g87
g88
ssg69
g2731
sg62
(lp2743
S':'
asbag55
(g76
g57
NtRp2744
(dp2745
g60
(dp2746
sg69
g2731
sg62
(lp2747
g55
(g56
g57
NtRp2748
(dp2749
g60
(dp2750
g68
I4
ssg69
g2744
sg62
(lp2751
S'/home/pankaj/web2py'
p2752
asbasbasbag55
(g71
g57
NtRp2753
(dp2754
g60
(dp2755
sg69
g2705
sg62
(lp2756
g55
(g76
g57
NtRp2757
(dp2758
g60
(dp2759
g80
g81
ssg69
g2753
sg62
(lp2760
S'cmd_args'
p2761
asbag55
(g76
g57
NtRp2762
(dp2763
g60
(dp2764
g87
g88
ssg69
g2753
sg62
(lp2765
S':'
asbag55
(g76
g57
NtRp2766
(dp2767
g60
(dp2768
sg69
g2753
sg62
(lp2769
g55
(g56
g57
NtRp2770
(dp2771
g60
(dp2772
g68
I4
ssg69
g2766
sg62
(lp2773
g55
(g64
g57
NtRp2774
(dp2775
g60
(dp2776
g68
I3
ssg69
Nsg62
(lp2777
sbasbasbasbag55
(g71
g57
NtRp2778
(dp2779
g60
(dp2780
sg69
g2705
sg62
(lp2781
g55
(g76
g57
NtRp2782
(dp2783
g60
(dp2784
g80
g81
ssg69
g2778
sg62
(lp2785
S'cmd_options'
p2786
asbag55
(g76
g57
NtRp2787
(dp2788
g60
(dp2789
g87
g88
ssg69
g2778
sg62
(lp2790
S':'
asbag55
(g76
g57
NtRp2791
(dp2792
g60
(dp2793
sg69
g2778
sg62
(lp2794
g55
(g56
g57
NtRp2795
(dp2796
g60
(dp2797
g68
I4
ssg69
g2791
sg62
(lp2798
S"<Values at 0x8949dcc: {'verbose': False, 'ip': '127.0.0.1', 'with_scheduler': False, 'ips': [], 'shutdown_timeout': 5, 'taskbar': False, 'port': 8000, 'maxthreads': None, 'softcron': False, 'server_name': 'pankaj-HP-Pavilion-dv4-Notebook-PC', 'bpython': False, 'nogui': False, 'pid_filename': 'httpserver.pid', 'extcron': False, 'runcron': False, 'run_system_tests': False, 'test': None, 'folder': '/home/pankaj/web2py', 'config': '', 'import_models': False, 'winservice': '', 'shell': None, 'run': '', 'log_filename': 'httpserver.log', 'debuglevel': 30, 'args': [''], 'socket_timeout': 5, 'ssl_ca_certificate': None, 'scheduler': None, 'profiler_filename': None, 'ssl_private_key': '', 'scheduler_groups': None, 'password': '<ask>', 'request_queue_size': 5, 'ssl_certificate': '', 'cronjob': False, 'numthreads': None, 'quiet': False, 'interfaces': None, 'minthreads': None, 'timeout': 10, 'plain': False, 'nobanner': False}>"
p2799
asbasbasbag55
(g71
g57
NtRp2800
(dp2801
g60
(dp2802
sg69
g2705
sg62
(lp2803
g55
(g76
g57
NtRp2804
(dp2805
g60
(dp2806
g80
g81
ssg69
g2800
sg62
(lp2807
S'db_sessions'
p2808
asbag55
(g76
g57
NtRp2809
(dp2810
g60
(dp2811
g87
g88
ssg69
g2800
sg62
(lp2812
S':'
asbag55
(g76
g57
NtRp2813
(dp2814
g60
(dp2815
sg69
g2800
sg62
(lp2816
g55
(g56
g57
NtRp2817
(dp2818
g60
(dp2819
g68
I4
ssg69
g2813
sg62
(lp2820
S'set([])'
p2821
asbasbasbag55
(g71
g57
NtRp2822
(dp2823
g60
(dp2824
sg69
g2705
sg62
(lp2825
g55
(g76
g57
NtRp2826
(dp2827
g60
(dp2828
g80
g81
ssg69
g2822
sg62
(lp2829
S'debugging'
p2830
asbag55
(g76
g57
NtRp2831
(dp2832
g60
(dp2833
g87
g88
ssg69
g2822
sg62
(lp2834
S':'
asbag55
(g76
g57
NtRp2835
(dp2836
g60
(dp2837
sg69
g2822
sg62
(lp2838
g55
(g56
g57
NtRp2839
(dp2840
g60
(dp2841
g68
I4
ssg69
g2835
sg62
(lp2842
g98
asbasbasbag55
(g71
g57
NtRp2843
(dp2844
g60
(dp2845
sg69
g2705
sg62
(lp2846
g55
(g76
g57
NtRp2847
(dp2848
g60
(dp2849
g80
g81
ssg69
g2843
sg62
(lp2850
S'gluon_parent'
p2851
asbag55
(g76
g57
NtRp2852
(dp2853
g60
(dp2854
g87
g88
ssg69
g2843
sg62
(lp2855
S':'
asbag55
(g76
g57
NtRp2856
(dp2857
g60
(dp2858
sg69
g2843
sg62
(lp2859
g55
(g56
g57
NtRp2860
(dp2861
g60
(dp2862
g68
I4
ssg69
g2856
sg62
(lp2863
S'/home/pankaj/web2py'
p2864
asbasbasbag55
(g71
g57
NtRp2865
(dp2866
g60
(dp2867
sg69
g2705
sg62
(lp2868
g55
(g76
g57
NtRp2869
(dp2870
g60
(dp2871
g80
g81
ssg69
g2865
sg62
(lp2872
S'http_accept'
p2873
asbag55
(g76
g57
NtRp2874
(dp2875
g60
(dp2876
g87
g88
ssg69
g2865
sg62
(lp2877
S':'
asbag55
(g76
g57
NtRp2878
(dp2879
g60
(dp2880
sg69
g2865
sg62
(lp2881
g55
(g56
g57
NtRp2882
(dp2883
g60
(dp2884
g68
I4
ssg69
g2878
sg62
(lp2885
S'text/html,application/xhtml+xml,application/xml;q=0.9,*/*;q=0.8'
p2886
asbasbasbag55
(g71
g57
NtRp2887
(dp2888
g60
(dp2889
sg69
g2705
sg62
(lp2890
g55
(g76
g57
NtRp2891
(dp2892
g60
(dp2893
g80
g81
ssg69
g2887
sg62
(lp2894
S'http_accept_encoding'
p2895
asbag55
(g76
g57
NtRp2896
(dp2897
g60
(dp2898
g87
g88
ssg69
g2887
sg62
(lp2899
S':'
asbag55
(g76
g57
NtRp2900
(dp2901
g60
(dp2902
sg69
g2887
sg62
(lp2903
g55
(g56
g57
NtRp2904
(dp2905
g60
(dp2906
g68
I4
ssg69
g2900
sg62
(lp2907
S'gzip, deflate'
p2908
asbasbasbag55
(g71
g57
NtRp2909
(dp2910
g60
(dp2911
sg69
g2705
sg62
(lp2912
g55
(g76
g57
NtRp2913
(dp2914
g60
(dp2915
g80
g81
ssg69
g2909
sg62
(lp2916
S'http_accept_language'
p2917
asbag55
(g76
g57
NtRp2918
(dp2919
g60
(dp2920
g87
g88
ssg69
g2909
sg62
(lp2921
S':'
asbag55
(g76
g57
NtRp2922
(dp2923
g60
(dp2924
sg69
g2909
sg62
(lp2925
g55
(g56
g57
NtRp2926
(dp2927
g60
(dp2928
g68
I4
ssg69
g2922
sg62
(lp2929
S'en-US,en;q=0.5'
p2930
asbasbasbag55
(g71
g57
NtRp2931
(dp2932
g60
(dp2933
sg69
g2705
sg62
(lp2934
g55
(g76
g57
NtRp2935
(dp2936
g60
(dp2937
g80
g81
ssg69
g2931
sg62
(lp2938
S'http_cache_control'
p2939
asbag55
(g76
g57
NtRp2940
(dp2941
g60
(dp2942
g87
g88
ssg69
g2931
sg62
(lp2943
S':'
asbag55
(g76
g57
NtRp2944
(dp2945
g60
(dp2946
sg69
g2931
sg62
(lp2947
g55
(g56
g57
NtRp2948
(dp2949
g60
(dp2950
g68
I4
ssg69
g2944
sg62
(lp2951
S'max-age=0'
p2952
asbasbasbag55
(g71
g57
NtRp2953
(dp2954
g60
(dp2955
sg69
g2705
sg62
(lp2956
g55
(g76
g57
NtRp2957
(dp2958
g60
(dp2959
g80
g81
ssg69
g2953
sg62
(lp2960
S'http_connection'
p2961
asbag55
(g76
g57
NtRp2962
(dp2963
g60
(dp2964
g87
g88
ssg69
g2953
sg62
(lp2965
S':'
asbag55
(g76
g57
NtRp2966
(dp2967
g60
(dp2968
sg69
g2953
sg62
(lp2969
g55
(g56
g57
NtRp2970
(dp2971
g60
(dp2972
g68
I4
ssg69
g2966
sg62
(lp2973
S'keep-alive'
p2974
asbasbasbag55
(g71
g57
NtRp2975
(dp2976
g60
(dp2977
sg69
g2705
sg62
(lp2978
g55
(g76
g57
NtRp2979
(dp2980
g60
(dp2981
g80
g81
ssg69
g2975
sg62
(lp2982
S'http_cookie'
p2983
asbag55
(g76
g57
NtRp2984
(dp2985
g60
(dp2986
g87
g88
ssg69
g2975
sg62
(lp2987
S':'
asbag55
(g76
g57
NtRp2988
(dp2989
g60
(dp2990
sg69
g2975
sg62
(lp2991
g55
(g56
g57
NtRp2992
(dp2993
g60
(dp2994
g68
I4
ssg69
g2988
sg62
(lp2995
S'session_id_welcome=127.0.0.1-a85dd4d7-ab1c-49ab-856d-4173a26ef319; session_id_admin=127.0.0.1-eea59e1b-9257-4df1-8c44-da77bf9e4ec2; session_id_20120156_assignment_1=127.0.0.1-6cad324c-0572-4be8-8f41-6fcaca863c93; session_id_arihant=127.0.0.1-fa99deb6-5977-491c-864a-b5d79c0d1842; session_id_cataminder=127.0.0.1-81b628a7-34a5-4e70-a95c-79ef710dcdbb; session_id_courses=127.0.0.1-1d46c4eb-fdfc-4abb-bb62-6bcf52d1fcaa; session_id_iiit_fb=127.0.0.1-04b7df24-4720-4bb5-98de-96b98776240d; session_id_myapp=127.0.0.1-f28af7a6-9d1e-4a86-bd34-27605492a231; session_id_project=127.0.0.1-029ca61b-f875-404a-b7ff-1634c44ab767; session_id_testlayout=127.0.0.1-0b2689a2-d3bd-4ee8-ad96-af4d7e3e9ad1; session_id_try=127.0.0.1-4d514347-24a9-48c9-9e7c-4ac4f4a70173; session_id_vikramahuja=127.0.0.1-a555d16d-54b5-476d-a152-f88918b513fe; session_id_reddit=127.0.0.1-24289f39-32a1-48fb-a367-22792fb8b813'
p2996
asbasbasbag55
(g71
g57
NtRp2997
(dp2998
g60
(dp2999
sg69
g2705
sg62
(lp3000
g55
(g76
g57
NtRp3001
(dp3002
g60
(dp3003
g80
g81
ssg69
g2997
sg62
(lp3004
S'http_host'
p3005
asbag55
(g76
g57
NtRp3006
(dp3007
g60
(dp3008
g87
g88
ssg69
g2997
sg62
(lp3009
S':'
asbag55
(g76
g57
NtRp3010
(dp3011
g60
(dp3012
sg69
g2997
sg62
(lp3013
g55
(g56
g57
NtRp3014
(dp3015
g60
(dp3016
g68
I4
ssg69
g3010
sg62
(lp3017
S'127.0.0.1:8000'
p3018
asbasbasbag55
(g71
g57
NtRp3019
(dp3020
g60
(dp3021
sg69
g2705
sg62
(lp3022
g55
(g76
g57
NtRp3023
(dp3024
g60
(dp3025
g80
g81
ssg69
g3019
sg62
(lp3026
S'http_referer'
p3027
asbag55
(g76
g57
NtRp3028
(dp3029
g60
(dp3030
g87
g88
ssg69
g3019
sg62
(lp3031
S':'
asbag55
(g76
g57
NtRp3032
(dp3033
g60
(dp3034
sg69
g3019
sg62
(lp3035
g55
(g56
g57
NtRp3036
(dp3037
g60
(dp3038
g68
I4
ssg69
g3032
sg62
(lp3039
S'http://127.0.0.1:8000/admin/default/site'
p3040
asbasbasbag55
(g71
g57
NtRp3041
(dp3042
g60
(dp3043
sg69
g2705
sg62
(lp3044
g55
(g76
g57
NtRp3045
(dp3046
g60
(dp3047
g80
g81
ssg69
g3041
sg62
(lp3048
S'http_user_agent'
p3049
asbag55
(g76
g57
NtRp3050
(dp3051
g60
(dp3052
g87
g88
ssg69
g3041
sg62
(lp3053
S':'
asbag55
(g76
g57
NtRp3054
(dp3055
g60
(dp3056
sg69
g3041
sg62
(lp3057
g55
(g56
g57
NtRp3058
(dp3059
g60
(dp3060
g68
I4
ssg69
g3054
sg62
(lp3061
S'Mozilla/5.0 (X11; Ubuntu; Linux i686; rv:22.0) Gecko/20100101 Firefox/22.0'
p3062
asbasbasbag55
(g71
g57
NtRp3063
(dp3064
g60
(dp3065
sg69
g2705
sg62
(lp3066
g55
(g76
g57
NtRp3067
(dp3068
g60
(dp3069
g80
g81
ssg69
g3063
sg62
(lp3070
S'is_jython'
p3071
asbag55
(g76
g57
NtRp3072
(dp3073
g60
(dp3074
g87
g88
ssg69
g3063
sg62
(lp3075
S':'
asbag55
(g76
g57
NtRp3076
(dp3077
g60
(dp3078
sg69
g3063
sg62
(lp3079
g55
(g56
g57
NtRp3080
(dp3081
g60
(dp3082
g68
I4
ssg69
g3076
sg62
(lp3083
g98
asbasbasbag55
(g71
g57
NtRp3084
(dp3085
g60
(dp3086
sg69
g2705
sg62
(lp3087
g55
(g76
g57
NtRp3088
(dp3089
g60
(dp3090
g80
g81
ssg69
g3084
sg62
(lp3091
S'is_pypy'
p3092
asbag55
(g76
g57
NtRp3093
(dp3094
g60
(dp3095
g87
g88
ssg69
g3084
sg62
(lp3096
S':'
asbag55
(g76
g57
NtRp3097
(dp3098
g60
(dp3099
sg69
g3084
sg62
(lp3100
g55
(g56
g57
NtRp3101
(dp3102
g60
(dp3103
g68
I4
ssg69
g3097
sg62
(lp3104
g98
asbasbasbag55
(g71
g57
NtRp3105
(dp3106
g60
(dp3107
sg69
g2705
sg62
(lp3108
g55
(g76
g57
NtRp3109
(dp3110
g60
(dp3111
g80
g81
ssg69
g3105
sg62
(lp3112
S'local_hosts'
p3113
asbag55
(g76
g57
NtRp3114
(dp3115
g60
(dp3116
g87
g88
ssg69
g3105
sg62
(lp3117
S':'
asbag55
(g76
g57
NtRp3118
(dp3119
g60
(dp3120
sg69
g3105
sg62
(lp3121
g55
(g56
g57
NtRp3122
(dp3123
g60
(dp3124
g68
I4
ssg69
g3118
sg62
(lp3125
g55
(g64
g57
NtRp3126
(dp3127
g60
(dp3128
g68
I3
ssg69
Nsg62
(lp3129
g55
(g71
g57
NtRp3130
(dp3131
g60
(dp3132
sg69
g3126
sg62
(lp3133
g55
(g76
g57
NtRp3134
(dp3135
g60
(dp3136
sg69
g3130
sg62
(lp3137
g55
(g56
g57
NtRp3138
(dp3139
g60
(dp3140
g68
I3
ssg69
g3134
sg62
(lp3141
S'pankaj-HP-Pavilion-dv4-Notebook-PC'
p3142
asbasbasbag55
(g71
g57
NtRp3143
(dp3144
g60
(dp3145
sg69
g3126
sg62
(lp3146
g55
(g76
g57
NtRp3147
(dp3148
g60
(dp3149
sg69
g3143
sg62
(lp3150
g55
(g56
g57
NtRp3151
(dp3152
g60
(dp3153
g68
I3
ssg69
g3147
sg62
(lp3154
S'::1'
p3155
asbasbasbag55
(g71
g57
NtRp3156
(dp3157
g60
(dp3158
sg69
g3126
sg62
(lp3159
g55
(g76
g57
NtRp3160
(dp3161
g60
(dp3162
sg69
g3156
sg62
(lp3163
g55
(g56
g57
NtRp3164
(dp3165
g60
(dp3166
g68
I3
ssg69
g3160
sg62
(lp3167
S'127.0.1.1'
p3168
asbasbasbag55
(g71
g57
NtRp3169
(dp3170
g60
(dp3171
sg69
g3126
sg62
(lp3172
g55
(g76
g57
NtRp3173
(dp3174
g60
(dp3175
sg69
g3169
sg62
(lp3176
g55
(g56
g57
NtRp3177
(dp3178
g60
(dp3179
g68
I3
ssg69
g3173
sg62
(lp3180
S'::ffff:127.0.0.1'
p3181
asbasbasbag55
(g71
g57
NtRp3182
(dp3183
g60
(dp3184
sg69
g3126
sg62
(lp3185
g55
(g76
g57
NtRp3186
(dp3187
g60
(dp3188
sg69
g3182
sg62
(lp3189
g55
(g56
g57
NtRp3190
(dp3191
g60
(dp3192
g68
I3
ssg69
g3186
sg62
(lp3193
S'127.0.0.1'
p3194
asbasbasbasbasbasbasbag55
(g71
g57
NtRp3195
(dp3196
g60
(dp3197
sg69
g2705
sg62
(lp3198
g55
(g76
g57
NtRp3199
(dp3200
g60
(dp3201
g80
g81
ssg69
g3195
sg62
(lp3202
S'path_info'
p3203
asbag55
(g76
g57
NtRp3204
(dp3205
g60
(dp3206
g87
g88
ssg69
g3195
sg62
(lp3207
S':'
asbag55
(g76
g57
NtRp3208
(dp3209
g60
(dp3210
sg69
g3195
sg62
(lp3211
g55
(g56
g57
NtRp3212
(dp3213
g60
(dp3214
g68
I4
ssg69
g3208
sg62
(lp3215
S'/reddit/default/index'
p3216
asbasbasbag55
(g71
g57
NtRp3217
(dp3218
g60
(dp3219
sg69
g2705
sg62
(lp3220
g55
(g76
g57
NtRp3221
(dp3222
g60
(dp3223
g80
g81
ssg69
g3217
sg62
(lp3224
S'query_string'
p3225
asbag55
(g76
g57
NtRp3226
(dp3227
g60
(dp3228
g87
g88
ssg69
g3217
sg62
(lp3229
S':'
asbag55
(g76
g57
NtRp3230
(dp3231
g60
(dp3232
sg69
g3217
sg62
(lp3233
g55
(g56
g57
NtRp3234
(dp3235
g60
(dp3236
g68
I4
ssg69
g3230
sg62
(lp3237
S''
asbasbasbag55
(g71
g57
NtRp3238
(dp3239
g60
(dp3240
sg69
g2705
sg62
(lp3241
g55
(g76
g57
NtRp3242
(dp3243
g60
(dp3244
g80
g81
ssg69
g3238
sg62
(lp3245
S'remote_addr'
p3246
asbag55
(g76
g57
NtRp3247
(dp3248
g60
(dp3249
g87
g88
ssg69
g3238
sg62
(lp3250
S':'
asbag55
(g76
g57
NtRp3251
(dp3252
g60
(dp3253
sg69
g3238
sg62
(lp3254
g55
(g56
g57
NtRp3255
(dp3256
g60
(dp3257
g68
I4
ssg69
g3251
sg62
(lp3258
g210
asbasbasbag55
(g71
g57
NtRp3259
(dp3260
g60
(dp3261
sg69
g2705
sg62
(lp3262
g55
(g76
g57
NtRp3263
(dp3264
g60
(dp3265
g80
g81
ssg69
g3259
sg62
(lp3266
S'remote_port'
p3267
asbag55
(g76
g57
NtRp3268
(dp3269
g60
(dp3270
g87
g88
ssg69
g3259
sg62
(lp3271
S':'
asbag55
(g76
g57
NtRp3272
(dp3273
g60
(dp3274
sg69
g3259
sg62
(lp3275
g55
(g56
g57
NtRp3276
(dp3277
g60
(dp3278
g68
I4
ssg69
g3272
sg62
(lp3279
S'53056'
p3280
asbasbasbag55
(g71
g57
NtRp3281
(dp3282
g60
(dp3283
sg69
g2705
sg62
(lp3284
g55
(g76
g57
NtRp3285
(dp3286
g60
(dp3287
g80
g81
ssg69
g3281
sg62
(lp3288
S'request_method'
p3289
asbag55
(g76
g57
NtRp3290
(dp3291
g60
(dp3292
g87
g88
ssg69
g3281
sg62
(lp3293
S':'
asbag55
(g76
g57
NtRp3294
(dp3295
g60
(dp3296
sg69
g3281
sg62
(lp3297
g55
(g56
g57
NtRp3298
(dp3299
g60
(dp3300
g68
I4
ssg69
g3294
sg62
(lp3301
S'GET'
p3302
asbasbasbag55
(g71
g57
NtRp3303
(dp3304
g60
(dp3305
sg69
g2705
sg62
(lp3306
g55
(g76
g57
NtRp3307
(dp3308
g60
(dp3309
g80
g81
ssg69
g3303
sg62
(lp3310
S'request_uri'
p3311
asbag55
(g76
g57
NtRp3312
(dp3313
g60
(dp3314
g87
g88
ssg69
g3303
sg62
(lp3315
S':'
asbag55
(g76
g57
NtRp3316
(dp3317
g60
(dp3318
sg69
g3303
sg62
(lp3319
g55
(g56
g57
NtRp3320
(dp3321
g60
(dp3322
g68
I4
ssg69
g3316
sg62
(lp3323
g3216
asbasbasbag55
(g71
g57
NtRp3324
(dp3325
g60
(dp3326
sg69
g2705
sg62
(lp3327
g55
(g76
g57
NtRp3328
(dp3329
g60
(dp3330
g80
g81
ssg69
g3324
sg62
(lp3331
S'script_name'
p3332
asbag55
(g76
g57
NtRp3333
(dp3334
g60
(dp3335
g87
g88
ssg69
g3324
sg62
(lp3336
S':'
asbag55
(g76
g57
NtRp3337
(dp3338
g60
(dp3339
sg69
g3324
sg62
(lp3340
g55
(g56
g57
NtRp3341
(dp3342
g60
(dp3343
g68
I4
ssg69
g3337
sg62
(lp3344
S''
asbasbasbag55
(g71
g57
NtRp3345
(dp3346
g60
(dp3347
sg69
g2705
sg62
(lp3348
g55
(g76
g57
NtRp3349
(dp3350
g60
(dp3351
g80
g81
ssg69
g3345
sg62
(lp3352
S'server_name'
p3353
asbag55
(g76
g57
NtRp3354
(dp3355
g60
(dp3356
g87
g88
ssg69
g3345
sg62
(lp3357
S':'
asbag55
(g76
g57
NtRp3358
(dp3359
g60
(dp3360
sg69
g3345
sg62
(lp3361
g55
(g56
g57
NtRp3362
(dp3363
g60
(dp3364
g68
I4
ssg69
g3358
sg62
(lp3365
S'pankaj-HP-Pavilion-dv4-Notebook-PC'
p3366
asbasbasbag55
(g71
g57
NtRp3367
(dp3368
g60
(dp3369
sg69
g2705
sg62
(lp3370
g55
(g76
g57
NtRp3371
(dp3372
g60
(dp3373
g80
g81
ssg69
g3367
sg62
(lp3374
S'server_port'
p3375
asbag55
(g76
g57
NtRp3376
(dp3377
g60
(dp3378
g87
g88
ssg69
g3367
sg62
(lp3379
S':'
asbag55
(g76
g57
NtRp3380
(dp3381
g60
(dp3382
sg69
g3367
sg62
(lp3383
g55
(g56
g57
NtRp3384
(dp3385
g60
(dp3386
g68
I4
ssg69
g3380
sg62
(lp3387
S'8000'
p3388
asbasbasbag55
(g71
g57
NtRp3389
(dp3390
g60
(dp3391
sg69
g2705
sg62
(lp3392
g55
(g76
g57
NtRp3393
(dp3394
g60
(dp3395
g80
g81
ssg69
g3389
sg62
(lp3396
S'server_protocol'
p3397
asbag55
(g76
g57
NtRp3398
(dp3399
g60
(dp3400
g87
g88
ssg69
g3389
sg62
(lp3401
S':'
asbag55
(g76
g57
NtRp3402
(dp3403
g60
(dp3404
sg69
g3389
sg62
(lp3405
g55
(g56
g57
NtRp3406
(dp3407
g60
(dp3408
g68
I4
ssg69
g3402
sg62
(lp3409
S'HTTP/1.1'
p3410
asbasbasbag55
(g71
g57
NtRp3411
(dp3412
g60
(dp3413
sg69
g2705
sg62
(lp3414
g55
(g76
g57
NtRp3415
(dp3416
g60
(dp3417
g80
g81
ssg69
g3411
sg62
(lp3418
S'server_software'
p3419
asbag55
(g76
g57
NtRp3420
(dp3421
g60
(dp3422
g87
g88
ssg69
g3411
sg62
(lp3423
S':'
asbag55
(g76
g57
NtRp3424
(dp3425
g60
(dp3426
sg69
g3411
sg62
(lp3427
g55
(g56
g57
NtRp3428
(dp3429
g60
(dp3430
g68
I4
ssg69
g3424
sg62
(lp3431
S'Rocket 1.2.6'
p3432
asbasbasbag55
(g71
g57
NtRp3433
(dp3434
g60
(dp3435
sg69
g2705
sg62
(lp3436
g55
(g76
g57
NtRp3437
(dp3438
g60
(dp3439
g80
g81
ssg69
g3433
sg62
(lp3440
S'web2py_path'
p3441
asbag55
(g76
g57
NtRp3442
(dp3443
g60
(dp3444
g87
g88
ssg69
g3433
sg62
(lp3445
S':'
asbag55
(g76
g57
NtRp3446
(dp3447
g60
(dp3448
sg69
g3433
sg62
(lp3449
g55
(g56
g57
NtRp3450
(dp3451
g60
(dp3452
g68
I4
ssg69
g3446
sg62
(lp3453
g2752
asbasbasbag55
(g71
g57
NtRp3454
(dp3455
g60
(dp3456
sg69
g2705
sg62
(lp3457
g55
(g76
g57
NtRp3458
(dp3459
g60
(dp3460
g80
g81
ssg69
g3454
sg62
(lp3461
S'web2py_version'
p3462
asbag55
(g76
g57
NtRp3463
(dp3464
g60
(dp3465
g87
g88
ssg69
g3454
sg62
(lp3466
S':'
asbag55
(g76
g57
NtRp3467
(dp3468
g60
(dp3469
sg69
g3454
sg62
(lp3470
g55
(g56
g57
NtRp3471
(dp3472
g60
(dp3473
g68
I4
ssg69
g3467
sg62
(lp3474
g55
(g64
g57
NtRp3475
(dp3476
g60
(dp3477
g68
I3
ssg69
Nsg62
(lp3478
g55
(g71
g57
NtRp3479
(dp3480
g60
(dp3481
sg69
g3475
sg62
(lp3482
g55
(g76
g57
NtRp3483
(dp3484
g60
(dp3485
sg69
g3479
sg62
(lp3486
g55
(g56
g57
NtRp3487
(dp3488
g60
(dp3489
g68
I3
ssg69
g3483
sg62
(lp3490
S'2'
asbasbasbag55
(g71
g57
NtRp3491
(dp3492
g60
(dp3493
sg69
g3475
sg62
(lp3494
g55
(g76
g57
NtRp3495
(dp3496
g60
(dp3497
sg69
g3491
sg62
(lp3498
g55
(g56
g57
NtRp3499
(dp3500
g60
(dp3501
g68
I3
ssg69
g3495
sg62
(lp3502
S'3'
asbasbasbag55
(g71
g57
NtRp3503
(dp3504
g60
(dp3505
sg69
g3475
sg62
(lp3506
g55
(g76
g57
NtRp3507
(dp3508
g60
(dp3509
sg69
g3503
sg62
(lp3510
g55
(g56
g57
NtRp3511
(dp3512
g60
(dp3513
g68
I3
ssg69
g3507
sg62
(lp3514
S'2'
asbasbasbag55
(g71
g57
NtRp3515
(dp3516
g60
(dp3517
sg69
g3475
sg62
(lp3518
g55
(g76
g57
NtRp3519
(dp3520
g60
(dp3521
sg69
g3515
sg62
(lp3522
g55
(g56
g57
NtRp3523
(dp3524
g60
(dp3525
g68
I3
ssg69
g3519
sg62
(lp3526
S'datetime.datetime(2012, 12, 17, 15, 3, 30)'
p3527
asbasbasbag55
(g71
g57
NtRp3528
(dp3529
g60
(dp3530
sg69
g3475
sg62
(lp3531
g55
(g76
g57
NtRp3532
(dp3533
g60
(dp3534
sg69
g3528
sg62
(lp3535
g55
(g56
g57
NtRp3536
(dp3537
g60
(dp3538
g68
I3
ssg69
g3532
sg62
(lp3539
S'stable'
p3540
asbasbasbasbasbasbasbag55
(g71
g57
NtRp3541
(dp3542
g60
(dp3543
sg69
g2705
sg62
(lp3544
g55
(g76
g57
NtRp3545
(dp3546
g60
(dp3547
g80
g81
ssg69
g3541
sg62
(lp3548
S'wsgi_errors'
p3549
asbag55
(g76
g57
NtRp3550
(dp3551
g60
(dp3552
g87
g88
ssg69
g3541
sg62
(lp3553
S':'
asbag55
(g76
g57
NtRp3554
(dp3555
g60
(dp3556
sg69
g3541
sg62
(lp3557
g55
(g56
g57
NtRp3558
(dp3559
g60
(dp3560
g68
I4
ssg69
g3554
sg62
(lp3561
S"<open file '<stderr>', mode 'w' at 0xb72ac0d0>"
p3562
asbasbasbag55
(g71
g57
NtRp3563
(dp3564
g60
(dp3565
sg69
g2705
sg62
(lp3566
g55
(g76
g57
NtRp3567
(dp3568
g60
(dp3569
g80
g81
ssg69
g3563
sg62
(lp3570
S'wsgi_file_wrapper'
p3571
asbag55
(g76
g57
NtRp3572
(dp3573
g60
(dp3574
g87
g88
ssg69
g3563
sg62
(lp3575
S':'
asbag55
(g76
g57
NtRp3576
(dp3577
g60
(dp3578
sg69
g3563
sg62
(lp3579
g55
(g56
g57
NtRp3580
(dp3581
g60
(dp3582
g68
I4
ssg69
g3576
sg62
(lp3583
S'<class wsgiref.util.FileWrapper at 0x890f05c>'
p3584
asbasbasbag55
(g71
g57
NtRp3585
(dp3586
g60
(dp3587
sg69
g2705
sg62
(lp3588
g55
(g76
g57
NtRp3589
(dp3590
g60
(dp3591
g80
g81
ssg69
g3585
sg62
(lp3592
S'wsgi_input'
p3593
asbag55
(g76
g57
NtRp3594
(dp3595
g60
(dp3596
g87
g88
ssg69
g3585
sg62
(lp3597
S':'
asbag55
(g76
g57
NtRp3598
(dp3599
g60
(dp3600
sg69
g3585
sg62
(lp3601
g55
(g56
g57
NtRp3602
(dp3603
g60
(dp3604
g68
I4
ssg69
g3598
sg62
(lp3605
S'<socket._fileobject object at 0xaea6692c>'
p3606
asbasbasbag55
(g71
g57
NtRp3607
(dp3608
g60
(dp3609
sg69
g2705
sg62
(lp3610
g55
(g76
g57
NtRp3611
(dp3612
g60
(dp3613
g80
g81
ssg69
g3607
sg62
(lp3614
S'wsgi_multiprocess'
p3615
asbag55
(g76
g57
NtRp3616
(dp3617
g60
(dp3618
g87
g88
ssg69
g3607
sg62
(lp3619
S':'
asbag55
(g76
g57
NtRp3620
(dp3621
g60
(dp3622
sg69
g3607
sg62
(lp3623
g55
(g56
g57
NtRp3624
(dp3625
g60
(dp3626
g68
I4
ssg69
g3620
sg62
(lp3627
g98
asbasbasbag55
(g71
g57
NtRp3628
(dp3629
g60
(dp3630
sg69
g2705
sg62
(lp3631
g55
(g76
g57
NtRp3632
(dp3633
g60
(dp3634
g80
g81
ssg69
g3628
sg62
(lp3635
S'wsgi_multithread'
p3636
asbag55
(g76
g57
NtRp3637
(dp3638
g60
(dp3639
g87
g88
ssg69
g3628
sg62
(lp3640
S':'
asbag55
(g76
g57
NtRp3641
(dp3642
g60
(dp3643
sg69
g3628
sg62
(lp3644
g55
(g56
g57
NtRp3645
(dp3646
g60
(dp3647
g68
I4
ssg69
g3641
sg62
(lp3648
S'True'
p3649
asbasbasbag55
(g71
g57
NtRp3650
(dp3651
g60
(dp3652
sg69
g2705
sg62
(lp3653
g55
(g76
g57
NtRp3654
(dp3655
g60
(dp3656
g80
g81
ssg69
g3650
sg62
(lp3657
S'wsgi_run_once'
p3658
asbag55
(g76
g57
NtRp3659
(dp3660
g60
(dp3661
g87
g88
ssg69
g3650
sg62
(lp3662
S':'
asbag55
(g76
g57
NtRp3663
(dp3664
g60
(dp3665
sg69
g3650
sg62
(lp3666
g55
(g56
g57
NtRp3667
(dp3668
g60
(dp3669
g68
I4
ssg69
g3663
sg62
(lp3670
g98
asbasbasbag55
(g71
g57
NtRp3671
(dp3672
g60
(dp3673
sg69
g2705
sg62
(lp3674
g55
(g76
g57
NtRp3675
(dp3676
g60
(dp3677
g80
g81
ssg69
g3671
sg62
(lp3678
S'wsgi_url_scheme'
p3679
asbag55
(g76
g57
NtRp3680
(dp3681
g60
(dp3682
g87
g88
ssg69
g3671
sg62
(lp3683
S':'
asbag55
(g76
g57
NtRp3684
(dp3685
g60
(dp3686
sg69
g3671
sg62
(lp3687
g55
(g56
g57
NtRp3688
(dp3689
g60
(dp3690
g68
I4
ssg69
g3684
sg62
(lp3691
S'http'
p3692
asbasbasbag55
(g71
g57
NtRp3693
(dp3694
g60
(dp3695
sg69
g2705
sg62
(lp3696
g55
(g76
g57
NtRp3697
(dp3698
g60
(dp3699
g80
g81
ssg69
g3693
sg62
(lp3700
S'wsgi_version'
p3701
asbag55
(g76
g57
NtRp3702
(dp3703
g60
(dp3704
g87
g88
ssg69
g3693
sg62
(lp3705
S':'
asbag55
(g76
g57
NtRp3706
(dp3707
g60
(dp3708
sg69
g3693
sg62
(lp3709
g55
(g56
g57
NtRp3710
(dp3711
g60
(dp3712
g68
I4
ssg69
g3706
sg62
(lp3713
g55
(g64
g57
NtRp3714
(dp3715
g60
(dp3716
g68
I3
ssg69
Nsg62
(lp3717
g55
(g71
g57
NtRp3718
(dp3719
g60
(dp3720
sg69
g3714
sg62
(lp3721
g55
(g76
g57
NtRp3722
(dp3723
g60
(dp3724
sg69
g3718
sg62
(lp3725
g55
(g56
g57
NtRp3726
(dp3727
g60
(dp3728
g68
I3
ssg69
g3722
sg62
(lp3729
S'1'
asbasbasbag55
(g71
g57
NtRp3730
(dp3731
g60
(dp3732
sg69
g3714
sg62
(lp3733
g55
(g76
g57
NtRp3734
(dp3735
g60
(dp3736
sg69
g3730
sg62
(lp3737
g55
(g56
g57
NtRp3738
(dp3739
g60
(dp3740
g68
I3
ssg69
g3734
sg62
(lp3741
S'0'
asbasbasbasbasbasbasbasbasbasbasbag55
(g71
g57
NtRp3742
(dp3743
g60
(dp3744
sg69
g65
sg62
(lp3745
g55
(g76
g57
NtRp3746
(dp3747
g60
(dp3748
g80
g81
ssg69
g3742
sg62
(lp3749
S'extension'
p3750
asbag55
(g76
g57
NtRp3751
(dp3752
g60
(dp3753
g87
g88
ssg69
g3742
sg62
(lp3754
S':'
asbag55
(g76
g57
NtRp3755
(dp3756
g60
(dp3757
sg69
g3742
sg62
(lp3758
g55
(g56
g57
NtRp3759
(dp3760
g60
(dp3761
g68
I5
ssg69
g3755
sg62
(lp3762
S'html'
p3763
asbasbasbag55
(g71
g57
NtRp3764
(dp3765
g60
(dp3766
sg69
g65
sg62
(lp3767
g55
(g76
g57
NtRp3768
(dp3769
g60
(dp3770
g80
g81
ssg69
g3764
sg62
(lp3771
S'folder'
p3772
asbag55
(g76
g57
NtRp3773
(dp3774
g60
(dp3775
g87
g88
ssg69
g3764
sg62
(lp3776
S':'
asbag55
(g76
g57
NtRp3777
(dp3778
g60
(dp3779
sg69
g3764
sg62
(lp3780
g55
(g56
g57
NtRp3781
(dp3782
g60
(dp3783
g68
I5
ssg69
g3777
sg62
(lp3784
S'/home/pankaj/web2py/applications/reddit/'
p3785
asbasbasbag55
(g71
g57
NtRp3786
(dp3787
g60
(dp3788
sg69
g65
sg62
(lp3789
g55
(g76
g57
NtRp3790
(dp3791
g60
(dp3792
g80
g81
ssg69
g3786
sg62
(lp3793
S'function'
p3794
asbag55
(g76
g57
NtRp3795
(dp3796
g60
(dp3797
g87
g88
ssg69
g3786
sg62
(lp3798
S':'
asbag55
(g76
g57
NtRp3799
(dp3800
g60
(dp3801
sg69
g3786
sg62
(lp3802
g55
(g56
g57
NtRp3803
(dp3804
g60
(dp3805
g68
I5
ssg69
g3799
sg62
(lp3806
S'index'
p3807
asbasbasbag55
(g71
g57
NtRp3808
(dp3809
g60
(dp3810
sg69
g65
sg62
(lp3811
g55
(g76
g57
NtRp3812
(dp3813
g60
(dp3814
g80
g81
ssg69
g3808
sg62
(lp3815
S'get_vars'
p3816
asbag55
(g76
g57
NtRp3817
(dp3818
g60
(dp3819
g87
g88
ssg69
g3808
sg62
(lp3820
S':'
asbag55
(g76
g57
NtRp3821
(dp3822
g60
(dp3823
sg69
g3808
sg62
(lp3824
g55
(g56
g57
NtRp3825
(dp3826
g60
(dp3827
g68
I5
ssg69
g3821
sg62
(lp3828
g55
(g64
g57
NtRp3829
(dp3830
g60
(dp3831
g68
I4
ssg69
Nsg62
(lp3832
sbasbasbasbag55
(g71
g57
NtRp3833
(dp3834
g60
(dp3835
sg69
g65
sg62
(lp3836
g55
(g76
g57
NtRp3837
(dp3838
g60
(dp3839
g80
g81
ssg69
g3833
sg62
(lp3840
S'global_settings'
p3841
asbag55
(g76
g57
NtRp3842
(dp3843
g60
(dp3844
g87
g88
ssg69
g3833
sg62
(lp3845
S':'
asbag55
(g76
g57
NtRp3846
(dp3847
g60
(dp3848
sg69
g3833
sg62
(lp3849
g55
(g56
g57
NtRp3850
(dp3851
g60
(dp3852
g68
I5
ssg69
g3846
sg62
(lp3853
g55
(g64
g57
NtRp3854
(dp3855
g60
(dp3856
g68
I4
ssg69
Nsg62
(lp3857
g55
(g71
g57
NtRp3858
(dp3859
g60
(dp3860
sg69
g3854
sg62
(lp3861
g55
(g76
g57
NtRp3862
(dp3863
g60
(dp3864
g80
g81
ssg69
g3858
sg62
(lp3865
g2717
asbag55
(g76
g57
NtRp3866
(dp3867
g60
(dp3868
g87
g88
ssg69
g3858
sg62
(lp3869
S':'
asbag55
(g76
g57
NtRp3870
(dp3871
g60
(dp3872
sg69
g3858
sg62
(lp3873
g55
(g56
g57
NtRp3874
(dp3875
g60
(dp3876
g68
I4
ssg69
g3870
sg62
(lp3877
S"set(['/home/pankaj/web2py/applications/admin/', '/home/pankaj/web2py/applications/welcome/', '/home/pankaj/web2py/applications/reddit/', '/home/pankaj/web2py/applications/try/'])"
p3878
asbasbasbag55
(g71
g57
NtRp3879
(dp3880
g60
(dp3881
sg69
g3854
sg62
(lp3882
g55
(g76
g57
NtRp3883
(dp3884
g60
(dp3885
g80
g81
ssg69
g3879
sg62
(lp3886
g2739
asbag55
(g76
g57
NtRp3887
(dp3888
g60
(dp3889
g87
g88
ssg69
g3879
sg62
(lp3890
S':'
asbag55
(g76
g57
NtRp3891
(dp3892
g60
(dp3893
sg69
g3879
sg62
(lp3894
g55
(g56
g57
NtRp3895
(dp3896
g60
(dp3897
g68
I4
ssg69
g3891
sg62
(lp3898
g2752
asbasbasbag55
(g71
g57
NtRp3899
(dp3900
g60
(dp3901
sg69
g3854
sg62
(lp3902
g55
(g76
g57
NtRp3903
(dp3904
g60
(dp3905
g80
g81
ssg69
g3899
sg62
(lp3906
g2761
asbag55
(g76
g57
NtRp3907
(dp3908
g60
(dp3909
g87
g88
ssg69
g3899
sg62
(lp3910
S':'
asbag55
(g76
g57
NtRp3911
(dp3912
g60
(dp3913
sg69
g3899
sg62
(lp3914
g55
(g56
g57
NtRp3915
(dp3916
g60
(dp3917
g68
I4
ssg69
g3911
sg62
(lp3918
g55
(g64
g57
NtRp3919
(dp3920
g60
(dp3921
g68
I3
ssg69
Nsg62
(lp3922
sbasbasbasbag55
(g71
g57
NtRp3923
(dp3924
g60
(dp3925
sg69
g3854
sg62
(lp3926
g55
(g76
g57
NtRp3927
(dp3928
g60
(dp3929
g80
g81
ssg69
g3923
sg62
(lp3930
g2786
asbag55
(g76
g57
NtRp3931
(dp3932
g60
(dp3933
g87
g88
ssg69
g3923
sg62
(lp3934
S':'
asbag55
(g76
g57
NtRp3935
(dp3936
g60
(dp3937
sg69
g3923
sg62
(lp3938
g55
(g56
g57
NtRp3939
(dp3940
g60
(dp3941
g68
I4
ssg69
g3935
sg62
(lp3942
S"<Values at 0x8949dcc: {'verbose': False, 'ip': '127.0.0.1', 'with_scheduler': False, 'ips': [], 'shutdown_timeout': 5, 'taskbar': False, 'port': 8000, 'maxthreads': None, 'softcron': False, 'server_name': 'pankaj-HP-Pavilion-dv4-Notebook-PC', 'bpython': False, 'nogui': False, 'pid_filename': 'httpserver.pid', 'extcron': False, 'runcron': False, 'run_system_tests': False, 'test': None, 'folder': '/home/pankaj/web2py', 'config': '', 'import_models': False, 'winservice': '', 'shell': None, 'run': '', 'log_filename': 'httpserver.log', 'debuglevel': 30, 'args': [''], 'socket_timeout': 5, 'ssl_ca_certificate': None, 'scheduler': None, 'profiler_filename': None, 'ssl_private_key': '', 'scheduler_groups': None, 'password': '<ask>', 'request_queue_size': 5, 'ssl_certificate': '', 'cronjob': False, 'numthreads': None, 'quiet': False, 'interfaces': None, 'minthreads': None, 'timeout': 10, 'plain': False, 'nobanner': False}>"
p3943
asbasbasbag55
(g71
g57
NtRp3944
(dp3945
g60
(dp3946
sg69
g3854
sg62
(lp3947
g55
(g76
g57
NtRp3948
(dp3949
g60
(dp3950
g80
g81
ssg69
g3944
sg62
(lp3951
g2808
asbag55
(g76
g57
NtRp3952
(dp3953
g60
(dp3954
g87
g88
ssg69
g3944
sg62
(lp3955
S':'
asbag55
(g76
g57
NtRp3956
(dp3957
g60
(dp3958
sg69
g3944
sg62
(lp3959
g55
(g56
g57
NtRp3960
(dp3961
g60
(dp3962
g68
I4
ssg69
g3956
sg62
(lp3963
S'set([])'
p3964
asbasbasbag55
(g71
g57
NtRp3965
(dp3966
g60
(dp3967
sg69
g3854
sg62
(lp3968
g55
(g76
g57
NtRp3969
(dp3970
g60
(dp3971
g80
g81
ssg69
g3965
sg62
(lp3972
g2830
asbag55
(g76
g57
NtRp3973
(dp3974
g60
(dp3975
g87
g88
ssg69
g3965
sg62
(lp3976
S':'
asbag55
(g76
g57
NtRp3977
(dp3978
g60
(dp3979
sg69
g3965
sg62
(lp3980
g55
(g56
g57
NtRp3981
(dp3982
g60
(dp3983
g68
I4
ssg69
g3977
sg62
(lp3984
g98
asbasbasbag55
(g71
g57
NtRp3985
(dp3986
g60
(dp3987
sg69
g3854
sg62
(lp3988
g55
(g76
g57
NtRp3989
(dp3990
g60
(dp3991
g80
g81
ssg69
g3985
sg62
(lp3992
g2851
asbag55
(g76
g57
NtRp3993
(dp3994
g60
(dp3995
g87
g88
ssg69
g3985
sg62
(lp3996
S':'
asbag55
(g76
g57
NtRp3997
(dp3998
g60
(dp3999
sg69
g3985
sg62
(lp4000
g55
(g56
g57
NtRp4001
(dp4002
g60
(dp4003
g68
I4
ssg69
g3997
sg62
(lp4004
g2864
asbasbasbag55
(g71
g57
NtRp4005
(dp4006
g60
(dp4007
sg69
g3854
sg62
(lp4008
g55
(g76
g57
NtRp4009
(dp4010
g60
(dp4011
g80
g81
ssg69
g4005
sg62
(lp4012
g3071
asbag55
(g76
g57
NtRp4013
(dp4014
g60
(dp4015
g87
g88
ssg69
g4005
sg62
(lp4016
S':'
asbag55
(g76
g57
NtRp4017
(dp4018
g60
(dp4019
sg69
g4005
sg62
(lp4020
g55
(g56
g57
NtRp4021
(dp4022
g60
(dp4023
g68
I4
ssg69
g4017
sg62
(lp4024
g98
asbasbasbag55
(g71
g57
NtRp4025
(dp4026
g60
(dp4027
sg69
g3854
sg62
(lp4028
g55
(g76
g57
NtRp4029
(dp4030
g60
(dp4031
g80
g81
ssg69
g4025
sg62
(lp4032
g3092
asbag55
(g76
g57
NtRp4033
(dp4034
g60
(dp4035
g87
g88
ssg69
g4025
sg62
(lp4036
S':'
asbag55
(g76
g57
NtRp4037
(dp4038
g60
(dp4039
sg69
g4025
sg62
(lp4040
g55
(g56
g57
NtRp4041
(dp4042
g60
(dp4043
g68
I4
ssg69
g4037
sg62
(lp4044
g98
asbasbasbag55
(g71
g57
NtRp4045
(dp4046
g60
(dp4047
sg69
g3854
sg62
(lp4048
g55
(g76
g57
NtRp4049
(dp4050
g60
(dp4051
g80
g81
ssg69
g4045
sg62
(lp4052
g3113
asbag55
(g76
g57
NtRp4053
(dp4054
g60
(dp4055
g87
g88
ssg69
g4045
sg62
(lp4056
S':'
asbag55
(g76
g57
NtRp4057
(dp4058
g60
(dp4059
sg69
g4045
sg62
(lp4060
g55
(g56
g57
NtRp4061
(dp4062
g60
(dp4063
g68
I4
ssg69
g4057
sg62
(lp4064
g55
(g64
g57
NtRp4065
(dp4066
g60
(dp4067
g68
I3
ssg69
Nsg62
(lp4068
g55
(g71
g57
NtRp4069
(dp4070
g60
(dp4071
sg69
g4065
sg62
(lp4072
g55
(g76
g57
NtRp4073
(dp4074
g60
(dp4075
sg69
g4069
sg62
(lp4076
g55
(g56
g57
NtRp4077
(dp4078
g60
(dp4079
g68
I3
ssg69
g4073
sg62
(lp4080
g3142
asbasbasbag55
(g71
g57
NtRp4081
(dp4082
g60
(dp4083
sg69
g4065
sg62
(lp4084
g55
(g76
g57
NtRp4085
(dp4086
g60
(dp4087
sg69
g4081
sg62
(lp4088
g55
(g56
g57
NtRp4089
(dp4090
g60
(dp4091
g68
I3
ssg69
g4085
sg62
(lp4092
g3155
asbasbasbag55
(g71
g57
NtRp4093
(dp4094
g60
(dp4095
sg69
g4065
sg62
(lp4096
g55
(g76
g57
NtRp4097
(dp4098
g60
(dp4099
sg69
g4093
sg62
(lp4100
g55
(g56
g57
NtRp4101
(dp4102
g60
(dp4103
g68
I3
ssg69
g4097
sg62
(lp4104
g3168
asbasbasbag55
(g71
g57
NtRp4105
(dp4106
g60
(dp4107
sg69
g4065
sg62
(lp4108
g55
(g76
g57
NtRp4109
(dp4110
g60
(dp4111
sg69
g4105
sg62
(lp4112
g55
(g56
g57
NtRp4113
(dp4114
g60
(dp4115
g68
I3
ssg69
g4109
sg62
(lp4116
g3181
asbasbasbag55
(g71
g57
NtRp4117
(dp4118
g60
(dp4119
sg69
g4065
sg62
(lp4120
g55
(g76
g57
NtRp4121
(dp4122
g60
(dp4123
sg69
g4117
sg62
(lp4124
g55
(g56
g57
NtRp4125
(dp4126
g60
(dp4127
g68
I3
ssg69
g4121
sg62
(lp4128
g3194
asbasbasbasbasbasbasbag55
(g71
g57
NtRp4129
(dp4130
g60
(dp4131
sg69
g3854
sg62
(lp4132
g55
(g76
g57
NtRp4133
(dp4134
g60
(dp4135
g80
g81
ssg69
g4129
sg62
(lp4136
g3462
asbag55
(g76
g57
NtRp4137
(dp4138
g60
(dp4139
g87
g88
ssg69
g4129
sg62
(lp4140
S':'
asbag55
(g76
g57
NtRp4141
(dp4142
g60
(dp4143
sg69
g4129
sg62
(lp4144
g55
(g56
g57
NtRp4145
(dp4146
g60
(dp4147
g68
I4
ssg69
g4141
sg62
(lp4148
g55
(g64
g57
NtRp4149
(dp4150
g60
(dp4151
g68
I3
ssg69
Nsg62
(lp4152
g55
(g71
g57
NtRp4153
(dp4154
g60
(dp4155
sg69
g4149
sg62
(lp4156
g55
(g76
g57
NtRp4157
(dp4158
g60
(dp4159
sg69
g4153
sg62
(lp4160
g55
(g56
g57
NtRp4161
(dp4162
g60
(dp4163
g68
I3
ssg69
g4157
sg62
(lp4164
S'2'
asbasbasbag55
(g71
g57
NtRp4165
(dp4166
g60
(dp4167
sg69
g4149
sg62
(lp4168
g55
(g76
g57
NtRp4169
(dp4170
g60
(dp4171
sg69
g4165
sg62
(lp4172
g55
(g56
g57
NtRp4173
(dp4174
g60
(dp4175
g68
I3
ssg69
g4169
sg62
(lp4176
S'3'
asbasbasbag55
(g71
g57
NtRp4177
(dp4178
g60
(dp4179
sg69
g4149
sg62
(lp4180
g55
(g76
g57
NtRp4181
(dp4182
g60
(dp4183
sg69
g4177
sg62
(lp4184
g55
(g56
g57
NtRp4185
(dp4186
g60
(dp4187
g68
I3
ssg69
g4181
sg62
(lp4188
S'2'
asbasbasbag55
(g71
g57
NtRp4189
(dp4190
g60
(dp4191
sg69
g4149
sg62
(lp4192
g55
(g76
g57
NtRp4193
(dp4194
g60
(dp4195
sg69
g4189
sg62
(lp4196
g55
(g56
g57
NtRp4197
(dp4198
g60
(dp4199
g68
I3
ssg69
g4193
sg62
(lp4200
S'datetime.datetime(2012, 12, 17, 15, 3, 30)'
p4201
asbasbasbag55
(g71
g57
NtRp4202
(dp4203
g60
(dp4204
sg69
g4149
sg62
(lp4205
g55
(g76
g57
NtRp4206
(dp4207
g60
(dp4208
sg69
g4202
sg62
(lp4209
g55
(g56
g57
NtRp4210
(dp4211
g60
(dp4212
g68
I3
ssg69
g4206
sg62
(lp4213
g3540
asbasbasbasbasbasbasbasbasbasbasbag55
(g71
g57
NtRp4214
(dp4215
g60
(dp4216
sg69
g65
sg62
(lp4217
g55
(g76
g57
NtRp4218
(dp4219
g60
(dp4220
g80
g81
ssg69
g4214
sg62
(lp4221
S'is_https'
p4222
asbag55
(g76
g57
NtRp4223
(dp4224
g60
(dp4225
g87
g88
ssg69
g4214
sg62
(lp4226
S':'
asbag55
(g76
g57
NtRp4227
(dp4228
g60
(dp4229
sg69
g4214
sg62
(lp4230
g55
(g56
g57
NtRp4231
(dp4232
g60
(dp4233
g68
I5
ssg69
g4227
sg62
(lp4234
g98
asbasbasbag55
(g71
g57
NtRp4235
(dp4236
g60
(dp4237
sg69
g65
sg62
(lp4238
g55
(g76
g57
NtRp4239
(dp4240
g60
(dp4241
g80
g81
ssg69
g4235
sg62
(lp4242
S'is_local'
p4243
asbag55
(g76
g57
NtRp4244
(dp4245
g60
(dp4246
g87
g88
ssg69
g4235
sg62
(lp4247
S':'
asbag55
(g76
g57
NtRp4248
(dp4249
g60
(dp4250
sg69
g4235
sg62
(lp4251
g55
(g56
g57
NtRp4252
(dp4253
g60
(dp4254
g68
I5
ssg69
g4248
sg62
(lp4255
g3649
asbasbasbag55
(g71
g57
NtRp4256
(dp4257
g60
(dp4258
sg69
g65
sg62
(lp4259
g55
(g76
g57
NtRp4260
(dp4261
g60
(dp4262
g80
g81
ssg69
g4256
sg62
(lp4263
S'is_restful'
p4264
asbag55
(g76
g57
NtRp4265
(dp4266
g60
(dp4267
g87
g88
ssg69
g4256
sg62
(lp4268
S':'
asbag55
(g76
g57
NtRp4269
(dp4270
g60
(dp4271
sg69
g4256
sg62
(lp4272
g55
(g56
g57
NtRp4273
(dp4274
g60
(dp4275
g68
I5
ssg69
g4269
sg62
(lp4276
g98
asbasbasbag55
(g71
g57
NtRp4277
(dp4278
g60
(dp4279
sg69
g65
sg62
(lp4280
g55
(g76
g57
NtRp4281
(dp4282
g60
(dp4283
g80
g81
ssg69
g4277
sg62
(lp4284
S'now'
p4285
asbag55
(g76
g57
NtRp4286
(dp4287
g60
(dp4288
g87
g88
ssg69
g4277
sg62
(lp4289
S':'
asbag55
(g76
g57
NtRp4290
(dp4291
g60
(dp4292
sg69
g4277
sg62
(lp4293
g55
(g56
g57
NtRp4294
(dp4295
g60
(dp4296
g68
I5
ssg69
g4290
sg62
(lp4297
S'datetime.datetime(2013, 8, 29, 2, 1, 2, 388076)'
p4298
asbasbasbag55
(g71
g57
NtRp4299
(dp4300
g60
(dp4301
sg69
g65
sg62
(lp4302
g55
(g76
g57
NtRp4303
(dp4304
g60
(dp4305
g80
g81
ssg69
g4299
sg62
(lp4306
S'post_vars'
p4307
asbag55
(g76
g57
NtRp4308
(dp4309
g60
(dp4310
g87
g88
ssg69
g4299
sg62
(lp4311
S':'
asbag55
(g76
g57
NtRp4312
(dp4313
g60
(dp4314
sg69
g4299
sg62
(lp4315
g55
(g56
g57
NtRp4316
(dp4317
g60
(dp4318
g68
I5
ssg69
g4312
sg62
(lp4319
g55
(g64
g57
NtRp4320
(dp4321
g60
(dp4322
g68
I4
ssg69
Nsg62
(lp4323
sbasbasbasbag55
(g71
g57
NtRp4324
(dp4325
g60
(dp4326
sg69
g65
sg62
(lp4327
g55
(g76
g57
NtRp4328
(dp4329
g60
(dp4330
g80
g81
ssg69
g4324
sg62
(lp4331
S'raw_args'
p4332
asbag55
(g76
g57
NtRp4333
(dp4334
g60
(dp4335
g87
g88
ssg69
g4324
sg62
(lp4336
S':'
asbag55
(g76
g57
NtRp4337
(dp4338
g60
(dp4339
sg69
g4324
sg62
(lp4340
g55
(g56
g57
NtRp4341
(dp4342
g60
(dp4343
g68
I5
ssg69
g4337
sg62
(lp4344
S''
asbasbasbag55
(g71
g57
NtRp4345
(dp4346
g60
(dp4347
sg69
g65
sg62
(lp4348
g55
(g76
g57
NtRp4349
(dp4350
g60
(dp4351
g80
g81
ssg69
g4345
sg62
(lp4352
S'raw_extension'
p4353
asbag55
(g76
g57
NtRp4354
(dp4355
g60
(dp4356
g87
g88
ssg69
g4345
sg62
(lp4357
S':'
asbag55
(g76
g57
NtRp4358
(dp4359
g60
(dp4360
sg69
g4345
sg62
(lp4361
g55
(g56
g57
NtRp4362
(dp4363
g60
(dp4364
g68
I5
ssg69
g4358
sg62
(lp4365
S'None'
p4366
asbasbasbag55
(g71
g57
NtRp4367
(dp4368
g60
(dp4369
sg69
g65
sg62
(lp4370
g55
(g76
g57
NtRp4371
(dp4372
g60
(dp4373
g80
g81
ssg69
g4367
sg62
(lp4374
S'url'
p4375
asbag55
(g76
g57
NtRp4376
(dp4377
g60
(dp4378
g87
g88
ssg69
g4367
sg62
(lp4379
S':'
asbag55
(g76
g57
NtRp4380
(dp4381
g60
(dp4382
sg69
g4367
sg62
(lp4383
g55
(g56
g57
NtRp4384
(dp4385
g60
(dp4386
g68
I5
ssg69
g4380
sg62
(lp4387
g3216
asbasbasbag55
(g71
g57
NtRp4388
(dp4389
g60
(dp4390
sg69
g65
sg62
(lp4391
g55
(g76
g57
NtRp4392
(dp4393
g60
(dp4394
g80
g81
ssg69
g4388
sg62
(lp4395
S'utcnow'
p4396
asbag55
(g76
g57
NtRp4397
(dp4398
g60
(dp4399
g87
g88
ssg69
g4388
sg62
(lp4400
S':'
asbag55
(g76
g57
NtRp4401
(dp4402
g60
(dp4403
sg69
g4388
sg62
(lp4404
g55
(g56
g57
NtRp4405
(dp4406
g60
(dp4407
g68
I5
ssg69
g4401
sg62
(lp4408
S'datetime.datetime(2013, 8, 28, 20, 31, 2, 388106)'
p4409
asbasbasbag55
(g71
g57
NtRp4410
(dp4411
g60
(dp4412
sg69
g65
sg62
(lp4413
g55
(g76
g57
NtRp4414
(dp4415
g60
(dp4416
g80
g81
ssg69
g4410
sg62
(lp4417
S'uuid'
p4418
asbag55
(g76
g57
NtRp4419
(dp4420
g60
(dp4421
g87
g88
ssg69
g4410
sg62
(lp4422
S':'
asbag55
(g76
g57
NtRp4423
(dp4424
g60
(dp4425
sg69
g4410
sg62
(lp4426
g55
(g56
g57
NtRp4427
(dp4428
g60
(dp4429
g68
I5
ssg69
g4423
sg62
(lp4430
S'reddit/127.0.0.1.2013-08-29.02-01-02.f0adf7c0-54a0-4205-a699-5ad8ae72ab65'
p4431
asbasbasbag55
(g71
g57
NtRp4432
(dp4433
g60
(dp4434
sg69
g65
sg62
(lp4435
g55
(g76
g57
NtRp4436
(dp4437
g60
(dp4438
g80
g81
ssg69
g4432
sg62
(lp4439
S'vars'
p4440
asbag55
(g76
g57
NtRp4441
(dp4442
g60
(dp4443
g87
g88
ssg69
g4432
sg62
(lp4444
S':'
asbag55
(g76
g57
NtRp4445
(dp4446
g60
(dp4447
sg69
g4432
sg62
(lp4448
g55
(g56
g57
NtRp4449
(dp4450
g60
(dp4451
g68
I5
ssg69
g4445
sg62
(lp4452
g55
(g64
g57
NtRp4453
(dp4454
g60
(dp4455
g68
I4
ssg69
Nsg62
(lp4456
sbasbasbasbag55
(g71
g57
NtRp4457
(dp4458
g60
(dp4459
sg69
g65
sg62
(lp4460
g55
(g76
g57
NtRp4461
(dp4462
g60
(dp4463
g80
g81
ssg69
g4457
sg62
(lp4464
S'wsgi'
p4465
asbag55
(g76
g57
NtRp4466
(dp4467
g60
(dp4468
g87
g88
ssg69
g4457
sg62
(lp4469
S':'
asbag55
(g76
g57
NtRp4470
(dp4471
g60
(dp4472
sg69
g4457
sg62
(lp4473
g55
(g56
g57
NtRp4474
(dp4475
g60
(dp4476
g68
I5
ssg69
g4470
sg62
(lp4477
g55
(g64
g57
NtRp4478
(dp4479
g60
(dp4480
g68
I4
ssg69
Nsg62
(lp4481
g55
(g71
g57
NtRp4482
(dp4483
g60
(dp4484
sg69
g4478
sg62
(lp4485
g55
(g76
g57
NtRp4486
(dp4487
g60
(dp4488
g80
g81
ssg69
g4482
sg62
(lp4489
S'environ'
p4490
asbag55
(g76
g57
NtRp4491
(dp4492
g60
(dp4493
g87
g88
ssg69
g4482
sg62
(lp4494
S':'
asbag55
(g76
g57
NtRp4495
(dp4496
g60
(dp4497
sg69
g4482
sg62
(lp4498
g55
(g56
g57
NtRp4499
(dp4500
g60
(dp4501
g68
I4
ssg69
g4495
sg62
(lp4502
g55
(g64
g57
NtRp4503
(dp4504
g60
(dp4505
g68
I3
ssg69
Nsg62
(lp4506
g55
(g71
g57
NtRp4507
(dp4508
g60
(dp4509
sg69
g4503
sg62
(lp4510
g55
(g76
g57
NtRp4511
(dp4512
g60
(dp4513
g80
g81
ssg69
g4507
sg62
(lp4514
S'HTTP_ACCEPT'
p4515
asbag55
(g76
g57
NtRp4516
(dp4517
g60
(dp4518
g87
g88
ssg69
g4507
sg62
(lp4519
S':'
asbag55
(g76
g57
NtRp4520
(dp4521
g60
(dp4522
sg69
g4507
sg62
(lp4523
g55
(g56
g57
NtRp4524
(dp4525
g60
(dp4526
g68
I3
ssg69
g4520
sg62
(lp4527
g2886
asbasbasbag55
(g71
g57
NtRp4528
(dp4529
g60
(dp4530
sg69
g4503
sg62
(lp4531
g55
(g76
g57
NtRp4532
(dp4533
g60
(dp4534
g80
g81
ssg69
g4528
sg62
(lp4535
S'HTTP_ACCEPT_ENCODING'
p4536
asbag55
(g76
g57
NtRp4537
(dp4538
g60
(dp4539
g87
g88
ssg69
g4528
sg62
(lp4540
S':'
asbag55
(g76
g57
NtRp4541
(dp4542
g60
(dp4543
sg69
g4528
sg62
(lp4544
g55
(g56
g57
NtRp4545
(dp4546
g60
(dp4547
g68
I3
ssg69
g4541
sg62
(lp4548
g2908
asbasbasbag55
(g71
g57
NtRp4549
(dp4550
g60
(dp4551
sg69
g4503
sg62
(lp4552
g55
(g76
g57
NtRp4553
(dp4554
g60
(dp4555
g80
g81
ssg69
g4549
sg62
(lp4556
S'HTTP_ACCEPT_LANGUAGE'
p4557
asbag55
(g76
g57
NtRp4558
(dp4559
g60
(dp4560
g87
g88
ssg69
g4549
sg62
(lp4561
S':'
asbag55
(g76
g57
NtRp4562
(dp4563
g60
(dp4564
sg69
g4549
sg62
(lp4565
g55
(g56
g57
NtRp4566
(dp4567
g60
(dp4568
g68
I3
ssg69
g4562
sg62
(lp4569
g2930
asbasbasbag55
(g71
g57
NtRp4570
(dp4571
g60
(dp4572
sg69
g4503
sg62
(lp4573
g55
(g76
g57
NtRp4574
(dp4575
g60
(dp4576
g80
g81
ssg69
g4570
sg62
(lp4577
S'HTTP_CACHE_CONTROL'
p4578
asbag55
(g76
g57
NtRp4579
(dp4580
g60
(dp4581
g87
g88
ssg69
g4570
sg62
(lp4582
S':'
asbag55
(g76
g57
NtRp4583
(dp4584
g60
(dp4585
sg69
g4570
sg62
(lp4586
g55
(g56
g57
NtRp4587
(dp4588
g60
(dp4589
g68
I3
ssg69
g4583
sg62
(lp4590
g2952
asbasbasbag55
(g71
g57
NtRp4591
(dp4592
g60
(dp4593
sg69
g4503
sg62
(lp4594
g55
(g76
g57
NtRp4595
(dp4596
g60
(dp4597
g80
g81
ssg69
g4591
sg62
(lp4598
S'HTTP_CONNECTION'
p4599
asbag55
(g76
g57
NtRp4600
(dp4601
g60
(dp4602
g87
g88
ssg69
g4591
sg62
(lp4603
S':'
asbag55
(g76
g57
NtRp4604
(dp4605
g60
(dp4606
sg69
g4591
sg62
(lp4607
g55
(g56
g57
NtRp4608
(dp4609
g60
(dp4610
g68
I3
ssg69
g4604
sg62
(lp4611
g2974
asbasbasbag55
(g71
g57
NtRp4612
(dp4613
g60
(dp4614
sg69
g4503
sg62
(lp4615
g55
(g76
g57
NtRp4616
(dp4617
g60
(dp4618
g80
g81
ssg69
g4612
sg62
(lp4619
S'HTTP_COOKIE'
p4620
asbag55
(g76
g57
NtRp4621
(dp4622
g60
(dp4623
g87
g88
ssg69
g4612
sg62
(lp4624
S':'
asbag55
(g76
g57
NtRp4625
(dp4626
g60
(dp4627
sg69
g4612
sg62
(lp4628
g55
(g56
g57
NtRp4629
(dp4630
g60
(dp4631
g68
I3
ssg69
g4625
sg62
(lp4632
g2996
asbasbasbag55
(g71
g57
NtRp4633
(dp4634
g60
(dp4635
sg69
g4503
sg62
(lp4636
g55
(g76
g57
NtRp4637
(dp4638
g60
(dp4639
g80
g81
ssg69
g4633
sg62
(lp4640
S'HTTP_HOST'
p4641
asbag55
(g76
g57
NtRp4642
(dp4643
g60
(dp4644
g87
g88
ssg69
g4633
sg62
(lp4645
S':'
asbag55
(g76
g57
NtRp4646
(dp4647
g60
(dp4648
sg69
g4633
sg62
(lp4649
g55
(g56
g57
NtRp4650
(dp4651
g60
(dp4652
g68
I3
ssg69
g4646
sg62
(lp4653
g3018
asbasbasbag55
(g71
g57
NtRp4654
(dp4655
g60
(dp4656
sg69
g4503
sg62
(lp4657
g55
(g76
g57
NtRp4658
(dp4659
g60
(dp4660
g80
g81
ssg69
g4654
sg62
(lp4661
S'HTTP_REFERER'
p4662
asbag55
(g76
g57
NtRp4663
(dp4664
g60
(dp4665
g87
g88
ssg69
g4654
sg62
(lp4666
S':'
asbag55
(g76
g57
NtRp4667
(dp4668
g60
(dp4669
sg69
g4654
sg62
(lp4670
g55
(g56
g57
NtRp4671
(dp4672
g60
(dp4673
g68
I3
ssg69
g4667
sg62
(lp4674
g3040
asbasbasbag55
(g71
g57
NtRp4675
(dp4676
g60
(dp4677
sg69
g4503
sg62
(lp4678
g55
(g76
g57
NtRp4679
(dp4680
g60
(dp4681
g80
g81
ssg69
g4675
sg62
(lp4682
S'HTTP_USER_AGENT'
p4683
asbag55
(g76
g57
NtRp4684
(dp4685
g60
(dp4686
g87
g88
ssg69
g4675
sg62
(lp4687
S':'
asbag55
(g76
g57
NtRp4688
(dp4689
g60
(dp4690
sg69
g4675
sg62
(lp4691
g55
(g56
g57
NtRp4692
(dp4693
g60
(dp4694
g68
I3
ssg69
g4688
sg62
(lp4695
g3062
asbasbasbag55
(g71
g57
NtRp4696
(dp4697
g60
(dp4698
sg69
g4503
sg62
(lp4699
g55
(g76
g57
NtRp4700
(dp4701
g60
(dp4702
g80
g81
ssg69
g4696
sg62
(lp4703
S'PATH_INFO'
p4704
asbag55
(g76
g57
NtRp4705
(dp4706
g60
(dp4707
g87
g88
ssg69
g4696
sg62
(lp4708
S':'
asbag55
(g76
g57
NtRp4709
(dp4710
g60
(dp4711
sg69
g4696
sg62
(lp4712
g55
(g56
g57
NtRp4713
(dp4714
g60
(dp4715
g68
I3
ssg69
g4709
sg62
(lp4716
g3216
asbasbasbag55
(g71
g57
NtRp4717
(dp4718
g60
(dp4719
sg69
g4503
sg62
(lp4720
g55
(g76
g57
NtRp4721
(dp4722
g60
(dp4723
g80
g81
ssg69
g4717
sg62
(lp4724
S'QUERY_STRING'
p4725
asbag55
(g76
g57
NtRp4726
(dp4727
g60
(dp4728
g87
g88
ssg69
g4717
sg62
(lp4729
S':'
asbag55
(g76
g57
NtRp4730
(dp4731
g60
(dp4732
sg69
g4717
sg62
(lp4733
g55
(g56
g57
NtRp4734
(dp4735
g60
(dp4736
g68
I3
ssg69
g4730
sg62
(lp4737
S''
asbasbasbag55
(g71
g57
NtRp4738
(dp4739
g60
(dp4740
sg69
g4503
sg62
(lp4741
g55
(g76
g57
NtRp4742
(dp4743
g60
(dp4744
g80
g81
ssg69
g4738
sg62
(lp4745
S'REMOTE_ADDR'
p4746
asbag55
(g76
g57
NtRp4747
(dp4748
g60
(dp4749
g87
g88
ssg69
g4738
sg62
(lp4750
S':'
asbag55
(g76
g57
NtRp4751
(dp4752
g60
(dp4753
sg69
g4738
sg62
(lp4754
g55
(g56
g57
NtRp4755
(dp4756
g60
(dp4757
g68
I3
ssg69
g4751
sg62
(lp4758
g210
asbasbasbag55
(g71
g57
NtRp4759
(dp4760
g60
(dp4761
sg69
g4503
sg62
(lp4762
g55
(g76
g57
NtRp4763
(dp4764
g60
(dp4765
g80
g81
ssg69
g4759
sg62
(lp4766
S'REMOTE_PORT'
p4767
asbag55
(g76
g57
NtRp4768
(dp4769
g60
(dp4770
g87
g88
ssg69
g4759
sg62
(lp4771
S':'
asbag55
(g76
g57
NtRp4772
(dp4773
g60
(dp4774
sg69
g4759
sg62
(lp4775
g55
(g56
g57
NtRp4776
(dp4777
g60
(dp4778
g68
I3
ssg69
g4772
sg62
(lp4779
g3280
asbasbasbag55
(g71
g57
NtRp4780
(dp4781
g60
(dp4782
sg69
g4503
sg62
(lp4783
g55
(g76
g57
NtRp4784
(dp4785
g60
(dp4786
g80
g81
ssg69
g4780
sg62
(lp4787
S'REQUEST_METHOD'
p4788
asbag55
(g76
g57
NtRp4789
(dp4790
g60
(dp4791
g87
g88
ssg69
g4780
sg62
(lp4792
S':'
asbag55
(g76
g57
NtRp4793
(dp4794
g60
(dp4795
sg69
g4780
sg62
(lp4796
g55
(g56
g57
NtRp4797
(dp4798
g60
(dp4799
g68
I3
ssg69
g4793
sg62
(lp4800
g3302
asbasbasbag55
(g71
g57
NtRp4801
(dp4802
g60
(dp4803
sg69
g4503
sg62
(lp4804
g55
(g76
g57
NtRp4805
(dp4806
g60
(dp4807
g80
g81
ssg69
g4801
sg62
(lp4808
S'REQUEST_URI'
p4809
asbag55
(g76
g57
NtRp4810
(dp4811
g60
(dp4812
g87
g88
ssg69
g4801
sg62
(lp4813
S':'
asbag55
(g76
g57
NtRp4814
(dp4815
g60
(dp4816
sg69
g4801
sg62
(lp4817
g55
(g56
g57
NtRp4818
(dp4819
g60
(dp4820
g68
I3
ssg69
g4814
sg62
(lp4821
g3216
asbasbasbag55
(g71
g57
NtRp4822
(dp4823
g60
(dp4824
sg69
g4503
sg62
(lp4825
g55
(g76
g57
NtRp4826
(dp4827
g60
(dp4828
g80
g81
ssg69
g4822
sg62
(lp4829
S'SCRIPT_NAME'
p4830
asbag55
(g76
g57
NtRp4831
(dp4832
g60
(dp4833
g87
g88
ssg69
g4822
sg62
(lp4834
S':'
asbag55
(g76
g57
NtRp4835
(dp4836
g60
(dp4837
sg69
g4822
sg62
(lp4838
g55
(g56
g57
NtRp4839
(dp4840
g60
(dp4841
g68
I3
ssg69
g4835
sg62
(lp4842
S''
asbasbasbag55
(g71
g57
NtRp4843
(dp4844
g60
(dp4845
sg69
g4503
sg62
(lp4846
g55
(g76
g57
NtRp4847
(dp4848
g60
(dp4849
g80
g81
ssg69
g4843
sg62
(lp4850
S'SERVER_NAME'
p4851
asbag55
(g76
g57
NtRp4852
(dp4853
g60
(dp4854
g87
g88
ssg69
g4843
sg62
(lp4855
S':'
asbag55
(g76
g57
NtRp4856
(dp4857
g60
(dp4858
sg69
g4843
sg62
(lp4859
g55
(g56
g57
NtRp4860
(dp4861
g60
(dp4862
g68
I3
ssg69
g4856
sg62
(lp4863
g3366
asbasbasbag55
(g71
g57
NtRp4864
(dp4865
g60
(dp4866
sg69
g4503
sg62
(lp4867
g55
(g76
g57
NtRp4868
(dp4869
g60
(dp4870
g80
g81
ssg69
g4864
sg62
(lp4871
S'SERVER_PORT'
p4872
asbag55
(g76
g57
NtRp4873
(dp4874
g60
(dp4875
g87
g88
ssg69
g4864
sg62
(lp4876
S':'
asbag55
(g76
g57
NtRp4877
(dp4878
g60
(dp4879
sg69
g4864
sg62
(lp4880
g55
(g56
g57
NtRp4881
(dp4882
g60
(dp4883
g68
I3
ssg69
g4877
sg62
(lp4884
g3388
asbasbasbag55
(g71
g57
NtRp4885
(dp4886
g60
(dp4887
sg69
g4503
sg62
(lp4888
g55
(g76
g57
NtRp4889
(dp4890
g60
(dp4891
g80
g81
ssg69
g4885
sg62
(lp4892
S'SERVER_PROTOCOL'
p4893
asbag55
(g76
g57
NtRp4894
(dp4895
g60
(dp4896
g87
g88
ssg69
g4885
sg62
(lp4897
S':'
asbag55
(g76
g57
NtRp4898
(dp4899
g60
(dp4900
sg69
g4885
sg62
(lp4901
g55
(g56
g57
NtRp4902
(dp4903
g60
(dp4904
g68
I3
ssg69
g4898
sg62
(lp4905
g3410
asbasbasbag55
(g71
g57
NtRp4906
(dp4907
g60
(dp4908
sg69
g4503
sg62
(lp4909
g55
(g76
g57
NtRp4910
(dp4911
g60
(dp4912
g80
g81
ssg69
g4906
sg62
(lp4913
S'SERVER_SOFTWARE'
p4914
asbag55
(g76
g57
NtRp4915
(dp4916
g60
(dp4917
g87
g88
ssg69
g4906
sg62
(lp4918
S':'
asbag55
(g76
g57
NtRp4919
(dp4920
g60
(dp4921
sg69
g4906
sg62
(lp4922
g55
(g56
g57
NtRp4923
(dp4924
g60
(dp4925
g68
I3
ssg69
g4919
sg62
(lp4926
g3432
asbasbasbag55
(g71
g57
NtRp4927
(dp4928
g60
(dp4929
sg69
g4503
sg62
(lp4930
g55
(g76
g57
NtRp4931
(dp4932
g60
(dp4933
g80
g81
ssg69
g4927
sg62
(lp4934
S'wsgi.errors'
p4935
asbag55
(g76
g57
NtRp4936
(dp4937
g60
(dp4938
g87
g88
ssg69
g4927
sg62
(lp4939
S':'
asbag55
(g76
g57
NtRp4940
(dp4941
g60
(dp4942
sg69
g4927
sg62
(lp4943
g55
(g56
g57
NtRp4944
(dp4945
g60
(dp4946
g68
I3
ssg69
g4940
sg62
(lp4947
S"<open file '<stderr>', mode 'w' at 0xb72ac0d0>"
p4948
asbasbasbag55
(g71
g57
NtRp4949
(dp4950
g60
(dp4951
sg69
g4503
sg62
(lp4952
g55
(g76
g57
NtRp4953
(dp4954
g60
(dp4955
g80
g81
ssg69
g4949
sg62
(lp4956
S'wsgi.file_wrapper'
p4957
asbag55
(g76
g57
NtRp4958
(dp4959
g60
(dp4960
g87
g88
ssg69
g4949
sg62
(lp4961
S':'
asbag55
(g76
g57
NtRp4962
(dp4963
g60
(dp4964
sg69
g4949
sg62
(lp4965
g55
(g56
g57
NtRp4966
(dp4967
g60
(dp4968
g68
I3
ssg69
g4962
sg62
(lp4969
S'<class wsgiref.util.FileWrapper at 0x890f05c>'
p4970
asbasbasbag55
(g71
g57
NtRp4971
(dp4972
g60
(dp4973
sg69
g4503
sg62
(lp4974
g55
(g76
g57
NtRp4975
(dp4976
g60
(dp4977
g80
g81
ssg69
g4971
sg62
(lp4978
S'wsgi.input'
p4979
asbag55
(g76
g57
NtRp4980
(dp4981
g60
(dp4982
g87
g88
ssg69
g4971
sg62
(lp4983
S':'
asbag55
(g76
g57
NtRp4984
(dp4985
g60
(dp4986
sg69
g4971
sg62
(lp4987
g55
(g56
g57
NtRp4988
(dp4989
g60
(dp4990
g68
I3
ssg69
g4984
sg62
(lp4991
S'<cStringIO.StringO object at 0xaf0a0480>'
p4992
asbasbasbag55
(g71
g57
NtRp4993
(dp4994
g60
(dp4995
sg69
g4503
sg62
(lp4996
g55
(g76
g57
NtRp4997
(dp4998
g60
(dp4999
g80
g81
ssg69
g4993
sg62
(lp5000
S'wsgi.multiprocess'
p5001
asbag55
(g76
g57
NtRp5002
(dp5003
g60
(dp5004
g87
g88
ssg69
g4993
sg62
(lp5005
S':'
asbag55
(g76
g57
NtRp5006
(dp5007
g60
(dp5008
sg69
g4993
sg62
(lp5009
g55
(g56
g57
NtRp5010
(dp5011
g60
(dp5012
g68
I3
ssg69
g5006
sg62
(lp5013
g98
asbasbasbag55
(g71
g57
NtRp5014
(dp5015
g60
(dp5016
sg69
g4503
sg62
(lp5017
g55
(g76
g57
NtRp5018
(dp5019
g60
(dp5020
g80
g81
ssg69
g5014
sg62
(lp5021
S'wsgi.multithread'
p5022
asbag55
(g76
g57
NtRp5023
(dp5024
g60
(dp5025
g87
g88
ssg69
g5014
sg62
(lp5026
S':'
asbag55
(g76
g57
NtRp5027
(dp5028
g60
(dp5029
sg69
g5014
sg62
(lp5030
g55
(g56
g57
NtRp5031
(dp5032
g60
(dp5033
g68
I3
ssg69
g5027
sg62
(lp5034
g3649
asbasbasbag55
(g71
g57
NtRp5035
(dp5036
g60
(dp5037
sg69
g4503
sg62
(lp5038
g55
(g76
g57
NtRp5039
(dp5040
g60
(dp5041
g80
g81
ssg69
g5035
sg62
(lp5042
S'wsgi.run_once'
p5043
asbag55
(g76
g57
NtRp5044
(dp5045
g60
(dp5046
g87
g88
ssg69
g5035
sg62
(lp5047
S':'
asbag55
(g76
g57
NtRp5048
(dp5049
g60
(dp5050
sg69
g5035
sg62
(lp5051
g55
(g56
g57
NtRp5052
(dp5053
g60
(dp5054
g68
I3
ssg69
g5048
sg62
(lp5055
g98
asbasbasbag55
(g71
g57
NtRp5056
(dp5057
g60
(dp5058
sg69
g4503
sg62
(lp5059
g55
(g76
g57
NtRp5060
(dp5061
g60
(dp5062
g80
g81
ssg69
g5056
sg62
(lp5063
S'wsgi.url_scheme'
p5064
asbag55
(g76
g57
NtRp5065
(dp5066
g60
(dp5067
g87
g88
ssg69
g5056
sg62
(lp5068
S':'
asbag55
(g76
g57
NtRp5069
(dp5070
g60
(dp5071
sg69
g5056
sg62
(lp5072
g55
(g56
g57
NtRp5073
(dp5074
g60
(dp5075
g68
I3
ssg69
g5069
sg62
(lp5076
g3692
asbasbasbag55
(g71
g57
NtRp5077
(dp5078
g60
(dp5079
sg69
g4503
sg62
(lp5080
g55
(g76
g57
NtRp5081
(dp5082
g60
(dp5083
g80
g81
ssg69
g5077
sg62
(lp5084
S'wsgi.version'
p5085
asbag55
(g76
g57
NtRp5086
(dp5087
g60
(dp5088
g87
g88
ssg69
g5077
sg62
(lp5089
S':'
asbag55
(g76
g57
NtRp5090
(dp5091
g60
(dp5092
sg69
g5077
sg62
(lp5093
g55
(g56
g57
NtRp5094
(dp5095
g60
(dp5096
g68
I3
ssg69
g5090
sg62
(lp5097
S'1'
asbasbasbasbasbasbasbasbasbasbasbasbasbsS'frames'
p5098
(lp5099
(dp5100
S'file'
p5101
S'/home/pankaj/web2py/gluon/main.py'
p5102
sS'dump'
p5103
(dp5104
S'global serve_controller'
p5105
S'<function serve_controller>'
p5106
sS'session'
p5107
S"<Storage {'_formkey[news/create]': 'fe555995-49b...owser': {'version': '22.0', 'name': 'Firefox'}}}>"
p5108
sS'request'
p5109
S"<Storage {'function': 'index', 'body': <cStringI...pplications/reddit/', 'post_vars': <Storage {}>}>"
p5110
sS'response'
p5111
S"<Storage {'body': <cStringIO.StringO object at 0...a> at 0xae76d064>, 'view': 'default/index.html'}>"
p5112
ssS'lnum'
p5113
I543
sS'lines'
p5114
(dp5115
I544
S''
sI545
S'            except HTTP, http_response:'
p5116
sI546
S''
sI547
S'                if static_file:'
p5117
sI538
S'                if global_settings.debugging and app != "admin":'
p5118
sI539
S'                    import gluon.debug'
p5119
sI540
S'                    # activate the debugger'
p5120
sI541
S'                    gluon.debug.dbg.do_debug(mainpyfile=request.folder)'
p5121
sI542
S''
sI543
S'                serve_controller(request, response, session)'
p5122
ssS'call'
p5123
S"(environ={'HTTP_ACCEPT': 'text/html,application/xhtml+xml,application/xml;q=0.9,*/*;q=0.8', 'HTTP_ACCEPT_ENCODING': 'gzip, deflate', 'HTTP_ACCEPT_LANGUAGE': 'en-US,en;q=0.5', 'HTTP_CACHE_CONTROL': 'max-age=0', 'HTTP_CONNECTION': 'keep-alive', 'HTTP_COOKIE': 'session_id_welcome=127.0.0.1-a85dd4d7-ab1c-49ab-...it=127.0.0.1-24289f39-32a1-48fb-a367-22792fb8b813', 'HTTP_HOST': '127.0.0.1:8000', 'HTTP_REFERER': 'http://127.0.0.1:8000/admin/default/site', 'HTTP_USER_AGENT': 'Mozilla/5.0 (X11; Ubuntu; Linux i686; rv:22.0) Gecko/20100101 Firefox/22.0', 'PATH_INFO': '/reddit/default/index', ...}, responder=<function responder2>)"
p5124
sS'func'
p5125
S'wsgibase'
p5126
sa(dp5127
g5101
S'/home/pankaj/web2py/gluon/main.py'
p5128
sg5103
(dp5129
S'response._view_environment'
p5130
S"{'A': <class 'gluon.html.A'>, 'Auth': <class 'gluon.tools.Auth'>, 'B': <class 'gluon.html.B'>, 'BEAUTIFY': <class 'gluon.html.BEAUTIFY'>, 'BODY': <class 'gluon.html.BODY'>, 'BR': <class 'gluon.html.BR'>, 'BUTTON': <class 'gluon.html.BUTTON'>, 'CAT': <class 'gluon.html.CAT'>, 'CENTER': <class 'gluon.html.CENTER'>, 'CLEANUP': <class 'gluon.validators.CLEANUP'>, ...}"
p5131
sS'response'
p5132
S"<Storage {'body': <cStringIO.StringO object at 0...a> at 0xae76d064>, 'view': 'default/index.html'}>"
p5133
sS'global run_view_in'
p5134
S'<function run_view_in>'
p5135
ssg5113
I227
sg5114
(dp5136
I224
S'    if isinstance(page, dict):'
p5137
sI225
S'        response._vars = page'
p5138
sI226
S'        response._view_environment.update(page)'
p5139
sI227
S'        run_view_in(response._view_environment)'
p5140
sI228
S'        page = response.body.getvalue()'
p5141
sI229
S'    # logic to garbage collect after exec, not always, once every 100 requests'
p5142
sI230
S'    global requests'
p5143
sI231
S"    requests = ('requests' in globals()) and (requests + 1) % 100 or 0"
p5144
sI222
S'    response._view_environment = copy.copy(environment)'
p5145
sI223
S'    page = run_controller_in(request.controller, request.function, environment)'
p5146
ssg5123
S"(request=<Storage {'function': 'index', 'body': <cStringI...pplications/reddit/', 'post_vars': <Storage {}>}>, response=<Storage {'body': <cStringIO.StringO object at 0...a> at 0xae76d064>, 'view': 'default/index.html'}>, session=<Storage {'_formkey[news/create]': 'fe555995-49b...owser': {'version': '22.0', 'name': 'Firefox'}}}>)"
p5147
sg5125
S'serve_controller'
p5148
sa(dp5149
g5101
S'/home/pankaj/web2py/gluon/compileapp.py'
p5150
sg5103
(dp5151
S'environment'
p5152
S"{'A': <class 'gluon.html.A'>, 'Auth': <class 'gluon.tools.Auth'>, 'B': <class 'gluon.html.B'>, 'BEAUTIFY': <class 'gluon.html.BEAUTIFY'>, 'BODY': <class 'gluon.html.BODY'>, 'BR': <class 'gluon.html.BR'>, 'BUTTON': <class 'gluon.html.BUTTON'>, 'CAT': <class 'gluon.html.CAT'>, 'CENTER': <class 'gluon.html.CENTER'>, 'CLEANUP': <class 'gluon.validators.CLEANUP'>, ...}"
p5153
sS'context'
p5154
S'undefined'
p5155
ssg5113
I672
sg5114
(dp5156
I672
S'                                   context=environment)'
p5157
sI673
S'        restricted(ccode, environment, layer)'
p5158
sI674
S''
sI675
S''
sI676
S'def remove_compiled_application(folder):'
p5159
sI667
S"                                            pjoin(folder, 'views'),"
p5160
sI668
S'                                            context=environment), layer))'
p5161
sI669
S'        else:'
p5162
sI670
S'            ccode = parse_template(view,'
p5163
sI671
S"                                   pjoin(folder, 'views'),"
p5164
ssg5123
S"(environment={'A': <class 'gluon.html.A'>, 'Auth': <class 'gluon.tools.Auth'>, 'B': <class 'gluon.html.B'>, 'BEAUTIFY': <class 'gluon.html.BEAUTIFY'>, 'BODY': <class 'gluon.html.BODY'>, 'BR': <class 'gluon.html.BR'>, 'BUTTON': <class 'gluon.html.BUTTON'>, 'CAT': <class 'gluon.html.CAT'>, 'CENTER': <class 'gluon.html.CENTER'>, 'CLEANUP': <class 'gluon.validators.CLEANUP'>, ...})"
p5165
sg5125
S'run_view_in'
p5166
sa(dp5167
g5101
S'/home/pankaj/web2py/gluon/template.py'
p5168
sg5103
(dp5169
S'builtinstr'
p5170
S"<type 'str'>"
p5171
sS'global TemplateParser'
p5172
S"<class 'gluon.template.TemplateParser'>"
p5173
sS'delimiters'
p5174
S"('{{', '}}')"
p5175
sS'context'
p5176
S"{'A': <class 'gluon.html.A'>, 'Auth': <class 'gluon.tools.Auth'>, 'B': <class 'gluon.html.B'>, 'BEAUTIFY': <class 'gluon.html.BEAUTIFY'>, 'BODY': <class 'gluon.html.BODY'>, 'BR': <class 'gluon.html.BR'>, 'BUTTON': <class 'gluon.html.BUTTON'>, 'CAT': <class 'gluon.html.CAT'>, 'CENTER': <class 'gluon.html.CENTER'>, 'CLEANUP': <class 'gluon.validators.CLEANUP'>, ...}"
p5177
sS'text'
p5178
S"'{{extend layout.html}}\\n'"
p5179
sS'path'
p5180
S"'/home/pankaj/web2py/applications/reddit/views'"
p5181
sS'lexers'
p5182
g43
ssg5113
I785
sg5114
(dp5183
I780
S"            raise RestrictedError(filename, '', 'Unable to find the file')"
p5184
sI781
S'    else:'
p5185
sI782
S'        text = filename.read()'
p5186
sI783
S''
sI784
S'    # Use the file contents to get a parsed template and return it.'
p5187
sI785
S'    return str(TemplateParser(text, context=context, path=path, lexers=lexers, delimiters=delimiters))'
p5188
sI786
S''
sI787
S''
sI788
S'def get_parsed(text):'
p5189
sI789
S'    """'
p5190
ssg5123
S"(filename='default/index.html', path='/home/pankaj/web2py/applications/reddit/views', context={'A': <class 'gluon.html.A'>, 'Auth': <class 'gluon.tools.Auth'>, 'B': <class 'gluon.html.B'>, 'BEAUTIFY': <class 'gluon.html.BEAUTIFY'>, 'BODY': <class 'gluon.html.BODY'>, 'BR': <class 'gluon.html.BR'>, 'BUTTON': <class 'gluon.html.BUTTON'>, 'CAT': <class 'gluon.html.CAT'>, 'CENTER': <class 'gluon.html.CENTER'>, 'CLEANUP': <class 'gluon.validators.CLEANUP'>, ...}, lexers={}, delimiters=('{{', '}}'))"
p5191
sg5125
S'parse_template'
p5192
sa(dp5193
g5101
S'/home/pankaj/web2py/gluon/template.py'
p5194
sg5103
(dp5195
S'text'
p5196
S"'{{extend layout.html}}\\n'"
p5197
sS'self'
p5198
S'<gluon.template.TemplateParser object>'
p5199
sS'self.parse'
p5200
S'<bound method TemplateParser.parse of <gluon.template.TemplateParser object>>'
p5201
ssg5113
I316
sg5114
(dp5202
I320
S'        Return the parsed template with correct indentation.'
p5203
sI311
S'        # This variable will hold a reference to every block'
p5204
sI312
S'        # that we come across in this template'
p5205
sI313
S'        self.blocks = {}'
p5206
sI314
S''
sI315
S'        # Begin parsing.'
p5207
sI316
S'        self.parse(text)'
p5208
sI317
S''
sI318
S'    def to_string(self):'
p5209
sI319
S'        """'
p5210
ssg5123
S"(self=<gluon.template.TemplateParser object>, text='{{extend layout.html}}\\n', name='ParserContainer', context={'A': <class 'gluon.html.A'>, 'Auth': <class 'gluon.tools.Auth'>, 'B': <class 'gluon.html.B'>, 'BEAUTIFY': <class 'gluon.html.BEAUTIFY'>, 'BODY': <class 'gluon.html.BODY'>, 'BR': <class 'gluon.html.BR'>, 'BUTTON': <class 'gluon.html.BUTTON'>, 'CAT': <class 'gluon.html.CAT'>, 'CENTER': <class 'gluon.html.CENTER'>, 'CLEANUP': <class 'gluon.validators.CLEANUP'>, ...}, path='/home/pankaj/web2py/applications/reddit/views', writer='response.write', lexers={}, delimiters=('{{', '}}'), _super_nodes=[])"
p5211
sg5125
g48
sa(dp5212
g5101
S'/home/pankaj/web2py/gluon/template.py'
p5213
sg5103
(dp5214
S'self'
p5215
S'<gluon.template.TemplateParser object>'
p5216
sS'extend'
p5217
S"'layout.html'"
p5218
sS'self.extend'
p5219
S'<bound method TemplateParser.extend of <gluon.template.TemplateParser object>>'
p5220
ssg5113
I756
sg5114
(dp5221
I751
S'            # Sometimes I miss C-Style pointers... I want my asterisk...'
p5222
sI752
S'            self.child_super_nodes.remove(node)'
p5223
sI753
S''
sI754
S'        # If we need to extend a template.'
p5224
sI755
S'        if extend:'
p5225
sI756
S'            self.extend(extend)'
p5226
sI757
S''
sI758
S'# We need this for integration with gluon'
p5227
sI759
S''
sI760
S''
ssg5123
S"(self=<gluon.template.TemplateParser object>, text='{{extend layout.html}}\\n')"
p5228
sg5125
S'parse'
p5229
sa(dp5230
g5101
S'/home/pankaj/web2py/gluon/template.py'
p5231
sg5103
(dp5232
S'text'
p5233
g5155
sS'self'
p5234
S'<gluon.template.TemplateParser object>'
p5235
sS'self._get_file_text'
p5236
S'<bound method TemplateParser._get_file_text of <gluon.template.TemplateParser object>>'
p5237
sS'filename'
p5238
S"'layout.html'"
p5239
ssg5113
I471
sg5114
(dp5240
I466
S'    def extend(self, filename):'
p5241
sI467
S'        """'
p5242
sI468
S'        Extend ``filename``. Anything not declared in a block defined by the'
p5243
sI469
S'        parent will be placed in the parent templates ``{{include}}`` block.'
p5244
sI470
S'        """'
p5245
sI471
S'        text = self._get_file_text(filename)'
p5246
sI472
S''
sI473
S'        # Create out nodes list to send to the parent'
p5247
sI474
S'        super_nodes = []'
p5248
sI475
S'        # We want to include any non-handled nodes.'
p5249
ssg5123
S"(self=<gluon.template.TemplateParser object>, filename='layout.html')"
p5250
sg5125
S'extend'
p5251
sa(dp5252
g5101
S'/home/pankaj/web2py/gluon/template.py'
p5253
sg5103
(dp5254
S'builtineval'
p5255
S'<built-in function eval>'
p5256
sS'context'
p5257
S"{'A': <class 'gluon.html.A'>, 'Auth': <class 'gluon.tools.Auth'>, 'B': <class 'gluon.html.B'>, 'BEAUTIFY': <class 'gluon.html.BEAUTIFY'>, 'BODY': <class 'gluon.html.BODY'>, 'BR': <class 'gluon.html.BR'>, 'BUTTON': <class 'gluon.html.BUTTON'>, 'CAT': <class 'gluon.html.CAT'>, 'CENTER': <class 'gluon.html.CENTER'>, 'CLEANUP': <class 'gluon.validators.CLEANUP'>, ...}"
p5258
sS'filename'
p5259
S"'layout.html'"
p5260
ssg5113
I436
sg5114
(dp5261
I431
S'        if current and not "response" in context:'
p5262
sI432
S'            context["response"] = getattr(current, \'response\', None)'
p5263
sI433
S''
sI434
S'        # Get the filename; filename looks like ``"template.html"``.'
p5264
sI435
S'        # We need to eval to remove the quotes and get the string type.'
p5265
sI436
S'        filename = eval(filename, context)'
p5266
sI437
S''
sI438
S'        # Get the path of the file on the system.'
p5267
sI439
S'        filepath = self.path and os.path.join(self.path, filename) or filename'
p5268
sI440
S''
ssg5123
S"(self=<gluon.template.TemplateParser object>, filename='layout.html')"
p5269
sg5125
S'_get_file_text'
p5270
sa(dp5271
g5101
S'/home/pankaj/web2py/<string>'
p5272
sg5103
(dp5273
sg5113
I1
sg5114
(dp5274
sg5123
S'()'
p5275
sg5125
S'<module>'
p5276
sasS'pyver'
p5277
S'Python 2.7.3: /usr/bin/python'
p5278
sS'session'
p5279
g55
(g56
g57
NtRp5280
(dp5281
g60
(dp5282
sg62
(lp5283
g55
(g64
g57
NtRp5284
(dp5285
g60
(dp5286
g68
I5
ssg69
Nsg62
(lp5287
sbasbsS'etype'
p5288
S"<type 'exceptions.NameError'>"
p5289
sS'date'
p5290
S'Thu Aug 29 02:01:02 2013'
p5291
sS'response'
p5292
g55
(g56
g57
NtRp5293
(dp5294
g60
(dp5295
sg62
(lp5296
g55
(g64
g57
NtRp5297
(dp5298
g60
(dp5299
g68
I5
ssg69
Nsg62
(lp5300
g55
(g71
g57
NtRp5301
(dp5302
g60
(dp5303
sg69
g5297
sg62
(lp5304
g55
(g76
g57
NtRp5305
(dp5306
g60
(dp5307
g80
g81
ssg69
g5301
sg62
(lp5308
g153
asbag55
(g76
g57
NtRp5309
(dp5310
g60
(dp5311
g87
g88
ssg69
g5301
sg62
(lp5312
S':'
asbag55
(g76
g57
NtRp5313
(dp5314
g60
(dp5315
sg69
g5301
sg62
(lp5316
g55
(g56
g57
NtRp5317
(dp5318
g60
(dp5319
g68
I5
ssg69
g5313
sg62
(lp5320
S'<cStringIO.StringO object at 0xae844be0>'
p5321
asbasbasbag55
(g71
g57
NtRp5322
(dp5323
g60
(dp5324
sg69
g5297
sg62
(lp5325
g55
(g76
g57
NtRp5326
(dp5327
g60
(dp5328
g80
g81
ssg69
g5322
sg62
(lp5329
g241
asbag55
(g76
g57
NtRp5330
(dp5331
g60
(dp5332
g87
g88
ssg69
g5322
sg62
(lp5333
S':'
asbag55
(g76
g57
NtRp5334
(dp5335
g60
(dp5336
sg69
g5322
sg62
(lp5337
g55
(g56
g57
NtRp5338
(dp5339
g60
(dp5340
g68
I5
ssg69
g5334
sg62
(lp5341
g55
(g64
g57
NtRp5342
(dp5343
g60
(dp5344
g68
I4
ssg69
Nsg62
(lp5345
g55
(g71
g57
NtRp5346
(dp5347
g60
(dp5348
sg69
g5342
sg62
(lp5349
g55
(g76
g57
NtRp5350
(dp5351
g60
(dp5352
g80
g81
ssg69
g5346
sg62
(lp5353
S'session_id_reddit'
p5354
asbag55
(g76
g57
NtRp5355
(dp5356
g60
(dp5357
g87
g88
ssg69
g5346
sg62
(lp5358
S':'
asbag55
(g76
g57
NtRp5359
(dp5360
g60
(dp5361
sg69
g5346
sg62
(lp5362
g55
(g56
g57
NtRp5363
(dp5364
g60
(dp5365
g68
I4
ssg69
g5359
sg62
(lp5366
g1775
ag55
(g64
g57
NtRp5367
(dp5368
g60
(dp5369
g68
I3
ssg69
Nsg62
(lp5370
g55
(g71
g57
NtRp5371
(dp5372
g60
(dp5373
sg69
g5367
sg62
(lp5374
g55
(g76
g57
NtRp5375
(dp5376
g60
(dp5377
g80
g81
ssg69
g5371
sg62
(lp5378
g292
asbag55
(g76
g57
NtRp5379
(dp5380
g60
(dp5381
g87
g88
ssg69
g5371
sg62
(lp5382
S':'
asbag55
(g76
g57
NtRp5383
(dp5384
g60
(dp5385
sg69
g5371
sg62
(lp5386
g55
(g56
g57
NtRp5387
(dp5388
g60
(dp5389
g68
I3
ssg69
g5383
sg62
(lp5390
S''
asbasbasbag55
(g71
g57
NtRp5391
(dp5392
g60
(dp5393
sg69
g5367
sg62
(lp5394
g55
(g76
g57
NtRp5395
(dp5396
g60
(dp5397
g80
g81
ssg69
g5391
sg62
(lp5398
g313
asbag55
(g76
g57
NtRp5399
(dp5400
g60
(dp5401
g87
g88
ssg69
g5391
sg62
(lp5402
S':'
asbag55
(g76
g57
NtRp5403
(dp5404
g60
(dp5405
sg69
g5391
sg62
(lp5406
g55
(g56
g57
NtRp5407
(dp5408
g60
(dp5409
g68
I3
ssg69
g5403
sg62
(lp5410
S''
asbasbasbag55
(g71
g57
NtRp5411
(dp5412
g60
(dp5413
sg69
g5367
sg62
(lp5414
g55
(g76
g57
NtRp5415
(dp5416
g60
(dp5417
g80
g81
ssg69
g5411
sg62
(lp5418
g334
asbag55
(g76
g57
NtRp5419
(dp5420
g60
(dp5421
g87
g88
ssg69
g5411
sg62
(lp5422
S':'
asbag55
(g76
g57
NtRp5423
(dp5424
g60
(dp5425
sg69
g5411
sg62
(lp5426
g55
(g56
g57
NtRp5427
(dp5428
g60
(dp5429
g68
I3
ssg69
g5423
sg62
(lp5430
S''
asbasbasbag55
(g71
g57
NtRp5431
(dp5432
g60
(dp5433
sg69
g5367
sg62
(lp5434
g55
(g76
g57
NtRp5435
(dp5436
g60
(dp5437
g80
g81
ssg69
g5431
sg62
(lp5438
g355
asbag55
(g76
g57
NtRp5439
(dp5440
g60
(dp5441
g87
g88
ssg69
g5431
sg62
(lp5442
S':'
asbag55
(g76
g57
NtRp5443
(dp5444
g60
(dp5445
sg69
g5431
sg62
(lp5446
g55
(g56
g57
NtRp5447
(dp5448
g60
(dp5449
g68
I3
ssg69
g5443
sg62
(lp5450
S''
asbasbasbag55
(g71
g57
NtRp5451
(dp5452
g60
(dp5453
sg69
g5367
sg62
(lp5454
g55
(g76
g57
NtRp5455
(dp5456
g60
(dp5457
g80
g81
ssg69
g5451
sg62
(lp5458
g376
asbag55
(g76
g57
NtRp5459
(dp5460
g60
(dp5461
g87
g88
ssg69
g5451
sg62
(lp5462
S':'
asbag55
(g76
g57
NtRp5463
(dp5464
g60
(dp5465
sg69
g5451
sg62
(lp5466
g55
(g56
g57
NtRp5467
(dp5468
g60
(dp5469
g68
I3
ssg69
g5463
sg62
(lp5470
S''
asbasbasbag55
(g71
g57
NtRp5471
(dp5472
g60
(dp5473
sg69
g5367
sg62
(lp5474
g55
(g76
g57
NtRp5475
(dp5476
g60
(dp5477
g80
g81
ssg69
g5471
sg62
(lp5478
g397
asbag55
(g76
g57
NtRp5479
(dp5480
g60
(dp5481
g87
g88
ssg69
g5471
sg62
(lp5482
S':'
asbag55
(g76
g57
NtRp5483
(dp5484
g60
(dp5485
sg69
g5471
sg62
(lp5486
g55
(g56
g57
NtRp5487
(dp5488
g60
(dp5489
g68
I3
ssg69
g5483
sg62
(lp5490
S'/'
asbasbasbag55
(g71
g57
NtRp5491
(dp5492
g60
(dp5493
sg69
g5367
sg62
(lp5494
g55
(g76
g57
NtRp5495
(dp5496
g60
(dp5497
g80
g81
ssg69
g5491
sg62
(lp5498
g418
asbag55
(g76
g57
NtRp5499
(dp5500
g60
(dp5501
g87
g88
ssg69
g5491
sg62
(lp5502
S':'
asbag55
(g76
g57
NtRp5503
(dp5504
g60
(dp5505
sg69
g5491
sg62
(lp5506
g55
(g56
g57
NtRp5507
(dp5508
g60
(dp5509
g68
I3
ssg69
g5503
sg62
(lp5510
S''
asbasbasbag55
(g71
g57
NtRp5511
(dp5512
g60
(dp5513
sg69
g5367
sg62
(lp5514
g55
(g76
g57
NtRp5515
(dp5516
g60
(dp5517
g80
g81
ssg69
g5511
sg62
(lp5518
g439
asbag55
(g76
g57
NtRp5519
(dp5520
g60
(dp5521
g87
g88
ssg69
g5511
sg62
(lp5522
S':'
asbag55
(g76
g57
NtRp5523
(dp5524
g60
(dp5525
sg69
g5511
sg62
(lp5526
g55
(g56
g57
NtRp5527
(dp5528
g60
(dp5529
g68
I3
ssg69
g5523
sg62
(lp5530
S''
asbasbasbasbasbasbasbasbasbasbasbag55
(g71
g57
NtRp5531
(dp5532
g60
(dp5533
sg69
g5297
sg62
(lp5534
g55
(g76
g57
NtRp5535
(dp5536
g60
(dp5537
g80
g81
ssg69
g5531
sg62
(lp5538
S'delimiters'
p5539
asbag55
(g76
g57
NtRp5540
(dp5541
g60
(dp5542
g87
g88
ssg69
g5531
sg62
(lp5543
S':'
asbag55
(g76
g57
NtRp5544
(dp5545
g60
(dp5546
sg69
g5531
sg62
(lp5547
g55
(g56
g57
NtRp5548
(dp5549
g60
(dp5550
g68
I5
ssg69
g5544
sg62
(lp5551
g55
(g64
g57
NtRp5552
(dp5553
g60
(dp5554
g68
I4
ssg69
Nsg62
(lp5555
g55
(g71
g57
NtRp5556
(dp5557
g60
(dp5558
sg69
g5552
sg62
(lp5559
g55
(g76
g57
NtRp5560
(dp5561
g60
(dp5562
sg69
g5556
sg62
(lp5563
g55
(g56
g57
NtRp5564
(dp5565
g60
(dp5566
g68
I4
ssg69
g5560
sg62
(lp5567
S'{{'
p5568
asbasbasbag55
(g71
g57
NtRp5569
(dp5570
g60
(dp5571
sg69
g5552
sg62
(lp5572
g55
(g76
g57
NtRp5573
(dp5574
g60
(dp5575
sg69
g5569
sg62
(lp5576
g55
(g56
g57
NtRp5577
(dp5578
g60
(dp5579
g68
I4
ssg69
g5573
sg62
(lp5580
S'}}'
p5581
asbasbasbasbasbasbasbag55
(g71
g57
NtRp5582
(dp5583
g60
(dp5584
sg69
g5297
sg62
(lp5585
g55
(g76
g57
NtRp5586
(dp5587
g60
(dp5588
g80
g81
ssg69
g5582
sg62
(lp5589
S'files'
p5590
asbag55
(g76
g57
NtRp5591
(dp5592
g60
(dp5593
g87
g88
ssg69
g5582
sg62
(lp5594
S':'
asbag55
(g76
g57
NtRp5595
(dp5596
g60
(dp5597
sg69
g5582
sg62
(lp5598
g55
(g56
g57
NtRp5599
(dp5600
g60
(dp5601
g68
I5
ssg69
g5595
sg62
(lp5602
g55
(g64
g57
NtRp5603
(dp5604
g60
(dp5605
g68
I4
ssg69
Nsg62
(lp5606
sbasbasbasbag55
(g71
g57
NtRp5607
(dp5608
g60
(dp5609
sg69
g5297
sg62
(lp5610
g55
(g76
g57
NtRp5611
(dp5612
g60
(dp5613
g80
g81
ssg69
g5607
sg62
(lp5614
S'flash'
p5615
asbag55
(g76
g57
NtRp5616
(dp5617
g60
(dp5618
g87
g88
ssg69
g5607
sg62
(lp5619
S':'
asbag55
(g76
g57
NtRp5620
(dp5621
g60
(dp5622
sg69
g5607
sg62
(lp5623
g55
(g56
g57
NtRp5624
(dp5625
g60
(dp5626
g68
I5
ssg69
g5620
sg62
(lp5627
cgluon.languages
lazyT_unpickle
p5628
(S's\x12\x00\x00\x00Welcome to web2py!'
tRp5629
asbasbasbag55
(g71
g57
NtRp5630
(dp5631
g60
(dp5632
sg69
g5297
sg62
(lp5633
g55
(g76
g57
NtRp5634
(dp5635
g60
(dp5636
g80
g81
ssg69
g5630
sg62
(lp5637
S'generic_patterns'
p5638
asbag55
(g76
g57
NtRp5639
(dp5640
g60
(dp5641
g87
g88
ssg69
g5630
sg62
(lp5642
S':'
asbag55
(g76
g57
NtRp5643
(dp5644
g60
(dp5645
sg69
g5630
sg62
(lp5646
g55
(g56
g57
NtRp5647
(dp5648
g60
(dp5649
g68
I5
ssg69
g5643
sg62
(lp5650
g55
(g64
g57
NtRp5651
(dp5652
g60
(dp5653
g68
I4
ssg69
Nsg62
(lp5654
g55
(g71
g57
NtRp5655
(dp5656
g60
(dp5657
sg69
g5651
sg62
(lp5658
g55
(g76
g57
NtRp5659
(dp5660
g60
(dp5661
sg69
g5655
sg62
(lp5662
g55
(g56
g57
NtRp5663
(dp5664
g60
(dp5665
g68
I4
ssg69
g5659
sg62
(lp5666
S'*'
asbasbasbasbasbasbasbag55
(g71
g57
NtRp5667
(dp5668
g60
(dp5669
sg69
g5297
sg62
(lp5670
g55
(g76
g57
NtRp5671
(dp5672
g60
(dp5673
g80
g81
ssg69
g5667
sg62
(lp5674
S'google_analytics_id'
p5675
asbag55
(g76
g57
NtRp5676
(dp5677
g60
(dp5678
g87
g88
ssg69
g5667
sg62
(lp5679
S':'
asbag55
(g76
g57
NtRp5680
(dp5681
g60
(dp5682
sg69
g5667
sg62
(lp5683
g55
(g56
g57
NtRp5684
(dp5685
g60
(dp5686
g68
I5
ssg69
g5680
sg62
(lp5687
S'None'
p5688
asbasbasbag55
(g71
g57
NtRp5689
(dp5690
g60
(dp5691
sg69
g5297
sg62
(lp5692
g55
(g76
g57
NtRp5693
(dp5694
g60
(dp5695
g80
g81
ssg69
g5689
sg62
(lp5696
S'headers'
p5697
asbag55
(g76
g57
NtRp5698
(dp5699
g60
(dp5700
g87
g88
ssg69
g5689
sg62
(lp5701
S':'
asbag55
(g76
g57
NtRp5702
(dp5703
g60
(dp5704
sg69
g5689
sg62
(lp5705
g55
(g56
g57
NtRp5706
(dp5707
g60
(dp5708
g68
I5
ssg69
g5702
sg62
(lp5709
g55
(g64
g57
NtRp5710
(dp5711
g60
(dp5712
g68
I4
ssg69
Nsg62
(lp5713
g55
(g71
g57
NtRp5714
(dp5715
g60
(dp5716
sg69
g5710
sg62
(lp5717
g55
(g76
g57
NtRp5718
(dp5719
g60
(dp5720
g80
g81
ssg69
g5714
sg62
(lp5721
S'X-Powered-By'
p5722
asbag55
(g76
g57
NtRp5723
(dp5724
g60
(dp5725
g87
g88
ssg69
g5714
sg62
(lp5726
S':'
asbag55
(g76
g57
NtRp5727
(dp5728
g60
(dp5729
sg69
g5714
sg62
(lp5730
g55
(g56
g57
NtRp5731
(dp5732
g60
(dp5733
g68
I4
ssg69
g5727
sg62
(lp5734
S'web2py'
p5735
asbasbasbasbasbasbasbag55
(g71
g57
NtRp5736
(dp5737
g60
(dp5738
sg69
g5297
sg62
(lp5739
g55
(g76
g57
NtRp5740
(dp5741
g60
(dp5742
g80
g81
ssg69
g5736
sg62
(lp5743
S'logo'
p5744
asbag55
(g76
g57
NtRp5745
(dp5746
g60
(dp5747
g87
g88
ssg69
g5736
sg62
(lp5748
S':'
asbag55
(g76
g57
NtRp5749
(dp5750
g60
(dp5751
sg69
g5736
sg62
(lp5752
g55
(g56
g57
NtRp5753
(dp5754
g60
(dp5755
g68
I5
ssg69
g5749
sg62
(lp5756
g55
(cgluon.html
A
p5757
g57
NtRp5758
(dp5759
g60
(dp5760
S'_class'
p5761
S'brand'
p5762
sS'_href'
p5763
S'http://www.web2py.com/'
p5764
ssg69
Nsg62
(lp5765
g55
(cgluon.html
B
p5766
g57
NtRp5767
(dp5768
g60
(dp5769
sg69
g5758
sg62
(lp5770
S'web'
p5771
ag55
(cgluon.html
SPAN
p5772
g57
NtRp5773
(dp5774
g60
(dp5775
sg69
g5767
sg62
(lp5776
I2
asbaS'py'
p5777
asbacgluon.html
XML_unpickle
p5778
(S's\r\x00\x00\x00&trade;&nbsp;'
tRp5779
asbasbasbasbag55
(g71
g57
NtRp5780
(dp5781
g60
(dp5782
sg69
g5297
sg62
(lp5783
g55
(g76
g57
NtRp5784
(dp5785
g60
(dp5786
g80
g81
ssg69
g5780
sg62
(lp5787
S'menu'
p5788
asbag55
(g76
g57
NtRp5789
(dp5790
g60
(dp5791
g87
g88
ssg69
g5780
sg62
(lp5792
S':'
asbag55
(g76
g57
NtRp5793
(dp5794
g60
(dp5795
sg69
g5780
sg62
(lp5796
g55
(g56
g57
NtRp5797
(dp5798
g60
(dp5799
g68
I5
ssg69
g5793
sg62
(lp5800
g55
(g64
g57
NtRp5801
(dp5802
g60
(dp5803
g68
I4
ssg69
Nsg62
(lp5804
g55
(g71
g57
NtRp5805
(dp5806
g60
(dp5807
sg69
g5801
sg62
(lp5808
g55
(g76
g57
NtRp5809
(dp5810
g60
(dp5811
sg69
g5805
sg62
(lp5812
g55
(g56
g57
NtRp5813
(dp5814
g60
(dp5815
g68
I4
ssg69
g5809
sg62
(lp5816
g55
(g64
g57
NtRp5817
(dp5818
g60
(dp5819
g68
I3
ssg69
Nsg62
(lp5820
g55
(g71
g57
NtRp5821
(dp5822
g60
(dp5823
sg69
g5817
sg62
(lp5824
g55
(g76
g57
NtRp5825
(dp5826
g60
(dp5827
sg69
g5821
sg62
(lp5828
g55
(g56
g57
NtRp5829
(dp5830
g60
(dp5831
g68
I3
ssg69
g5825
sg62
(lp5832
g5628
(S's\x04\x00\x00\x00Home'
tRp5833
asbasbasbag55
(g71
g57
NtRp5834
(dp5835
g60
(dp5836
sg69
g5817
sg62
(lp5837
g55
(g76
g57
NtRp5838
(dp5839
g60
(dp5840
sg69
g5834
sg62
(lp5841
g55
(g56
g57
NtRp5842
(dp5843
g60
(dp5844
g68
I3
ssg69
g5838
sg62
(lp5845
g98
asbasbasbag55
(g71
g57
NtRp5846
(dp5847
g60
(dp5848
sg69
g5817
sg62
(lp5849
g55
(g76
g57
NtRp5850
(dp5851
g60
(dp5852
sg69
g5846
sg62
(lp5853
g55
(g56
g57
NtRp5854
(dp5855
g60
(dp5856
g68
I3
ssg69
g5850
sg62
(lp5857
S'/reddit/default/index'
p5858
asbasbasbag55
(g71
g57
NtRp5859
(dp5860
g60
(dp5861
sg69
g5817
sg62
(lp5862
g55
(g76
g57
NtRp5863
(dp5864
g60
(dp5865
sg69
g5859
sg62
(lp5866
g55
(g56
g57
NtRp5867
(dp5868
g60
(dp5869
g68
I3
ssg69
g5863
sg62
(lp5870
g55
(g64
g57
NtRp5871
(dp5872
g60
(dp5873
g68
I2
ssg69
Nsg62
(lp5874
sbasbasbasbasbasbasbasbag55
(g71
g57
NtRp5875
(dp5876
g60
(dp5877
sg69
g5801
sg62
(lp5878
g55
(g76
g57
NtRp5879
(dp5880
g60
(dp5881
sg69
g5875
sg62
(lp5882
g55
(g56
g57
NtRp5883
(dp5884
g60
(dp5885
g68
I4
ssg69
g5879
sg62
(lp5886
g55
(g64
g57
NtRp5887
(dp5888
g60
(dp5889
g68
I3
ssg69
Nsg62
(lp5890
g55
(g71
g57
NtRp5891
(dp5892
g60
(dp5893
sg69
g5887
sg62
(lp5894
g55
(g76
g57
NtRp5895
(dp5896
g60
(dp5897
sg69
g5891
sg62
(lp5898
g55
(g56
g57
NtRp5899
(dp5900
g60
(dp5901
g68
I3
ssg69
g5895
sg62
(lp5902
g55
(g5772
g57
NtRp5903
(dp5904
g60
(dp5905
g5761
S'highlighted'
p5906
ssg69
Nsg62
(lp5907
g5735
asbasbasbasbag55
(g71
g57
NtRp5908
(dp5909
g60
(dp5910
sg69
g5887
sg62
(lp5911
g55
(g76
g57
NtRp5912
(dp5913
g60
(dp5914
sg69
g5908
sg62
(lp5915
g55
(g56
g57
NtRp5916
(dp5917
g60
(dp5918
g68
I3
ssg69
g5912
sg62
(lp5919
g98
asbasbasbag55
(g71
g57
NtRp5920
(dp5921
g60
(dp5922
sg69
g5887
sg62
(lp5923
g55
(g76
g57
NtRp5924
(dp5925
g60
(dp5926
sg69
g5920
sg62
(lp5927
g55
(g56
g57
NtRp5928
(dp5929
g60
(dp5930
g68
I3
ssg69
g5924
sg62
(lp5931
S'http://web2py.com'
p5932
asbasbasbag55
(g71
g57
NtRp5933
(dp5934
g60
(dp5935
sg69
g5887
sg62
(lp5936
g55
(g76
g57
NtRp5937
(dp5938
g60
(dp5939
sg69
g5933
sg62
(lp5940
g55
(g56
g57
NtRp5941
(dp5942
g60
(dp5943
g68
I3
ssg69
g5937
sg62
(lp5944
g55
(g64
g57
NtRp5945
(dp5946
g60
(dp5947
g68
I2
ssg69
Nsg62
(lp5948
g55
(g71
g57
NtRp5949
(dp5950
g60
(dp5951
sg69
g5945
sg62
(lp5952
g55
(g76
g57
NtRp5953
(dp5954
g60
(dp5955
sg69
g5949
sg62
(lp5956
g55
(g56
g57
NtRp5957
(dp5958
g60
(dp5959
g68
I2
ssg69
g5953
sg62
(lp5960
g55
(g64
g57
NtRp5961
(dp5962
g60
(dp5963
g68
I1
ssg69
Nsg62
(lp5964
g55
(g71
g57
NtRp5965
(dp5966
g60
(dp5967
sg69
g5961
sg62
(lp5968
g55
(g76
g57
NtRp5969
(dp5970
g60
(dp5971
sg69
g5965
sg62
(lp5972
g55
(g56
g57
NtRp5973
(dp5974
g60
(dp5975
g68
I1
ssg69
g5969
sg62
(lp5976
g5628
(S's\x08\x00\x00\x00My Sites'
tRp5977
asbasbasbag55
(g71
g57
NtRp5978
(dp5979
g60
(dp5980
sg69
g5961
sg62
(lp5981
g55
(g76
g57
NtRp5982
(dp5983
g60
(dp5984
sg69
g5978
sg62
(lp5985
g55
(g56
g57
NtRp5986
(dp5987
g60
(dp5988
g68
I1
ssg69
g5982
sg62
(lp5989
I00
asbasbasbag55
(g71
g57
NtRp5990
(dp5991
g60
(dp5992
sg69
g5961
sg62
(lp5993
g55
(g76
g57
NtRp5994
(dp5995
g60
(dp5996
sg69
g5990
sg62
(lp5997
g55
(g56
g57
NtRp5998
(dp5999
g60
(dp6000
g68
I1
ssg69
g5994
sg62
(lp6001
S'/admin/default/site'
p6002
asbasbasbasbasbasbasbag55
(g71
g57
NtRp6003
(dp6004
g60
(dp6005
sg69
g5945
sg62
(lp6006
g55
(g76
g57
NtRp6007
(dp6008
g60
(dp6009
sg69
g6003
sg62
(lp6010
g55
(g56
g57
NtRp6011
(dp6012
g60
(dp6013
g68
I2
ssg69
g6007
sg62
(lp6014
g55
(g64
g57
NtRp6015
(dp6016
g60
(dp6017
g68
I1
ssg69
Nsg62
(lp6018
g55
(g71
g57
NtRp6019
(dp6020
g60
(dp6021
sg69
g6015
sg62
(lp6022
g55
(g76
g57
NtRp6023
(dp6024
g60
(dp6025
sg69
g6019
sg62
(lp6026
g55
(g56
g57
NtRp6027
(dp6028
g60
(dp6029
g68
I1
ssg69
g6023
sg62
(lp6030
g5628
(S's\x08\x00\x00\x00This App'
tRp6031
asbasbasbag55
(g71
g57
NtRp6032
(dp6033
g60
(dp6034
sg69
g6015
sg62
(lp6035
g55
(g76
g57
NtRp6036
(dp6037
g60
(dp6038
sg69
g6032
sg62
(lp6039
g55
(g56
g57
NtRp6040
(dp6041
g60
(dp6042
g68
I1
ssg69
g6036
sg62
(lp6043
I00
asbasbasbag55
(g71
g57
NtRp6044
(dp6045
g60
(dp6046
sg69
g6015
sg62
(lp6047
g55
(g76
g57
NtRp6048
(dp6049
g60
(dp6050
sg69
g6044
sg62
(lp6051
g55
(g56
g57
NtRp6052
(dp6053
g60
(dp6054
g68
I1
ssg69
g6048
sg62
(lp6055
S'/admin/default/design/reddit'
p6056
asbasbasbag55
(g71
g57
NtRp6057
(dp6058
g60
(dp6059
sg69
g6015
sg62
(lp6060
g55
(g76
g57
NtRp6061
(dp6062
g60
(dp6063
sg69
g6057
sg62
(lp6064
g55
(g56
g57
NtRp6065
(dp6066
g60
(dp6067
g68
I1
ssg69
g6061
sg62
(lp6068
(lp6069
(g5628
(S's\n\x00\x00\x00Controller'
tRp6070
I00
S'/admin/default/edit/reddit/controllers/default.py'
tp6071
a(g5628
(S's\x04\x00\x00\x00View'
tRp6072
I00
S'/admin/default/edit/reddit/views/default/index.html'
tp6073
a(g5628
(S's\x06\x00\x00\x00Layout'
tRp6074
I00
S'/admin/default/edit/reddit/views/layout.html'
tp6075
a(g5628
(S's\n\x00\x00\x00Stylesheet'
tRp6076
I00
S'/admin/default/edit/reddit/static/css/web2py.css'
tp6077
a(g5628
(S's\x08\x00\x00\x00DB Model'
tRp6078
I00
S'/admin/default/edit/reddit/models/db.py'
tp6079
a(g5628
(S's\n\x00\x00\x00Menu Model'
tRp6080
I00
S'/admin/default/edit/reddit/models/menu.py'
tp6081
a(g5628
(S's\x08\x00\x00\x00Database'
tRp6082
I00
S'/reddit/appadmin/index'
tp6083
a(g5628
(S's\x06\x00\x00\x00Errors'
tRp6084
I00
S'/admin/default/errors/reddit'
tp6085
a(g5628
(S's\x05\x00\x00\x00About'
tRp6086
I00
S'/admin/default/about/reddit'
tp6087
aasbasbasbasbasbasbasbag55
(g71
g57
NtRp6088
(dp6089
g60
(dp6090
sg69
g5945
sg62
(lp6091
g55
(g76
g57
NtRp6092
(dp6093
g60
(dp6094
sg69
g6088
sg62
(lp6095
g55
(g56
g57
NtRp6096
(dp6097
g60
(dp6098
g68
I2
ssg69
g6092
sg62
(lp6099
g55
(g64
g57
NtRp6100
(dp6101
g60
(dp6102
g68
I1
ssg69
Nsg62
(lp6103
g55
(g71
g57
NtRp6104
(dp6105
g60
(dp6106
sg69
g6100
sg62
(lp6107
g55
(g76
g57
NtRp6108
(dp6109
g60
(dp6110
sg69
g6104
sg62
(lp6111
g55
(g56
g57
NtRp6112
(dp6113
g60
(dp6114
g68
I1
ssg69
g6108
sg62
(lp6115
S'web2py.com'
p6116
asbasbasbag55
(g71
g57
NtRp6117
(dp6118
g60
(dp6119
sg69
g6100
sg62
(lp6120
g55
(g76
g57
NtRp6121
(dp6122
g60
(dp6123
sg69
g6117
sg62
(lp6124
g55
(g56
g57
NtRp6125
(dp6126
g60
(dp6127
g68
I1
ssg69
g6121
sg62
(lp6128
I00
asbasbasbag55
(g71
g57
NtRp6129
(dp6130
g60
(dp6131
sg69
g6100
sg62
(lp6132
g55
(g76
g57
NtRp6133
(dp6134
g60
(dp6135
sg69
g6129
sg62
(lp6136
g55
(g56
g57
NtRp6137
(dp6138
g60
(dp6139
g68
I1
ssg69
g6133
sg62
(lp6140
S'http://www.web2py.com'
p6141
asbasbasbag55
(g71
g57
NtRp6142
(dp6143
g60
(dp6144
sg69
g6100
sg62
(lp6145
g55
(g76
g57
NtRp6146
(dp6147
g60
(dp6148
sg69
g6142
sg62
(lp6149
g55
(g56
g57
NtRp6150
(dp6151
g60
(dp6152
g68
I1
ssg69
g6146
sg62
(lp6153
(lp6154
(g5628
(S's\x08\x00\x00\x00Download'
tRp6155
I00
S'http://www.web2py.com/examples/default/download'
p6156
tp6157
a(g5628
(S's\x07\x00\x00\x00Support'
tRp6158
I00
S'http://www.web2py.com/examples/default/support'
p6159
tp6160
a(g5628
(S's\x04\x00\x00\x00Demo'
tRp6161
I00
S'http://web2py.com/demo_admin'
p6162
tp6163
a(g5628
(S's\x0e\x00\x00\x00Quick Examples'
tRp6164
I00
S'http://web2py.com/examples/default/examples'
p6165
tp6166
a(g5628
(S's\x03\x00\x00\x00FAQ'
tRp6167
I00
S'http://web2py.com/AlterEgo'
p6168
tp6169
a(g5628
(S's\x06\x00\x00\x00Videos'
tRp6170
I00
S'http://www.web2py.com/examples/default/videos/'
p6171
tp6172
a(g5628
(S's\x11\x00\x00\x00Free Applications'
tRp6173
I00
S'http://web2py.com/appliances'
p6174
tp6175
a(g5628
(S's\x07\x00\x00\x00Plugins'
tRp6176
I00
S'http://web2py.com/plugins'
p6177
tp6178
a(g5628
(S's\x07\x00\x00\x00Layouts'
tRp6179
I00
S'http://web2py.com/layouts'
p6180
tp6181
a(g5628
(S's\x07\x00\x00\x00Recipes'
tRp6182
I00
S'http://web2pyslices.com/'
p6183
tp6184
a(g5628
(S's\x08\x00\x00\x00Semantic'
tRp6185
I00
S'http://web2py.com/semantic'
p6186
tp6187
aasbasbasbasbasbasbasbag55
(g71
g57
NtRp6188
(dp6189
g60
(dp6190
sg69
g5945
sg62
(lp6191
g55
(g76
g57
NtRp6192
(dp6193
g60
(dp6194
sg69
g6188
sg62
(lp6195
g55
(g56
g57
NtRp6196
(dp6197
g60
(dp6198
g68
I2
ssg69
g6192
sg62
(lp6199
g55
(g64
g57
NtRp6200
(dp6201
g60
(dp6202
g68
I1
ssg69
Nsg62
(lp6203
g55
(g71
g57
NtRp6204
(dp6205
g60
(dp6206
sg69
g6200
sg62
(lp6207
g55
(g76
g57
NtRp6208
(dp6209
g60
(dp6210
sg69
g6204
sg62
(lp6211
g55
(g56
g57
NtRp6212
(dp6213
g60
(dp6214
g68
I1
ssg69
g6208
sg62
(lp6215
g5628
(S's\r\x00\x00\x00Documentation'
tRp6216
asbasbasbag55
(g71
g57
NtRp6217
(dp6218
g60
(dp6219
sg69
g6200
sg62
(lp6220
g55
(g76
g57
NtRp6221
(dp6222
g60
(dp6223
sg69
g6217
sg62
(lp6224
g55
(g56
g57
NtRp6225
(dp6226
g60
(dp6227
g68
I1
ssg69
g6221
sg62
(lp6228
I00
asbasbasbag55
(g71
g57
NtRp6229
(dp6230
g60
(dp6231
sg69
g6200
sg62
(lp6232
g55
(g76
g57
NtRp6233
(dp6234
g60
(dp6235
sg69
g6229
sg62
(lp6236
g55
(g56
g57
NtRp6237
(dp6238
g60
(dp6239
g68
I1
ssg69
g6233
sg62
(lp6240
S'http://www.web2py.com/book'
p6241
asbasbasbag55
(g71
g57
NtRp6242
(dp6243
g60
(dp6244
sg69
g6200
sg62
(lp6245
g55
(g76
g57
NtRp6246
(dp6247
g60
(dp6248
sg69
g6242
sg62
(lp6249
g55
(g56
g57
NtRp6250
(dp6251
g60
(dp6252
g68
I1
ssg69
g6246
sg62
(lp6253
(lp6254
(g5628
(S's\x07\x00\x00\x00Preface'
tRp6255
I00
S'http://www.web2py.com/book/default/chapter/00'
p6256
tp6257
a(g5628
(S's\x0c\x00\x00\x00Introduction'
tRp6258
I00
S'http://www.web2py.com/book/default/chapter/01'
p6259
tp6260
a(g5628
(S's\x06\x00\x00\x00Python'
tRp6261
I00
S'http://www.web2py.com/book/default/chapter/02'
p6262
tp6263
a(g5628
(S's\x08\x00\x00\x00Overview'
tRp6264
I00
S'http://www.web2py.com/book/default/chapter/03'
p6265
tp6266
a(g5628
(S's\x08\x00\x00\x00The Core'
tRp6267
I00
S'http://www.web2py.com/book/default/chapter/04'
p6268
tp6269
a(g5628
(S's\t\x00\x00\x00The Views'
tRp6270
I00
S'http://www.web2py.com/book/default/chapter/05'
p6271
tp6272
a(g5628
(S's\x08\x00\x00\x00Database'
tRp6273
I00
S'http://www.web2py.com/book/default/chapter/06'
p6274
tp6275
a(g5628
(S's\x14\x00\x00\x00Forms and Validators'
tRp6276
I00
S'http://www.web2py.com/book/default/chapter/07'
p6277
tp6278
a(g5628
(S's\r\x00\x00\x00Email and SMS'
tRp6279
I00
S'http://www.web2py.com/book/default/chapter/08'
p6280
tp6281
a(g5628
(S's\x0e\x00\x00\x00Access Control'
tRp6282
I00
S'http://www.web2py.com/book/default/chapter/09'
p6283
tp6284
a(g5628
(S's\x08\x00\x00\x00Services'
tRp6285
I00
S'http://www.web2py.com/book/default/chapter/10'
p6286
tp6287
a(g5628
(S's\x0c\x00\x00\x00Ajax Recipes'
tRp6288
I00
S'http://www.web2py.com/book/default/chapter/11'
p6289
tp6290
a(g5628
(S's\x16\x00\x00\x00Components and Plugins'
tRp6291
I00
S'http://www.web2py.com/book/default/chapter/12'
p6292
tp6293
a(g5628
(S's\x12\x00\x00\x00Deployment Recipes'
tRp6294
I00
S'http://www.web2py.com/book/default/chapter/13'
p6295
tp6296
a(g5628
(S's\r\x00\x00\x00Other Recipes'
tRp6297
I00
S'http://www.web2py.com/book/default/chapter/14'
p6298
tp6299
a(g5628
(S's\r\x00\x00\x00Buy this book'
tRp6300
I00
S'http://stores.lulu.com/web2py'
p6301
tp6302
aasbasbasbasbasbasbasbag55
(g71
g57
NtRp6303
(dp6304
g60
(dp6305
sg69
g5945
sg62
(lp6306
g55
(g76
g57
NtRp6307
(dp6308
g60
(dp6309
sg69
g6303
sg62
(lp6310
g55
(g56
g57
NtRp6311
(dp6312
g60
(dp6313
g68
I2
ssg69
g6307
sg62
(lp6314
g55
(g64
g57
NtRp6315
(dp6316
g60
(dp6317
g68
I1
ssg69
Nsg62
(lp6318
g55
(g71
g57
NtRp6319
(dp6320
g60
(dp6321
sg69
g6315
sg62
(lp6322
g55
(g76
g57
NtRp6323
(dp6324
g60
(dp6325
sg69
g6319
sg62
(lp6326
g55
(g56
g57
NtRp6327
(dp6328
g60
(dp6329
g68
I1
ssg69
g6323
sg62
(lp6330
g5628
(S's\t\x00\x00\x00Community'
tRp6331
asbasbasbag55
(g71
g57
NtRp6332
(dp6333
g60
(dp6334
sg69
g6315
sg62
(lp6335
g55
(g76
g57
NtRp6336
(dp6337
g60
(dp6338
sg69
g6332
sg62
(lp6339
g55
(g56
g57
NtRp6340
(dp6341
g60
(dp6342
g68
I1
ssg69
g6336
sg62
(lp6343
I00
asbasbasbag55
(g71
g57
NtRp6344
(dp6345
g60
(dp6346
sg69
g6315
sg62
(lp6347
g55
(g76
g57
NtRp6348
(dp6349
g60
(dp6350
sg69
g6344
sg62
(lp6351
g55
(g56
g57
NtRp6352
(dp6353
g60
(dp6354
g68
I1
ssg69
g6348
sg62
(lp6355
Nasbasbasbag55
(g71
g57
NtRp6356
(dp6357
g60
(dp6358
sg69
g6315
sg62
(lp6359
g55
(g76
g57
NtRp6360
(dp6361
g60
(dp6362
sg69
g6356
sg62
(lp6363
g55
(g56
g57
NtRp6364
(dp6365
g60
(dp6366
g68
I1
ssg69
g6360
sg62
(lp6367
(lp6368
(g5628
(S's\x06\x00\x00\x00Groups'
tRp6369
I00
S'http://www.web2py.com/examples/default/usergroups'
p6370
tp6371
a(g5628
(S's\x07\x00\x00\x00Twitter'
tRp6372
I00
S'http://twitter.com/web2py'
p6373
tp6374
a(g5628
(S's\t\x00\x00\x00Live Chat'
tRp6375
I00
S'http://webchat.freenode.net/?channels=web2py'
p6376
tp6377
aasbasbasbasbasbasbasbag55
(g71
g57
NtRp6378
(dp6379
g60
(dp6380
sg69
g5945
sg62
(lp6381
g55
(g76
g57
NtRp6382
(dp6383
g60
(dp6384
sg69
g6378
sg62
(lp6385
g55
(g56
g57
NtRp6386
(dp6387
g60
(dp6388
g68
I2
ssg69
g6382
sg62
(lp6389
g55
(g64
g57
NtRp6390
(dp6391
g60
(dp6392
g68
I1
ssg69
Nsg62
(lp6393
g55
(g71
g57
NtRp6394
(dp6395
g60
(dp6396
sg69
g6390
sg62
(lp6397
g55
(g76
g57
NtRp6398
(dp6399
g60
(dp6400
sg69
g6394
sg62
(lp6401
g55
(g56
g57
NtRp6402
(dp6403
g60
(dp6404
g68
I1
ssg69
g6398
sg62
(lp6405
g5628
(S's\x07\x00\x00\x00Plugins'
tRp6406
asbasbasbag55
(g71
g57
NtRp6407
(dp6408
g60
(dp6409
sg69
g6390
sg62
(lp6410
g55
(g76
g57
NtRp6411
(dp6412
g60
(dp6413
sg69
g6407
sg62
(lp6414
g55
(g56
g57
NtRp6415
(dp6416
g60
(dp6417
g68
I1
ssg69
g6411
sg62
(lp6418
I00
asbasbasbag55
(g71
g57
NtRp6419
(dp6420
g60
(dp6421
sg69
g6390
sg62
(lp6422
g55
(g76
g57
NtRp6423
(dp6424
g60
(dp6425
sg69
g6419
sg62
(lp6426
g55
(g56
g57
NtRp6427
(dp6428
g60
(dp6429
g68
I1
ssg69
g6423
sg62
(lp6430
Nasbasbasbag55
(g71
g57
NtRp6431
(dp6432
g60
(dp6433
sg69
g6390
sg62
(lp6434
g55
(g76
g57
NtRp6435
(dp6436
g60
(dp6437
sg69
g6431
sg62
(lp6438
g55
(g56
g57
NtRp6439
(dp6440
g60
(dp6441
g68
I1
ssg69
g6435
sg62
(lp6442
(lp6443
(S'plugin_wiki'
p6444
I00
S'http://web2py.com/examples/default/download'
p6445
tp6446
a(g5628
(S's\r\x00\x00\x00Other Plugins'
tRp6447
I00
g6177
tp6448
a(g5628
(S's\x0e\x00\x00\x00Layout Plugins'
tRp6449
I00
g6180
tp6450
aasbasbasbasbasbasbasbasbasbasbasbasbasbasbasbasbasbasbasbag55
(g71
g57
NtRp6451
(dp6452
g60
(dp6453
sg69
g5297
sg62
(lp6454
g55
(g76
g57
NtRp6455
(dp6456
g60
(dp6457
g80
g81
ssg69
g6451
sg62
(lp6458
S'meta'
p6459
asbag55
(g76
g57
NtRp6460
(dp6461
g60
(dp6462
g87
g88
ssg69
g6451
sg62
(lp6463
S':'
asbag55
(g76
g57
NtRp6464
(dp6465
g60
(dp6466
sg69
g6451
sg62
(lp6467
g55
(g56
g57
NtRp6468
(dp6469
g60
(dp6470
g68
I5
ssg69
g6464
sg62
(lp6471
g55
(g64
g57
NtRp6472
(dp6473
g60
(dp6474
g68
I4
ssg69
Nsg62
(lp6475
g55
(g71
g57
NtRp6476
(dp6477
g60
(dp6478
sg69
g6472
sg62
(lp6479
g55
(g76
g57
NtRp6480
(dp6481
g60
(dp6482
g80
g81
ssg69
g6476
sg62
(lp6483
S'author'
p6484
asbag55
(g76
g57
NtRp6485
(dp6486
g60
(dp6487
g87
g88
ssg69
g6476
sg62
(lp6488
S':'
asbag55
(g76
g57
NtRp6489
(dp6490
g60
(dp6491
sg69
g6476
sg62
(lp6492
g55
(g56
g57
NtRp6493
(dp6494
g60
(dp6495
g68
I4
ssg69
g6489
sg62
(lp6496
S'Your Name <you@example.com>'
p6497
asbasbasbag55
(g71
g57
NtRp6498
(dp6499
g60
(dp6500
sg69
g6472
sg62
(lp6501
g55
(g76
g57
NtRp6502
(dp6503
g60
(dp6504
g80
g81
ssg69
g6498
sg62
(lp6505
S'description'
p6506
asbag55
(g76
g57
NtRp6507
(dp6508
g60
(dp6509
g87
g88
ssg69
g6498
sg62
(lp6510
S':'
asbag55
(g76
g57
NtRp6511
(dp6512
g60
(dp6513
sg69
g6498
sg62
(lp6514
g55
(g56
g57
NtRp6515
(dp6516
g60
(dp6517
g68
I4
ssg69
g6511
sg62
(lp6518
S'a cool new app'
p6519
asbasbasbag55
(g71
g57
NtRp6520
(dp6521
g60
(dp6522
sg69
g6472
sg62
(lp6523
g55
(g76
g57
NtRp6524
(dp6525
g60
(dp6526
g80
g81
ssg69
g6520
sg62
(lp6527
S'generator'
p6528
asbag55
(g76
g57
NtRp6529
(dp6530
g60
(dp6531
g87
g88
ssg69
g6520
sg62
(lp6532
S':'
asbag55
(g76
g57
NtRp6533
(dp6534
g60
(dp6535
sg69
g6520
sg62
(lp6536
g55
(g56
g57
NtRp6537
(dp6538
g60
(dp6539
g68
I4
ssg69
g6533
sg62
(lp6540
S'Web2py Web Framework'
p6541
asbasbasbag55
(g71
g57
NtRp6542
(dp6543
g60
(dp6544
sg69
g6472
sg62
(lp6545
g55
(g76
g57
NtRp6546
(dp6547
g60
(dp6548
g80
g81
ssg69
g6542
sg62
(lp6549
S'keywords'
p6550
asbag55
(g76
g57
NtRp6551
(dp6552
g60
(dp6553
g87
g88
ssg69
g6542
sg62
(lp6554
S':'
asbag55
(g76
g57
NtRp6555
(dp6556
g60
(dp6557
sg69
g6542
sg62
(lp6558
g55
(g56
g57
NtRp6559
(dp6560
g60
(dp6561
g68
I4
ssg69
g6555
sg62
(lp6562
S'web2py, python, framework'
p6563
asbasbasbasbasbasbasbag55
(g71
g57
NtRp6564
(dp6565
g60
(dp6566
sg69
g5297
sg62
(lp6567
g55
(g76
g57
NtRp6568
(dp6569
g60
(dp6570
g80
g81
ssg69
g6564
sg62
(lp6571
S'models_to_run'
p6572
asbag55
(g76
g57
NtRp6573
(dp6574
g60
(dp6575
g87
g88
ssg69
g6564
sg62
(lp6576
S':'
asbag55
(g76
g57
NtRp6577
(dp6578
g60
(dp6579
sg69
g6564
sg62
(lp6580
g55
(g56
g57
NtRp6581
(dp6582
g60
(dp6583
g68
I5
ssg69
g6577
sg62
(lp6584
g55
(g64
g57
NtRp6585
(dp6586
g60
(dp6587
g68
I4
ssg69
Nsg62
(lp6588
g55
(g71
g57
NtRp6589
(dp6590
g60
(dp6591
sg69
g6585
sg62
(lp6592
g55
(g76
g57
NtRp6593
(dp6594
g60
(dp6595
sg69
g6589
sg62
(lp6596
g55
(g56
g57
NtRp6597
(dp6598
g60
(dp6599
g68
I4
ssg69
g6593
sg62
(lp6600
S'^\\w+\\.py$'
p6601
asbasbasbag55
(g71
g57
NtRp6602
(dp6603
g60
(dp6604
sg69
g6585
sg62
(lp6605
g55
(g76
g57
NtRp6606
(dp6607
g60
(dp6608
sg69
g6602
sg62
(lp6609
g55
(g56
g57
NtRp6610
(dp6611
g60
(dp6612
g68
I4
ssg69
g6606
sg62
(lp6613
S'^default/\\w+\\.py$'
p6614
asbasbasbag55
(g71
g57
NtRp6615
(dp6616
g60
(dp6617
sg69
g6585
sg62
(lp6618
g55
(g76
g57
NtRp6619
(dp6620
g60
(dp6621
sg69
g6615
sg62
(lp6622
g55
(g56
g57
NtRp6623
(dp6624
g60
(dp6625
g68
I4
ssg69
g6619
sg62
(lp6626
S'^default/index/\\w+\\.py$'
p6627
asbasbasbasbasbasbasbag55
(g71
g57
NtRp6628
(dp6629
g60
(dp6630
sg69
g5297
sg62
(lp6631
g55
(g76
g57
NtRp6632
(dp6633
g60
(dp6634
g80
g81
ssg69
g6628
sg62
(lp6635
S'postprocessing'
p6636
asbag55
(g76
g57
NtRp6637
(dp6638
g60
(dp6639
g87
g88
ssg69
g6628
sg62
(lp6640
S':'
asbag55
(g76
g57
NtRp6641
(dp6642
g60
(dp6643
sg69
g6628
sg62
(lp6644
g55
(g56
g57
NtRp6645
(dp6646
g60
(dp6647
g68
I5
ssg69
g6641
sg62
(lp6648
g55
(g64
g57
NtRp6649
(dp6650
g60
(dp6651
g68
I4
ssg69
Nsg62
(lp6652
sbasbasbasbag55
(g71
g57
NtRp6653
(dp6654
g60
(dp6655
sg69
g5297
sg62
(lp6656
g55
(g76
g57
NtRp6657
(dp6658
g60
(dp6659
g80
g81
ssg69
g6653
sg62
(lp6660
S'session_cookie_expires'
p6661
asbag55
(g76
g57
NtRp6662
(dp6663
g60
(dp6664
g87
g88
ssg69
g6653
sg62
(lp6665
S':'
asbag55
(g76
g57
NtRp6666
(dp6667
g60
(dp6668
sg69
g6653
sg62
(lp6669
g55
(g56
g57
NtRp6670
(dp6671
g60
(dp6672
g68
I5
ssg69
g6666
sg62
(lp6673
S'None'
p6674
asbasbasbag55
(g71
g57
NtRp6675
(dp6676
g60
(dp6677
sg69
g5297
sg62
(lp6678
g55
(g76
g57
NtRp6679
(dp6680
g60
(dp6681
g80
g81
ssg69
g6675
sg62
(lp6682
S'session_data_name'
p6683
asbag55
(g76
g57
NtRp6684
(dp6685
g60
(dp6686
g87
g88
ssg69
g6675
sg62
(lp6687
S':'
asbag55
(g76
g57
NtRp6688
(dp6689
g60
(dp6690
sg69
g6675
sg62
(lp6691
g55
(g56
g57
NtRp6692
(dp6693
g60
(dp6694
g68
I5
ssg69
g6688
sg62
(lp6695
S'session_data_reddit'
p6696
asbasbasbag55
(g71
g57
NtRp6697
(dp6698
g60
(dp6699
sg69
g5297
sg62
(lp6700
g55
(g76
g57
NtRp6701
(dp6702
g60
(dp6703
g80
g81
ssg69
g6697
sg62
(lp6704
S'session_file'
p6705
asbag55
(g76
g57
NtRp6706
(dp6707
g60
(dp6708
g87
g88
ssg69
g6697
sg62
(lp6709
S':'
asbag55
(g76
g57
NtRp6710
(dp6711
g60
(dp6712
sg69
g6697
sg62
(lp6713
g55
(g56
g57
NtRp6714
(dp6715
g60
(dp6716
g68
I5
ssg69
g6710
sg62
(lp6717
S"<open file '/home/pankaj/web2py/applications/reddit/sessions/127.0.0.1-24289f39-32a1-48fb-a367-22792fb8b813', mode 'rb+' at 0xae32da18>"
p6718
asbasbasbag55
(g71
g57
NtRp6719
(dp6720
g60
(dp6721
sg69
g5297
sg62
(lp6722
g55
(g76
g57
NtRp6723
(dp6724
g60
(dp6725
g80
g81
ssg69
g6719
sg62
(lp6726
S'session_filename'
p6727
asbag55
(g76
g57
NtRp6728
(dp6729
g60
(dp6730
g87
g88
ssg69
g6719
sg62
(lp6731
S':'
asbag55
(g76
g57
NtRp6732
(dp6733
g60
(dp6734
sg69
g6719
sg62
(lp6735
g55
(g56
g57
NtRp6736
(dp6737
g60
(dp6738
g68
I5
ssg69
g6732
sg62
(lp6739
S'/home/pankaj/web2py/applications/reddit/sessions/127.0.0.1-24289f39-32a1-48fb-a367-22792fb8b813'
p6740
asbasbasbag55
(g71
g57
NtRp6741
(dp6742
g60
(dp6743
sg69
g5297
sg62
(lp6744
g55
(g76
g57
NtRp6745
(dp6746
g60
(dp6747
g80
g81
ssg69
g6741
sg62
(lp6748
S'session_id'
p6749
asbag55
(g76
g57
NtRp6750
(dp6751
g60
(dp6752
g87
g88
ssg69
g6741
sg62
(lp6753
S':'
asbag55
(g76
g57
NtRp6754
(dp6755
g60
(dp6756
sg69
g6741
sg62
(lp6757
g55
(g56
g57
NtRp6758
(dp6759
g60
(dp6760
g68
I5
ssg69
g6754
sg62
(lp6761
g1775
asbasbasbag55
(g71
g57
NtRp6762
(dp6763
g60
(dp6764
sg69
g5297
sg62
(lp6765
g55
(g76
g57
NtRp6766
(dp6767
g60
(dp6768
g80
g81
ssg69
g6762
sg62
(lp6769
S'session_id_name'
p6770
asbag55
(g76
g57
NtRp6771
(dp6772
g60
(dp6773
g87
g88
ssg69
g6762
sg62
(lp6774
S':'
asbag55
(g76
g57
NtRp6775
(dp6776
g60
(dp6777
sg69
g6762
sg62
(lp6778
g55
(g56
g57
NtRp6779
(dp6780
g60
(dp6781
g68
I5
ssg69
g6775
sg62
(lp6782
g5354
asbasbasbag55
(g71
g57
NtRp6783
(dp6784
g60
(dp6785
sg69
g5297
sg62
(lp6786
g55
(g76
g57
NtRp6787
(dp6788
g60
(dp6789
g80
g81
ssg69
g6783
sg62
(lp6790
S'session_locked'
p6791
asbag55
(g76
g57
NtRp6792
(dp6793
g60
(dp6794
g87
g88
ssg69
g6783
sg62
(lp6795
S':'
asbag55
(g76
g57
NtRp6796
(dp6797
g60
(dp6798
sg69
g6783
sg62
(lp6799
g55
(g56
g57
NtRp6800
(dp6801
g60
(dp6802
g68
I5
ssg69
g6796
sg62
(lp6803
g3649
asbasbasbag55
(g71
g57
NtRp6804
(dp6805
g60
(dp6806
sg69
g5297
sg62
(lp6807
g55
(g76
g57
NtRp6808
(dp6809
g60
(dp6810
g80
g81
ssg69
g6804
sg62
(lp6811
S'session_new'
p6812
asbag55
(g76
g57
NtRp6813
(dp6814
g60
(dp6815
g87
g88
ssg69
g6804
sg62
(lp6816
S':'
asbag55
(g76
g57
NtRp6817
(dp6818
g60
(dp6819
sg69
g6804
sg62
(lp6820
g55
(g56
g57
NtRp6821
(dp6822
g60
(dp6823
g68
I5
ssg69
g6817
sg62
(lp6824
g98
asbasbasbag55
(g71
g57
NtRp6825
(dp6826
g60
(dp6827
sg69
g5297
sg62
(lp6828
g55
(g76
g57
NtRp6829
(dp6830
g60
(dp6831
g80
g81
ssg69
g6825
sg62
(lp6832
S'session_storage_type'
p6833
asbag55
(g76
g57
NtRp6834
(dp6835
g60
(dp6836
g87
g88
ssg69
g6825
sg62
(lp6837
S':'
asbag55
(g76
g57
NtRp6838
(dp6839
g60
(dp6840
sg69
g6825
sg62
(lp6841
g55
(g56
g57
NtRp6842
(dp6843
g60
(dp6844
g68
I5
ssg69
g6838
sg62
(lp6845
g5101
asbasbasbag55
(g71
g57
NtRp6846
(dp6847
g60
(dp6848
sg69
g5297
sg62
(lp6849
g55
(g76
g57
NtRp6850
(dp6851
g60
(dp6852
g80
g81
ssg69
g6846
sg62
(lp6853
S'status'
p6854
asbag55
(g76
g57
NtRp6855
(dp6856
g60
(dp6857
g87
g88
ssg69
g6846
sg62
(lp6858
S':'
asbag55
(g76
g57
NtRp6859
(dp6860
g60
(dp6861
sg69
g6846
sg62
(lp6862
g55
(g56
g57
NtRp6863
(dp6864
g60
(dp6865
g68
I5
ssg69
g6859
sg62
(lp6866
S'200'
p6867
asbasbasbag55
(g71
g57
NtRp6868
(dp6869
g60
(dp6870
sg69
g5297
sg62
(lp6871
g55
(g76
g57
NtRp6872
(dp6873
g60
(dp6874
g80
g81
ssg69
g6868
sg62
(lp6875
S'subtitle'
p6876
asbag55
(g76
g57
NtRp6877
(dp6878
g60
(dp6879
g87
g88
ssg69
g6868
sg62
(lp6880
S':'
asbag55
(g76
g57
NtRp6881
(dp6882
g60
(dp6883
sg69
g6868
sg62
(lp6884
g55
(g56
g57
NtRp6885
(dp6886
g60
(dp6887
g68
I5
ssg69
g6881
sg62
(lp6888
g5628
(S's\r\x00\x00\x00customize me!'
tRp6889
asbasbasbag55
(g71
g57
NtRp6890
(dp6891
g60
(dp6892
sg69
g5297
sg62
(lp6893
g55
(g76
g57
NtRp6894
(dp6895
g60
(dp6896
g80
g81
ssg69
g6890
sg62
(lp6897
S'title'
p6898
asbag55
(g76
g57
NtRp6899
(dp6900
g60
(dp6901
g87
g88
ssg69
g6890
sg62
(lp6902
S':'
asbag55
(g76
g57
NtRp6903
(dp6904
g60
(dp6905
sg69
g6890
sg62
(lp6906
g55
(g56
g57
NtRp6907
(dp6908
g60
(dp6909
g68
I5
ssg69
g6903
sg62
(lp6910
S'Reddit'
p6911
asbasbasbag55
(g71
g57
NtRp6912
(dp6913
g60
(dp6914
sg69
g5297
sg62
(lp6915
g55
(g76
g57
NtRp6916
(dp6917
g60
(dp6918
g80
g81
ssg69
g6912
sg62
(lp6919
S'view'
p6920
asbag55
(g76
g57
NtRp6921
(dp6922
g60
(dp6923
g87
g88
ssg69
g6912
sg62
(lp6924
S':'
asbag55
(g76
g57
NtRp6925
(dp6926
g60
(dp6927
sg69
g6912
sg62
(lp6928
g55
(g56
g57
NtRp6929
(dp6930
g60
(dp6931
g68
I5
ssg69
g6925
sg62
(lp6932
S'default/index.html'
p6933
asbasbasbasbasbsS'locals'
p6934
(dp6935
S'Service'
p6936
S"<class 'gluon.tools.Service'>"
p6937
sS'OBJECT'
p6938
S"<class 'gluon.html.OBJECT'>"
p6939
sS'SQLDB'
p6940
S"<class 'gluon.dal.DAL'>"
p6941
sg5279
S"<Storage {'_formkey[news/create]': 'fe555995-49b...owser': {'version': '22.0', 'name': 'Firefox'}}}>"
p6942
sS'LINK'
p6943
S"<class 'gluon.html.LINK'>"
p6944
sS'BR'
p6945
S"<class 'gluon.html.BR'>"
p6946
sS'local_import'
p6947
S'<function <lambda>>'
p6948
sS'OPTGROUP'
p6949
S"<class 'gluon.html.OPTGROUP'>"
p6950
sS'__package__'
p6951
S'None'
p6952
sS'PRE'
p6953
S"<class 'gluon.html.PRE'>"
p6954
sS'IS_INT_IN_RANGE'
p6955
S"<class 'gluon.validators.IS_INT_IN_RANGE'>"
p6956
sS'IS_LOWER'
p6957
S"<class 'gluon.validators.IS_LOWER'>"
p6958
sS'IS_STRONG'
p6959
S"<class 'gluon.validators.IS_STRONG'>"
p6960
sS'cache'
p6961
S'<gluon.cache.Cache object>'
p6962
sS'IS_IN_DB'
p6963
S"<class 'gluon.validators.IS_IN_DB'>"
p6964
sS'TAG'
p6965
S'<gluon.html.__TAG__ object>'
p6966
sS'SQLField'
p6967
S"<class 'gluon.dal.Field'>"
p6968
sS'mail'
p6969
S'<gluon.tools.Mail object>'
p6970
sS'BODY'
p6971
S"<class 'gluon.html.BODY'>"
p6972
sS'IS_DATE_IN_RANGE'
p6973
S"<class 'gluon.validators.IS_DATE_IN_RANGE'>"
p6974
sS'IFRAME'
p6975
S"<class 'gluon.html.IFRAME'>"
p6976
sS'URL'
p6977
S'<function URL>'
p6978
sS'__file__'
p6979
S"'/home/pankaj/web2py/applications/reddit/models/menu.py'"
p6980
sS'db'
p6981
S'<DAL uri="sqlite://storage.sqlite">'
p6982
sS'auth'
p6983
S'<gluon.tools.Auth object>'
p6984
sS'P'
S"<class 'gluon.html.P'>"
p6985
sS'TFOOT'
p6986
S"<class 'gluon.html.TFOOT'>"
p6987
sS'XHTML'
p6988
S"<class 'gluon.html.XHTML'>"
p6989
sS'ON'
p6990
g3649
sS'OL'
p6991
S"<class 'gluon.html.OL'>"
p6992
sS'TEXTAREA'
p6993
S"<class 'gluon.html.TEXTAREA'>"
p6994
sS'MENU'
p6995
S"<class 'gluon.html.MENU'>"
p6996
sS'IS_IMAGE'
p6997
S"<class 'gluon.validators.IS_IMAGE'>"
p6998
sS'EM'
p6999
S"<class 'gluon.html.EM'>"
p7000
sS'CODE'
p7001
S"<class 'gluon.html.CODE'>"
p7002
sS'HTTP'
p7003
S"<class 'gluon.http.HTTP'>"
p7004
sS'HR'
p7005
S"<class 'gluon.html.HR'>"
p7006
sS'IS_DATETIME'
p7007
S"<class 'gluon.validators.IS_DATETIME'>"
p7008
sS'STYLE'
p7009
S"<class 'gluon.html.STYLE'>"
p7010
sS'LABEL'
p7011
S"<class 'gluon.html.LABEL'>"
p7012
sS'CLEANUP'
p7013
S"<class 'gluon.validators.CLEANUP'>"
p7014
sS'plugins'
p7015
S'<gluon.tools.PluginManager object>'
p7016
sS'SELECT'
p7017
S"<class 'gluon.html.SELECT'>"
p7018
sS'use_janrain'
p7019
S'<function use_janrain>'
p7020
sS'CENTER'
p7021
S"<class 'gluon.html.CENTER'>"
p7022
sS'prettydate'
p7023
S'<function prettydate>'
p7024
sS'Crud'
p7025
S"<class 'gluon.tools.Crud'>"
p7026
sS'Auth'
p7027
S"<class 'gluon.tools.Auth'>"
p7028
sS'DEVELOPMENT_MENU'
p7029
g3649
sS'__builtins__'
p7030
S"{'ArithmeticError': <type 'exceptions.ArithmeticError'>, 'AssertionError': <type 'exceptions.AssertionError'>, 'AttributeError': <type 'exceptions.AttributeError'>, 'BaseException': <type 'exceptions.BaseException'>, 'BufferError': <type 'exceptions.BufferError'>, 'BytesWarning': <type 'exceptions.BytesWarning'>, 'DeprecationWarning': <type 'exceptions.DeprecationWarning'>, 'EOFError': <type 'exceptions.EOFError'>, 'Ellipsis': Ellipsis, 'EnvironmentError': <type 'exceptions.EnvironmentError'>, ...}"
p7031
sS'HTML'
p7032
S"<class 'gluon.html.HTML'>"
p7033
sS'SQLFORM'
p7034
S"<class 'gluon.sqlhtml.SQLFORM'>"
p7035
sS'LOAD'
p7036
S'<function LOAD>'
p7037
sS'redirect'
p7038
S'<function redirect>'
p7039
sS'FIELDSET'
p7040
S"<class 'gluon.html.FIELDSET'>"
p7041
sS'IS_EQUAL_TO'
p7042
S"<class 'gluon.validators.IS_EQUAL_TO'>"
p7043
sS'embed64'
p7044
S'<function embed64>'
p7045
sS'IS_LIST_OF'
p7046
S"<class 'gluon.validators.IS_LIST_OF'>"
p7047
sS'INPUT'
p7048
S"<class 'gluon.html.INPUT'>"
p7049
sS'EMBED'
p7050
S"<class 'gluon.html.EMBED'>"
p7051
sS'_'
S'<function _>'
p7052
sS'H2'
p7053
S"<class 'gluon.html.H2'>"
p7054
sS'H3'
p7055
S"<class 'gluon.html.H3'>"
p7056
sS'BUTTON'
p7057
S"<class 'gluon.html.BUTTON'>"
p7058
sS'H1'
p7059
S"<class 'gluon.html.H1'>"
p7060
sS'H6'
p7061
S"<class 'gluon.html.H6'>"
p7062
sS'H4'
p7063
S"<class 'gluon.html.H4'>"
p7064
sS'H5'
p7065
S"<class 'gluon.html.H5'>"
p7066
sS'UL'
p7067
S"<class 'gluon.html.UL'>"
p7068
sS'IS_UPPER'
p7069
S"<class 'gluon.validators.IS_UPPER'>"
p7070
sS'xmlescape'
p7071
S'<function xmlescape>'
p7072
sS'IS_TIME'
p7073
S"<class 'gluon.validators.IS_TIME'>"
p7074
sS'OPTION'
p7075
S"<class 'gluon.html.OPTION'>"
p7076
sS'TITLE'
p7077
S"<class 'gluon.html.TITLE'>"
p7078
sS'CRYPT'
p7079
S"<class 'gluon.validators.CRYPT'>"
p7080
sS'IS_EMPTY_OR'
p7081
S"<class 'gluon.validators.IS_EMPTY_OR'>"
p7082
sS'MARKMIN'
p7083
S"<class 'gluon.html.MARKMIN'>"
p7084
sS'__name__'
p7085
S"'__restricted__'"
p7086
sS'message'
p7087
S"<lazyT 'Hello World'>"
p7088
sS'STRONG'
p7089
S"<class 'gluon.html.STRONG'>"
p7090
sS'COL'
p7091
S"<class 'gluon.html.COL'>"
p7092
sS'service'
p7093
S'<gluon.tools.Service object>'
p7094
sS'SCRIPT'
p7095
S"<class 'gluon.html.SCRIPT'>"
p7096
sS'TABLE'
p7097
S"<class 'gluon.html.TABLE'>"
p7098
sS'IS_IPV4'
p7099
S"<class 'gluon.validators.IS_IPV4'>"
p7100
sS'IS_LENGTH'
p7101
S"<class 'gluon.validators.IS_LENGTH'>"
p7102
sS'XML'
p7103
S"<class 'gluon.html.XML'>"
p7104
sS'B'
S"<class 'gluon.html.B'>"
p7105
sS'IMG'
p7106
S"<class 'gluon.html.IMG'>"
p7107
sS'SQLTABLE'
p7108
S"<class 'gluon.sqlhtml.SQLTABLE'>"
p7109
sS'IS_MATCH'
p7110
S"<class 'gluon.validators.IS_MATCH'>"
p7111
sS'IS_ALPHANUMERIC'
p7112
S"<class 'gluon.validators.IS_ALPHANUMERIC'>"
p7113
sS'SPAN'
p7114
S"<class 'gluon.html.SPAN'>"
p7115
sS'IS_SLUG'
p7116
S"<class 'gluon.validators.IS_SLUG'>"
p7117
sS'BEAUTIFY'
p7118
S"<class 'gluon.html.BEAUTIFY'>"
p7119
sS'META'
p7120
S"<class 'gluon.html.META'>"
p7121
sS'IS_DATE'
p7122
S"<class 'gluon.validators.IS_DATE'>"
p7123
sS'IS_EMAIL'
p7124
S"<class 'gluon.validators.IS_EMAIL'>"
p7125
sS'IS_NOT_EMPTY'
p7126
S"<class 'gluon.validators.IS_NOT_EMPTY'>"
p7127
sS'IS_FLOAT_IN_RANGE'
p7128
S"<class 'gluon.validators.IS_FLOAT_IN_RANGE'>"
p7129
sS'TBODY'
p7130
S"<class 'gluon.html.TBODY'>"
p7131
sS'CAT'
p7132
S"<class 'gluon.html.CAT'>"
p7133
sS'Field'
p7134
S"<class 'gluon.dal.Field'>"
p7135
sS'DIV'
p7136
S"<class 'gluon.html.DIV'>"
p7137
sS'LEGEND'
p7138
S"<class 'gluon.html.LEGEND'>"
p7139
sS'COLGROUP'
p7140
S"<class 'gluon.html.COLGROUP'>"
p7141
sS'DAL'
p7142
S"<class 'gluon.dal.DAL'>"
p7143
sS'TT'
p7144
S"<class 'gluon.html.TT'>"
p7145
sS'TR'
p7146
S"<class 'gluon.html.TR'>"
p7147
sS'LI'
p7148
S"<class 'gluon.html.LI'>"
p7149
sS'TH'
p7150
S"<class 'gluon.html.TH'>"
p7151
sS'TD'
p7152
S"<class 'gluon.html.TD'>"
p7153
sS'PluginManager'
p7154
S"<class 'gluon.tools.PluginManager'>"
p7155
sS'IS_URL'
p7156
S"<class 'gluon.validators.IS_URL'>"
p7157
sS'A'
S"<class 'gluon.html.A'>"
p7158
sS'HEAD'
p7159
S"<class 'gluon.html.HEAD'>"
p7160
sS'IS_DATETIME_IN_RANGE'
p7161
S"<class 'gluon.validators.IS_DATETIME_IN_RANGE'>"
p7162
sS'FORM'
p7163
S"<class 'gluon.html.FORM'>"
p7164
sS'I'
S"<class 'gluon.html.I'>"
p7165
sS'crud'
p7166
S'<gluon.tools.Crud object>'
p7167
sS'IS_NOT_IN_DB'
p7168
S"<class 'gluon.validators.IS_NOT_IN_DB'>"
p7169
sg5292
S"<Storage {'body': <cStringIO.StringO object at 0...a> at 0xae76d064>, 'view': 'default/index.html'}>"
p7170
sS'THEAD'
p7171
S"<class 'gluon.html.THEAD'>"
p7172
sS'IS_NULL_OR'
p7173
S"<class 'gluon.validators.IS_EMPTY_OR'>"
p7174
sg54
S"<Storage {'function': 'index', 'body': <cStringI...pplications/reddit/', 'post_vars': <Storage {}>}>"
p7175
sS'IS_EXPR'
p7176
S"<class 'gluon.validators.IS_EXPR'>"
p7177
sS'T'
S'<gluon.languages.translator object>'
p7178
sS'IS_IN_SET'
p7179
S"<class 'gluon.validators.IS_IN_SET'>"
p7180
sS'IS_UPLOAD_FILENAME'
p7181
S"<class 'gluon.validators.IS_UPLOAD_FILENAME'>"
p7182
sS'IS_DECIMAL_IN_RANGE'
p7183
S"<class 'gluon.validators.IS_DECIMAL_IN_RANGE'>"
p7184
sssS'traceback'
p7185
S'Traceback (most recent call last):\n  File "/home/pankaj/web2py/gluon/main.py", line 543, in wsgibase\n    serve_controller(request, response, session)\n  File "/home/pankaj/web2py/gluon/main.py", line 227, in serve_controller\n    run_view_in(response._view_environment)\n  File "/home/pankaj/web2py/gluon/compileapp.py", line 672, in run_view_in\n    context=environment)\n  File "/home/pankaj/web2py/gluon/template.py", line 785, in parse_template\n    return str(TemplateParser(text, context=context, path=path, lexers=lexers, delimiters=delimiters))\n  File "/home/pankaj/web2py/gluon/template.py", line 316, in __init__\n    self.parse(text)\n  File "/home/pankaj/web2py/gluon/template.py", line 756, in parse\n    self.extend(extend)\n  File "/home/pankaj/web2py/gluon/template.py", line 471, in extend\n    text = self._get_file_text(filename)\n  File "/home/pankaj/web2py/gluon/template.py", line 436, in _get_file_text\n    filename = eval(filename, context)\n  File "<string>", line 1, in <module>\nNameError: name \'layout\' is not defined\n'
p7186
s.