(dp1
S'output'
p2
S'<type \'exceptions.SyntaxError\'> invalid table/column name "comment" is a "ALL" reserved SQL keyword'
p3
sS'layer'
p4
S'/home/pankaj/web2py/applications/reddit/models/db.py'
p5
sS'code'
p6
S"# -*- coding: utf-8 -*-\n\n#########################################################################\n## This scaffolding model makes your app work on Google App Engine too\n## File is released under public domain and you can use without limitations\n#########################################################################\n\n## if SSL/HTTPS is properly configured and you want all HTTP requests to\n## be redirected to HTTPS, uncomment the line below:\n# request.requires_https()\n\nif not request.env.web2py_runtime_gae:\n    ## if NOT running on Google App Engine use SQLite or other DB\n    db = DAL('sqlite://storage.sqlite',pool_size=1,check_reserved=['all'])\nelse:\n    ## connect to Google BigTable (optional 'google:datastore://namespace')\n    db = DAL('google:datastore')\n    ## store sessions and tickets there\n    session.connect(request, response, db=db)\n    ## or store session in Memcache, Redis, etc.\n    ## from gluon.contrib.memdb import MEMDB\n    ## from google.appengine.api.memcache import Client\n    ## session.connect(request, response, db = MEMDB(Client()))\n\n## by default give a view/generic.extension to all actions from localhost\n## none otherwise. a pattern can be 'controller/function.extension'\nresponse.generic_patterns = ['*'] if request.is_local else []\n## (optional) optimize handling of static files\n# response.optimize_css = 'concat,minify,inline'\n# response.optimize_js = 'concat,minify,inline'\n\n#########################################################################\n## Here is sample code if you need for\n## - email capabilities\n## - authentication (registration, login, logout, ... )\n## - authorization (role based authorization)\n## - services (xml, csv, json, xmlrpc, jsonrpc, amf, rss)\n## - old style crud actions\n## (more options discussed in gluon/tools.py)\n#########################################################################\n\nfrom gluon.tools import Auth, Crud, Service, PluginManager, prettydate\nauth = Auth(db)\ncrud, service, plugins = Crud(db), Service(), PluginManager()\n\n## create all tables needed by auth if not custom tables\nauth.define_tables(username=False, signature=False)\n\n## configure email\nmail = auth.settings.mailer\nmail.settings.server = 'logging' or 'smtp.gmail.com:587'\nmail.settings.sender = 'you@gmail.com'\nmail.settings.login = 'username:password'\n\n## configure auth policy\nauth.settings.registration_requires_verification = False\nauth.settings.registration_requires_approval = False\nauth.settings.reset_password_requires_verification = True\n\n## if you need to use OpenID, Facebook, MySpace, Twitter, Linkedin, etc.\n## register with janrain.com, write your domain:api_key in private/janrain.key\nfrom gluon.contrib.login_methods.rpx_account import use_janrain\nuse_janrain(auth, filename='private/janrain.key')\n\n#########################################################################\n## Define your tables below (or better in another model file) for example\n##\n## >>> db.define_table('mytable',Field('myfield','string'))\n##\n## Fields can be 'string','text','password','integer','double','boolean'\n##       'date','time','datetime','blob','upload', 'reference TABLENAME'\n## There is an implicit 'id integer autoincrement' field\n## Consult manual for more options, validators, etc.\n##\n## More API examples for controllers:\n##\n## >>> db.mytable.insert(myfield='value')\n## >>> rows=db(db.mytable.myfield=='value').select(db.mytable.ALL)\n## >>> for row in rows: print row.id, row.myfield\n#########################################################################\n'''db.define_table('news',db.Field('head','string',requires=IS_NOT_    EMPTY(),label='Heading'),db.Field('url','string',requires=IS_URL(),label='Link'),db.Field('cat','string',db.category,IS_IN_DB(db,'category.name'),label='Category'),db.Field('username','string',requires=IS_IN_DB(db,'auth_user.username'),label='Username'),db.Field('date','datetime',default=request.now,writable=False,label='Date'),db.Field('rating','integer',default=100,label='Rating'))\n'''\ndb.define_table('comments',db.Field('comment','text',requires=IS_NOT_EMPTY()),db.Field('username','string',requires=IS_IN_DB(db,'auth_user.username'),label='Username'),db.Field('date','datetime',default=request.now,writable=False,label='Date'),db.Field('rating','integer',default=100,label='Rating'))\n\ndb.define_table('category',db.Field('name','string',requires=IS_NOT_EMPTY(),label='Category'))\n\n\n\n## after defining tables, uncomment below to enable auditing\n# auth.enable_record_versioning(db)\n"
p7
sS'snapshot'
p8
(dp9
S'exception'
p10
(dp11
S'__getslice__'
p12
S"<method-wrapper '__getslice__' of exceptions.SyntaxError object>"
p13
sS'text'
p14
S'None'
p15
sS'__str__'
p16
S"<method-wrapper '__str__' of exceptions.SyntaxError object>"
p17
sS'__reduce__'
p18
S'<built-in method __reduce__ of exceptions.SyntaxError object>'
p19
sS'__dict__'
p20
S'{}'
p21
sS'__sizeof__'
p22
S'<built-in method __sizeof__ of exceptions.SyntaxError object>'
p23
sS'__init__'
p24
S"<method-wrapper '__init__' of exceptions.SyntaxError object>"
p25
sS'__setattr__'
p26
S"<method-wrapper '__setattr__' of exceptions.SyntaxError object>"
p27
sS'__reduce_ex__'
p28
S'<built-in method __reduce_ex__ of exceptions.SyntaxError object>'
p29
sS'__new__'
p30
S'<built-in method __new__ of type object>'
p31
sS'__format__'
p32
S'<built-in method __format__ of exceptions.SyntaxError object>'
p33
sS'__class__'
p34
S"<type 'exceptions.SyntaxError'>"
p35
sS'filename'
p36
S'None'
p37
sS'lineno'
p38
S'None'
p39
sS'msg'
p40
S'\'invalid table/column name "comment" is a "ALL" reserved SQL keyword\''
p41
sS'__doc__'
p42
S"'Invalid syntax.'"
p43
sS'__getitem__'
p44
S"<method-wrapper '__getitem__' of exceptions.SyntaxError object>"
p45
sS'__setstate__'
p46
S'<built-in method __setstate__ of exceptions.SyntaxError object>'
p47
sS'__getattribute__'
p48
S"<method-wrapper '__getattribute__' of exceptions.SyntaxError object>"
p49
sS'print_file_and_line'
p50
S'None'
p51
sS'args'
p52
S'(\'invalid table/column name "comment" is a "ALL" reserved SQL keyword\',)'
p53
sS'__subclasshook__'
p54
S'<built-in method __subclasshook__ of type object>'
p55
sS'offset'
p56
S'None'
p57
sS'__unicode__'
p58
S'<built-in method __unicode__ of exceptions.SyntaxError object>'
p59
sS'__delattr__'
p60
S"<method-wrapper '__delattr__' of exceptions.SyntaxError object>"
p61
sS'__repr__'
p62
S"<method-wrapper '__repr__' of exceptions.SyntaxError object>"
p63
sS'__hash__'
p64
S"<method-wrapper '__hash__' of exceptions.SyntaxError object>"
p65
ssS'evalue'
p66
S'invalid table/column name "comment" is a "ALL" reserved SQL keyword'
p67
sS'request'
p68
ccopy_reg
_reconstructor
p69
(cgluon.html
BEAUTIFY
p70
c__builtin__
object
p71
NtRp72
(dp73
S'attributes'
p74
(dp75
sS'components'
p76
(lp77
g69
(cgluon.html
TABLE
p78
g71
NtRp79
(dp80
g74
(dp81
S'level'
p82
I5
ssS'parent'
p83
Nsg76
(lp84
g69
(cgluon.html
TR
p85
g71
NtRp86
(dp87
g74
(dp88
sg83
g79
sg76
(lp89
g69
(cgluon.html
TD
p90
g71
NtRp91
(dp92
g74
(dp93
S'_style'
p94
S'font-weight:bold;vertical-align:top'
p95
ssg83
g86
sg76
(lp96
S'ajax'
p97
asbag69
(g90
g71
NtRp98
(dp99
g74
(dp100
S'_valign'
p101
S'top'
p102
ssg83
g86
sg76
(lp103
S':'
asbag69
(g90
g71
NtRp104
(dp105
g74
(dp106
sg83
g86
sg76
(lp107
g69
(g70
g71
NtRp108
(dp109
g74
(dp110
g82
I5
ssg83
g104
sg76
(lp111
S'False'
p112
asbasbasbag69
(g85
g71
NtRp113
(dp114
g74
(dp115
sg83
g79
sg76
(lp116
g69
(g90
g71
NtRp117
(dp118
g74
(dp119
g94
g95
ssg83
g113
sg76
(lp120
S'application'
p121
asbag69
(g90
g71
NtRp122
(dp123
g74
(dp124
g101
g102
ssg83
g113
sg76
(lp125
S':'
asbag69
(g90
g71
NtRp126
(dp127
g74
(dp128
sg83
g113
sg76
(lp129
g69
(g70
g71
NtRp130
(dp131
g74
(dp132
g82
I5
ssg83
g126
sg76
(lp133
S'reddit'
p134
asbasbasbag69
(g85
g71
NtRp135
(dp136
g74
(dp137
sg83
g79
sg76
(lp138
g69
(g90
g71
NtRp139
(dp140
g74
(dp141
g94
g95
ssg83
g135
sg76
(lp142
g52
asbag69
(g90
g71
NtRp143
(dp144
g74
(dp145
g101
g102
ssg83
g135
sg76
(lp146
S':'
asbag69
(g90
g71
NtRp147
(dp148
g74
(dp149
sg83
g135
sg76
(lp150
g69
(g70
g71
NtRp151
(dp152
g74
(dp153
g82
I5
ssg83
g147
sg76
(lp154
g69
(g78
g71
NtRp155
(dp156
g74
(dp157
g82
I4
ssg83
Nsg76
(lp158
sbasbasbasbag69
(g85
g71
NtRp159
(dp160
g74
(dp161
sg83
g79
sg76
(lp162
g69
(g90
g71
NtRp163
(dp164
g74
(dp165
g94
g95
ssg83
g159
sg76
(lp166
S'body'
p167
asbag69
(g90
g71
NtRp168
(dp169
g74
(dp170
g101
g102
ssg83
g159
sg76
(lp171
S':'
asbag69
(g90
g71
NtRp172
(dp173
g74
(dp174
sg83
g159
sg76
(lp175
g69
(g70
g71
NtRp176
(dp177
g74
(dp178
g82
I5
ssg83
g172
sg76
(lp179
S'<cStringIO.StringO object at 0xaeb29920>'
p180
asbasbasbag69
(g85
g71
NtRp181
(dp182
g74
(dp183
sg83
g79
sg76
(lp184
g69
(g90
g71
NtRp185
(dp186
g74
(dp187
g94
g95
ssg83
g181
sg76
(lp188
S'cid'
p189
asbag69
(g90
g71
NtRp190
(dp191
g74
(dp192
g101
g102
ssg83
g181
sg76
(lp193
S':'
asbag69
(g90
g71
NtRp194
(dp195
g74
(dp196
sg83
g181
sg76
(lp197
g69
(g70
g71
NtRp198
(dp199
g74
(dp200
g82
I5
ssg83
g194
sg76
(lp201
S'None'
p202
asbasbasbag69
(g85
g71
NtRp203
(dp204
g74
(dp205
sg83
g79
sg76
(lp206
g69
(g90
g71
NtRp207
(dp208
g74
(dp209
g94
g95
ssg83
g203
sg76
(lp210
S'client'
p211
asbag69
(g90
g71
NtRp212
(dp213
g74
(dp214
g101
g102
ssg83
g203
sg76
(lp215
S':'
asbag69
(g90
g71
NtRp216
(dp217
g74
(dp218
sg83
g203
sg76
(lp219
g69
(g70
g71
NtRp220
(dp221
g74
(dp222
g82
I5
ssg83
g216
sg76
(lp223
S'127.0.0.1'
p224
asbasbasbag69
(g85
g71
NtRp225
(dp226
g74
(dp227
sg83
g79
sg76
(lp228
g69
(g90
g71
NtRp229
(dp230
g74
(dp231
g94
g95
ssg83
g225
sg76
(lp232
S'controller'
p233
asbag69
(g90
g71
NtRp234
(dp235
g74
(dp236
g101
g102
ssg83
g225
sg76
(lp237
S':'
asbag69
(g90
g71
NtRp238
(dp239
g74
(dp240
sg83
g225
sg76
(lp241
g69
(g70
g71
NtRp242
(dp243
g74
(dp244
g82
I5
ssg83
g238
sg76
(lp245
S'default'
p246
asbasbasbag69
(g85
g71
NtRp247
(dp248
g74
(dp249
sg83
g79
sg76
(lp250
g69
(g90
g71
NtRp251
(dp252
g74
(dp253
g94
g95
ssg83
g247
sg76
(lp254
S'cookies'
p255
asbag69
(g90
g71
NtRp256
(dp257
g74
(dp258
g101
g102
ssg83
g247
sg76
(lp259
S':'
asbag69
(g90
g71
NtRp260
(dp261
g74
(dp262
sg83
g247
sg76
(lp263
g69
(g70
g71
NtRp264
(dp265
g74
(dp266
g82
I5
ssg83
g260
sg76
(lp267
g69
(g78
g71
NtRp268
(dp269
g74
(dp270
g82
I4
ssg83
Nsg76
(lp271
g69
(g85
g71
NtRp272
(dp273
g74
(dp274
sg83
g268
sg76
(lp275
g69
(g90
g71
NtRp276
(dp277
g74
(dp278
g94
g95
ssg83
g272
sg76
(lp279
S'session_id_20120156_assignment_1'
p280
asbag69
(g90
g71
NtRp281
(dp282
g74
(dp283
g101
g102
ssg83
g272
sg76
(lp284
S':'
asbag69
(g90
g71
NtRp285
(dp286
g74
(dp287
sg83
g272
sg76
(lp288
g69
(g70
g71
NtRp289
(dp290
g74
(dp291
g82
I4
ssg83
g285
sg76
(lp292
S'127.0.0.1-6cad324c-0572-4be8-8f41-6fcaca863c93'
p293
ag69
(g78
g71
NtRp294
(dp295
g74
(dp296
g82
I3
ssg83
Nsg76
(lp297
g69
(g85
g71
NtRp298
(dp299
g74
(dp300
sg83
g294
sg76
(lp301
g69
(g90
g71
NtRp302
(dp303
g74
(dp304
g94
g95
ssg83
g298
sg76
(lp305
S'comment'
p306
asbag69
(g90
g71
NtRp307
(dp308
g74
(dp309
g101
g102
ssg83
g298
sg76
(lp310
S':'
asbag69
(g90
g71
NtRp311
(dp312
g74
(dp313
sg83
g298
sg76
(lp314
g69
(g70
g71
NtRp315
(dp316
g74
(dp317
g82
I3
ssg83
g311
sg76
(lp318
S''
asbasbasbag69
(g85
g71
NtRp319
(dp320
g74
(dp321
sg83
g294
sg76
(lp322
g69
(g90
g71
NtRp323
(dp324
g74
(dp325
g94
g95
ssg83
g319
sg76
(lp326
S'domain'
p327
asbag69
(g90
g71
NtRp328
(dp329
g74
(dp330
g101
g102
ssg83
g319
sg76
(lp331
S':'
asbag69
(g90
g71
NtRp332
(dp333
g74
(dp334
sg83
g319
sg76
(lp335
g69
(g70
g71
NtRp336
(dp337
g74
(dp338
g82
I3
ssg83
g332
sg76
(lp339
S''
asbasbasbag69
(g85
g71
NtRp340
(dp341
g74
(dp342
sg83
g294
sg76
(lp343
g69
(g90
g71
NtRp344
(dp345
g74
(dp346
g94
g95
ssg83
g340
sg76
(lp347
S'expires'
p348
asbag69
(g90
g71
NtRp349
(dp350
g74
(dp351
g101
g102
ssg83
g340
sg76
(lp352
S':'
asbag69
(g90
g71
NtRp353
(dp354
g74
(dp355
sg83
g340
sg76
(lp356
g69
(g70
g71
NtRp357
(dp358
g74
(dp359
g82
I3
ssg83
g353
sg76
(lp360
S''
asbasbasbag69
(g85
g71
NtRp361
(dp362
g74
(dp363
sg83
g294
sg76
(lp364
g69
(g90
g71
NtRp365
(dp366
g74
(dp367
g94
g95
ssg83
g361
sg76
(lp368
S'httponly'
p369
asbag69
(g90
g71
NtRp370
(dp371
g74
(dp372
g101
g102
ssg83
g361
sg76
(lp373
S':'
asbag69
(g90
g71
NtRp374
(dp375
g74
(dp376
sg83
g361
sg76
(lp377
g69
(g70
g71
NtRp378
(dp379
g74
(dp380
g82
I3
ssg83
g374
sg76
(lp381
S''
asbasbasbag69
(g85
g71
NtRp382
(dp383
g74
(dp384
sg83
g294
sg76
(lp385
g69
(g90
g71
NtRp386
(dp387
g74
(dp388
g94
g95
ssg83
g382
sg76
(lp389
S'max-age'
p390
asbag69
(g90
g71
NtRp391
(dp392
g74
(dp393
g101
g102
ssg83
g382
sg76
(lp394
S':'
asbag69
(g90
g71
NtRp395
(dp396
g74
(dp397
sg83
g382
sg76
(lp398
g69
(g70
g71
NtRp399
(dp400
g74
(dp401
g82
I3
ssg83
g395
sg76
(lp402
S''
asbasbasbag69
(g85
g71
NtRp403
(dp404
g74
(dp405
sg83
g294
sg76
(lp406
g69
(g90
g71
NtRp407
(dp408
g74
(dp409
g94
g95
ssg83
g403
sg76
(lp410
S'path'
p411
asbag69
(g90
g71
NtRp412
(dp413
g74
(dp414
g101
g102
ssg83
g403
sg76
(lp415
S':'
asbag69
(g90
g71
NtRp416
(dp417
g74
(dp418
sg83
g403
sg76
(lp419
g69
(g70
g71
NtRp420
(dp421
g74
(dp422
g82
I3
ssg83
g416
sg76
(lp423
S''
asbasbasbag69
(g85
g71
NtRp424
(dp425
g74
(dp426
sg83
g294
sg76
(lp427
g69
(g90
g71
NtRp428
(dp429
g74
(dp430
g94
g95
ssg83
g424
sg76
(lp431
S'secure'
p432
asbag69
(g90
g71
NtRp433
(dp434
g74
(dp435
g101
g102
ssg83
g424
sg76
(lp436
S':'
asbag69
(g90
g71
NtRp437
(dp438
g74
(dp439
sg83
g424
sg76
(lp440
g69
(g70
g71
NtRp441
(dp442
g74
(dp443
g82
I3
ssg83
g437
sg76
(lp444
S''
asbasbasbag69
(g85
g71
NtRp445
(dp446
g74
(dp447
sg83
g294
sg76
(lp448
g69
(g90
g71
NtRp449
(dp450
g74
(dp451
g94
g95
ssg83
g445
sg76
(lp452
S'version'
p453
asbag69
(g90
g71
NtRp454
(dp455
g74
(dp456
g101
g102
ssg83
g445
sg76
(lp457
S':'
asbag69
(g90
g71
NtRp458
(dp459
g74
(dp460
sg83
g445
sg76
(lp461
g69
(g70
g71
NtRp462
(dp463
g74
(dp464
g82
I3
ssg83
g458
sg76
(lp465
S''
asbasbasbasbasbasbasbag69
(g85
g71
NtRp466
(dp467
g74
(dp468
sg83
g268
sg76
(lp469
g69
(g90
g71
NtRp470
(dp471
g74
(dp472
g94
g95
ssg83
g466
sg76
(lp473
S'session_id_admin'
p474
asbag69
(g90
g71
NtRp475
(dp476
g74
(dp477
g101
g102
ssg83
g466
sg76
(lp478
S':'
asbag69
(g90
g71
NtRp479
(dp480
g74
(dp481
sg83
g466
sg76
(lp482
g69
(g70
g71
NtRp483
(dp484
g74
(dp485
g82
I4
ssg83
g479
sg76
(lp486
S'127.0.0.1-eea59e1b-9257-4df1-8c44-da77bf9e4ec2'
p487
ag69
(g78
g71
NtRp488
(dp489
g74
(dp490
g82
I3
ssg83
Nsg76
(lp491
g69
(g85
g71
NtRp492
(dp493
g74
(dp494
sg83
g488
sg76
(lp495
g69
(g90
g71
NtRp496
(dp497
g74
(dp498
g94
g95
ssg83
g492
sg76
(lp499
g306
asbag69
(g90
g71
NtRp500
(dp501
g74
(dp502
g101
g102
ssg83
g492
sg76
(lp503
S':'
asbag69
(g90
g71
NtRp504
(dp505
g74
(dp506
sg83
g492
sg76
(lp507
g69
(g70
g71
NtRp508
(dp509
g74
(dp510
g82
I3
ssg83
g504
sg76
(lp511
S''
asbasbasbag69
(g85
g71
NtRp512
(dp513
g74
(dp514
sg83
g488
sg76
(lp515
g69
(g90
g71
NtRp516
(dp517
g74
(dp518
g94
g95
ssg83
g512
sg76
(lp519
g327
asbag69
(g90
g71
NtRp520
(dp521
g74
(dp522
g101
g102
ssg83
g512
sg76
(lp523
S':'
asbag69
(g90
g71
NtRp524
(dp525
g74
(dp526
sg83
g512
sg76
(lp527
g69
(g70
g71
NtRp528
(dp529
g74
(dp530
g82
I3
ssg83
g524
sg76
(lp531
S''
asbasbasbag69
(g85
g71
NtRp532
(dp533
g74
(dp534
sg83
g488
sg76
(lp535
g69
(g90
g71
NtRp536
(dp537
g74
(dp538
g94
g95
ssg83
g532
sg76
(lp539
g348
asbag69
(g90
g71
NtRp540
(dp541
g74
(dp542
g101
g102
ssg83
g532
sg76
(lp543
S':'
asbag69
(g90
g71
NtRp544
(dp545
g74
(dp546
sg83
g532
sg76
(lp547
g69
(g70
g71
NtRp548
(dp549
g74
(dp550
g82
I3
ssg83
g544
sg76
(lp551
S''
asbasbasbag69
(g85
g71
NtRp552
(dp553
g74
(dp554
sg83
g488
sg76
(lp555
g69
(g90
g71
NtRp556
(dp557
g74
(dp558
g94
g95
ssg83
g552
sg76
(lp559
g369
asbag69
(g90
g71
NtRp560
(dp561
g74
(dp562
g101
g102
ssg83
g552
sg76
(lp563
S':'
asbag69
(g90
g71
NtRp564
(dp565
g74
(dp566
sg83
g552
sg76
(lp567
g69
(g70
g71
NtRp568
(dp569
g74
(dp570
g82
I3
ssg83
g564
sg76
(lp571
S''
asbasbasbag69
(g85
g71
NtRp572
(dp573
g74
(dp574
sg83
g488
sg76
(lp575
g69
(g90
g71
NtRp576
(dp577
g74
(dp578
g94
g95
ssg83
g572
sg76
(lp579
g390
asbag69
(g90
g71
NtRp580
(dp581
g74
(dp582
g101
g102
ssg83
g572
sg76
(lp583
S':'
asbag69
(g90
g71
NtRp584
(dp585
g74
(dp586
sg83
g572
sg76
(lp587
g69
(g70
g71
NtRp588
(dp589
g74
(dp590
g82
I3
ssg83
g584
sg76
(lp591
S''
asbasbasbag69
(g85
g71
NtRp592
(dp593
g74
(dp594
sg83
g488
sg76
(lp595
g69
(g90
g71
NtRp596
(dp597
g74
(dp598
g94
g95
ssg83
g592
sg76
(lp599
g411
asbag69
(g90
g71
NtRp600
(dp601
g74
(dp602
g101
g102
ssg83
g592
sg76
(lp603
S':'
asbag69
(g90
g71
NtRp604
(dp605
g74
(dp606
sg83
g592
sg76
(lp607
g69
(g70
g71
NtRp608
(dp609
g74
(dp610
g82
I3
ssg83
g604
sg76
(lp611
S''
asbasbasbag69
(g85
g71
NtRp612
(dp613
g74
(dp614
sg83
g488
sg76
(lp615
g69
(g90
g71
NtRp616
(dp617
g74
(dp618
g94
g95
ssg83
g612
sg76
(lp619
g432
asbag69
(g90
g71
NtRp620
(dp621
g74
(dp622
g101
g102
ssg83
g612
sg76
(lp623
S':'
asbag69
(g90
g71
NtRp624
(dp625
g74
(dp626
sg83
g612
sg76
(lp627
g69
(g70
g71
NtRp628
(dp629
g74
(dp630
g82
I3
ssg83
g624
sg76
(lp631
S''
asbasbasbag69
(g85
g71
NtRp632
(dp633
g74
(dp634
sg83
g488
sg76
(lp635
g69
(g90
g71
NtRp636
(dp637
g74
(dp638
g94
g95
ssg83
g632
sg76
(lp639
g453
asbag69
(g90
g71
NtRp640
(dp641
g74
(dp642
g101
g102
ssg83
g632
sg76
(lp643
S':'
asbag69
(g90
g71
NtRp644
(dp645
g74
(dp646
sg83
g632
sg76
(lp647
g69
(g70
g71
NtRp648
(dp649
g74
(dp650
g82
I3
ssg83
g644
sg76
(lp651
S''
asbasbasbasbasbasbasbag69
(g85
g71
NtRp652
(dp653
g74
(dp654
sg83
g268
sg76
(lp655
g69
(g90
g71
NtRp656
(dp657
g74
(dp658
g94
g95
ssg83
g652
sg76
(lp659
S'session_id_arihant'
p660
asbag69
(g90
g71
NtRp661
(dp662
g74
(dp663
g101
g102
ssg83
g652
sg76
(lp664
S':'
asbag69
(g90
g71
NtRp665
(dp666
g74
(dp667
sg83
g652
sg76
(lp668
g69
(g70
g71
NtRp669
(dp670
g74
(dp671
g82
I4
ssg83
g665
sg76
(lp672
S'127.0.0.1-fa99deb6-5977-491c-864a-b5d79c0d1842'
p673
ag69
(g78
g71
NtRp674
(dp675
g74
(dp676
g82
I3
ssg83
Nsg76
(lp677
g69
(g85
g71
NtRp678
(dp679
g74
(dp680
sg83
g674
sg76
(lp681
g69
(g90
g71
NtRp682
(dp683
g74
(dp684
g94
g95
ssg83
g678
sg76
(lp685
g306
asbag69
(g90
g71
NtRp686
(dp687
g74
(dp688
g101
g102
ssg83
g678
sg76
(lp689
S':'
asbag69
(g90
g71
NtRp690
(dp691
g74
(dp692
sg83
g678
sg76
(lp693
g69
(g70
g71
NtRp694
(dp695
g74
(dp696
g82
I3
ssg83
g690
sg76
(lp697
S''
asbasbasbag69
(g85
g71
NtRp698
(dp699
g74
(dp700
sg83
g674
sg76
(lp701
g69
(g90
g71
NtRp702
(dp703
g74
(dp704
g94
g95
ssg83
g698
sg76
(lp705
g327
asbag69
(g90
g71
NtRp706
(dp707
g74
(dp708
g101
g102
ssg83
g698
sg76
(lp709
S':'
asbag69
(g90
g71
NtRp710
(dp711
g74
(dp712
sg83
g698
sg76
(lp713
g69
(g70
g71
NtRp714
(dp715
g74
(dp716
g82
I3
ssg83
g710
sg76
(lp717
S''
asbasbasbag69
(g85
g71
NtRp718
(dp719
g74
(dp720
sg83
g674
sg76
(lp721
g69
(g90
g71
NtRp722
(dp723
g74
(dp724
g94
g95
ssg83
g718
sg76
(lp725
g348
asbag69
(g90
g71
NtRp726
(dp727
g74
(dp728
g101
g102
ssg83
g718
sg76
(lp729
S':'
asbag69
(g90
g71
NtRp730
(dp731
g74
(dp732
sg83
g718
sg76
(lp733
g69
(g70
g71
NtRp734
(dp735
g74
(dp736
g82
I3
ssg83
g730
sg76
(lp737
S''
asbasbasbag69
(g85
g71
NtRp738
(dp739
g74
(dp740
sg83
g674
sg76
(lp741
g69
(g90
g71
NtRp742
(dp743
g74
(dp744
g94
g95
ssg83
g738
sg76
(lp745
g369
asbag69
(g90
g71
NtRp746
(dp747
g74
(dp748
g101
g102
ssg83
g738
sg76
(lp749
S':'
asbag69
(g90
g71
NtRp750
(dp751
g74
(dp752
sg83
g738
sg76
(lp753
g69
(g70
g71
NtRp754
(dp755
g74
(dp756
g82
I3
ssg83
g750
sg76
(lp757
S''
asbasbasbag69
(g85
g71
NtRp758
(dp759
g74
(dp760
sg83
g674
sg76
(lp761
g69
(g90
g71
NtRp762
(dp763
g74
(dp764
g94
g95
ssg83
g758
sg76
(lp765
g390
asbag69
(g90
g71
NtRp766
(dp767
g74
(dp768
g101
g102
ssg83
g758
sg76
(lp769
S':'
asbag69
(g90
g71
NtRp770
(dp771
g74
(dp772
sg83
g758
sg76
(lp773
g69
(g70
g71
NtRp774
(dp775
g74
(dp776
g82
I3
ssg83
g770
sg76
(lp777
S''
asbasbasbag69
(g85
g71
NtRp778
(dp779
g74
(dp780
sg83
g674
sg76
(lp781
g69
(g90
g71
NtRp782
(dp783
g74
(dp784
g94
g95
ssg83
g778
sg76
(lp785
g411
asbag69
(g90
g71
NtRp786
(dp787
g74
(dp788
g101
g102
ssg83
g778
sg76
(lp789
S':'
asbag69
(g90
g71
NtRp790
(dp791
g74
(dp792
sg83
g778
sg76
(lp793
g69
(g70
g71
NtRp794
(dp795
g74
(dp796
g82
I3
ssg83
g790
sg76
(lp797
S''
asbasbasbag69
(g85
g71
NtRp798
(dp799
g74
(dp800
sg83
g674
sg76
(lp801
g69
(g90
g71
NtRp802
(dp803
g74
(dp804
g94
g95
ssg83
g798
sg76
(lp805
g432
asbag69
(g90
g71
NtRp806
(dp807
g74
(dp808
g101
g102
ssg83
g798
sg76
(lp809
S':'
asbag69
(g90
g71
NtRp810
(dp811
g74
(dp812
sg83
g798
sg76
(lp813
g69
(g70
g71
NtRp814
(dp815
g74
(dp816
g82
I3
ssg83
g810
sg76
(lp817
S''
asbasbasbag69
(g85
g71
NtRp818
(dp819
g74
(dp820
sg83
g674
sg76
(lp821
g69
(g90
g71
NtRp822
(dp823
g74
(dp824
g94
g95
ssg83
g818
sg76
(lp825
g453
asbag69
(g90
g71
NtRp826
(dp827
g74
(dp828
g101
g102
ssg83
g818
sg76
(lp829
S':'
asbag69
(g90
g71
NtRp830
(dp831
g74
(dp832
sg83
g818
sg76
(lp833
g69
(g70
g71
NtRp834
(dp835
g74
(dp836
g82
I3
ssg83
g830
sg76
(lp837
S''
asbasbasbasbasbasbasbag69
(g85
g71
NtRp838
(dp839
g74
(dp840
sg83
g268
sg76
(lp841
g69
(g90
g71
NtRp842
(dp843
g74
(dp844
g94
g95
ssg83
g838
sg76
(lp845
S'session_id_cataminder'
p846
asbag69
(g90
g71
NtRp847
(dp848
g74
(dp849
g101
g102
ssg83
g838
sg76
(lp850
S':'
asbag69
(g90
g71
NtRp851
(dp852
g74
(dp853
sg83
g838
sg76
(lp854
g69
(g70
g71
NtRp855
(dp856
g74
(dp857
g82
I4
ssg83
g851
sg76
(lp858
S'127.0.0.1-81b628a7-34a5-4e70-a95c-79ef710dcdbb'
p859
ag69
(g78
g71
NtRp860
(dp861
g74
(dp862
g82
I3
ssg83
Nsg76
(lp863
g69
(g85
g71
NtRp864
(dp865
g74
(dp866
sg83
g860
sg76
(lp867
g69
(g90
g71
NtRp868
(dp869
g74
(dp870
g94
g95
ssg83
g864
sg76
(lp871
g306
asbag69
(g90
g71
NtRp872
(dp873
g74
(dp874
g101
g102
ssg83
g864
sg76
(lp875
S':'
asbag69
(g90
g71
NtRp876
(dp877
g74
(dp878
sg83
g864
sg76
(lp879
g69
(g70
g71
NtRp880
(dp881
g74
(dp882
g82
I3
ssg83
g876
sg76
(lp883
S''
asbasbasbag69
(g85
g71
NtRp884
(dp885
g74
(dp886
sg83
g860
sg76
(lp887
g69
(g90
g71
NtRp888
(dp889
g74
(dp890
g94
g95
ssg83
g884
sg76
(lp891
g327
asbag69
(g90
g71
NtRp892
(dp893
g74
(dp894
g101
g102
ssg83
g884
sg76
(lp895
S':'
asbag69
(g90
g71
NtRp896
(dp897
g74
(dp898
sg83
g884
sg76
(lp899
g69
(g70
g71
NtRp900
(dp901
g74
(dp902
g82
I3
ssg83
g896
sg76
(lp903
S''
asbasbasbag69
(g85
g71
NtRp904
(dp905
g74
(dp906
sg83
g860
sg76
(lp907
g69
(g90
g71
NtRp908
(dp909
g74
(dp910
g94
g95
ssg83
g904
sg76
(lp911
g348
asbag69
(g90
g71
NtRp912
(dp913
g74
(dp914
g101
g102
ssg83
g904
sg76
(lp915
S':'
asbag69
(g90
g71
NtRp916
(dp917
g74
(dp918
sg83
g904
sg76
(lp919
g69
(g70
g71
NtRp920
(dp921
g74
(dp922
g82
I3
ssg83
g916
sg76
(lp923
S''
asbasbasbag69
(g85
g71
NtRp924
(dp925
g74
(dp926
sg83
g860
sg76
(lp927
g69
(g90
g71
NtRp928
(dp929
g74
(dp930
g94
g95
ssg83
g924
sg76
(lp931
g369
asbag69
(g90
g71
NtRp932
(dp933
g74
(dp934
g101
g102
ssg83
g924
sg76
(lp935
S':'
asbag69
(g90
g71
NtRp936
(dp937
g74
(dp938
sg83
g924
sg76
(lp939
g69
(g70
g71
NtRp940
(dp941
g74
(dp942
g82
I3
ssg83
g936
sg76
(lp943
S''
asbasbasbag69
(g85
g71
NtRp944
(dp945
g74
(dp946
sg83
g860
sg76
(lp947
g69
(g90
g71
NtRp948
(dp949
g74
(dp950
g94
g95
ssg83
g944
sg76
(lp951
g390
asbag69
(g90
g71
NtRp952
(dp953
g74
(dp954
g101
g102
ssg83
g944
sg76
(lp955
S':'
asbag69
(g90
g71
NtRp956
(dp957
g74
(dp958
sg83
g944
sg76
(lp959
g69
(g70
g71
NtRp960
(dp961
g74
(dp962
g82
I3
ssg83
g956
sg76
(lp963
S''
asbasbasbag69
(g85
g71
NtRp964
(dp965
g74
(dp966
sg83
g860
sg76
(lp967
g69
(g90
g71
NtRp968
(dp969
g74
(dp970
g94
g95
ssg83
g964
sg76
(lp971
g411
asbag69
(g90
g71
NtRp972
(dp973
g74
(dp974
g101
g102
ssg83
g964
sg76
(lp975
S':'
asbag69
(g90
g71
NtRp976
(dp977
g74
(dp978
sg83
g964
sg76
(lp979
g69
(g70
g71
NtRp980
(dp981
g74
(dp982
g82
I3
ssg83
g976
sg76
(lp983
S''
asbasbasbag69
(g85
g71
NtRp984
(dp985
g74
(dp986
sg83
g860
sg76
(lp987
g69
(g90
g71
NtRp988
(dp989
g74
(dp990
g94
g95
ssg83
g984
sg76
(lp991
g432
asbag69
(g90
g71
NtRp992
(dp993
g74
(dp994
g101
g102
ssg83
g984
sg76
(lp995
S':'
asbag69
(g90
g71
NtRp996
(dp997
g74
(dp998
sg83
g984
sg76
(lp999
g69
(g70
g71
NtRp1000
(dp1001
g74
(dp1002
g82
I3
ssg83
g996
sg76
(lp1003
S''
asbasbasbag69
(g85
g71
NtRp1004
(dp1005
g74
(dp1006
sg83
g860
sg76
(lp1007
g69
(g90
g71
NtRp1008
(dp1009
g74
(dp1010
g94
g95
ssg83
g1004
sg76
(lp1011
g453
asbag69
(g90
g71
NtRp1012
(dp1013
g74
(dp1014
g101
g102
ssg83
g1004
sg76
(lp1015
S':'
asbag69
(g90
g71
NtRp1016
(dp1017
g74
(dp1018
sg83
g1004
sg76
(lp1019
g69
(g70
g71
NtRp1020
(dp1021
g74
(dp1022
g82
I3
ssg83
g1016
sg76
(lp1023
S''
asbasbasbasbasbasbasbag69
(g85
g71
NtRp1024
(dp1025
g74
(dp1026
sg83
g268
sg76
(lp1027
g69
(g90
g71
NtRp1028
(dp1029
g74
(dp1030
g94
g95
ssg83
g1024
sg76
(lp1031
S'session_id_courses'
p1032
asbag69
(g90
g71
NtRp1033
(dp1034
g74
(dp1035
g101
g102
ssg83
g1024
sg76
(lp1036
S':'
asbag69
(g90
g71
NtRp1037
(dp1038
g74
(dp1039
sg83
g1024
sg76
(lp1040
g69
(g70
g71
NtRp1041
(dp1042
g74
(dp1043
g82
I4
ssg83
g1037
sg76
(lp1044
S'127.0.0.1-1d46c4eb-fdfc-4abb-bb62-6bcf52d1fcaa'
p1045
ag69
(g78
g71
NtRp1046
(dp1047
g74
(dp1048
g82
I3
ssg83
Nsg76
(lp1049
g69
(g85
g71
NtRp1050
(dp1051
g74
(dp1052
sg83
g1046
sg76
(lp1053
g69
(g90
g71
NtRp1054
(dp1055
g74
(dp1056
g94
g95
ssg83
g1050
sg76
(lp1057
g306
asbag69
(g90
g71
NtRp1058
(dp1059
g74
(dp1060
g101
g102
ssg83
g1050
sg76
(lp1061
S':'
asbag69
(g90
g71
NtRp1062
(dp1063
g74
(dp1064
sg83
g1050
sg76
(lp1065
g69
(g70
g71
NtRp1066
(dp1067
g74
(dp1068
g82
I3
ssg83
g1062
sg76
(lp1069
S''
asbasbasbag69
(g85
g71
NtRp1070
(dp1071
g74
(dp1072
sg83
g1046
sg76
(lp1073
g69
(g90
g71
NtRp1074
(dp1075
g74
(dp1076
g94
g95
ssg83
g1070
sg76
(lp1077
g327
asbag69
(g90
g71
NtRp1078
(dp1079
g74
(dp1080
g101
g102
ssg83
g1070
sg76
(lp1081
S':'
asbag69
(g90
g71
NtRp1082
(dp1083
g74
(dp1084
sg83
g1070
sg76
(lp1085
g69
(g70
g71
NtRp1086
(dp1087
g74
(dp1088
g82
I3
ssg83
g1082
sg76
(lp1089
S''
asbasbasbag69
(g85
g71
NtRp1090
(dp1091
g74
(dp1092
sg83
g1046
sg76
(lp1093
g69
(g90
g71
NtRp1094
(dp1095
g74
(dp1096
g94
g95
ssg83
g1090
sg76
(lp1097
g348
asbag69
(g90
g71
NtRp1098
(dp1099
g74
(dp1100
g101
g102
ssg83
g1090
sg76
(lp1101
S':'
asbag69
(g90
g71
NtRp1102
(dp1103
g74
(dp1104
sg83
g1090
sg76
(lp1105
g69
(g70
g71
NtRp1106
(dp1107
g74
(dp1108
g82
I3
ssg83
g1102
sg76
(lp1109
S''
asbasbasbag69
(g85
g71
NtRp1110
(dp1111
g74
(dp1112
sg83
g1046
sg76
(lp1113
g69
(g90
g71
NtRp1114
(dp1115
g74
(dp1116
g94
g95
ssg83
g1110
sg76
(lp1117
g369
asbag69
(g90
g71
NtRp1118
(dp1119
g74
(dp1120
g101
g102
ssg83
g1110
sg76
(lp1121
S':'
asbag69
(g90
g71
NtRp1122
(dp1123
g74
(dp1124
sg83
g1110
sg76
(lp1125
g69
(g70
g71
NtRp1126
(dp1127
g74
(dp1128
g82
I3
ssg83
g1122
sg76
(lp1129
S''
asbasbasbag69
(g85
g71
NtRp1130
(dp1131
g74
(dp1132
sg83
g1046
sg76
(lp1133
g69
(g90
g71
NtRp1134
(dp1135
g74
(dp1136
g94
g95
ssg83
g1130
sg76
(lp1137
g390
asbag69
(g90
g71
NtRp1138
(dp1139
g74
(dp1140
g101
g102
ssg83
g1130
sg76
(lp1141
S':'
asbag69
(g90
g71
NtRp1142
(dp1143
g74
(dp1144
sg83
g1130
sg76
(lp1145
g69
(g70
g71
NtRp1146
(dp1147
g74
(dp1148
g82
I3
ssg83
g1142
sg76
(lp1149
S''
asbasbasbag69
(g85
g71
NtRp1150
(dp1151
g74
(dp1152
sg83
g1046
sg76
(lp1153
g69
(g90
g71
NtRp1154
(dp1155
g74
(dp1156
g94
g95
ssg83
g1150
sg76
(lp1157
g411
asbag69
(g90
g71
NtRp1158
(dp1159
g74
(dp1160
g101
g102
ssg83
g1150
sg76
(lp1161
S':'
asbag69
(g90
g71
NtRp1162
(dp1163
g74
(dp1164
sg83
g1150
sg76
(lp1165
g69
(g70
g71
NtRp1166
(dp1167
g74
(dp1168
g82
I3
ssg83
g1162
sg76
(lp1169
S''
asbasbasbag69
(g85
g71
NtRp1170
(dp1171
g74
(dp1172
sg83
g1046
sg76
(lp1173
g69
(g90
g71
NtRp1174
(dp1175
g74
(dp1176
g94
g95
ssg83
g1170
sg76
(lp1177
g432
asbag69
(g90
g71
NtRp1178
(dp1179
g74
(dp1180
g101
g102
ssg83
g1170
sg76
(lp1181
S':'
asbag69
(g90
g71
NtRp1182
(dp1183
g74
(dp1184
sg83
g1170
sg76
(lp1185
g69
(g70
g71
NtRp1186
(dp1187
g74
(dp1188
g82
I3
ssg83
g1182
sg76
(lp1189
S''
asbasbasbag69
(g85
g71
NtRp1190
(dp1191
g74
(dp1192
sg83
g1046
sg76
(lp1193
g69
(g90
g71
NtRp1194
(dp1195
g74
(dp1196
g94
g95
ssg83
g1190
sg76
(lp1197
g453
asbag69
(g90
g71
NtRp1198
(dp1199
g74
(dp1200
g101
g102
ssg83
g1190
sg76
(lp1201
S':'
asbag69
(g90
g71
NtRp1202
(dp1203
g74
(dp1204
sg83
g1190
sg76
(lp1205
g69
(g70
g71
NtRp1206
(dp1207
g74
(dp1208
g82
I3
ssg83
g1202
sg76
(lp1209
S''
asbasbasbasbasbasbasbag69
(g85
g71
NtRp1210
(dp1211
g74
(dp1212
sg83
g268
sg76
(lp1213
g69
(g90
g71
NtRp1214
(dp1215
g74
(dp1216
g94
g95
ssg83
g1210
sg76
(lp1217
S'session_id_iiit_fb'
p1218
asbag69
(g90
g71
NtRp1219
(dp1220
g74
(dp1221
g101
g102
ssg83
g1210
sg76
(lp1222
S':'
asbag69
(g90
g71
NtRp1223
(dp1224
g74
(dp1225
sg83
g1210
sg76
(lp1226
g69
(g70
g71
NtRp1227
(dp1228
g74
(dp1229
g82
I4
ssg83
g1223
sg76
(lp1230
S'127.0.0.1-04b7df24-4720-4bb5-98de-96b98776240d'
p1231
ag69
(g78
g71
NtRp1232
(dp1233
g74
(dp1234
g82
I3
ssg83
Nsg76
(lp1235
g69
(g85
g71
NtRp1236
(dp1237
g74
(dp1238
sg83
g1232
sg76
(lp1239
g69
(g90
g71
NtRp1240
(dp1241
g74
(dp1242
g94
g95
ssg83
g1236
sg76
(lp1243
g306
asbag69
(g90
g71
NtRp1244
(dp1245
g74
(dp1246
g101
g102
ssg83
g1236
sg76
(lp1247
S':'
asbag69
(g90
g71
NtRp1248
(dp1249
g74
(dp1250
sg83
g1236
sg76
(lp1251
g69
(g70
g71
NtRp1252
(dp1253
g74
(dp1254
g82
I3
ssg83
g1248
sg76
(lp1255
S''
asbasbasbag69
(g85
g71
NtRp1256
(dp1257
g74
(dp1258
sg83
g1232
sg76
(lp1259
g69
(g90
g71
NtRp1260
(dp1261
g74
(dp1262
g94
g95
ssg83
g1256
sg76
(lp1263
g327
asbag69
(g90
g71
NtRp1264
(dp1265
g74
(dp1266
g101
g102
ssg83
g1256
sg76
(lp1267
S':'
asbag69
(g90
g71
NtRp1268
(dp1269
g74
(dp1270
sg83
g1256
sg76
(lp1271
g69
(g70
g71
NtRp1272
(dp1273
g74
(dp1274
g82
I3
ssg83
g1268
sg76
(lp1275
S''
asbasbasbag69
(g85
g71
NtRp1276
(dp1277
g74
(dp1278
sg83
g1232
sg76
(lp1279
g69
(g90
g71
NtRp1280
(dp1281
g74
(dp1282
g94
g95
ssg83
g1276
sg76
(lp1283
g348
asbag69
(g90
g71
NtRp1284
(dp1285
g74
(dp1286
g101
g102
ssg83
g1276
sg76
(lp1287
S':'
asbag69
(g90
g71
NtRp1288
(dp1289
g74
(dp1290
sg83
g1276
sg76
(lp1291
g69
(g70
g71
NtRp1292
(dp1293
g74
(dp1294
g82
I3
ssg83
g1288
sg76
(lp1295
S''
asbasbasbag69
(g85
g71
NtRp1296
(dp1297
g74
(dp1298
sg83
g1232
sg76
(lp1299
g69
(g90
g71
NtRp1300
(dp1301
g74
(dp1302
g94
g95
ssg83
g1296
sg76
(lp1303
g369
asbag69
(g90
g71
NtRp1304
(dp1305
g74
(dp1306
g101
g102
ssg83
g1296
sg76
(lp1307
S':'
asbag69
(g90
g71
NtRp1308
(dp1309
g74
(dp1310
sg83
g1296
sg76
(lp1311
g69
(g70
g71
NtRp1312
(dp1313
g74
(dp1314
g82
I3
ssg83
g1308
sg76
(lp1315
S''
asbasbasbag69
(g85
g71
NtRp1316
(dp1317
g74
(dp1318
sg83
g1232
sg76
(lp1319
g69
(g90
g71
NtRp1320
(dp1321
g74
(dp1322
g94
g95
ssg83
g1316
sg76
(lp1323
g390
asbag69
(g90
g71
NtRp1324
(dp1325
g74
(dp1326
g101
g102
ssg83
g1316
sg76
(lp1327
S':'
asbag69
(g90
g71
NtRp1328
(dp1329
g74
(dp1330
sg83
g1316
sg76
(lp1331
g69
(g70
g71
NtRp1332
(dp1333
g74
(dp1334
g82
I3
ssg83
g1328
sg76
(lp1335
S''
asbasbasbag69
(g85
g71
NtRp1336
(dp1337
g74
(dp1338
sg83
g1232
sg76
(lp1339
g69
(g90
g71
NtRp1340
(dp1341
g74
(dp1342
g94
g95
ssg83
g1336
sg76
(lp1343
g411
asbag69
(g90
g71
NtRp1344
(dp1345
g74
(dp1346
g101
g102
ssg83
g1336
sg76
(lp1347
S':'
asbag69
(g90
g71
NtRp1348
(dp1349
g74
(dp1350
sg83
g1336
sg76
(lp1351
g69
(g70
g71
NtRp1352
(dp1353
g74
(dp1354
g82
I3
ssg83
g1348
sg76
(lp1355
S''
asbasbasbag69
(g85
g71
NtRp1356
(dp1357
g74
(dp1358
sg83
g1232
sg76
(lp1359
g69
(g90
g71
NtRp1360
(dp1361
g74
(dp1362
g94
g95
ssg83
g1356
sg76
(lp1363
g432
asbag69
(g90
g71
NtRp1364
(dp1365
g74
(dp1366
g101
g102
ssg83
g1356
sg76
(lp1367
S':'
asbag69
(g90
g71
NtRp1368
(dp1369
g74
(dp1370
sg83
g1356
sg76
(lp1371
g69
(g70
g71
NtRp1372
(dp1373
g74
(dp1374
g82
I3
ssg83
g1368
sg76
(lp1375
S''
asbasbasbag69
(g85
g71
NtRp1376
(dp1377
g74
(dp1378
sg83
g1232
sg76
(lp1379
g69
(g90
g71
NtRp1380
(dp1381
g74
(dp1382
g94
g95
ssg83
g1376
sg76
(lp1383
g453
asbag69
(g90
g71
NtRp1384
(dp1385
g74
(dp1386
g101
g102
ssg83
g1376
sg76
(lp1387
S':'
asbag69
(g90
g71
NtRp1388
(dp1389
g74
(dp1390
sg83
g1376
sg76
(lp1391
g69
(g70
g71
NtRp1392
(dp1393
g74
(dp1394
g82
I3
ssg83
g1388
sg76
(lp1395
S''
asbasbasbasbasbasbasbag69
(g85
g71
NtRp1396
(dp1397
g74
(dp1398
sg83
g268
sg76
(lp1399
g69
(g90
g71
NtRp1400
(dp1401
g74
(dp1402
g94
g95
ssg83
g1396
sg76
(lp1403
S'session_id_myapp'
p1404
asbag69
(g90
g71
NtRp1405
(dp1406
g74
(dp1407
g101
g102
ssg83
g1396
sg76
(lp1408
S':'
asbag69
(g90
g71
NtRp1409
(dp1410
g74
(dp1411
sg83
g1396
sg76
(lp1412
g69
(g70
g71
NtRp1413
(dp1414
g74
(dp1415
g82
I4
ssg83
g1409
sg76
(lp1416
S'127.0.0.1-f28af7a6-9d1e-4a86-bd34-27605492a231'
p1417
ag69
(g78
g71
NtRp1418
(dp1419
g74
(dp1420
g82
I3
ssg83
Nsg76
(lp1421
g69
(g85
g71
NtRp1422
(dp1423
g74
(dp1424
sg83
g1418
sg76
(lp1425
g69
(g90
g71
NtRp1426
(dp1427
g74
(dp1428
g94
g95
ssg83
g1422
sg76
(lp1429
g306
asbag69
(g90
g71
NtRp1430
(dp1431
g74
(dp1432
g101
g102
ssg83
g1422
sg76
(lp1433
S':'
asbag69
(g90
g71
NtRp1434
(dp1435
g74
(dp1436
sg83
g1422
sg76
(lp1437
g69
(g70
g71
NtRp1438
(dp1439
g74
(dp1440
g82
I3
ssg83
g1434
sg76
(lp1441
S''
asbasbasbag69
(g85
g71
NtRp1442
(dp1443
g74
(dp1444
sg83
g1418
sg76
(lp1445
g69
(g90
g71
NtRp1446
(dp1447
g74
(dp1448
g94
g95
ssg83
g1442
sg76
(lp1449
g327
asbag69
(g90
g71
NtRp1450
(dp1451
g74
(dp1452
g101
g102
ssg83
g1442
sg76
(lp1453
S':'
asbag69
(g90
g71
NtRp1454
(dp1455
g74
(dp1456
sg83
g1442
sg76
(lp1457
g69
(g70
g71
NtRp1458
(dp1459
g74
(dp1460
g82
I3
ssg83
g1454
sg76
(lp1461
S''
asbasbasbag69
(g85
g71
NtRp1462
(dp1463
g74
(dp1464
sg83
g1418
sg76
(lp1465
g69
(g90
g71
NtRp1466
(dp1467
g74
(dp1468
g94
g95
ssg83
g1462
sg76
(lp1469
g348
asbag69
(g90
g71
NtRp1470
(dp1471
g74
(dp1472
g101
g102
ssg83
g1462
sg76
(lp1473
S':'
asbag69
(g90
g71
NtRp1474
(dp1475
g74
(dp1476
sg83
g1462
sg76
(lp1477
g69
(g70
g71
NtRp1478
(dp1479
g74
(dp1480
g82
I3
ssg83
g1474
sg76
(lp1481
S''
asbasbasbag69
(g85
g71
NtRp1482
(dp1483
g74
(dp1484
sg83
g1418
sg76
(lp1485
g69
(g90
g71
NtRp1486
(dp1487
g74
(dp1488
g94
g95
ssg83
g1482
sg76
(lp1489
g369
asbag69
(g90
g71
NtRp1490
(dp1491
g74
(dp1492
g101
g102
ssg83
g1482
sg76
(lp1493
S':'
asbag69
(g90
g71
NtRp1494
(dp1495
g74
(dp1496
sg83
g1482
sg76
(lp1497
g69
(g70
g71
NtRp1498
(dp1499
g74
(dp1500
g82
I3
ssg83
g1494
sg76
(lp1501
S''
asbasbasbag69
(g85
g71
NtRp1502
(dp1503
g74
(dp1504
sg83
g1418
sg76
(lp1505
g69
(g90
g71
NtRp1506
(dp1507
g74
(dp1508
g94
g95
ssg83
g1502
sg76
(lp1509
g390
asbag69
(g90
g71
NtRp1510
(dp1511
g74
(dp1512
g101
g102
ssg83
g1502
sg76
(lp1513
S':'
asbag69
(g90
g71
NtRp1514
(dp1515
g74
(dp1516
sg83
g1502
sg76
(lp1517
g69
(g70
g71
NtRp1518
(dp1519
g74
(dp1520
g82
I3
ssg83
g1514
sg76
(lp1521
S''
asbasbasbag69
(g85
g71
NtRp1522
(dp1523
g74
(dp1524
sg83
g1418
sg76
(lp1525
g69
(g90
g71
NtRp1526
(dp1527
g74
(dp1528
g94
g95
ssg83
g1522
sg76
(lp1529
g411
asbag69
(g90
g71
NtRp1530
(dp1531
g74
(dp1532
g101
g102
ssg83
g1522
sg76
(lp1533
S':'
asbag69
(g90
g71
NtRp1534
(dp1535
g74
(dp1536
sg83
g1522
sg76
(lp1537
g69
(g70
g71
NtRp1538
(dp1539
g74
(dp1540
g82
I3
ssg83
g1534
sg76
(lp1541
S''
asbasbasbag69
(g85
g71
NtRp1542
(dp1543
g74
(dp1544
sg83
g1418
sg76
(lp1545
g69
(g90
g71
NtRp1546
(dp1547
g74
(dp1548
g94
g95
ssg83
g1542
sg76
(lp1549
g432
asbag69
(g90
g71
NtRp1550
(dp1551
g74
(dp1552
g101
g102
ssg83
g1542
sg76
(lp1553
S':'
asbag69
(g90
g71
NtRp1554
(dp1555
g74
(dp1556
sg83
g1542
sg76
(lp1557
g69
(g70
g71
NtRp1558
(dp1559
g74
(dp1560
g82
I3
ssg83
g1554
sg76
(lp1561
S''
asbasbasbag69
(g85
g71
NtRp1562
(dp1563
g74
(dp1564
sg83
g1418
sg76
(lp1565
g69
(g90
g71
NtRp1566
(dp1567
g74
(dp1568
g94
g95
ssg83
g1562
sg76
(lp1569
g453
asbag69
(g90
g71
NtRp1570
(dp1571
g74
(dp1572
g101
g102
ssg83
g1562
sg76
(lp1573
S':'
asbag69
(g90
g71
NtRp1574
(dp1575
g74
(dp1576
sg83
g1562
sg76
(lp1577
g69
(g70
g71
NtRp1578
(dp1579
g74
(dp1580
g82
I3
ssg83
g1574
sg76
(lp1581
S''
asbasbasbasbasbasbasbag69
(g85
g71
NtRp1582
(dp1583
g74
(dp1584
sg83
g268
sg76
(lp1585
g69
(g90
g71
NtRp1586
(dp1587
g74
(dp1588
g94
g95
ssg83
g1582
sg76
(lp1589
S'session_id_project'
p1590
asbag69
(g90
g71
NtRp1591
(dp1592
g74
(dp1593
g101
g102
ssg83
g1582
sg76
(lp1594
S':'
asbag69
(g90
g71
NtRp1595
(dp1596
g74
(dp1597
sg83
g1582
sg76
(lp1598
g69
(g70
g71
NtRp1599
(dp1600
g74
(dp1601
g82
I4
ssg83
g1595
sg76
(lp1602
S'127.0.0.1-029ca61b-f875-404a-b7ff-1634c44ab767'
p1603
ag69
(g78
g71
NtRp1604
(dp1605
g74
(dp1606
g82
I3
ssg83
Nsg76
(lp1607
g69
(g85
g71
NtRp1608
(dp1609
g74
(dp1610
sg83
g1604
sg76
(lp1611
g69
(g90
g71
NtRp1612
(dp1613
g74
(dp1614
g94
g95
ssg83
g1608
sg76
(lp1615
g306
asbag69
(g90
g71
NtRp1616
(dp1617
g74
(dp1618
g101
g102
ssg83
g1608
sg76
(lp1619
S':'
asbag69
(g90
g71
NtRp1620
(dp1621
g74
(dp1622
sg83
g1608
sg76
(lp1623
g69
(g70
g71
NtRp1624
(dp1625
g74
(dp1626
g82
I3
ssg83
g1620
sg76
(lp1627
S''
asbasbasbag69
(g85
g71
NtRp1628
(dp1629
g74
(dp1630
sg83
g1604
sg76
(lp1631
g69
(g90
g71
NtRp1632
(dp1633
g74
(dp1634
g94
g95
ssg83
g1628
sg76
(lp1635
g327
asbag69
(g90
g71
NtRp1636
(dp1637
g74
(dp1638
g101
g102
ssg83
g1628
sg76
(lp1639
S':'
asbag69
(g90
g71
NtRp1640
(dp1641
g74
(dp1642
sg83
g1628
sg76
(lp1643
g69
(g70
g71
NtRp1644
(dp1645
g74
(dp1646
g82
I3
ssg83
g1640
sg76
(lp1647
S''
asbasbasbag69
(g85
g71
NtRp1648
(dp1649
g74
(dp1650
sg83
g1604
sg76
(lp1651
g69
(g90
g71
NtRp1652
(dp1653
g74
(dp1654
g94
g95
ssg83
g1648
sg76
(lp1655
g348
asbag69
(g90
g71
NtRp1656
(dp1657
g74
(dp1658
g101
g102
ssg83
g1648
sg76
(lp1659
S':'
asbag69
(g90
g71
NtRp1660
(dp1661
g74
(dp1662
sg83
g1648
sg76
(lp1663
g69
(g70
g71
NtRp1664
(dp1665
g74
(dp1666
g82
I3
ssg83
g1660
sg76
(lp1667
S''
asbasbasbag69
(g85
g71
NtRp1668
(dp1669
g74
(dp1670
sg83
g1604
sg76
(lp1671
g69
(g90
g71
NtRp1672
(dp1673
g74
(dp1674
g94
g95
ssg83
g1668
sg76
(lp1675
g369
asbag69
(g90
g71
NtRp1676
(dp1677
g74
(dp1678
g101
g102
ssg83
g1668
sg76
(lp1679
S':'
asbag69
(g90
g71
NtRp1680
(dp1681
g74
(dp1682
sg83
g1668
sg76
(lp1683
g69
(g70
g71
NtRp1684
(dp1685
g74
(dp1686
g82
I3
ssg83
g1680
sg76
(lp1687
S''
asbasbasbag69
(g85
g71
NtRp1688
(dp1689
g74
(dp1690
sg83
g1604
sg76
(lp1691
g69
(g90
g71
NtRp1692
(dp1693
g74
(dp1694
g94
g95
ssg83
g1688
sg76
(lp1695
g390
asbag69
(g90
g71
NtRp1696
(dp1697
g74
(dp1698
g101
g102
ssg83
g1688
sg76
(lp1699
S':'
asbag69
(g90
g71
NtRp1700
(dp1701
g74
(dp1702
sg83
g1688
sg76
(lp1703
g69
(g70
g71
NtRp1704
(dp1705
g74
(dp1706
g82
I3
ssg83
g1700
sg76
(lp1707
S''
asbasbasbag69
(g85
g71
NtRp1708
(dp1709
g74
(dp1710
sg83
g1604
sg76
(lp1711
g69
(g90
g71
NtRp1712
(dp1713
g74
(dp1714
g94
g95
ssg83
g1708
sg76
(lp1715
g411
asbag69
(g90
g71
NtRp1716
(dp1717
g74
(dp1718
g101
g102
ssg83
g1708
sg76
(lp1719
S':'
asbag69
(g90
g71
NtRp1720
(dp1721
g74
(dp1722
sg83
g1708
sg76
(lp1723
g69
(g70
g71
NtRp1724
(dp1725
g74
(dp1726
g82
I3
ssg83
g1720
sg76
(lp1727
S''
asbasbasbag69
(g85
g71
NtRp1728
(dp1729
g74
(dp1730
sg83
g1604
sg76
(lp1731
g69
(g90
g71
NtRp1732
(dp1733
g74
(dp1734
g94
g95
ssg83
g1728
sg76
(lp1735
g432
asbag69
(g90
g71
NtRp1736
(dp1737
g74
(dp1738
g101
g102
ssg83
g1728
sg76
(lp1739
S':'
asbag69
(g90
g71
NtRp1740
(dp1741
g74
(dp1742
sg83
g1728
sg76
(lp1743
g69
(g70
g71
NtRp1744
(dp1745
g74
(dp1746
g82
I3
ssg83
g1740
sg76
(lp1747
S''
asbasbasbag69
(g85
g71
NtRp1748
(dp1749
g74
(dp1750
sg83
g1604
sg76
(lp1751
g69
(g90
g71
NtRp1752
(dp1753
g74
(dp1754
g94
g95
ssg83
g1748
sg76
(lp1755
g453
asbag69
(g90
g71
NtRp1756
(dp1757
g74
(dp1758
g101
g102
ssg83
g1748
sg76
(lp1759
S':'
asbag69
(g90
g71
NtRp1760
(dp1761
g74
(dp1762
sg83
g1748
sg76
(lp1763
g69
(g70
g71
NtRp1764
(dp1765
g74
(dp1766
g82
I3
ssg83
g1760
sg76
(lp1767
S''
asbasbasbasbasbasbasbag69
(g85
g71
NtRp1768
(dp1769
g74
(dp1770
sg83
g268
sg76
(lp1771
g69
(g90
g71
NtRp1772
(dp1773
g74
(dp1774
g94
g95
ssg83
g1768
sg76
(lp1775
S'session_id_testlayout'
p1776
asbag69
(g90
g71
NtRp1777
(dp1778
g74
(dp1779
g101
g102
ssg83
g1768
sg76
(lp1780
S':'
asbag69
(g90
g71
NtRp1781
(dp1782
g74
(dp1783
sg83
g1768
sg76
(lp1784
g69
(g70
g71
NtRp1785
(dp1786
g74
(dp1787
g82
I4
ssg83
g1781
sg76
(lp1788
S'127.0.0.1-0b2689a2-d3bd-4ee8-ad96-af4d7e3e9ad1'
p1789
ag69
(g78
g71
NtRp1790
(dp1791
g74
(dp1792
g82
I3
ssg83
Nsg76
(lp1793
g69
(g85
g71
NtRp1794
(dp1795
g74
(dp1796
sg83
g1790
sg76
(lp1797
g69
(g90
g71
NtRp1798
(dp1799
g74
(dp1800
g94
g95
ssg83
g1794
sg76
(lp1801
g306
asbag69
(g90
g71
NtRp1802
(dp1803
g74
(dp1804
g101
g102
ssg83
g1794
sg76
(lp1805
S':'
asbag69
(g90
g71
NtRp1806
(dp1807
g74
(dp1808
sg83
g1794
sg76
(lp1809
g69
(g70
g71
NtRp1810
(dp1811
g74
(dp1812
g82
I3
ssg83
g1806
sg76
(lp1813
S''
asbasbasbag69
(g85
g71
NtRp1814
(dp1815
g74
(dp1816
sg83
g1790
sg76
(lp1817
g69
(g90
g71
NtRp1818
(dp1819
g74
(dp1820
g94
g95
ssg83
g1814
sg76
(lp1821
g327
asbag69
(g90
g71
NtRp1822
(dp1823
g74
(dp1824
g101
g102
ssg83
g1814
sg76
(lp1825
S':'
asbag69
(g90
g71
NtRp1826
(dp1827
g74
(dp1828
sg83
g1814
sg76
(lp1829
g69
(g70
g71
NtRp1830
(dp1831
g74
(dp1832
g82
I3
ssg83
g1826
sg76
(lp1833
S''
asbasbasbag69
(g85
g71
NtRp1834
(dp1835
g74
(dp1836
sg83
g1790
sg76
(lp1837
g69
(g90
g71
NtRp1838
(dp1839
g74
(dp1840
g94
g95
ssg83
g1834
sg76
(lp1841
g348
asbag69
(g90
g71
NtRp1842
(dp1843
g74
(dp1844
g101
g102
ssg83
g1834
sg76
(lp1845
S':'
asbag69
(g90
g71
NtRp1846
(dp1847
g74
(dp1848
sg83
g1834
sg76
(lp1849
g69
(g70
g71
NtRp1850
(dp1851
g74
(dp1852
g82
I3
ssg83
g1846
sg76
(lp1853
S''
asbasbasbag69
(g85
g71
NtRp1854
(dp1855
g74
(dp1856
sg83
g1790
sg76
(lp1857
g69
(g90
g71
NtRp1858
(dp1859
g74
(dp1860
g94
g95
ssg83
g1854
sg76
(lp1861
g369
asbag69
(g90
g71
NtRp1862
(dp1863
g74
(dp1864
g101
g102
ssg83
g1854
sg76
(lp1865
S':'
asbag69
(g90
g71
NtRp1866
(dp1867
g74
(dp1868
sg83
g1854
sg76
(lp1869
g69
(g70
g71
NtRp1870
(dp1871
g74
(dp1872
g82
I3
ssg83
g1866
sg76
(lp1873
S''
asbasbasbag69
(g85
g71
NtRp1874
(dp1875
g74
(dp1876
sg83
g1790
sg76
(lp1877
g69
(g90
g71
NtRp1878
(dp1879
g74
(dp1880
g94
g95
ssg83
g1874
sg76
(lp1881
g390
asbag69
(g90
g71
NtRp1882
(dp1883
g74
(dp1884
g101
g102
ssg83
g1874
sg76
(lp1885
S':'
asbag69
(g90
g71
NtRp1886
(dp1887
g74
(dp1888
sg83
g1874
sg76
(lp1889
g69
(g70
g71
NtRp1890
(dp1891
g74
(dp1892
g82
I3
ssg83
g1886
sg76
(lp1893
S''
asbasbasbag69
(g85
g71
NtRp1894
(dp1895
g74
(dp1896
sg83
g1790
sg76
(lp1897
g69
(g90
g71
NtRp1898
(dp1899
g74
(dp1900
g94
g95
ssg83
g1894
sg76
(lp1901
g411
asbag69
(g90
g71
NtRp1902
(dp1903
g74
(dp1904
g101
g102
ssg83
g1894
sg76
(lp1905
S':'
asbag69
(g90
g71
NtRp1906
(dp1907
g74
(dp1908
sg83
g1894
sg76
(lp1909
g69
(g70
g71
NtRp1910
(dp1911
g74
(dp1912
g82
I3
ssg83
g1906
sg76
(lp1913
S''
asbasbasbag69
(g85
g71
NtRp1914
(dp1915
g74
(dp1916
sg83
g1790
sg76
(lp1917
g69
(g90
g71
NtRp1918
(dp1919
g74
(dp1920
g94
g95
ssg83
g1914
sg76
(lp1921
g432
asbag69
(g90
g71
NtRp1922
(dp1923
g74
(dp1924
g101
g102
ssg83
g1914
sg76
(lp1925
S':'
asbag69
(g90
g71
NtRp1926
(dp1927
g74
(dp1928
sg83
g1914
sg76
(lp1929
g69
(g70
g71
NtRp1930
(dp1931
g74
(dp1932
g82
I3
ssg83
g1926
sg76
(lp1933
S''
asbasbasbag69
(g85
g71
NtRp1934
(dp1935
g74
(dp1936
sg83
g1790
sg76
(lp1937
g69
(g90
g71
NtRp1938
(dp1939
g74
(dp1940
g94
g95
ssg83
g1934
sg76
(lp1941
g453
asbag69
(g90
g71
NtRp1942
(dp1943
g74
(dp1944
g101
g102
ssg83
g1934
sg76
(lp1945
S':'
asbag69
(g90
g71
NtRp1946
(dp1947
g74
(dp1948
sg83
g1934
sg76
(lp1949
g69
(g70
g71
NtRp1950
(dp1951
g74
(dp1952
g82
I3
ssg83
g1946
sg76
(lp1953
S''
asbasbasbasbasbasbasbag69
(g85
g71
NtRp1954
(dp1955
g74
(dp1956
sg83
g268
sg76
(lp1957
g69
(g90
g71
NtRp1958
(dp1959
g74
(dp1960
g94
g95
ssg83
g1954
sg76
(lp1961
S'session_id_try'
p1962
asbag69
(g90
g71
NtRp1963
(dp1964
g74
(dp1965
g101
g102
ssg83
g1954
sg76
(lp1966
S':'
asbag69
(g90
g71
NtRp1967
(dp1968
g74
(dp1969
sg83
g1954
sg76
(lp1970
g69
(g70
g71
NtRp1971
(dp1972
g74
(dp1973
g82
I4
ssg83
g1967
sg76
(lp1974
S'127.0.0.1-4d514347-24a9-48c9-9e7c-4ac4f4a70173'
p1975
ag69
(g78
g71
NtRp1976
(dp1977
g74
(dp1978
g82
I3
ssg83
Nsg76
(lp1979
g69
(g85
g71
NtRp1980
(dp1981
g74
(dp1982
sg83
g1976
sg76
(lp1983
g69
(g90
g71
NtRp1984
(dp1985
g74
(dp1986
g94
g95
ssg83
g1980
sg76
(lp1987
g306
asbag69
(g90
g71
NtRp1988
(dp1989
g74
(dp1990
g101
g102
ssg83
g1980
sg76
(lp1991
S':'
asbag69
(g90
g71
NtRp1992
(dp1993
g74
(dp1994
sg83
g1980
sg76
(lp1995
g69
(g70
g71
NtRp1996
(dp1997
g74
(dp1998
g82
I3
ssg83
g1992
sg76
(lp1999
S''
asbasbasbag69
(g85
g71
NtRp2000
(dp2001
g74
(dp2002
sg83
g1976
sg76
(lp2003
g69
(g90
g71
NtRp2004
(dp2005
g74
(dp2006
g94
g95
ssg83
g2000
sg76
(lp2007
g327
asbag69
(g90
g71
NtRp2008
(dp2009
g74
(dp2010
g101
g102
ssg83
g2000
sg76
(lp2011
S':'
asbag69
(g90
g71
NtRp2012
(dp2013
g74
(dp2014
sg83
g2000
sg76
(lp2015
g69
(g70
g71
NtRp2016
(dp2017
g74
(dp2018
g82
I3
ssg83
g2012
sg76
(lp2019
S''
asbasbasbag69
(g85
g71
NtRp2020
(dp2021
g74
(dp2022
sg83
g1976
sg76
(lp2023
g69
(g90
g71
NtRp2024
(dp2025
g74
(dp2026
g94
g95
ssg83
g2020
sg76
(lp2027
g348
asbag69
(g90
g71
NtRp2028
(dp2029
g74
(dp2030
g101
g102
ssg83
g2020
sg76
(lp2031
S':'
asbag69
(g90
g71
NtRp2032
(dp2033
g74
(dp2034
sg83
g2020
sg76
(lp2035
g69
(g70
g71
NtRp2036
(dp2037
g74
(dp2038
g82
I3
ssg83
g2032
sg76
(lp2039
S''
asbasbasbag69
(g85
g71
NtRp2040
(dp2041
g74
(dp2042
sg83
g1976
sg76
(lp2043
g69
(g90
g71
NtRp2044
(dp2045
g74
(dp2046
g94
g95
ssg83
g2040
sg76
(lp2047
g369
asbag69
(g90
g71
NtRp2048
(dp2049
g74
(dp2050
g101
g102
ssg83
g2040
sg76
(lp2051
S':'
asbag69
(g90
g71
NtRp2052
(dp2053
g74
(dp2054
sg83
g2040
sg76
(lp2055
g69
(g70
g71
NtRp2056
(dp2057
g74
(dp2058
g82
I3
ssg83
g2052
sg76
(lp2059
S''
asbasbasbag69
(g85
g71
NtRp2060
(dp2061
g74
(dp2062
sg83
g1976
sg76
(lp2063
g69
(g90
g71
NtRp2064
(dp2065
g74
(dp2066
g94
g95
ssg83
g2060
sg76
(lp2067
g390
asbag69
(g90
g71
NtRp2068
(dp2069
g74
(dp2070
g101
g102
ssg83
g2060
sg76
(lp2071
S':'
asbag69
(g90
g71
NtRp2072
(dp2073
g74
(dp2074
sg83
g2060
sg76
(lp2075
g69
(g70
g71
NtRp2076
(dp2077
g74
(dp2078
g82
I3
ssg83
g2072
sg76
(lp2079
S''
asbasbasbag69
(g85
g71
NtRp2080
(dp2081
g74
(dp2082
sg83
g1976
sg76
(lp2083
g69
(g90
g71
NtRp2084
(dp2085
g74
(dp2086
g94
g95
ssg83
g2080
sg76
(lp2087
g411
asbag69
(g90
g71
NtRp2088
(dp2089
g74
(dp2090
g101
g102
ssg83
g2080
sg76
(lp2091
S':'
asbag69
(g90
g71
NtRp2092
(dp2093
g74
(dp2094
sg83
g2080
sg76
(lp2095
g69
(g70
g71
NtRp2096
(dp2097
g74
(dp2098
g82
I3
ssg83
g2092
sg76
(lp2099
S''
asbasbasbag69
(g85
g71
NtRp2100
(dp2101
g74
(dp2102
sg83
g1976
sg76
(lp2103
g69
(g90
g71
NtRp2104
(dp2105
g74
(dp2106
g94
g95
ssg83
g2100
sg76
(lp2107
g432
asbag69
(g90
g71
NtRp2108
(dp2109
g74
(dp2110
g101
g102
ssg83
g2100
sg76
(lp2111
S':'
asbag69
(g90
g71
NtRp2112
(dp2113
g74
(dp2114
sg83
g2100
sg76
(lp2115
g69
(g70
g71
NtRp2116
(dp2117
g74
(dp2118
g82
I3
ssg83
g2112
sg76
(lp2119
S''
asbasbasbag69
(g85
g71
NtRp2120
(dp2121
g74
(dp2122
sg83
g1976
sg76
(lp2123
g69
(g90
g71
NtRp2124
(dp2125
g74
(dp2126
g94
g95
ssg83
g2120
sg76
(lp2127
g453
asbag69
(g90
g71
NtRp2128
(dp2129
g74
(dp2130
g101
g102
ssg83
g2120
sg76
(lp2131
S':'
asbag69
(g90
g71
NtRp2132
(dp2133
g74
(dp2134
sg83
g2120
sg76
(lp2135
g69
(g70
g71
NtRp2136
(dp2137
g74
(dp2138
g82
I3
ssg83
g2132
sg76
(lp2139
S''
asbasbasbasbasbasbasbag69
(g85
g71
NtRp2140
(dp2141
g74
(dp2142
sg83
g268
sg76
(lp2143
g69
(g90
g71
NtRp2144
(dp2145
g74
(dp2146
g94
g95
ssg83
g2140
sg76
(lp2147
S'session_id_vikramahuja'
p2148
asbag69
(g90
g71
NtRp2149
(dp2150
g74
(dp2151
g101
g102
ssg83
g2140
sg76
(lp2152
S':'
asbag69
(g90
g71
NtRp2153
(dp2154
g74
(dp2155
sg83
g2140
sg76
(lp2156
g69
(g70
g71
NtRp2157
(dp2158
g74
(dp2159
g82
I4
ssg83
g2153
sg76
(lp2160
S'127.0.0.1-a555d16d-54b5-476d-a152-f88918b513fe'
p2161
ag69
(g78
g71
NtRp2162
(dp2163
g74
(dp2164
g82
I3
ssg83
Nsg76
(lp2165
g69
(g85
g71
NtRp2166
(dp2167
g74
(dp2168
sg83
g2162
sg76
(lp2169
g69
(g90
g71
NtRp2170
(dp2171
g74
(dp2172
g94
g95
ssg83
g2166
sg76
(lp2173
g306
asbag69
(g90
g71
NtRp2174
(dp2175
g74
(dp2176
g101
g102
ssg83
g2166
sg76
(lp2177
S':'
asbag69
(g90
g71
NtRp2178
(dp2179
g74
(dp2180
sg83
g2166
sg76
(lp2181
g69
(g70
g71
NtRp2182
(dp2183
g74
(dp2184
g82
I3
ssg83
g2178
sg76
(lp2185
S''
asbasbasbag69
(g85
g71
NtRp2186
(dp2187
g74
(dp2188
sg83
g2162
sg76
(lp2189
g69
(g90
g71
NtRp2190
(dp2191
g74
(dp2192
g94
g95
ssg83
g2186
sg76
(lp2193
g327
asbag69
(g90
g71
NtRp2194
(dp2195
g74
(dp2196
g101
g102
ssg83
g2186
sg76
(lp2197
S':'
asbag69
(g90
g71
NtRp2198
(dp2199
g74
(dp2200
sg83
g2186
sg76
(lp2201
g69
(g70
g71
NtRp2202
(dp2203
g74
(dp2204
g82
I3
ssg83
g2198
sg76
(lp2205
S''
asbasbasbag69
(g85
g71
NtRp2206
(dp2207
g74
(dp2208
sg83
g2162
sg76
(lp2209
g69
(g90
g71
NtRp2210
(dp2211
g74
(dp2212
g94
g95
ssg83
g2206
sg76
(lp2213
g348
asbag69
(g90
g71
NtRp2214
(dp2215
g74
(dp2216
g101
g102
ssg83
g2206
sg76
(lp2217
S':'
asbag69
(g90
g71
NtRp2218
(dp2219
g74
(dp2220
sg83
g2206
sg76
(lp2221
g69
(g70
g71
NtRp2222
(dp2223
g74
(dp2224
g82
I3
ssg83
g2218
sg76
(lp2225
S''
asbasbasbag69
(g85
g71
NtRp2226
(dp2227
g74
(dp2228
sg83
g2162
sg76
(lp2229
g69
(g90
g71
NtRp2230
(dp2231
g74
(dp2232
g94
g95
ssg83
g2226
sg76
(lp2233
g369
asbag69
(g90
g71
NtRp2234
(dp2235
g74
(dp2236
g101
g102
ssg83
g2226
sg76
(lp2237
S':'
asbag69
(g90
g71
NtRp2238
(dp2239
g74
(dp2240
sg83
g2226
sg76
(lp2241
g69
(g70
g71
NtRp2242
(dp2243
g74
(dp2244
g82
I3
ssg83
g2238
sg76
(lp2245
S''
asbasbasbag69
(g85
g71
NtRp2246
(dp2247
g74
(dp2248
sg83
g2162
sg76
(lp2249
g69
(g90
g71
NtRp2250
(dp2251
g74
(dp2252
g94
g95
ssg83
g2246
sg76
(lp2253
g390
asbag69
(g90
g71
NtRp2254
(dp2255
g74
(dp2256
g101
g102
ssg83
g2246
sg76
(lp2257
S':'
asbag69
(g90
g71
NtRp2258
(dp2259
g74
(dp2260
sg83
g2246
sg76
(lp2261
g69
(g70
g71
NtRp2262
(dp2263
g74
(dp2264
g82
I3
ssg83
g2258
sg76
(lp2265
S''
asbasbasbag69
(g85
g71
NtRp2266
(dp2267
g74
(dp2268
sg83
g2162
sg76
(lp2269
g69
(g90
g71
NtRp2270
(dp2271
g74
(dp2272
g94
g95
ssg83
g2266
sg76
(lp2273
g411
asbag69
(g90
g71
NtRp2274
(dp2275
g74
(dp2276
g101
g102
ssg83
g2266
sg76
(lp2277
S':'
asbag69
(g90
g71
NtRp2278
(dp2279
g74
(dp2280
sg83
g2266
sg76
(lp2281
g69
(g70
g71
NtRp2282
(dp2283
g74
(dp2284
g82
I3
ssg83
g2278
sg76
(lp2285
S''
asbasbasbag69
(g85
g71
NtRp2286
(dp2287
g74
(dp2288
sg83
g2162
sg76
(lp2289
g69
(g90
g71
NtRp2290
(dp2291
g74
(dp2292
g94
g95
ssg83
g2286
sg76
(lp2293
g432
asbag69
(g90
g71
NtRp2294
(dp2295
g74
(dp2296
g101
g102
ssg83
g2286
sg76
(lp2297
S':'
asbag69
(g90
g71
NtRp2298
(dp2299
g74
(dp2300
sg83
g2286
sg76
(lp2301
g69
(g70
g71
NtRp2302
(dp2303
g74
(dp2304
g82
I3
ssg83
g2298
sg76
(lp2305
S''
asbasbasbag69
(g85
g71
NtRp2306
(dp2307
g74
(dp2308
sg83
g2162
sg76
(lp2309
g69
(g90
g71
NtRp2310
(dp2311
g74
(dp2312
g94
g95
ssg83
g2306
sg76
(lp2313
g453
asbag69
(g90
g71
NtRp2314
(dp2315
g74
(dp2316
g101
g102
ssg83
g2306
sg76
(lp2317
S':'
asbag69
(g90
g71
NtRp2318
(dp2319
g74
(dp2320
sg83
g2306
sg76
(lp2321
g69
(g70
g71
NtRp2322
(dp2323
g74
(dp2324
g82
I3
ssg83
g2318
sg76
(lp2325
S''
asbasbasbasbasbasbasbag69
(g85
g71
NtRp2326
(dp2327
g74
(dp2328
sg83
g268
sg76
(lp2329
g69
(g90
g71
NtRp2330
(dp2331
g74
(dp2332
g94
g95
ssg83
g2326
sg76
(lp2333
S'session_id_welcome'
p2334
asbag69
(g90
g71
NtRp2335
(dp2336
g74
(dp2337
g101
g102
ssg83
g2326
sg76
(lp2338
S':'
asbag69
(g90
g71
NtRp2339
(dp2340
g74
(dp2341
sg83
g2326
sg76
(lp2342
g69
(g70
g71
NtRp2343
(dp2344
g74
(dp2345
g82
I4
ssg83
g2339
sg76
(lp2346
S'127.0.0.1-a85dd4d7-ab1c-49ab-856d-4173a26ef319'
p2347
ag69
(g78
g71
NtRp2348
(dp2349
g74
(dp2350
g82
I3
ssg83
Nsg76
(lp2351
g69
(g85
g71
NtRp2352
(dp2353
g74
(dp2354
sg83
g2348
sg76
(lp2355
g69
(g90
g71
NtRp2356
(dp2357
g74
(dp2358
g94
g95
ssg83
g2352
sg76
(lp2359
g306
asbag69
(g90
g71
NtRp2360
(dp2361
g74
(dp2362
g101
g102
ssg83
g2352
sg76
(lp2363
S':'
asbag69
(g90
g71
NtRp2364
(dp2365
g74
(dp2366
sg83
g2352
sg76
(lp2367
g69
(g70
g71
NtRp2368
(dp2369
g74
(dp2370
g82
I3
ssg83
g2364
sg76
(lp2371
S''
asbasbasbag69
(g85
g71
NtRp2372
(dp2373
g74
(dp2374
sg83
g2348
sg76
(lp2375
g69
(g90
g71
NtRp2376
(dp2377
g74
(dp2378
g94
g95
ssg83
g2372
sg76
(lp2379
g327
asbag69
(g90
g71
NtRp2380
(dp2381
g74
(dp2382
g101
g102
ssg83
g2372
sg76
(lp2383
S':'
asbag69
(g90
g71
NtRp2384
(dp2385
g74
(dp2386
sg83
g2372
sg76
(lp2387
g69
(g70
g71
NtRp2388
(dp2389
g74
(dp2390
g82
I3
ssg83
g2384
sg76
(lp2391
S''
asbasbasbag69
(g85
g71
NtRp2392
(dp2393
g74
(dp2394
sg83
g2348
sg76
(lp2395
g69
(g90
g71
NtRp2396
(dp2397
g74
(dp2398
g94
g95
ssg83
g2392
sg76
(lp2399
g348
asbag69
(g90
g71
NtRp2400
(dp2401
g74
(dp2402
g101
g102
ssg83
g2392
sg76
(lp2403
S':'
asbag69
(g90
g71
NtRp2404
(dp2405
g74
(dp2406
sg83
g2392
sg76
(lp2407
g69
(g70
g71
NtRp2408
(dp2409
g74
(dp2410
g82
I3
ssg83
g2404
sg76
(lp2411
S''
asbasbasbag69
(g85
g71
NtRp2412
(dp2413
g74
(dp2414
sg83
g2348
sg76
(lp2415
g69
(g90
g71
NtRp2416
(dp2417
g74
(dp2418
g94
g95
ssg83
g2412
sg76
(lp2419
g369
asbag69
(g90
g71
NtRp2420
(dp2421
g74
(dp2422
g101
g102
ssg83
g2412
sg76
(lp2423
S':'
asbag69
(g90
g71
NtRp2424
(dp2425
g74
(dp2426
sg83
g2412
sg76
(lp2427
g69
(g70
g71
NtRp2428
(dp2429
g74
(dp2430
g82
I3
ssg83
g2424
sg76
(lp2431
S''
asbasbasbag69
(g85
g71
NtRp2432
(dp2433
g74
(dp2434
sg83
g2348
sg76
(lp2435
g69
(g90
g71
NtRp2436
(dp2437
g74
(dp2438
g94
g95
ssg83
g2432
sg76
(lp2439
g390
asbag69
(g90
g71
NtRp2440
(dp2441
g74
(dp2442
g101
g102
ssg83
g2432
sg76
(lp2443
S':'
asbag69
(g90
g71
NtRp2444
(dp2445
g74
(dp2446
sg83
g2432
sg76
(lp2447
g69
(g70
g71
NtRp2448
(dp2449
g74
(dp2450
g82
I3
ssg83
g2444
sg76
(lp2451
S''
asbasbasbag69
(g85
g71
NtRp2452
(dp2453
g74
(dp2454
sg83
g2348
sg76
(lp2455
g69
(g90
g71
NtRp2456
(dp2457
g74
(dp2458
g94
g95
ssg83
g2452
sg76
(lp2459
g411
asbag69
(g90
g71
NtRp2460
(dp2461
g74
(dp2462
g101
g102
ssg83
g2452
sg76
(lp2463
S':'
asbag69
(g90
g71
NtRp2464
(dp2465
g74
(dp2466
sg83
g2452
sg76
(lp2467
g69
(g70
g71
NtRp2468
(dp2469
g74
(dp2470
g82
I3
ssg83
g2464
sg76
(lp2471
S''
asbasbasbag69
(g85
g71
NtRp2472
(dp2473
g74
(dp2474
sg83
g2348
sg76
(lp2475
g69
(g90
g71
NtRp2476
(dp2477
g74
(dp2478
g94
g95
ssg83
g2472
sg76
(lp2479
g432
asbag69
(g90
g71
NtRp2480
(dp2481
g74
(dp2482
g101
g102
ssg83
g2472
sg76
(lp2483
S':'
asbag69
(g90
g71
NtRp2484
(dp2485
g74
(dp2486
sg83
g2472
sg76
(lp2487
g69
(g70
g71
NtRp2488
(dp2489
g74
(dp2490
g82
I3
ssg83
g2484
sg76
(lp2491
S''
asbasbasbag69
(g85
g71
NtRp2492
(dp2493
g74
(dp2494
sg83
g2348
sg76
(lp2495
g69
(g90
g71
NtRp2496
(dp2497
g74
(dp2498
g94
g95
ssg83
g2492
sg76
(lp2499
g453
asbag69
(g90
g71
NtRp2500
(dp2501
g74
(dp2502
g101
g102
ssg83
g2492
sg76
(lp2503
S':'
asbag69
(g90
g71
NtRp2504
(dp2505
g74
(dp2506
sg83
g2492
sg76
(lp2507
g69
(g70
g71
NtRp2508
(dp2509
g74
(dp2510
g82
I3
ssg83
g2504
sg76
(lp2511
S''
asbasbasbasbasbasbasbasbasbasbasbag69
(g85
g71
NtRp2512
(dp2513
g74
(dp2514
sg83
g79
sg76
(lp2515
g69
(g90
g71
NtRp2516
(dp2517
g74
(dp2518
g94
g95
ssg83
g2512
sg76
(lp2519
S'env'
p2520
asbag69
(g90
g71
NtRp2521
(dp2522
g74
(dp2523
g101
g102
ssg83
g2512
sg76
(lp2524
S':'
asbag69
(g90
g71
NtRp2525
(dp2526
g74
(dp2527
sg83
g2512
sg76
(lp2528
g69
(g70
g71
NtRp2529
(dp2530
g74
(dp2531
g82
I5
ssg83
g2525
sg76
(lp2532
g69
(g78
g71
NtRp2533
(dp2534
g74
(dp2535
g82
I4
ssg83
Nsg76
(lp2536
g69
(g85
g71
NtRp2537
(dp2538
g74
(dp2539
sg83
g2533
sg76
(lp2540
g69
(g90
g71
NtRp2541
(dp2542
g74
(dp2543
g94
g95
ssg83
g2537
sg76
(lp2544
S'app_folders'
p2545
asbag69
(g90
g71
NtRp2546
(dp2547
g74
(dp2548
g101
g102
ssg83
g2537
sg76
(lp2549
S':'
asbag69
(g90
g71
NtRp2550
(dp2551
g74
(dp2552
sg83
g2537
sg76
(lp2553
g69
(g70
g71
NtRp2554
(dp2555
g74
(dp2556
g82
I4
ssg83
g2550
sg76
(lp2557
S"set(['/home/pankaj/web2py/applications/admin/', '/home/pankaj/web2py/applications/welcome/', '/home/pankaj/web2py/applications/reddit/'])"
p2558
asbasbasbag69
(g85
g71
NtRp2559
(dp2560
g74
(dp2561
sg83
g2533
sg76
(lp2562
g69
(g90
g71
NtRp2563
(dp2564
g74
(dp2565
g94
g95
ssg83
g2559
sg76
(lp2566
S'applications_parent'
p2567
asbag69
(g90
g71
NtRp2568
(dp2569
g74
(dp2570
g101
g102
ssg83
g2559
sg76
(lp2571
S':'
asbag69
(g90
g71
NtRp2572
(dp2573
g74
(dp2574
sg83
g2559
sg76
(lp2575
g69
(g70
g71
NtRp2576
(dp2577
g74
(dp2578
g82
I4
ssg83
g2572
sg76
(lp2579
S'/home/pankaj/web2py'
p2580
asbasbasbag69
(g85
g71
NtRp2581
(dp2582
g74
(dp2583
sg83
g2533
sg76
(lp2584
g69
(g90
g71
NtRp2585
(dp2586
g74
(dp2587
g94
g95
ssg83
g2581
sg76
(lp2588
S'cmd_args'
p2589
asbag69
(g90
g71
NtRp2590
(dp2591
g74
(dp2592
g101
g102
ssg83
g2581
sg76
(lp2593
S':'
asbag69
(g90
g71
NtRp2594
(dp2595
g74
(dp2596
sg83
g2581
sg76
(lp2597
g69
(g70
g71
NtRp2598
(dp2599
g74
(dp2600
g82
I4
ssg83
g2594
sg76
(lp2601
g69
(g78
g71
NtRp2602
(dp2603
g74
(dp2604
g82
I3
ssg83
Nsg76
(lp2605
sbasbasbasbag69
(g85
g71
NtRp2606
(dp2607
g74
(dp2608
sg83
g2533
sg76
(lp2609
g69
(g90
g71
NtRp2610
(dp2611
g74
(dp2612
g94
g95
ssg83
g2606
sg76
(lp2613
S'cmd_options'
p2614
asbag69
(g90
g71
NtRp2615
(dp2616
g74
(dp2617
g101
g102
ssg83
g2606
sg76
(lp2618
S':'
asbag69
(g90
g71
NtRp2619
(dp2620
g74
(dp2621
sg83
g2606
sg76
(lp2622
g69
(g70
g71
NtRp2623
(dp2624
g74
(dp2625
g82
I4
ssg83
g2619
sg76
(lp2626
S"<Values at 0x8949dcc: {'verbose': False, 'ip': '127.0.0.1', 'with_scheduler': False, 'ips': [], 'shutdown_timeout': 5, 'taskbar': False, 'port': 8000, 'maxthreads': None, 'softcron': False, 'server_name': 'pankaj-HP-Pavilion-dv4-Notebook-PC', 'bpython': False, 'nogui': False, 'pid_filename': 'httpserver.pid', 'extcron': False, 'runcron': False, 'run_system_tests': False, 'test': None, 'folder': '/home/pankaj/web2py', 'config': '', 'import_models': False, 'winservice': '', 'shell': None, 'run': '', 'log_filename': 'httpserver.log', 'debuglevel': 30, 'args': [''], 'socket_timeout': 5, 'ssl_ca_certificate': None, 'scheduler': None, 'profiler_filename': None, 'ssl_private_key': '', 'scheduler_groups': None, 'password': '<ask>', 'request_queue_size': 5, 'ssl_certificate': '', 'cronjob': False, 'numthreads': None, 'quiet': False, 'interfaces': None, 'minthreads': None, 'timeout': 10, 'plain': False, 'nobanner': False}>"
p2627
asbasbasbag69
(g85
g71
NtRp2628
(dp2629
g74
(dp2630
sg83
g2533
sg76
(lp2631
g69
(g90
g71
NtRp2632
(dp2633
g74
(dp2634
g94
g95
ssg83
g2628
sg76
(lp2635
S'db_sessions'
p2636
asbag69
(g90
g71
NtRp2637
(dp2638
g74
(dp2639
g101
g102
ssg83
g2628
sg76
(lp2640
S':'
asbag69
(g90
g71
NtRp2641
(dp2642
g74
(dp2643
sg83
g2628
sg76
(lp2644
g69
(g70
g71
NtRp2645
(dp2646
g74
(dp2647
g82
I4
ssg83
g2641
sg76
(lp2648
S'set([])'
p2649
asbasbasbag69
(g85
g71
NtRp2650
(dp2651
g74
(dp2652
sg83
g2533
sg76
(lp2653
g69
(g90
g71
NtRp2654
(dp2655
g74
(dp2656
g94
g95
ssg83
g2650
sg76
(lp2657
S'debugging'
p2658
asbag69
(g90
g71
NtRp2659
(dp2660
g74
(dp2661
g101
g102
ssg83
g2650
sg76
(lp2662
S':'
asbag69
(g90
g71
NtRp2663
(dp2664
g74
(dp2665
sg83
g2650
sg76
(lp2666
g69
(g70
g71
NtRp2667
(dp2668
g74
(dp2669
g82
I4
ssg83
g2663
sg76
(lp2670
g112
asbasbasbag69
(g85
g71
NtRp2671
(dp2672
g74
(dp2673
sg83
g2533
sg76
(lp2674
g69
(g90
g71
NtRp2675
(dp2676
g74
(dp2677
g94
g95
ssg83
g2671
sg76
(lp2678
S'gluon_parent'
p2679
asbag69
(g90
g71
NtRp2680
(dp2681
g74
(dp2682
g101
g102
ssg83
g2671
sg76
(lp2683
S':'
asbag69
(g90
g71
NtRp2684
(dp2685
g74
(dp2686
sg83
g2671
sg76
(lp2687
g69
(g70
g71
NtRp2688
(dp2689
g74
(dp2690
g82
I4
ssg83
g2684
sg76
(lp2691
S'/home/pankaj/web2py'
p2692
asbasbasbag69
(g85
g71
NtRp2693
(dp2694
g74
(dp2695
sg83
g2533
sg76
(lp2696
g69
(g90
g71
NtRp2697
(dp2698
g74
(dp2699
g94
g95
ssg83
g2693
sg76
(lp2700
S'http_accept'
p2701
asbag69
(g90
g71
NtRp2702
(dp2703
g74
(dp2704
g101
g102
ssg83
g2693
sg76
(lp2705
S':'
asbag69
(g90
g71
NtRp2706
(dp2707
g74
(dp2708
sg83
g2693
sg76
(lp2709
g69
(g70
g71
NtRp2710
(dp2711
g74
(dp2712
g82
I4
ssg83
g2706
sg76
(lp2713
S'text/html,application/xhtml+xml,application/xml;q=0.9,*/*;q=0.8'
p2714
asbasbasbag69
(g85
g71
NtRp2715
(dp2716
g74
(dp2717
sg83
g2533
sg76
(lp2718
g69
(g90
g71
NtRp2719
(dp2720
g74
(dp2721
g94
g95
ssg83
g2715
sg76
(lp2722
S'http_accept_encoding'
p2723
asbag69
(g90
g71
NtRp2724
(dp2725
g74
(dp2726
g101
g102
ssg83
g2715
sg76
(lp2727
S':'
asbag69
(g90
g71
NtRp2728
(dp2729
g74
(dp2730
sg83
g2715
sg76
(lp2731
g69
(g70
g71
NtRp2732
(dp2733
g74
(dp2734
g82
I4
ssg83
g2728
sg76
(lp2735
S'gzip, deflate'
p2736
asbasbasbag69
(g85
g71
NtRp2737
(dp2738
g74
(dp2739
sg83
g2533
sg76
(lp2740
g69
(g90
g71
NtRp2741
(dp2742
g74
(dp2743
g94
g95
ssg83
g2737
sg76
(lp2744
S'http_accept_language'
p2745
asbag69
(g90
g71
NtRp2746
(dp2747
g74
(dp2748
g101
g102
ssg83
g2737
sg76
(lp2749
S':'
asbag69
(g90
g71
NtRp2750
(dp2751
g74
(dp2752
sg83
g2737
sg76
(lp2753
g69
(g70
g71
NtRp2754
(dp2755
g74
(dp2756
g82
I4
ssg83
g2750
sg76
(lp2757
S'en-US,en;q=0.5'
p2758
asbasbasbag69
(g85
g71
NtRp2759
(dp2760
g74
(dp2761
sg83
g2533
sg76
(lp2762
g69
(g90
g71
NtRp2763
(dp2764
g74
(dp2765
g94
g95
ssg83
g2759
sg76
(lp2766
S'http_cache_control'
p2767
asbag69
(g90
g71
NtRp2768
(dp2769
g74
(dp2770
g101
g102
ssg83
g2759
sg76
(lp2771
S':'
asbag69
(g90
g71
NtRp2772
(dp2773
g74
(dp2774
sg83
g2759
sg76
(lp2775
g69
(g70
g71
NtRp2776
(dp2777
g74
(dp2778
g82
I4
ssg83
g2772
sg76
(lp2779
S'max-age=0'
p2780
asbasbasbag69
(g85
g71
NtRp2781
(dp2782
g74
(dp2783
sg83
g2533
sg76
(lp2784
g69
(g90
g71
NtRp2785
(dp2786
g74
(dp2787
g94
g95
ssg83
g2781
sg76
(lp2788
S'http_connection'
p2789
asbag69
(g90
g71
NtRp2790
(dp2791
g74
(dp2792
g101
g102
ssg83
g2781
sg76
(lp2793
S':'
asbag69
(g90
g71
NtRp2794
(dp2795
g74
(dp2796
sg83
g2781
sg76
(lp2797
g69
(g70
g71
NtRp2798
(dp2799
g74
(dp2800
g82
I4
ssg83
g2794
sg76
(lp2801
S'keep-alive'
p2802
asbasbasbag69
(g85
g71
NtRp2803
(dp2804
g74
(dp2805
sg83
g2533
sg76
(lp2806
g69
(g90
g71
NtRp2807
(dp2808
g74
(dp2809
g94
g95
ssg83
g2803
sg76
(lp2810
S'http_cookie'
p2811
asbag69
(g90
g71
NtRp2812
(dp2813
g74
(dp2814
g101
g102
ssg83
g2803
sg76
(lp2815
S':'
asbag69
(g90
g71
NtRp2816
(dp2817
g74
(dp2818
sg83
g2803
sg76
(lp2819
g69
(g70
g71
NtRp2820
(dp2821
g74
(dp2822
g82
I4
ssg83
g2816
sg76
(lp2823
S'session_id_welcome=127.0.0.1-a85dd4d7-ab1c-49ab-856d-4173a26ef319; session_id_admin=127.0.0.1-eea59e1b-9257-4df1-8c44-da77bf9e4ec2; session_id_20120156_assignment_1=127.0.0.1-6cad324c-0572-4be8-8f41-6fcaca863c93; session_id_arihant=127.0.0.1-fa99deb6-5977-491c-864a-b5d79c0d1842; session_id_cataminder=127.0.0.1-81b628a7-34a5-4e70-a95c-79ef710dcdbb; session_id_courses=127.0.0.1-1d46c4eb-fdfc-4abb-bb62-6bcf52d1fcaa; session_id_iiit_fb=127.0.0.1-04b7df24-4720-4bb5-98de-96b98776240d; session_id_myapp=127.0.0.1-f28af7a6-9d1e-4a86-bd34-27605492a231; session_id_project=127.0.0.1-029ca61b-f875-404a-b7ff-1634c44ab767; session_id_testlayout=127.0.0.1-0b2689a2-d3bd-4ee8-ad96-af4d7e3e9ad1; session_id_try=127.0.0.1-4d514347-24a9-48c9-9e7c-4ac4f4a70173; session_id_vikramahuja=127.0.0.1-a555d16d-54b5-476d-a152-f88918b513fe'
p2824
asbasbasbag69
(g85
g71
NtRp2825
(dp2826
g74
(dp2827
sg83
g2533
sg76
(lp2828
g69
(g90
g71
NtRp2829
(dp2830
g74
(dp2831
g94
g95
ssg83
g2825
sg76
(lp2832
S'http_host'
p2833
asbag69
(g90
g71
NtRp2834
(dp2835
g74
(dp2836
g101
g102
ssg83
g2825
sg76
(lp2837
S':'
asbag69
(g90
g71
NtRp2838
(dp2839
g74
(dp2840
sg83
g2825
sg76
(lp2841
g69
(g70
g71
NtRp2842
(dp2843
g74
(dp2844
g82
I4
ssg83
g2838
sg76
(lp2845
S'127.0.0.1:8000'
p2846
asbasbasbag69
(g85
g71
NtRp2847
(dp2848
g74
(dp2849
sg83
g2533
sg76
(lp2850
g69
(g90
g71
NtRp2851
(dp2852
g74
(dp2853
g94
g95
ssg83
g2847
sg76
(lp2854
S'http_referer'
p2855
asbag69
(g90
g71
NtRp2856
(dp2857
g74
(dp2858
g101
g102
ssg83
g2847
sg76
(lp2859
S':'
asbag69
(g90
g71
NtRp2860
(dp2861
g74
(dp2862
sg83
g2847
sg76
(lp2863
g69
(g70
g71
NtRp2864
(dp2865
g74
(dp2866
g82
I4
ssg83
g2860
sg76
(lp2867
S'http://127.0.0.1:8000/admin/default/site'
p2868
asbasbasbag69
(g85
g71
NtRp2869
(dp2870
g74
(dp2871
sg83
g2533
sg76
(lp2872
g69
(g90
g71
NtRp2873
(dp2874
g74
(dp2875
g94
g95
ssg83
g2869
sg76
(lp2876
S'http_user_agent'
p2877
asbag69
(g90
g71
NtRp2878
(dp2879
g74
(dp2880
g101
g102
ssg83
g2869
sg76
(lp2881
S':'
asbag69
(g90
g71
NtRp2882
(dp2883
g74
(dp2884
sg83
g2869
sg76
(lp2885
g69
(g70
g71
NtRp2886
(dp2887
g74
(dp2888
g82
I4
ssg83
g2882
sg76
(lp2889
S'Mozilla/5.0 (X11; Ubuntu; Linux i686; rv:22.0) Gecko/20100101 Firefox/22.0'
p2890
asbasbasbag69
(g85
g71
NtRp2891
(dp2892
g74
(dp2893
sg83
g2533
sg76
(lp2894
g69
(g90
g71
NtRp2895
(dp2896
g74
(dp2897
g94
g95
ssg83
g2891
sg76
(lp2898
S'is_jython'
p2899
asbag69
(g90
g71
NtRp2900
(dp2901
g74
(dp2902
g101
g102
ssg83
g2891
sg76
(lp2903
S':'
asbag69
(g90
g71
NtRp2904
(dp2905
g74
(dp2906
sg83
g2891
sg76
(lp2907
g69
(g70
g71
NtRp2908
(dp2909
g74
(dp2910
g82
I4
ssg83
g2904
sg76
(lp2911
g112
asbasbasbag69
(g85
g71
NtRp2912
(dp2913
g74
(dp2914
sg83
g2533
sg76
(lp2915
g69
(g90
g71
NtRp2916
(dp2917
g74
(dp2918
g94
g95
ssg83
g2912
sg76
(lp2919
S'is_pypy'
p2920
asbag69
(g90
g71
NtRp2921
(dp2922
g74
(dp2923
g101
g102
ssg83
g2912
sg76
(lp2924
S':'
asbag69
(g90
g71
NtRp2925
(dp2926
g74
(dp2927
sg83
g2912
sg76
(lp2928
g69
(g70
g71
NtRp2929
(dp2930
g74
(dp2931
g82
I4
ssg83
g2925
sg76
(lp2932
g112
asbasbasbag69
(g85
g71
NtRp2933
(dp2934
g74
(dp2935
sg83
g2533
sg76
(lp2936
g69
(g90
g71
NtRp2937
(dp2938
g74
(dp2939
g94
g95
ssg83
g2933
sg76
(lp2940
S'local_hosts'
p2941
asbag69
(g90
g71
NtRp2942
(dp2943
g74
(dp2944
g101
g102
ssg83
g2933
sg76
(lp2945
S':'
asbag69
(g90
g71
NtRp2946
(dp2947
g74
(dp2948
sg83
g2933
sg76
(lp2949
g69
(g70
g71
NtRp2950
(dp2951
g74
(dp2952
g82
I4
ssg83
g2946
sg76
(lp2953
g69
(g78
g71
NtRp2954
(dp2955
g74
(dp2956
g82
I3
ssg83
Nsg76
(lp2957
g69
(g85
g71
NtRp2958
(dp2959
g74
(dp2960
sg83
g2954
sg76
(lp2961
g69
(g90
g71
NtRp2962
(dp2963
g74
(dp2964
sg83
g2958
sg76
(lp2965
g69
(g70
g71
NtRp2966
(dp2967
g74
(dp2968
g82
I3
ssg83
g2962
sg76
(lp2969
S'pankaj-HP-Pavilion-dv4-Notebook-PC'
p2970
asbasbasbag69
(g85
g71
NtRp2971
(dp2972
g74
(dp2973
sg83
g2954
sg76
(lp2974
g69
(g90
g71
NtRp2975
(dp2976
g74
(dp2977
sg83
g2971
sg76
(lp2978
g69
(g70
g71
NtRp2979
(dp2980
g74
(dp2981
g82
I3
ssg83
g2975
sg76
(lp2982
S'::1'
p2983
asbasbasbag69
(g85
g71
NtRp2984
(dp2985
g74
(dp2986
sg83
g2954
sg76
(lp2987
g69
(g90
g71
NtRp2988
(dp2989
g74
(dp2990
sg83
g2984
sg76
(lp2991
g69
(g70
g71
NtRp2992
(dp2993
g74
(dp2994
g82
I3
ssg83
g2988
sg76
(lp2995
S'127.0.1.1'
p2996
asbasbasbag69
(g85
g71
NtRp2997
(dp2998
g74
(dp2999
sg83
g2954
sg76
(lp3000
g69
(g90
g71
NtRp3001
(dp3002
g74
(dp3003
sg83
g2997
sg76
(lp3004
g69
(g70
g71
NtRp3005
(dp3006
g74
(dp3007
g82
I3
ssg83
g3001
sg76
(lp3008
S'::ffff:127.0.0.1'
p3009
asbasbasbag69
(g85
g71
NtRp3010
(dp3011
g74
(dp3012
sg83
g2954
sg76
(lp3013
g69
(g90
g71
NtRp3014
(dp3015
g74
(dp3016
sg83
g3010
sg76
(lp3017
g69
(g70
g71
NtRp3018
(dp3019
g74
(dp3020
g82
I3
ssg83
g3014
sg76
(lp3021
S'127.0.0.1'
p3022
asbasbasbasbasbasbasbag69
(g85
g71
NtRp3023
(dp3024
g74
(dp3025
sg83
g2533
sg76
(lp3026
g69
(g90
g71
NtRp3027
(dp3028
g74
(dp3029
g94
g95
ssg83
g3023
sg76
(lp3030
S'path_info'
p3031
asbag69
(g90
g71
NtRp3032
(dp3033
g74
(dp3034
g101
g102
ssg83
g3023
sg76
(lp3035
S':'
asbag69
(g90
g71
NtRp3036
(dp3037
g74
(dp3038
sg83
g3023
sg76
(lp3039
g69
(g70
g71
NtRp3040
(dp3041
g74
(dp3042
g82
I4
ssg83
g3036
sg76
(lp3043
S'/reddit/default/index'
p3044
asbasbasbag69
(g85
g71
NtRp3045
(dp3046
g74
(dp3047
sg83
g2533
sg76
(lp3048
g69
(g90
g71
NtRp3049
(dp3050
g74
(dp3051
g94
g95
ssg83
g3045
sg76
(lp3052
S'query_string'
p3053
asbag69
(g90
g71
NtRp3054
(dp3055
g74
(dp3056
g101
g102
ssg83
g3045
sg76
(lp3057
S':'
asbag69
(g90
g71
NtRp3058
(dp3059
g74
(dp3060
sg83
g3045
sg76
(lp3061
g69
(g70
g71
NtRp3062
(dp3063
g74
(dp3064
g82
I4
ssg83
g3058
sg76
(lp3065
S''
asbasbasbag69
(g85
g71
NtRp3066
(dp3067
g74
(dp3068
sg83
g2533
sg76
(lp3069
g69
(g90
g71
NtRp3070
(dp3071
g74
(dp3072
g94
g95
ssg83
g3066
sg76
(lp3073
S'remote_addr'
p3074
asbag69
(g90
g71
NtRp3075
(dp3076
g74
(dp3077
g101
g102
ssg83
g3066
sg76
(lp3078
S':'
asbag69
(g90
g71
NtRp3079
(dp3080
g74
(dp3081
sg83
g3066
sg76
(lp3082
g69
(g70
g71
NtRp3083
(dp3084
g74
(dp3085
g82
I4
ssg83
g3079
sg76
(lp3086
g224
asbasbasbag69
(g85
g71
NtRp3087
(dp3088
g74
(dp3089
sg83
g2533
sg76
(lp3090
g69
(g90
g71
NtRp3091
(dp3092
g74
(dp3093
g94
g95
ssg83
g3087
sg76
(lp3094
S'remote_port'
p3095
asbag69
(g90
g71
NtRp3096
(dp3097
g74
(dp3098
g101
g102
ssg83
g3087
sg76
(lp3099
S':'
asbag69
(g90
g71
NtRp3100
(dp3101
g74
(dp3102
sg83
g3087
sg76
(lp3103
g69
(g70
g71
NtRp3104
(dp3105
g74
(dp3106
g82
I4
ssg83
g3100
sg76
(lp3107
S'52118'
p3108
asbasbasbag69
(g85
g71
NtRp3109
(dp3110
g74
(dp3111
sg83
g2533
sg76
(lp3112
g69
(g90
g71
NtRp3113
(dp3114
g74
(dp3115
g94
g95
ssg83
g3109
sg76
(lp3116
S'request_method'
p3117
asbag69
(g90
g71
NtRp3118
(dp3119
g74
(dp3120
g101
g102
ssg83
g3109
sg76
(lp3121
S':'
asbag69
(g90
g71
NtRp3122
(dp3123
g74
(dp3124
sg83
g3109
sg76
(lp3125
g69
(g70
g71
NtRp3126
(dp3127
g74
(dp3128
g82
I4
ssg83
g3122
sg76
(lp3129
S'GET'
p3130
asbasbasbag69
(g85
g71
NtRp3131
(dp3132
g74
(dp3133
sg83
g2533
sg76
(lp3134
g69
(g90
g71
NtRp3135
(dp3136
g74
(dp3137
g94
g95
ssg83
g3131
sg76
(lp3138
S'request_uri'
p3139
asbag69
(g90
g71
NtRp3140
(dp3141
g74
(dp3142
g101
g102
ssg83
g3131
sg76
(lp3143
S':'
asbag69
(g90
g71
NtRp3144
(dp3145
g74
(dp3146
sg83
g3131
sg76
(lp3147
g69
(g70
g71
NtRp3148
(dp3149
g74
(dp3150
g82
I4
ssg83
g3144
sg76
(lp3151
g3044
asbasbasbag69
(g85
g71
NtRp3152
(dp3153
g74
(dp3154
sg83
g2533
sg76
(lp3155
g69
(g90
g71
NtRp3156
(dp3157
g74
(dp3158
g94
g95
ssg83
g3152
sg76
(lp3159
S'script_name'
p3160
asbag69
(g90
g71
NtRp3161
(dp3162
g74
(dp3163
g101
g102
ssg83
g3152
sg76
(lp3164
S':'
asbag69
(g90
g71
NtRp3165
(dp3166
g74
(dp3167
sg83
g3152
sg76
(lp3168
g69
(g70
g71
NtRp3169
(dp3170
g74
(dp3171
g82
I4
ssg83
g3165
sg76
(lp3172
S''
asbasbasbag69
(g85
g71
NtRp3173
(dp3174
g74
(dp3175
sg83
g2533
sg76
(lp3176
g69
(g90
g71
NtRp3177
(dp3178
g74
(dp3179
g94
g95
ssg83
g3173
sg76
(lp3180
S'server_name'
p3181
asbag69
(g90
g71
NtRp3182
(dp3183
g74
(dp3184
g101
g102
ssg83
g3173
sg76
(lp3185
S':'
asbag69
(g90
g71
NtRp3186
(dp3187
g74
(dp3188
sg83
g3173
sg76
(lp3189
g69
(g70
g71
NtRp3190
(dp3191
g74
(dp3192
g82
I4
ssg83
g3186
sg76
(lp3193
S'pankaj-HP-Pavilion-dv4-Notebook-PC'
p3194
asbasbasbag69
(g85
g71
NtRp3195
(dp3196
g74
(dp3197
sg83
g2533
sg76
(lp3198
g69
(g90
g71
NtRp3199
(dp3200
g74
(dp3201
g94
g95
ssg83
g3195
sg76
(lp3202
S'server_port'
p3203
asbag69
(g90
g71
NtRp3204
(dp3205
g74
(dp3206
g101
g102
ssg83
g3195
sg76
(lp3207
S':'
asbag69
(g90
g71
NtRp3208
(dp3209
g74
(dp3210
sg83
g3195
sg76
(lp3211
g69
(g70
g71
NtRp3212
(dp3213
g74
(dp3214
g82
I4
ssg83
g3208
sg76
(lp3215
S'8000'
p3216
asbasbasbag69
(g85
g71
NtRp3217
(dp3218
g74
(dp3219
sg83
g2533
sg76
(lp3220
g69
(g90
g71
NtRp3221
(dp3222
g74
(dp3223
g94
g95
ssg83
g3217
sg76
(lp3224
S'server_protocol'
p3225
asbag69
(g90
g71
NtRp3226
(dp3227
g74
(dp3228
g101
g102
ssg83
g3217
sg76
(lp3229
S':'
asbag69
(g90
g71
NtRp3230
(dp3231
g74
(dp3232
sg83
g3217
sg76
(lp3233
g69
(g70
g71
NtRp3234
(dp3235
g74
(dp3236
g82
I4
ssg83
g3230
sg76
(lp3237
S'HTTP/1.1'
p3238
asbasbasbag69
(g85
g71
NtRp3239
(dp3240
g74
(dp3241
sg83
g2533
sg76
(lp3242
g69
(g90
g71
NtRp3243
(dp3244
g74
(dp3245
g94
g95
ssg83
g3239
sg76
(lp3246
S'server_software'
p3247
asbag69
(g90
g71
NtRp3248
(dp3249
g74
(dp3250
g101
g102
ssg83
g3239
sg76
(lp3251
S':'
asbag69
(g90
g71
NtRp3252
(dp3253
g74
(dp3254
sg83
g3239
sg76
(lp3255
g69
(g70
g71
NtRp3256
(dp3257
g74
(dp3258
g82
I4
ssg83
g3252
sg76
(lp3259
S'Rocket 1.2.6'
p3260
asbasbasbag69
(g85
g71
NtRp3261
(dp3262
g74
(dp3263
sg83
g2533
sg76
(lp3264
g69
(g90
g71
NtRp3265
(dp3266
g74
(dp3267
g94
g95
ssg83
g3261
sg76
(lp3268
S'web2py_path'
p3269
asbag69
(g90
g71
NtRp3270
(dp3271
g74
(dp3272
g101
g102
ssg83
g3261
sg76
(lp3273
S':'
asbag69
(g90
g71
NtRp3274
(dp3275
g74
(dp3276
sg83
g3261
sg76
(lp3277
g69
(g70
g71
NtRp3278
(dp3279
g74
(dp3280
g82
I4
ssg83
g3274
sg76
(lp3281
g2580
asbasbasbag69
(g85
g71
NtRp3282
(dp3283
g74
(dp3284
sg83
g2533
sg76
(lp3285
g69
(g90
g71
NtRp3286
(dp3287
g74
(dp3288
g94
g95
ssg83
g3282
sg76
(lp3289
S'web2py_version'
p3290
asbag69
(g90
g71
NtRp3291
(dp3292
g74
(dp3293
g101
g102
ssg83
g3282
sg76
(lp3294
S':'
asbag69
(g90
g71
NtRp3295
(dp3296
g74
(dp3297
sg83
g3282
sg76
(lp3298
g69
(g70
g71
NtRp3299
(dp3300
g74
(dp3301
g82
I4
ssg83
g3295
sg76
(lp3302
g69
(g78
g71
NtRp3303
(dp3304
g74
(dp3305
g82
I3
ssg83
Nsg76
(lp3306
g69
(g85
g71
NtRp3307
(dp3308
g74
(dp3309
sg83
g3303
sg76
(lp3310
g69
(g90
g71
NtRp3311
(dp3312
g74
(dp3313
sg83
g3307
sg76
(lp3314
g69
(g70
g71
NtRp3315
(dp3316
g74
(dp3317
g82
I3
ssg83
g3311
sg76
(lp3318
S'2'
asbasbasbag69
(g85
g71
NtRp3319
(dp3320
g74
(dp3321
sg83
g3303
sg76
(lp3322
g69
(g90
g71
NtRp3323
(dp3324
g74
(dp3325
sg83
g3319
sg76
(lp3326
g69
(g70
g71
NtRp3327
(dp3328
g74
(dp3329
g82
I3
ssg83
g3323
sg76
(lp3330
S'3'
asbasbasbag69
(g85
g71
NtRp3331
(dp3332
g74
(dp3333
sg83
g3303
sg76
(lp3334
g69
(g90
g71
NtRp3335
(dp3336
g74
(dp3337
sg83
g3331
sg76
(lp3338
g69
(g70
g71
NtRp3339
(dp3340
g74
(dp3341
g82
I3
ssg83
g3335
sg76
(lp3342
S'2'
asbasbasbag69
(g85
g71
NtRp3343
(dp3344
g74
(dp3345
sg83
g3303
sg76
(lp3346
g69
(g90
g71
NtRp3347
(dp3348
g74
(dp3349
sg83
g3343
sg76
(lp3350
g69
(g70
g71
NtRp3351
(dp3352
g74
(dp3353
g82
I3
ssg83
g3347
sg76
(lp3354
S'datetime.datetime(2012, 12, 17, 15, 3, 30)'
p3355
asbasbasbag69
(g85
g71
NtRp3356
(dp3357
g74
(dp3358
sg83
g3303
sg76
(lp3359
g69
(g90
g71
NtRp3360
(dp3361
g74
(dp3362
sg83
g3356
sg76
(lp3363
g69
(g70
g71
NtRp3364
(dp3365
g74
(dp3366
g82
I3
ssg83
g3360
sg76
(lp3367
S'stable'
p3368
asbasbasbasbasbasbasbag69
(g85
g71
NtRp3369
(dp3370
g74
(dp3371
sg83
g2533
sg76
(lp3372
g69
(g90
g71
NtRp3373
(dp3374
g74
(dp3375
g94
g95
ssg83
g3369
sg76
(lp3376
S'wsgi_errors'
p3377
asbag69
(g90
g71
NtRp3378
(dp3379
g74
(dp3380
g101
g102
ssg83
g3369
sg76
(lp3381
S':'
asbag69
(g90
g71
NtRp3382
(dp3383
g74
(dp3384
sg83
g3369
sg76
(lp3385
g69
(g70
g71
NtRp3386
(dp3387
g74
(dp3388
g82
I4
ssg83
g3382
sg76
(lp3389
S"<open file '<stderr>', mode 'w' at 0xb72ac0d0>"
p3390
asbasbasbag69
(g85
g71
NtRp3391
(dp3392
g74
(dp3393
sg83
g2533
sg76
(lp3394
g69
(g90
g71
NtRp3395
(dp3396
g74
(dp3397
g94
g95
ssg83
g3391
sg76
(lp3398
S'wsgi_file_wrapper'
p3399
asbag69
(g90
g71
NtRp3400
(dp3401
g74
(dp3402
g101
g102
ssg83
g3391
sg76
(lp3403
S':'
asbag69
(g90
g71
NtRp3404
(dp3405
g74
(dp3406
sg83
g3391
sg76
(lp3407
g69
(g70
g71
NtRp3408
(dp3409
g74
(dp3410
g82
I4
ssg83
g3404
sg76
(lp3411
S'<class wsgiref.util.FileWrapper at 0x890f05c>'
p3412
asbasbasbag69
(g85
g71
NtRp3413
(dp3414
g74
(dp3415
sg83
g2533
sg76
(lp3416
g69
(g90
g71
NtRp3417
(dp3418
g74
(dp3419
g94
g95
ssg83
g3413
sg76
(lp3420
S'wsgi_input'
p3421
asbag69
(g90
g71
NtRp3422
(dp3423
g74
(dp3424
g101
g102
ssg83
g3413
sg76
(lp3425
S':'
asbag69
(g90
g71
NtRp3426
(dp3427
g74
(dp3428
sg83
g3413
sg76
(lp3429
g69
(g70
g71
NtRp3430
(dp3431
g74
(dp3432
g82
I4
ssg83
g3426
sg76
(lp3433
S'<socket._fileobject object at 0x8ef62ec>'
p3434
asbasbasbag69
(g85
g71
NtRp3435
(dp3436
g74
(dp3437
sg83
g2533
sg76
(lp3438
g69
(g90
g71
NtRp3439
(dp3440
g74
(dp3441
g94
g95
ssg83
g3435
sg76
(lp3442
S'wsgi_multiprocess'
p3443
asbag69
(g90
g71
NtRp3444
(dp3445
g74
(dp3446
g101
g102
ssg83
g3435
sg76
(lp3447
S':'
asbag69
(g90
g71
NtRp3448
(dp3449
g74
(dp3450
sg83
g3435
sg76
(lp3451
g69
(g70
g71
NtRp3452
(dp3453
g74
(dp3454
g82
I4
ssg83
g3448
sg76
(lp3455
g112
asbasbasbag69
(g85
g71
NtRp3456
(dp3457
g74
(dp3458
sg83
g2533
sg76
(lp3459
g69
(g90
g71
NtRp3460
(dp3461
g74
(dp3462
g94
g95
ssg83
g3456
sg76
(lp3463
S'wsgi_multithread'
p3464
asbag69
(g90
g71
NtRp3465
(dp3466
g74
(dp3467
g101
g102
ssg83
g3456
sg76
(lp3468
S':'
asbag69
(g90
g71
NtRp3469
(dp3470
g74
(dp3471
sg83
g3456
sg76
(lp3472
g69
(g70
g71
NtRp3473
(dp3474
g74
(dp3475
g82
I4
ssg83
g3469
sg76
(lp3476
S'True'
p3477
asbasbasbag69
(g85
g71
NtRp3478
(dp3479
g74
(dp3480
sg83
g2533
sg76
(lp3481
g69
(g90
g71
NtRp3482
(dp3483
g74
(dp3484
g94
g95
ssg83
g3478
sg76
(lp3485
S'wsgi_run_once'
p3486
asbag69
(g90
g71
NtRp3487
(dp3488
g74
(dp3489
g101
g102
ssg83
g3478
sg76
(lp3490
S':'
asbag69
(g90
g71
NtRp3491
(dp3492
g74
(dp3493
sg83
g3478
sg76
(lp3494
g69
(g70
g71
NtRp3495
(dp3496
g74
(dp3497
g82
I4
ssg83
g3491
sg76
(lp3498
g112
asbasbasbag69
(g85
g71
NtRp3499
(dp3500
g74
(dp3501
sg83
g2533
sg76
(lp3502
g69
(g90
g71
NtRp3503
(dp3504
g74
(dp3505
g94
g95
ssg83
g3499
sg76
(lp3506
S'wsgi_url_scheme'
p3507
asbag69
(g90
g71
NtRp3508
(dp3509
g74
(dp3510
g101
g102
ssg83
g3499
sg76
(lp3511
S':'
asbag69
(g90
g71
NtRp3512
(dp3513
g74
(dp3514
sg83
g3499
sg76
(lp3515
g69
(g70
g71
NtRp3516
(dp3517
g74
(dp3518
g82
I4
ssg83
g3512
sg76
(lp3519
S'http'
p3520
asbasbasbag69
(g85
g71
NtRp3521
(dp3522
g74
(dp3523
sg83
g2533
sg76
(lp3524
g69
(g90
g71
NtRp3525
(dp3526
g74
(dp3527
g94
g95
ssg83
g3521
sg76
(lp3528
S'wsgi_version'
p3529
asbag69
(g90
g71
NtRp3530
(dp3531
g74
(dp3532
g101
g102
ssg83
g3521
sg76
(lp3533
S':'
asbag69
(g90
g71
NtRp3534
(dp3535
g74
(dp3536
sg83
g3521
sg76
(lp3537
g69
(g70
g71
NtRp3538
(dp3539
g74
(dp3540
g82
I4
ssg83
g3534
sg76
(lp3541
g69
(g78
g71
NtRp3542
(dp3543
g74
(dp3544
g82
I3
ssg83
Nsg76
(lp3545
g69
(g85
g71
NtRp3546
(dp3547
g74
(dp3548
sg83
g3542
sg76
(lp3549
g69
(g90
g71
NtRp3550
(dp3551
g74
(dp3552
sg83
g3546
sg76
(lp3553
g69
(g70
g71
NtRp3554
(dp3555
g74
(dp3556
g82
I3
ssg83
g3550
sg76
(lp3557
S'1'
asbasbasbag69
(g85
g71
NtRp3558
(dp3559
g74
(dp3560
sg83
g3542
sg76
(lp3561
g69
(g90
g71
NtRp3562
(dp3563
g74
(dp3564
sg83
g3558
sg76
(lp3565
g69
(g70
g71
NtRp3566
(dp3567
g74
(dp3568
g82
I3
ssg83
g3562
sg76
(lp3569
S'0'
asbasbasbasbasbasbasbasbasbasbasbag69
(g85
g71
NtRp3570
(dp3571
g74
(dp3572
sg83
g79
sg76
(lp3573
g69
(g90
g71
NtRp3574
(dp3575
g74
(dp3576
g94
g95
ssg83
g3570
sg76
(lp3577
S'extension'
p3578
asbag69
(g90
g71
NtRp3579
(dp3580
g74
(dp3581
g101
g102
ssg83
g3570
sg76
(lp3582
S':'
asbag69
(g90
g71
NtRp3583
(dp3584
g74
(dp3585
sg83
g3570
sg76
(lp3586
g69
(g70
g71
NtRp3587
(dp3588
g74
(dp3589
g82
I5
ssg83
g3583
sg76
(lp3590
S'html'
p3591
asbasbasbag69
(g85
g71
NtRp3592
(dp3593
g74
(dp3594
sg83
g79
sg76
(lp3595
g69
(g90
g71
NtRp3596
(dp3597
g74
(dp3598
g94
g95
ssg83
g3592
sg76
(lp3599
S'folder'
p3600
asbag69
(g90
g71
NtRp3601
(dp3602
g74
(dp3603
g101
g102
ssg83
g3592
sg76
(lp3604
S':'
asbag69
(g90
g71
NtRp3605
(dp3606
g74
(dp3607
sg83
g3592
sg76
(lp3608
g69
(g70
g71
NtRp3609
(dp3610
g74
(dp3611
g82
I5
ssg83
g3605
sg76
(lp3612
S'/home/pankaj/web2py/applications/reddit/'
p3613
asbasbasbag69
(g85
g71
NtRp3614
(dp3615
g74
(dp3616
sg83
g79
sg76
(lp3617
g69
(g90
g71
NtRp3618
(dp3619
g74
(dp3620
g94
g95
ssg83
g3614
sg76
(lp3621
S'function'
p3622
asbag69
(g90
g71
NtRp3623
(dp3624
g74
(dp3625
g101
g102
ssg83
g3614
sg76
(lp3626
S':'
asbag69
(g90
g71
NtRp3627
(dp3628
g74
(dp3629
sg83
g3614
sg76
(lp3630
g69
(g70
g71
NtRp3631
(dp3632
g74
(dp3633
g82
I5
ssg83
g3627
sg76
(lp3634
S'index'
p3635
asbasbasbag69
(g85
g71
NtRp3636
(dp3637
g74
(dp3638
sg83
g79
sg76
(lp3639
g69
(g90
g71
NtRp3640
(dp3641
g74
(dp3642
g94
g95
ssg83
g3636
sg76
(lp3643
S'get_vars'
p3644
asbag69
(g90
g71
NtRp3645
(dp3646
g74
(dp3647
g101
g102
ssg83
g3636
sg76
(lp3648
S':'
asbag69
(g90
g71
NtRp3649
(dp3650
g74
(dp3651
sg83
g3636
sg76
(lp3652
g69
(g70
g71
NtRp3653
(dp3654
g74
(dp3655
g82
I5
ssg83
g3649
sg76
(lp3656
g69
(g78
g71
NtRp3657
(dp3658
g74
(dp3659
g82
I4
ssg83
Nsg76
(lp3660
sbasbasbasbag69
(g85
g71
NtRp3661
(dp3662
g74
(dp3663
sg83
g79
sg76
(lp3664
g69
(g90
g71
NtRp3665
(dp3666
g74
(dp3667
g94
g95
ssg83
g3661
sg76
(lp3668
S'global_settings'
p3669
asbag69
(g90
g71
NtRp3670
(dp3671
g74
(dp3672
g101
g102
ssg83
g3661
sg76
(lp3673
S':'
asbag69
(g90
g71
NtRp3674
(dp3675
g74
(dp3676
sg83
g3661
sg76
(lp3677
g69
(g70
g71
NtRp3678
(dp3679
g74
(dp3680
g82
I5
ssg83
g3674
sg76
(lp3681
g69
(g78
g71
NtRp3682
(dp3683
g74
(dp3684
g82
I4
ssg83
Nsg76
(lp3685
g69
(g85
g71
NtRp3686
(dp3687
g74
(dp3688
sg83
g3682
sg76
(lp3689
g69
(g90
g71
NtRp3690
(dp3691
g74
(dp3692
g94
g95
ssg83
g3686
sg76
(lp3693
g2545
asbag69
(g90
g71
NtRp3694
(dp3695
g74
(dp3696
g101
g102
ssg83
g3686
sg76
(lp3697
S':'
asbag69
(g90
g71
NtRp3698
(dp3699
g74
(dp3700
sg83
g3686
sg76
(lp3701
g69
(g70
g71
NtRp3702
(dp3703
g74
(dp3704
g82
I4
ssg83
g3698
sg76
(lp3705
S"set(['/home/pankaj/web2py/applications/admin/', '/home/pankaj/web2py/applications/welcome/', '/home/pankaj/web2py/applications/reddit/'])"
p3706
asbasbasbag69
(g85
g71
NtRp3707
(dp3708
g74
(dp3709
sg83
g3682
sg76
(lp3710
g69
(g90
g71
NtRp3711
(dp3712
g74
(dp3713
g94
g95
ssg83
g3707
sg76
(lp3714
g2567
asbag69
(g90
g71
NtRp3715
(dp3716
g74
(dp3717
g101
g102
ssg83
g3707
sg76
(lp3718
S':'
asbag69
(g90
g71
NtRp3719
(dp3720
g74
(dp3721
sg83
g3707
sg76
(lp3722
g69
(g70
g71
NtRp3723
(dp3724
g74
(dp3725
g82
I4
ssg83
g3719
sg76
(lp3726
g2580
asbasbasbag69
(g85
g71
NtRp3727
(dp3728
g74
(dp3729
sg83
g3682
sg76
(lp3730
g69
(g90
g71
NtRp3731
(dp3732
g74
(dp3733
g94
g95
ssg83
g3727
sg76
(lp3734
g2589
asbag69
(g90
g71
NtRp3735
(dp3736
g74
(dp3737
g101
g102
ssg83
g3727
sg76
(lp3738
S':'
asbag69
(g90
g71
NtRp3739
(dp3740
g74
(dp3741
sg83
g3727
sg76
(lp3742
g69
(g70
g71
NtRp3743
(dp3744
g74
(dp3745
g82
I4
ssg83
g3739
sg76
(lp3746
g69
(g78
g71
NtRp3747
(dp3748
g74
(dp3749
g82
I3
ssg83
Nsg76
(lp3750
sbasbasbasbag69
(g85
g71
NtRp3751
(dp3752
g74
(dp3753
sg83
g3682
sg76
(lp3754
g69
(g90
g71
NtRp3755
(dp3756
g74
(dp3757
g94
g95
ssg83
g3751
sg76
(lp3758
g2614
asbag69
(g90
g71
NtRp3759
(dp3760
g74
(dp3761
g101
g102
ssg83
g3751
sg76
(lp3762
S':'
asbag69
(g90
g71
NtRp3763
(dp3764
g74
(dp3765
sg83
g3751
sg76
(lp3766
g69
(g70
g71
NtRp3767
(dp3768
g74
(dp3769
g82
I4
ssg83
g3763
sg76
(lp3770
S"<Values at 0x8949dcc: {'verbose': False, 'ip': '127.0.0.1', 'with_scheduler': False, 'ips': [], 'shutdown_timeout': 5, 'taskbar': False, 'port': 8000, 'maxthreads': None, 'softcron': False, 'server_name': 'pankaj-HP-Pavilion-dv4-Notebook-PC', 'bpython': False, 'nogui': False, 'pid_filename': 'httpserver.pid', 'extcron': False, 'runcron': False, 'run_system_tests': False, 'test': None, 'folder': '/home/pankaj/web2py', 'config': '', 'import_models': False, 'winservice': '', 'shell': None, 'run': '', 'log_filename': 'httpserver.log', 'debuglevel': 30, 'args': [''], 'socket_timeout': 5, 'ssl_ca_certificate': None, 'scheduler': None, 'profiler_filename': None, 'ssl_private_key': '', 'scheduler_groups': None, 'password': '<ask>', 'request_queue_size': 5, 'ssl_certificate': '', 'cronjob': False, 'numthreads': None, 'quiet': False, 'interfaces': None, 'minthreads': None, 'timeout': 10, 'plain': False, 'nobanner': False}>"
p3771
asbasbasbag69
(g85
g71
NtRp3772
(dp3773
g74
(dp3774
sg83
g3682
sg76
(lp3775
g69
(g90
g71
NtRp3776
(dp3777
g74
(dp3778
g94
g95
ssg83
g3772
sg76
(lp3779
g2636
asbag69
(g90
g71
NtRp3780
(dp3781
g74
(dp3782
g101
g102
ssg83
g3772
sg76
(lp3783
S':'
asbag69
(g90
g71
NtRp3784
(dp3785
g74
(dp3786
sg83
g3772
sg76
(lp3787
g69
(g70
g71
NtRp3788
(dp3789
g74
(dp3790
g82
I4
ssg83
g3784
sg76
(lp3791
S'set([])'
p3792
asbasbasbag69
(g85
g71
NtRp3793
(dp3794
g74
(dp3795
sg83
g3682
sg76
(lp3796
g69
(g90
g71
NtRp3797
(dp3798
g74
(dp3799
g94
g95
ssg83
g3793
sg76
(lp3800
g2658
asbag69
(g90
g71
NtRp3801
(dp3802
g74
(dp3803
g101
g102
ssg83
g3793
sg76
(lp3804
S':'
asbag69
(g90
g71
NtRp3805
(dp3806
g74
(dp3807
sg83
g3793
sg76
(lp3808
g69
(g70
g71
NtRp3809
(dp3810
g74
(dp3811
g82
I4
ssg83
g3805
sg76
(lp3812
g112
asbasbasbag69
(g85
g71
NtRp3813
(dp3814
g74
(dp3815
sg83
g3682
sg76
(lp3816
g69
(g90
g71
NtRp3817
(dp3818
g74
(dp3819
g94
g95
ssg83
g3813
sg76
(lp3820
g2679
asbag69
(g90
g71
NtRp3821
(dp3822
g74
(dp3823
g101
g102
ssg83
g3813
sg76
(lp3824
S':'
asbag69
(g90
g71
NtRp3825
(dp3826
g74
(dp3827
sg83
g3813
sg76
(lp3828
g69
(g70
g71
NtRp3829
(dp3830
g74
(dp3831
g82
I4
ssg83
g3825
sg76
(lp3832
g2692
asbasbasbag69
(g85
g71
NtRp3833
(dp3834
g74
(dp3835
sg83
g3682
sg76
(lp3836
g69
(g90
g71
NtRp3837
(dp3838
g74
(dp3839
g94
g95
ssg83
g3833
sg76
(lp3840
g2899
asbag69
(g90
g71
NtRp3841
(dp3842
g74
(dp3843
g101
g102
ssg83
g3833
sg76
(lp3844
S':'
asbag69
(g90
g71
NtRp3845
(dp3846
g74
(dp3847
sg83
g3833
sg76
(lp3848
g69
(g70
g71
NtRp3849
(dp3850
g74
(dp3851
g82
I4
ssg83
g3845
sg76
(lp3852
g112
asbasbasbag69
(g85
g71
NtRp3853
(dp3854
g74
(dp3855
sg83
g3682
sg76
(lp3856
g69
(g90
g71
NtRp3857
(dp3858
g74
(dp3859
g94
g95
ssg83
g3853
sg76
(lp3860
g2920
asbag69
(g90
g71
NtRp3861
(dp3862
g74
(dp3863
g101
g102
ssg83
g3853
sg76
(lp3864
S':'
asbag69
(g90
g71
NtRp3865
(dp3866
g74
(dp3867
sg83
g3853
sg76
(lp3868
g69
(g70
g71
NtRp3869
(dp3870
g74
(dp3871
g82
I4
ssg83
g3865
sg76
(lp3872
g112
asbasbasbag69
(g85
g71
NtRp3873
(dp3874
g74
(dp3875
sg83
g3682
sg76
(lp3876
g69
(g90
g71
NtRp3877
(dp3878
g74
(dp3879
g94
g95
ssg83
g3873
sg76
(lp3880
g2941
asbag69
(g90
g71
NtRp3881
(dp3882
g74
(dp3883
g101
g102
ssg83
g3873
sg76
(lp3884
S':'
asbag69
(g90
g71
NtRp3885
(dp3886
g74
(dp3887
sg83
g3873
sg76
(lp3888
g69
(g70
g71
NtRp3889
(dp3890
g74
(dp3891
g82
I4
ssg83
g3885
sg76
(lp3892
g69
(g78
g71
NtRp3893
(dp3894
g74
(dp3895
g82
I3
ssg83
Nsg76
(lp3896
g69
(g85
g71
NtRp3897
(dp3898
g74
(dp3899
sg83
g3893
sg76
(lp3900
g69
(g90
g71
NtRp3901
(dp3902
g74
(dp3903
sg83
g3897
sg76
(lp3904
g69
(g70
g71
NtRp3905
(dp3906
g74
(dp3907
g82
I3
ssg83
g3901
sg76
(lp3908
g2970
asbasbasbag69
(g85
g71
NtRp3909
(dp3910
g74
(dp3911
sg83
g3893
sg76
(lp3912
g69
(g90
g71
NtRp3913
(dp3914
g74
(dp3915
sg83
g3909
sg76
(lp3916
g69
(g70
g71
NtRp3917
(dp3918
g74
(dp3919
g82
I3
ssg83
g3913
sg76
(lp3920
g2983
asbasbasbag69
(g85
g71
NtRp3921
(dp3922
g74
(dp3923
sg83
g3893
sg76
(lp3924
g69
(g90
g71
NtRp3925
(dp3926
g74
(dp3927
sg83
g3921
sg76
(lp3928
g69
(g70
g71
NtRp3929
(dp3930
g74
(dp3931
g82
I3
ssg83
g3925
sg76
(lp3932
g2996
asbasbasbag69
(g85
g71
NtRp3933
(dp3934
g74
(dp3935
sg83
g3893
sg76
(lp3936
g69
(g90
g71
NtRp3937
(dp3938
g74
(dp3939
sg83
g3933
sg76
(lp3940
g69
(g70
g71
NtRp3941
(dp3942
g74
(dp3943
g82
I3
ssg83
g3937
sg76
(lp3944
g3009
asbasbasbag69
(g85
g71
NtRp3945
(dp3946
g74
(dp3947
sg83
g3893
sg76
(lp3948
g69
(g90
g71
NtRp3949
(dp3950
g74
(dp3951
sg83
g3945
sg76
(lp3952
g69
(g70
g71
NtRp3953
(dp3954
g74
(dp3955
g82
I3
ssg83
g3949
sg76
(lp3956
g3022
asbasbasbasbasbasbasbag69
(g85
g71
NtRp3957
(dp3958
g74
(dp3959
sg83
g3682
sg76
(lp3960
g69
(g90
g71
NtRp3961
(dp3962
g74
(dp3963
g94
g95
ssg83
g3957
sg76
(lp3964
g3290
asbag69
(g90
g71
NtRp3965
(dp3966
g74
(dp3967
g101
g102
ssg83
g3957
sg76
(lp3968
S':'
asbag69
(g90
g71
NtRp3969
(dp3970
g74
(dp3971
sg83
g3957
sg76
(lp3972
g69
(g70
g71
NtRp3973
(dp3974
g74
(dp3975
g82
I4
ssg83
g3969
sg76
(lp3976
g69
(g78
g71
NtRp3977
(dp3978
g74
(dp3979
g82
I3
ssg83
Nsg76
(lp3980
g69
(g85
g71
NtRp3981
(dp3982
g74
(dp3983
sg83
g3977
sg76
(lp3984
g69
(g90
g71
NtRp3985
(dp3986
g74
(dp3987
sg83
g3981
sg76
(lp3988
g69
(g70
g71
NtRp3989
(dp3990
g74
(dp3991
g82
I3
ssg83
g3985
sg76
(lp3992
S'2'
asbasbasbag69
(g85
g71
NtRp3993
(dp3994
g74
(dp3995
sg83
g3977
sg76
(lp3996
g69
(g90
g71
NtRp3997
(dp3998
g74
(dp3999
sg83
g3993
sg76
(lp4000
g69
(g70
g71
NtRp4001
(dp4002
g74
(dp4003
g82
I3
ssg83
g3997
sg76
(lp4004
S'3'
asbasbasbag69
(g85
g71
NtRp4005
(dp4006
g74
(dp4007
sg83
g3977
sg76
(lp4008
g69
(g90
g71
NtRp4009
(dp4010
g74
(dp4011
sg83
g4005
sg76
(lp4012
g69
(g70
g71
NtRp4013
(dp4014
g74
(dp4015
g82
I3
ssg83
g4009
sg76
(lp4016
S'2'
asbasbasbag69
(g85
g71
NtRp4017
(dp4018
g74
(dp4019
sg83
g3977
sg76
(lp4020
g69
(g90
g71
NtRp4021
(dp4022
g74
(dp4023
sg83
g4017
sg76
(lp4024
g69
(g70
g71
NtRp4025
(dp4026
g74
(dp4027
g82
I3
ssg83
g4021
sg76
(lp4028
S'datetime.datetime(2012, 12, 17, 15, 3, 30)'
p4029
asbasbasbag69
(g85
g71
NtRp4030
(dp4031
g74
(dp4032
sg83
g3977
sg76
(lp4033
g69
(g90
g71
NtRp4034
(dp4035
g74
(dp4036
sg83
g4030
sg76
(lp4037
g69
(g70
g71
NtRp4038
(dp4039
g74
(dp4040
g82
I3
ssg83
g4034
sg76
(lp4041
g3368
asbasbasbasbasbasbasbasbasbasbasbag69
(g85
g71
NtRp4042
(dp4043
g74
(dp4044
sg83
g79
sg76
(lp4045
g69
(g90
g71
NtRp4046
(dp4047
g74
(dp4048
g94
g95
ssg83
g4042
sg76
(lp4049
S'is_https'
p4050
asbag69
(g90
g71
NtRp4051
(dp4052
g74
(dp4053
g101
g102
ssg83
g4042
sg76
(lp4054
S':'
asbag69
(g90
g71
NtRp4055
(dp4056
g74
(dp4057
sg83
g4042
sg76
(lp4058
g69
(g70
g71
NtRp4059
(dp4060
g74
(dp4061
g82
I5
ssg83
g4055
sg76
(lp4062
g112
asbasbasbag69
(g85
g71
NtRp4063
(dp4064
g74
(dp4065
sg83
g79
sg76
(lp4066
g69
(g90
g71
NtRp4067
(dp4068
g74
(dp4069
g94
g95
ssg83
g4063
sg76
(lp4070
S'is_local'
p4071
asbag69
(g90
g71
NtRp4072
(dp4073
g74
(dp4074
g101
g102
ssg83
g4063
sg76
(lp4075
S':'
asbag69
(g90
g71
NtRp4076
(dp4077
g74
(dp4078
sg83
g4063
sg76
(lp4079
g69
(g70
g71
NtRp4080
(dp4081
g74
(dp4082
g82
I5
ssg83
g4076
sg76
(lp4083
g3477
asbasbasbag69
(g85
g71
NtRp4084
(dp4085
g74
(dp4086
sg83
g79
sg76
(lp4087
g69
(g90
g71
NtRp4088
(dp4089
g74
(dp4090
g94
g95
ssg83
g4084
sg76
(lp4091
S'is_restful'
p4092
asbag69
(g90
g71
NtRp4093
(dp4094
g74
(dp4095
g101
g102
ssg83
g4084
sg76
(lp4096
S':'
asbag69
(g90
g71
NtRp4097
(dp4098
g74
(dp4099
sg83
g4084
sg76
(lp4100
g69
(g70
g71
NtRp4101
(dp4102
g74
(dp4103
g82
I5
ssg83
g4097
sg76
(lp4104
g112
asbasbasbag69
(g85
g71
NtRp4105
(dp4106
g74
(dp4107
sg83
g79
sg76
(lp4108
g69
(g90
g71
NtRp4109
(dp4110
g74
(dp4111
g94
g95
ssg83
g4105
sg76
(lp4112
S'now'
p4113
asbag69
(g90
g71
NtRp4114
(dp4115
g74
(dp4116
g101
g102
ssg83
g4105
sg76
(lp4117
S':'
asbag69
(g90
g71
NtRp4118
(dp4119
g74
(dp4120
sg83
g4105
sg76
(lp4121
g69
(g70
g71
NtRp4122
(dp4123
g74
(dp4124
g82
I5
ssg83
g4118
sg76
(lp4125
S'datetime.datetime(2013, 8, 28, 20, 40, 55, 789270)'
p4126
asbasbasbag69
(g85
g71
NtRp4127
(dp4128
g74
(dp4129
sg83
g79
sg76
(lp4130
g69
(g90
g71
NtRp4131
(dp4132
g74
(dp4133
g94
g95
ssg83
g4127
sg76
(lp4134
S'post_vars'
p4135
asbag69
(g90
g71
NtRp4136
(dp4137
g74
(dp4138
g101
g102
ssg83
g4127
sg76
(lp4139
S':'
asbag69
(g90
g71
NtRp4140
(dp4141
g74
(dp4142
sg83
g4127
sg76
(lp4143
g69
(g70
g71
NtRp4144
(dp4145
g74
(dp4146
g82
I5
ssg83
g4140
sg76
(lp4147
g69
(g78
g71
NtRp4148
(dp4149
g74
(dp4150
g82
I4
ssg83
Nsg76
(lp4151
sbasbasbasbag69
(g85
g71
NtRp4152
(dp4153
g74
(dp4154
sg83
g79
sg76
(lp4155
g69
(g90
g71
NtRp4156
(dp4157
g74
(dp4158
g94
g95
ssg83
g4152
sg76
(lp4159
S'raw_args'
p4160
asbag69
(g90
g71
NtRp4161
(dp4162
g74
(dp4163
g101
g102
ssg83
g4152
sg76
(lp4164
S':'
asbag69
(g90
g71
NtRp4165
(dp4166
g74
(dp4167
sg83
g4152
sg76
(lp4168
g69
(g70
g71
NtRp4169
(dp4170
g74
(dp4171
g82
I5
ssg83
g4165
sg76
(lp4172
S''
asbasbasbag69
(g85
g71
NtRp4173
(dp4174
g74
(dp4175
sg83
g79
sg76
(lp4176
g69
(g90
g71
NtRp4177
(dp4178
g74
(dp4179
g94
g95
ssg83
g4173
sg76
(lp4180
S'raw_extension'
p4181
asbag69
(g90
g71
NtRp4182
(dp4183
g74
(dp4184
g101
g102
ssg83
g4173
sg76
(lp4185
S':'
asbag69
(g90
g71
NtRp4186
(dp4187
g74
(dp4188
sg83
g4173
sg76
(lp4189
g69
(g70
g71
NtRp4190
(dp4191
g74
(dp4192
g82
I5
ssg83
g4186
sg76
(lp4193
S'None'
p4194
asbasbasbag69
(g85
g71
NtRp4195
(dp4196
g74
(dp4197
sg83
g79
sg76
(lp4198
g69
(g90
g71
NtRp4199
(dp4200
g74
(dp4201
g94
g95
ssg83
g4195
sg76
(lp4202
S'url'
p4203
asbag69
(g90
g71
NtRp4204
(dp4205
g74
(dp4206
g101
g102
ssg83
g4195
sg76
(lp4207
S':'
asbag69
(g90
g71
NtRp4208
(dp4209
g74
(dp4210
sg83
g4195
sg76
(lp4211
g69
(g70
g71
NtRp4212
(dp4213
g74
(dp4214
g82
I5
ssg83
g4208
sg76
(lp4215
g3044
asbasbasbag69
(g85
g71
NtRp4216
(dp4217
g74
(dp4218
sg83
g79
sg76
(lp4219
g69
(g90
g71
NtRp4220
(dp4221
g74
(dp4222
g94
g95
ssg83
g4216
sg76
(lp4223
S'utcnow'
p4224
asbag69
(g90
g71
NtRp4225
(dp4226
g74
(dp4227
g101
g102
ssg83
g4216
sg76
(lp4228
S':'
asbag69
(g90
g71
NtRp4229
(dp4230
g74
(dp4231
sg83
g4216
sg76
(lp4232
g69
(g70
g71
NtRp4233
(dp4234
g74
(dp4235
g82
I5
ssg83
g4229
sg76
(lp4236
S'datetime.datetime(2013, 8, 28, 15, 10, 55, 789328)'
p4237
asbasbasbag69
(g85
g71
NtRp4238
(dp4239
g74
(dp4240
sg83
g79
sg76
(lp4241
g69
(g90
g71
NtRp4242
(dp4243
g74
(dp4244
g94
g95
ssg83
g4238
sg76
(lp4245
S'uuid'
p4246
asbag69
(g90
g71
NtRp4247
(dp4248
g74
(dp4249
g101
g102
ssg83
g4238
sg76
(lp4250
S':'
asbag69
(g90
g71
NtRp4251
(dp4252
g74
(dp4253
sg83
g4238
sg76
(lp4254
g69
(g70
g71
NtRp4255
(dp4256
g74
(dp4257
g82
I5
ssg83
g4251
sg76
(lp4258
S'reddit/127.0.0.1.2013-08-28.20-40-55.ddcc1f3f-c892-4e3d-95ee-b7744b549337'
p4259
asbasbasbag69
(g85
g71
NtRp4260
(dp4261
g74
(dp4262
sg83
g79
sg76
(lp4263
g69
(g90
g71
NtRp4264
(dp4265
g74
(dp4266
g94
g95
ssg83
g4260
sg76
(lp4267
S'vars'
p4268
asbag69
(g90
g71
NtRp4269
(dp4270
g74
(dp4271
g101
g102
ssg83
g4260
sg76
(lp4272
S':'
asbag69
(g90
g71
NtRp4273
(dp4274
g74
(dp4275
sg83
g4260
sg76
(lp4276
g69
(g70
g71
NtRp4277
(dp4278
g74
(dp4279
g82
I5
ssg83
g4273
sg76
(lp4280
g69
(g78
g71
NtRp4281
(dp4282
g74
(dp4283
g82
I4
ssg83
Nsg76
(lp4284
sbasbasbasbag69
(g85
g71
NtRp4285
(dp4286
g74
(dp4287
sg83
g79
sg76
(lp4288
g69
(g90
g71
NtRp4289
(dp4290
g74
(dp4291
g94
g95
ssg83
g4285
sg76
(lp4292
S'wsgi'
p4293
asbag69
(g90
g71
NtRp4294
(dp4295
g74
(dp4296
g101
g102
ssg83
g4285
sg76
(lp4297
S':'
asbag69
(g90
g71
NtRp4298
(dp4299
g74
(dp4300
sg83
g4285
sg76
(lp4301
g69
(g70
g71
NtRp4302
(dp4303
g74
(dp4304
g82
I5
ssg83
g4298
sg76
(lp4305
g69
(g78
g71
NtRp4306
(dp4307
g74
(dp4308
g82
I4
ssg83
Nsg76
(lp4309
g69
(g85
g71
NtRp4310
(dp4311
g74
(dp4312
sg83
g4306
sg76
(lp4313
g69
(g90
g71
NtRp4314
(dp4315
g74
(dp4316
g94
g95
ssg83
g4310
sg76
(lp4317
S'environ'
p4318
asbag69
(g90
g71
NtRp4319
(dp4320
g74
(dp4321
g101
g102
ssg83
g4310
sg76
(lp4322
S':'
asbag69
(g90
g71
NtRp4323
(dp4324
g74
(dp4325
sg83
g4310
sg76
(lp4326
g69
(g70
g71
NtRp4327
(dp4328
g74
(dp4329
g82
I4
ssg83
g4323
sg76
(lp4330
g69
(g78
g71
NtRp4331
(dp4332
g74
(dp4333
g82
I3
ssg83
Nsg76
(lp4334
g69
(g85
g71
NtRp4335
(dp4336
g74
(dp4337
sg83
g4331
sg76
(lp4338
g69
(g90
g71
NtRp4339
(dp4340
g74
(dp4341
g94
g95
ssg83
g4335
sg76
(lp4342
S'HTTP_ACCEPT'
p4343
asbag69
(g90
g71
NtRp4344
(dp4345
g74
(dp4346
g101
g102
ssg83
g4335
sg76
(lp4347
S':'
asbag69
(g90
g71
NtRp4348
(dp4349
g74
(dp4350
sg83
g4335
sg76
(lp4351
g69
(g70
g71
NtRp4352
(dp4353
g74
(dp4354
g82
I3
ssg83
g4348
sg76
(lp4355
g2714
asbasbasbag69
(g85
g71
NtRp4356
(dp4357
g74
(dp4358
sg83
g4331
sg76
(lp4359
g69
(g90
g71
NtRp4360
(dp4361
g74
(dp4362
g94
g95
ssg83
g4356
sg76
(lp4363
S'HTTP_ACCEPT_ENCODING'
p4364
asbag69
(g90
g71
NtRp4365
(dp4366
g74
(dp4367
g101
g102
ssg83
g4356
sg76
(lp4368
S':'
asbag69
(g90
g71
NtRp4369
(dp4370
g74
(dp4371
sg83
g4356
sg76
(lp4372
g69
(g70
g71
NtRp4373
(dp4374
g74
(dp4375
g82
I3
ssg83
g4369
sg76
(lp4376
g2736
asbasbasbag69
(g85
g71
NtRp4377
(dp4378
g74
(dp4379
sg83
g4331
sg76
(lp4380
g69
(g90
g71
NtRp4381
(dp4382
g74
(dp4383
g94
g95
ssg83
g4377
sg76
(lp4384
S'HTTP_ACCEPT_LANGUAGE'
p4385
asbag69
(g90
g71
NtRp4386
(dp4387
g74
(dp4388
g101
g102
ssg83
g4377
sg76
(lp4389
S':'
asbag69
(g90
g71
NtRp4390
(dp4391
g74
(dp4392
sg83
g4377
sg76
(lp4393
g69
(g70
g71
NtRp4394
(dp4395
g74
(dp4396
g82
I3
ssg83
g4390
sg76
(lp4397
g2758
asbasbasbag69
(g85
g71
NtRp4398
(dp4399
g74
(dp4400
sg83
g4331
sg76
(lp4401
g69
(g90
g71
NtRp4402
(dp4403
g74
(dp4404
g94
g95
ssg83
g4398
sg76
(lp4405
S'HTTP_CACHE_CONTROL'
p4406
asbag69
(g90
g71
NtRp4407
(dp4408
g74
(dp4409
g101
g102
ssg83
g4398
sg76
(lp4410
S':'
asbag69
(g90
g71
NtRp4411
(dp4412
g74
(dp4413
sg83
g4398
sg76
(lp4414
g69
(g70
g71
NtRp4415
(dp4416
g74
(dp4417
g82
I3
ssg83
g4411
sg76
(lp4418
g2780
asbasbasbag69
(g85
g71
NtRp4419
(dp4420
g74
(dp4421
sg83
g4331
sg76
(lp4422
g69
(g90
g71
NtRp4423
(dp4424
g74
(dp4425
g94
g95
ssg83
g4419
sg76
(lp4426
S'HTTP_CONNECTION'
p4427
asbag69
(g90
g71
NtRp4428
(dp4429
g74
(dp4430
g101
g102
ssg83
g4419
sg76
(lp4431
S':'
asbag69
(g90
g71
NtRp4432
(dp4433
g74
(dp4434
sg83
g4419
sg76
(lp4435
g69
(g70
g71
NtRp4436
(dp4437
g74
(dp4438
g82
I3
ssg83
g4432
sg76
(lp4439
g2802
asbasbasbag69
(g85
g71
NtRp4440
(dp4441
g74
(dp4442
sg83
g4331
sg76
(lp4443
g69
(g90
g71
NtRp4444
(dp4445
g74
(dp4446
g94
g95
ssg83
g4440
sg76
(lp4447
S'HTTP_COOKIE'
p4448
asbag69
(g90
g71
NtRp4449
(dp4450
g74
(dp4451
g101
g102
ssg83
g4440
sg76
(lp4452
S':'
asbag69
(g90
g71
NtRp4453
(dp4454
g74
(dp4455
sg83
g4440
sg76
(lp4456
g69
(g70
g71
NtRp4457
(dp4458
g74
(dp4459
g82
I3
ssg83
g4453
sg76
(lp4460
g2824
asbasbasbag69
(g85
g71
NtRp4461
(dp4462
g74
(dp4463
sg83
g4331
sg76
(lp4464
g69
(g90
g71
NtRp4465
(dp4466
g74
(dp4467
g94
g95
ssg83
g4461
sg76
(lp4468
S'HTTP_HOST'
p4469
asbag69
(g90
g71
NtRp4470
(dp4471
g74
(dp4472
g101
g102
ssg83
g4461
sg76
(lp4473
S':'
asbag69
(g90
g71
NtRp4474
(dp4475
g74
(dp4476
sg83
g4461
sg76
(lp4477
g69
(g70
g71
NtRp4478
(dp4479
g74
(dp4480
g82
I3
ssg83
g4474
sg76
(lp4481
g2846
asbasbasbag69
(g85
g71
NtRp4482
(dp4483
g74
(dp4484
sg83
g4331
sg76
(lp4485
g69
(g90
g71
NtRp4486
(dp4487
g74
(dp4488
g94
g95
ssg83
g4482
sg76
(lp4489
S'HTTP_REFERER'
p4490
asbag69
(g90
g71
NtRp4491
(dp4492
g74
(dp4493
g101
g102
ssg83
g4482
sg76
(lp4494
S':'
asbag69
(g90
g71
NtRp4495
(dp4496
g74
(dp4497
sg83
g4482
sg76
(lp4498
g69
(g70
g71
NtRp4499
(dp4500
g74
(dp4501
g82
I3
ssg83
g4495
sg76
(lp4502
g2868
asbasbasbag69
(g85
g71
NtRp4503
(dp4504
g74
(dp4505
sg83
g4331
sg76
(lp4506
g69
(g90
g71
NtRp4507
(dp4508
g74
(dp4509
g94
g95
ssg83
g4503
sg76
(lp4510
S'HTTP_USER_AGENT'
p4511
asbag69
(g90
g71
NtRp4512
(dp4513
g74
(dp4514
g101
g102
ssg83
g4503
sg76
(lp4515
S':'
asbag69
(g90
g71
NtRp4516
(dp4517
g74
(dp4518
sg83
g4503
sg76
(lp4519
g69
(g70
g71
NtRp4520
(dp4521
g74
(dp4522
g82
I3
ssg83
g4516
sg76
(lp4523
g2890
asbasbasbag69
(g85
g71
NtRp4524
(dp4525
g74
(dp4526
sg83
g4331
sg76
(lp4527
g69
(g90
g71
NtRp4528
(dp4529
g74
(dp4530
g94
g95
ssg83
g4524
sg76
(lp4531
S'PATH_INFO'
p4532
asbag69
(g90
g71
NtRp4533
(dp4534
g74
(dp4535
g101
g102
ssg83
g4524
sg76
(lp4536
S':'
asbag69
(g90
g71
NtRp4537
(dp4538
g74
(dp4539
sg83
g4524
sg76
(lp4540
g69
(g70
g71
NtRp4541
(dp4542
g74
(dp4543
g82
I3
ssg83
g4537
sg76
(lp4544
g3044
asbasbasbag69
(g85
g71
NtRp4545
(dp4546
g74
(dp4547
sg83
g4331
sg76
(lp4548
g69
(g90
g71
NtRp4549
(dp4550
g74
(dp4551
g94
g95
ssg83
g4545
sg76
(lp4552
S'QUERY_STRING'
p4553
asbag69
(g90
g71
NtRp4554
(dp4555
g74
(dp4556
g101
g102
ssg83
g4545
sg76
(lp4557
S':'
asbag69
(g90
g71
NtRp4558
(dp4559
g74
(dp4560
sg83
g4545
sg76
(lp4561
g69
(g70
g71
NtRp4562
(dp4563
g74
(dp4564
g82
I3
ssg83
g4558
sg76
(lp4565
S''
asbasbasbag69
(g85
g71
NtRp4566
(dp4567
g74
(dp4568
sg83
g4331
sg76
(lp4569
g69
(g90
g71
NtRp4570
(dp4571
g74
(dp4572
g94
g95
ssg83
g4566
sg76
(lp4573
S'REMOTE_ADDR'
p4574
asbag69
(g90
g71
NtRp4575
(dp4576
g74
(dp4577
g101
g102
ssg83
g4566
sg76
(lp4578
S':'
asbag69
(g90
g71
NtRp4579
(dp4580
g74
(dp4581
sg83
g4566
sg76
(lp4582
g69
(g70
g71
NtRp4583
(dp4584
g74
(dp4585
g82
I3
ssg83
g4579
sg76
(lp4586
g224
asbasbasbag69
(g85
g71
NtRp4587
(dp4588
g74
(dp4589
sg83
g4331
sg76
(lp4590
g69
(g90
g71
NtRp4591
(dp4592
g74
(dp4593
g94
g95
ssg83
g4587
sg76
(lp4594
S'REMOTE_PORT'
p4595
asbag69
(g90
g71
NtRp4596
(dp4597
g74
(dp4598
g101
g102
ssg83
g4587
sg76
(lp4599
S':'
asbag69
(g90
g71
NtRp4600
(dp4601
g74
(dp4602
sg83
g4587
sg76
(lp4603
g69
(g70
g71
NtRp4604
(dp4605
g74
(dp4606
g82
I3
ssg83
g4600
sg76
(lp4607
g3108
asbasbasbag69
(g85
g71
NtRp4608
(dp4609
g74
(dp4610
sg83
g4331
sg76
(lp4611
g69
(g90
g71
NtRp4612
(dp4613
g74
(dp4614
g94
g95
ssg83
g4608
sg76
(lp4615
S'REQUEST_METHOD'
p4616
asbag69
(g90
g71
NtRp4617
(dp4618
g74
(dp4619
g101
g102
ssg83
g4608
sg76
(lp4620
S':'
asbag69
(g90
g71
NtRp4621
(dp4622
g74
(dp4623
sg83
g4608
sg76
(lp4624
g69
(g70
g71
NtRp4625
(dp4626
g74
(dp4627
g82
I3
ssg83
g4621
sg76
(lp4628
g3130
asbasbasbag69
(g85
g71
NtRp4629
(dp4630
g74
(dp4631
sg83
g4331
sg76
(lp4632
g69
(g90
g71
NtRp4633
(dp4634
g74
(dp4635
g94
g95
ssg83
g4629
sg76
(lp4636
S'REQUEST_URI'
p4637
asbag69
(g90
g71
NtRp4638
(dp4639
g74
(dp4640
g101
g102
ssg83
g4629
sg76
(lp4641
S':'
asbag69
(g90
g71
NtRp4642
(dp4643
g74
(dp4644
sg83
g4629
sg76
(lp4645
g69
(g70
g71
NtRp4646
(dp4647
g74
(dp4648
g82
I3
ssg83
g4642
sg76
(lp4649
g3044
asbasbasbag69
(g85
g71
NtRp4650
(dp4651
g74
(dp4652
sg83
g4331
sg76
(lp4653
g69
(g90
g71
NtRp4654
(dp4655
g74
(dp4656
g94
g95
ssg83
g4650
sg76
(lp4657
S'SCRIPT_NAME'
p4658
asbag69
(g90
g71
NtRp4659
(dp4660
g74
(dp4661
g101
g102
ssg83
g4650
sg76
(lp4662
S':'
asbag69
(g90
g71
NtRp4663
(dp4664
g74
(dp4665
sg83
g4650
sg76
(lp4666
g69
(g70
g71
NtRp4667
(dp4668
g74
(dp4669
g82
I3
ssg83
g4663
sg76
(lp4670
S''
asbasbasbag69
(g85
g71
NtRp4671
(dp4672
g74
(dp4673
sg83
g4331
sg76
(lp4674
g69
(g90
g71
NtRp4675
(dp4676
g74
(dp4677
g94
g95
ssg83
g4671
sg76
(lp4678
S'SERVER_NAME'
p4679
asbag69
(g90
g71
NtRp4680
(dp4681
g74
(dp4682
g101
g102
ssg83
g4671
sg76
(lp4683
S':'
asbag69
(g90
g71
NtRp4684
(dp4685
g74
(dp4686
sg83
g4671
sg76
(lp4687
g69
(g70
g71
NtRp4688
(dp4689
g74
(dp4690
g82
I3
ssg83
g4684
sg76
(lp4691
g3194
asbasbasbag69
(g85
g71
NtRp4692
(dp4693
g74
(dp4694
sg83
g4331
sg76
(lp4695
g69
(g90
g71
NtRp4696
(dp4697
g74
(dp4698
g94
g95
ssg83
g4692
sg76
(lp4699
S'SERVER_PORT'
p4700
asbag69
(g90
g71
NtRp4701
(dp4702
g74
(dp4703
g101
g102
ssg83
g4692
sg76
(lp4704
S':'
asbag69
(g90
g71
NtRp4705
(dp4706
g74
(dp4707
sg83
g4692
sg76
(lp4708
g69
(g70
g71
NtRp4709
(dp4710
g74
(dp4711
g82
I3
ssg83
g4705
sg76
(lp4712
g3216
asbasbasbag69
(g85
g71
NtRp4713
(dp4714
g74
(dp4715
sg83
g4331
sg76
(lp4716
g69
(g90
g71
NtRp4717
(dp4718
g74
(dp4719
g94
g95
ssg83
g4713
sg76
(lp4720
S'SERVER_PROTOCOL'
p4721
asbag69
(g90
g71
NtRp4722
(dp4723
g74
(dp4724
g101
g102
ssg83
g4713
sg76
(lp4725
S':'
asbag69
(g90
g71
NtRp4726
(dp4727
g74
(dp4728
sg83
g4713
sg76
(lp4729
g69
(g70
g71
NtRp4730
(dp4731
g74
(dp4732
g82
I3
ssg83
g4726
sg76
(lp4733
g3238
asbasbasbag69
(g85
g71
NtRp4734
(dp4735
g74
(dp4736
sg83
g4331
sg76
(lp4737
g69
(g90
g71
NtRp4738
(dp4739
g74
(dp4740
g94
g95
ssg83
g4734
sg76
(lp4741
S'SERVER_SOFTWARE'
p4742
asbag69
(g90
g71
NtRp4743
(dp4744
g74
(dp4745
g101
g102
ssg83
g4734
sg76
(lp4746
S':'
asbag69
(g90
g71
NtRp4747
(dp4748
g74
(dp4749
sg83
g4734
sg76
(lp4750
g69
(g70
g71
NtRp4751
(dp4752
g74
(dp4753
g82
I3
ssg83
g4747
sg76
(lp4754
g3260
asbasbasbag69
(g85
g71
NtRp4755
(dp4756
g74
(dp4757
sg83
g4331
sg76
(lp4758
g69
(g90
g71
NtRp4759
(dp4760
g74
(dp4761
g94
g95
ssg83
g4755
sg76
(lp4762
S'wsgi.errors'
p4763
asbag69
(g90
g71
NtRp4764
(dp4765
g74
(dp4766
g101
g102
ssg83
g4755
sg76
(lp4767
S':'
asbag69
(g90
g71
NtRp4768
(dp4769
g74
(dp4770
sg83
g4755
sg76
(lp4771
g69
(g70
g71
NtRp4772
(dp4773
g74
(dp4774
g82
I3
ssg83
g4768
sg76
(lp4775
S"<open file '<stderr>', mode 'w' at 0xb72ac0d0>"
p4776
asbasbasbag69
(g85
g71
NtRp4777
(dp4778
g74
(dp4779
sg83
g4331
sg76
(lp4780
g69
(g90
g71
NtRp4781
(dp4782
g74
(dp4783
g94
g95
ssg83
g4777
sg76
(lp4784
S'wsgi.file_wrapper'
p4785
asbag69
(g90
g71
NtRp4786
(dp4787
g74
(dp4788
g101
g102
ssg83
g4777
sg76
(lp4789
S':'
asbag69
(g90
g71
NtRp4790
(dp4791
g74
(dp4792
sg83
g4777
sg76
(lp4793
g69
(g70
g71
NtRp4794
(dp4795
g74
(dp4796
g82
I3
ssg83
g4790
sg76
(lp4797
S'<class wsgiref.util.FileWrapper at 0x890f05c>'
p4798
asbasbasbag69
(g85
g71
NtRp4799
(dp4800
g74
(dp4801
sg83
g4331
sg76
(lp4802
g69
(g90
g71
NtRp4803
(dp4804
g74
(dp4805
g94
g95
ssg83
g4799
sg76
(lp4806
S'wsgi.input'
p4807
asbag69
(g90
g71
NtRp4808
(dp4809
g74
(dp4810
g101
g102
ssg83
g4799
sg76
(lp4811
S':'
asbag69
(g90
g71
NtRp4812
(dp4813
g74
(dp4814
sg83
g4799
sg76
(lp4815
g69
(g70
g71
NtRp4816
(dp4817
g74
(dp4818
g82
I3
ssg83
g4812
sg76
(lp4819
S'<cStringIO.StringO object at 0xaeb29920>'
p4820
asbasbasbag69
(g85
g71
NtRp4821
(dp4822
g74
(dp4823
sg83
g4331
sg76
(lp4824
g69
(g90
g71
NtRp4825
(dp4826
g74
(dp4827
g94
g95
ssg83
g4821
sg76
(lp4828
S'wsgi.multiprocess'
p4829
asbag69
(g90
g71
NtRp4830
(dp4831
g74
(dp4832
g101
g102
ssg83
g4821
sg76
(lp4833
S':'
asbag69
(g90
g71
NtRp4834
(dp4835
g74
(dp4836
sg83
g4821
sg76
(lp4837
g69
(g70
g71
NtRp4838
(dp4839
g74
(dp4840
g82
I3
ssg83
g4834
sg76
(lp4841
g112
asbasbasbag69
(g85
g71
NtRp4842
(dp4843
g74
(dp4844
sg83
g4331
sg76
(lp4845
g69
(g90
g71
NtRp4846
(dp4847
g74
(dp4848
g94
g95
ssg83
g4842
sg76
(lp4849
S'wsgi.multithread'
p4850
asbag69
(g90
g71
NtRp4851
(dp4852
g74
(dp4853
g101
g102
ssg83
g4842
sg76
(lp4854
S':'
asbag69
(g90
g71
NtRp4855
(dp4856
g74
(dp4857
sg83
g4842
sg76
(lp4858
g69
(g70
g71
NtRp4859
(dp4860
g74
(dp4861
g82
I3
ssg83
g4855
sg76
(lp4862
g3477
asbasbasbag69
(g85
g71
NtRp4863
(dp4864
g74
(dp4865
sg83
g4331
sg76
(lp4866
g69
(g90
g71
NtRp4867
(dp4868
g74
(dp4869
g94
g95
ssg83
g4863
sg76
(lp4870
S'wsgi.run_once'
p4871
asbag69
(g90
g71
NtRp4872
(dp4873
g74
(dp4874
g101
g102
ssg83
g4863
sg76
(lp4875
S':'
asbag69
(g90
g71
NtRp4876
(dp4877
g74
(dp4878
sg83
g4863
sg76
(lp4879
g69
(g70
g71
NtRp4880
(dp4881
g74
(dp4882
g82
I3
ssg83
g4876
sg76
(lp4883
g112
asbasbasbag69
(g85
g71
NtRp4884
(dp4885
g74
(dp4886
sg83
g4331
sg76
(lp4887
g69
(g90
g71
NtRp4888
(dp4889
g74
(dp4890
g94
g95
ssg83
g4884
sg76
(lp4891
S'wsgi.url_scheme'
p4892
asbag69
(g90
g71
NtRp4893
(dp4894
g74
(dp4895
g101
g102
ssg83
g4884
sg76
(lp4896
S':'
asbag69
(g90
g71
NtRp4897
(dp4898
g74
(dp4899
sg83
g4884
sg76
(lp4900
g69
(g70
g71
NtRp4901
(dp4902
g74
(dp4903
g82
I3
ssg83
g4897
sg76
(lp4904
g3520
asbasbasbag69
(g85
g71
NtRp4905
(dp4906
g74
(dp4907
sg83
g4331
sg76
(lp4908
g69
(g90
g71
NtRp4909
(dp4910
g74
(dp4911
g94
g95
ssg83
g4905
sg76
(lp4912
S'wsgi.version'
p4913
asbag69
(g90
g71
NtRp4914
(dp4915
g74
(dp4916
g101
g102
ssg83
g4905
sg76
(lp4917
S':'
asbag69
(g90
g71
NtRp4918
(dp4919
g74
(dp4920
sg83
g4905
sg76
(lp4921
g69
(g70
g71
NtRp4922
(dp4923
g74
(dp4924
g82
I3
ssg83
g4918
sg76
(lp4925
S'1'
asbasbasbasbasbasbasbasbasbasbasbasbasbsS'frames'
p4926
(lp4927
(dp4928
S'file'
p4929
S'/home/pankaj/web2py/gluon/restricted.py'
p4930
sS'dump'
p4931
(dp4932
S'environment'
p4933
S"{'A': <class 'gluon.html.A'>, 'Auth': <class 'gluon.tools.Auth'>, 'B': <class 'gluon.html.B'>, 'BEAUTIFY': <class 'gluon.html.BEAUTIFY'>, 'BODY': <class 'gluon.html.BODY'>, 'BR': <class 'gluon.html.BR'>, 'BUTTON': <class 'gluon.html.BUTTON'>, 'CAT': <class 'gluon.html.CAT'>, 'CENTER': <class 'gluon.html.CENTER'>, 'CLEANUP': <class 'gluon.validators.CLEANUP'>, ...}"
p4934
sS'ccode'
p4935
S'<code object <module> at 0xaea72ec0, file "/home...eb2py/applications/reddit/models/db.py", line 12>'
p4936
ssS'lnum'
p4937
I212
sS'lines'
p4938
(dp4939
I207
S'    try:'
p4940
sI208
S'        if isinstance(code, types.CodeType):'
p4941
sI209
S'            ccode = code'
p4942
sI210
S'        else:'
p4943
sI211
S'            ccode = compile2(code, layer)'
p4944
sI212
S'        exec ccode in environment'
p4945
sI213
S'    except HTTP:'
p4946
sI214
S'        raise'
p4947
sI215
S'    except RestrictedError:'
p4948
sI216
S'        # do not encapsulate (obfuscate) the original RestrictedError'
p4949
ssS'call'
p4950
S"(code='# -*- coding: utf-8 -*-\\n\\n#######################...ble auditing\\n# auth.enable_record_versioning(db)\\n', environment={'A': <class 'gluon.html.A'>, 'Auth': <class 'gluon.tools.Auth'>, 'B': <class 'gluon.html.B'>, 'BEAUTIFY': <class 'gluon.html.BEAUTIFY'>, 'BODY': <class 'gluon.html.BODY'>, 'BR': <class 'gluon.html.BR'>, 'BUTTON': <class 'gluon.html.BUTTON'>, 'CAT': <class 'gluon.html.CAT'>, 'CENTER': <class 'gluon.html.CENTER'>, 'CLEANUP': <class 'gluon.validators.CLEANUP'>, ...}, layer='/home/pankaj/web2py/applications/reddit/models/db.py')"
p4951
sS'func'
p4952
S'restricted'
p4953
sa(dp4954
g4929
S'/home/pankaj/web2py/applications/reddit/models/db.py'
p4955
sg4931
(dp4956
S'default'
p4957
S'undefined'
p4958
sS'db.define_table'
p4959
S'<bound method DAL.define_table of <DAL uri="sqlite://storage.sqlite">>'
p4960
sS'builtinFalse'
p4961
g112
sS'db.Field'
p4962
S"<class 'gluon.dal.Field'>"
p4963
sS'request'
p4964
S"<Storage {'function': 'index', 'body': <cStringI...pplications/reddit/', 'post_vars': <Storage {}>}>"
p4965
sS'db'
p4966
S'<DAL uri="sqlite://storage.sqlite">'
p4967
sS'request.now'
p4968
S'datetime.datetime(2013, 8, 28, 20, 40, 55, 789270)'
p4969
sS'IS_IN_DB'
p4970
S"<class 'gluon.validators.IS_IN_DB'>"
p4971
sS'writable'
p4972
g4958
sS'IS_NOT_EMPTY'
p4973
S"<class 'gluon.validators.IS_NOT_EMPTY'>"
p4974
sS'label'
p4975
g4958
sS'requires'
p4976
g4958
ssg4937
I83
sg4938
(dp4977
I78
S"## >>> rows=db(db.mytable.myfield=='value').select(db.mytable.ALL)"
p4978
sI79
S'## >>> for row in rows: print row.id, row.myfield'
p4979
sI80
S'#########################################################################'
p4980
sI81
S"'''db.define_table('news',db.Field('head','string',requires=IS_NOT_    EMPTY(),label='Heading'),db.Field('url','string',requires=IS_URL(),label='Link'),db.Field('cat','string',db.category,IS_IN_DB(db,'category.name'),label='Category'),db.Field('username','string',requires=IS_IN_DB(db,'auth_user.username'),label='Username'),db.Field('date','datetime',default=request.now,writable=False,label='Date'),db.Field('rating','integer',default=100,label='Rating'))"
p4981
sI82
S"'''"
p4982
sI83
S"db.define_table('comments',db.Field('comment','text',requires=IS_NOT_EMPTY()),db.Field('username','string',requires=IS_IN_DB(db,'auth_user.username'),label='Username'),db.Field('date','datetime',default=request.now,writable=False,label='Date'),db.Field('rating','integer',default=100,label='Rating'))"
p4983
sI84
S''
sI85
S"db.define_table('category',db.Field('name','string',requires=IS_NOT_EMPTY(),label='Category'))"
p4984
sI86
S''
sI87
S''
ssg4950
S'()'
p4985
sg4952
S'<module>'
p4986
sa(dp4987
g4929
S'/home/pankaj/web2py/gluon/dal.py'
p4988
sg4931
(dp4989
S'fields'
p4990
S'(<gluon.dal.Field object>, <gluon.dal.Field object>, <gluon.dal.Field object>, <gluon.dal.Field object>)'
p4991
sS'self'
p4992
S'<DAL uri="sqlite://storage.sqlite">'
p4993
sS'args'
p4994
g21
sS'tablename'
p4995
S"'comments'"
p4996
sS'table'
p4997
g4958
sS'self.lazy_define_table'
p4998
S'<bound method DAL.lazy_define_table of <DAL uri="sqlite://storage.sqlite">>'
p4999
ssg4937
I7186
sg4938
(dp5000
I7181
S'                    % (tablename,invalid_args))'
p5001
sI7182
S'        if self._lazy_tables and not tablename in self._LAZY_TABLES:'
p5002
sI7183
S'            self._LAZY_TABLES[tablename] = (tablename,fields,args)'
p5003
sI7184
S'            table = None'
p5004
sI7185
S'        else:'
p5005
sI7186
S'            table = self.lazy_define_table(tablename,*fields,**args)'
p5006
sI7187
S'        if not tablename in self.tables:'
p5007
sI7188
S'            self.tables.append(tablename)'
p5008
sI7189
S'        return table'
p5009
sI7190
S''
ssg4950
S'(self=<DAL uri="sqlite://storage.sqlite">, tablename=\'comments\', *fields=(<gluon.dal.Field object>, <gluon.dal.Field object>, <gluon.dal.Field object>, <gluon.dal.Field object>), **args={})'
p5010
sg4952
S'define_table'
p5011
sa(dp5012
g4929
S'/home/pankaj/web2py/gluon/dal.py'
p5013
sg4931
(dp5014
S'fields'
p5015
S'(<gluon.dal.Field object>, <gluon.dal.Field object>, <gluon.dal.Field object>, <gluon.dal.Field object>)'
p5016
sS'self'
p5017
S'<DAL uri="sqlite://storage.sqlite">'
p5018
sS'args'
p5019
g21
sS'tablename'
p5020
S"'comments'"
p5021
sS'table_class'
p5022
S"<class 'gluon.dal.Table'>"
p5023
sS'table'
p5024
g4958
ssg4937
I7203
sg4938
(dp5025
I7200
S'            fields = list(fields) + list(common_fields)'
p5026
sI7201
S''
sI7202
S"        table_class = args_get('table_class',Table)"
p5027
sI7203
S'        table = table_class(self, tablename, *fields, **args)'
p5028
sI7204
S'        table._actual = True'
p5029
sI7205
S'        self[tablename] = table'
p5030
sI7206
S'        # must follow above line to handle self references'
p5031
sI7207
S'        table._create_references()'
p5032
sI7198
S'        common_fields = self._common_fields'
p5033
sI7199
S'        if common_fields:'
p5034
ssg4950
S'(self=<DAL uri="sqlite://storage.sqlite">, tablename=\'comments\', *fields=(<gluon.dal.Field object>, <gluon.dal.Field object>, <gluon.dal.Field object>, <gluon.dal.Field object>), **args={})'
p5035
sg4952
S'lazy_define_table'
p5036
sa(dp5037
g4929
S'/home/pankaj/web2py/gluon/dal.py'
p5038
sg4931
(dp5039
S'field_name'
p5040
S"'comment'"
p5041
sS'db.check_reserved_keyword'
p5042
S'<bound method DAL.check_reserved_keyword of <DAL uri="sqlite://storage.sqlite">>'
p5043
sS'db'
p5044
S'<DAL uri="sqlite://storage.sqlite">'
p5045
ssg4937
I7609
sg4938
(dp5046
I7604
S'        lower_fieldnames = set()'
p5047
sI7605
S"        reserved = dir(Table) + ['fields']"
p5048
sI7606
S'        for field in fields:'
p5049
sI7607
S'            field_name = field.name'
p5050
sI7608
S'            if db and db.check_reserved:'
p5051
sI7609
S'                db.check_reserved_keyword(field_name)'
p5052
sI7610
S'            elif field_name in reserved:'
p5053
sI7611
S'                raise SyntaxError("field name %s not allowed" % field_name)'
p5054
sI7612
S''
sI7613
S'            if field_name.lower() in lower_fieldnames:'
p5055
ssg4950
S'(self=<Table comments (id)>, db=<DAL uri="sqlite://storage.sqlite">, tablename=\'comments\', *fields=[<gluon.dal.Field object>, <gluon.dal.Field object>, <gluon.dal.Field object>, <gluon.dal.Field object>, <gluon.dal.Field object>], **args={})'
p5056
sg4952
g24
sa(dp5057
g4929
S'/home/pankaj/web2py/gluon/dal.py'
p5058
sg4931
(dp5059
S'backend.upper'
p5060
S'<built-in method upper of str object>'
p5061
sS'name'
p5062
S"'comment'"
p5063
sS'backend'
p5064
S"'all'"
p5065
ssg4937
I6930
sg4938
(dp5066
I6925
S"        ['all']"
p5067
sI6926
S'        """'
p5068
sI6927
S'        for backend in self.check_reserved:'
p5069
sI6928
S'            if name.upper() in self.RSK[backend]:'
p5070
sI6929
S'                raise SyntaxError('
p5071
sI6930
S'                    \'invalid table/column name "%s" is a "%s" reserved SQL keyword\' % (name, backend.upper()))'
p5072
sI6931
S''
sI6932
S'    def parse_as_rest(self,patterns,args,vars,queries=None,nested_select=True):'
p5073
sI6933
S'        """'
p5074
sI6934
S'        EXAMPLE:'
p5075
ssg4950
S'(self=<DAL uri="sqlite://storage.sqlite">, name=\'comment\')'
p5076
sg4952
S'check_reserved_keyword'
p5077
sasS'pyver'
p5078
S'Python 2.7.3: /usr/bin/python'
p5079
sS'session'
p5080
g69
(g70
g71
NtRp5081
(dp5082
g74
(dp5083
sg76
(lp5084
g69
(g78
g71
NtRp5085
(dp5086
g74
(dp5087
g82
I5
ssg83
Nsg76
(lp5088
sbasbsS'etype'
p5089
S"<type 'exceptions.SyntaxError'>"
p5090
sS'date'
p5091
S'Wed Aug 28 20:40:56 2013'
p5092
sS'response'
p5093
g69
(g70
g71
NtRp5094
(dp5095
g74
(dp5096
sg76
(lp5097
g69
(g78
g71
NtRp5098
(dp5099
g74
(dp5100
g82
I5
ssg83
Nsg76
(lp5101
g69
(g85
g71
NtRp5102
(dp5103
g74
(dp5104
sg83
g5098
sg76
(lp5105
g69
(g90
g71
NtRp5106
(dp5107
g74
(dp5108
g94
g95
ssg83
g5102
sg76
(lp5109
g167
asbag69
(g90
g71
NtRp5110
(dp5111
g74
(dp5112
g101
g102
ssg83
g5102
sg76
(lp5113
S':'
asbag69
(g90
g71
NtRp5114
(dp5115
g74
(dp5116
sg83
g5102
sg76
(lp5117
g69
(g70
g71
NtRp5118
(dp5119
g74
(dp5120
g82
I5
ssg83
g5114
sg76
(lp5121
S'<cStringIO.StringO object at 0x8c6c860>'
p5122
asbasbasbag69
(g85
g71
NtRp5123
(dp5124
g74
(dp5125
sg83
g5098
sg76
(lp5126
g69
(g90
g71
NtRp5127
(dp5128
g74
(dp5129
g94
g95
ssg83
g5123
sg76
(lp5130
g255
asbag69
(g90
g71
NtRp5131
(dp5132
g74
(dp5133
g101
g102
ssg83
g5123
sg76
(lp5134
S':'
asbag69
(g90
g71
NtRp5135
(dp5136
g74
(dp5137
sg83
g5123
sg76
(lp5138
g69
(g70
g71
NtRp5139
(dp5140
g74
(dp5141
g82
I5
ssg83
g5135
sg76
(lp5142
g69
(g78
g71
NtRp5143
(dp5144
g74
(dp5145
g82
I4
ssg83
Nsg76
(lp5146
g69
(g85
g71
NtRp5147
(dp5148
g74
(dp5149
sg83
g5143
sg76
(lp5150
g69
(g90
g71
NtRp5151
(dp5152
g74
(dp5153
g94
g95
ssg83
g5147
sg76
(lp5154
S'session_id_reddit'
p5155
asbag69
(g90
g71
NtRp5156
(dp5157
g74
(dp5158
g101
g102
ssg83
g5147
sg76
(lp5159
S':'
asbag69
(g90
g71
NtRp5160
(dp5161
g74
(dp5162
sg83
g5147
sg76
(lp5163
g69
(g70
g71
NtRp5164
(dp5165
g74
(dp5166
g82
I4
ssg83
g5160
sg76
(lp5167
S'127.0.0.1-2a60fe75-186f-4f09-ba94-d6426dad4ca7'
p5168
ag69
(g78
g71
NtRp5169
(dp5170
g74
(dp5171
g82
I3
ssg83
Nsg76
(lp5172
g69
(g85
g71
NtRp5173
(dp5174
g74
(dp5175
sg83
g5169
sg76
(lp5176
g69
(g90
g71
NtRp5177
(dp5178
g74
(dp5179
g94
g95
ssg83
g5173
sg76
(lp5180
g306
asbag69
(g90
g71
NtRp5181
(dp5182
g74
(dp5183
g101
g102
ssg83
g5173
sg76
(lp5184
S':'
asbag69
(g90
g71
NtRp5185
(dp5186
g74
(dp5187
sg83
g5173
sg76
(lp5188
g69
(g70
g71
NtRp5189
(dp5190
g74
(dp5191
g82
I3
ssg83
g5185
sg76
(lp5192
S''
asbasbasbag69
(g85
g71
NtRp5193
(dp5194
g74
(dp5195
sg83
g5169
sg76
(lp5196
g69
(g90
g71
NtRp5197
(dp5198
g74
(dp5199
g94
g95
ssg83
g5193
sg76
(lp5200
g327
asbag69
(g90
g71
NtRp5201
(dp5202
g74
(dp5203
g101
g102
ssg83
g5193
sg76
(lp5204
S':'
asbag69
(g90
g71
NtRp5205
(dp5206
g74
(dp5207
sg83
g5193
sg76
(lp5208
g69
(g70
g71
NtRp5209
(dp5210
g74
(dp5211
g82
I3
ssg83
g5205
sg76
(lp5212
S''
asbasbasbag69
(g85
g71
NtRp5213
(dp5214
g74
(dp5215
sg83
g5169
sg76
(lp5216
g69
(g90
g71
NtRp5217
(dp5218
g74
(dp5219
g94
g95
ssg83
g5213
sg76
(lp5220
g348
asbag69
(g90
g71
NtRp5221
(dp5222
g74
(dp5223
g101
g102
ssg83
g5213
sg76
(lp5224
S':'
asbag69
(g90
g71
NtRp5225
(dp5226
g74
(dp5227
sg83
g5213
sg76
(lp5228
g69
(g70
g71
NtRp5229
(dp5230
g74
(dp5231
g82
I3
ssg83
g5225
sg76
(lp5232
S''
asbasbasbag69
(g85
g71
NtRp5233
(dp5234
g74
(dp5235
sg83
g5169
sg76
(lp5236
g69
(g90
g71
NtRp5237
(dp5238
g74
(dp5239
g94
g95
ssg83
g5233
sg76
(lp5240
g369
asbag69
(g90
g71
NtRp5241
(dp5242
g74
(dp5243
g101
g102
ssg83
g5233
sg76
(lp5244
S':'
asbag69
(g90
g71
NtRp5245
(dp5246
g74
(dp5247
sg83
g5233
sg76
(lp5248
g69
(g70
g71
NtRp5249
(dp5250
g74
(dp5251
g82
I3
ssg83
g5245
sg76
(lp5252
S''
asbasbasbag69
(g85
g71
NtRp5253
(dp5254
g74
(dp5255
sg83
g5169
sg76
(lp5256
g69
(g90
g71
NtRp5257
(dp5258
g74
(dp5259
g94
g95
ssg83
g5253
sg76
(lp5260
g390
asbag69
(g90
g71
NtRp5261
(dp5262
g74
(dp5263
g101
g102
ssg83
g5253
sg76
(lp5264
S':'
asbag69
(g90
g71
NtRp5265
(dp5266
g74
(dp5267
sg83
g5253
sg76
(lp5268
g69
(g70
g71
NtRp5269
(dp5270
g74
(dp5271
g82
I3
ssg83
g5265
sg76
(lp5272
S''
asbasbasbag69
(g85
g71
NtRp5273
(dp5274
g74
(dp5275
sg83
g5169
sg76
(lp5276
g69
(g90
g71
NtRp5277
(dp5278
g74
(dp5279
g94
g95
ssg83
g5273
sg76
(lp5280
g411
asbag69
(g90
g71
NtRp5281
(dp5282
g74
(dp5283
g101
g102
ssg83
g5273
sg76
(lp5284
S':'
asbag69
(g90
g71
NtRp5285
(dp5286
g74
(dp5287
sg83
g5273
sg76
(lp5288
g69
(g70
g71
NtRp5289
(dp5290
g74
(dp5291
g82
I3
ssg83
g5285
sg76
(lp5292
S'/'
asbasbasbag69
(g85
g71
NtRp5293
(dp5294
g74
(dp5295
sg83
g5169
sg76
(lp5296
g69
(g90
g71
NtRp5297
(dp5298
g74
(dp5299
g94
g95
ssg83
g5293
sg76
(lp5300
g432
asbag69
(g90
g71
NtRp5301
(dp5302
g74
(dp5303
g101
g102
ssg83
g5293
sg76
(lp5304
S':'
asbag69
(g90
g71
NtRp5305
(dp5306
g74
(dp5307
sg83
g5293
sg76
(lp5308
g69
(g70
g71
NtRp5309
(dp5310
g74
(dp5311
g82
I3
ssg83
g5305
sg76
(lp5312
S''
asbasbasbag69
(g85
g71
NtRp5313
(dp5314
g74
(dp5315
sg83
g5169
sg76
(lp5316
g69
(g90
g71
NtRp5317
(dp5318
g74
(dp5319
g94
g95
ssg83
g5313
sg76
(lp5320
g453
asbag69
(g90
g71
NtRp5321
(dp5322
g74
(dp5323
g101
g102
ssg83
g5313
sg76
(lp5324
S':'
asbag69
(g90
g71
NtRp5325
(dp5326
g74
(dp5327
sg83
g5313
sg76
(lp5328
g69
(g70
g71
NtRp5329
(dp5330
g74
(dp5331
g82
I3
ssg83
g5325
sg76
(lp5332
S''
asbasbasbasbasbasbasbasbasbasbasbag69
(g85
g71
NtRp5333
(dp5334
g74
(dp5335
sg83
g5098
sg76
(lp5336
g69
(g90
g71
NtRp5337
(dp5338
g74
(dp5339
g94
g95
ssg83
g5333
sg76
(lp5340
S'delimiters'
p5341
asbag69
(g90
g71
NtRp5342
(dp5343
g74
(dp5344
g101
g102
ssg83
g5333
sg76
(lp5345
S':'
asbag69
(g90
g71
NtRp5346
(dp5347
g74
(dp5348
sg83
g5333
sg76
(lp5349
g69
(g70
g71
NtRp5350
(dp5351
g74
(dp5352
g82
I5
ssg83
g5346
sg76
(lp5353
g69
(g78
g71
NtRp5354
(dp5355
g74
(dp5356
g82
I4
ssg83
Nsg76
(lp5357
g69
(g85
g71
NtRp5358
(dp5359
g74
(dp5360
sg83
g5354
sg76
(lp5361
g69
(g90
g71
NtRp5362
(dp5363
g74
(dp5364
sg83
g5358
sg76
(lp5365
g69
(g70
g71
NtRp5366
(dp5367
g74
(dp5368
g82
I4
ssg83
g5362
sg76
(lp5369
S'{{'
p5370
asbasbasbag69
(g85
g71
NtRp5371
(dp5372
g74
(dp5373
sg83
g5354
sg76
(lp5374
g69
(g90
g71
NtRp5375
(dp5376
g74
(dp5377
sg83
g5371
sg76
(lp5378
g69
(g70
g71
NtRp5379
(dp5380
g74
(dp5381
g82
I4
ssg83
g5375
sg76
(lp5382
S'}}'
p5383
asbasbasbasbasbasbasbag69
(g85
g71
NtRp5384
(dp5385
g74
(dp5386
sg83
g5098
sg76
(lp5387
g69
(g90
g71
NtRp5388
(dp5389
g74
(dp5390
g94
g95
ssg83
g5384
sg76
(lp5391
S'files'
p5392
asbag69
(g90
g71
NtRp5393
(dp5394
g74
(dp5395
g101
g102
ssg83
g5384
sg76
(lp5396
S':'
asbag69
(g90
g71
NtRp5397
(dp5398
g74
(dp5399
sg83
g5384
sg76
(lp5400
g69
(g70
g71
NtRp5401
(dp5402
g74
(dp5403
g82
I5
ssg83
g5397
sg76
(lp5404
g69
(g78
g71
NtRp5405
(dp5406
g74
(dp5407
g82
I4
ssg83
Nsg76
(lp5408
sbasbasbasbag69
(g85
g71
NtRp5409
(dp5410
g74
(dp5411
sg83
g5098
sg76
(lp5412
g69
(g90
g71
NtRp5413
(dp5414
g74
(dp5415
g94
g95
ssg83
g5409
sg76
(lp5416
S'flash'
p5417
asbag69
(g90
g71
NtRp5418
(dp5419
g74
(dp5420
g101
g102
ssg83
g5409
sg76
(lp5421
S':'
asbag69
(g90
g71
NtRp5422
(dp5423
g74
(dp5424
sg83
g5409
sg76
(lp5425
g69
(g70
g71
NtRp5426
(dp5427
g74
(dp5428
g82
I5
ssg83
g5422
sg76
(lp5429
S''
asbasbasbag69
(g85
g71
NtRp5430
(dp5431
g74
(dp5432
sg83
g5098
sg76
(lp5433
g69
(g90
g71
NtRp5434
(dp5435
g74
(dp5436
g94
g95
ssg83
g5430
sg76
(lp5437
S'generic_patterns'
p5438
asbag69
(g90
g71
NtRp5439
(dp5440
g74
(dp5441
g101
g102
ssg83
g5430
sg76
(lp5442
S':'
asbag69
(g90
g71
NtRp5443
(dp5444
g74
(dp5445
sg83
g5430
sg76
(lp5446
g69
(g70
g71
NtRp5447
(dp5448
g74
(dp5449
g82
I5
ssg83
g5443
sg76
(lp5450
g69
(g78
g71
NtRp5451
(dp5452
g74
(dp5453
g82
I4
ssg83
Nsg76
(lp5454
g69
(g85
g71
NtRp5455
(dp5456
g74
(dp5457
sg83
g5451
sg76
(lp5458
g69
(g90
g71
NtRp5459
(dp5460
g74
(dp5461
sg83
g5455
sg76
(lp5462
g69
(g70
g71
NtRp5463
(dp5464
g74
(dp5465
g82
I4
ssg83
g5459
sg76
(lp5466
S'*'
asbasbasbasbasbasbasbag69
(g85
g71
NtRp5467
(dp5468
g74
(dp5469
sg83
g5098
sg76
(lp5470
g69
(g90
g71
NtRp5471
(dp5472
g74
(dp5473
g94
g95
ssg83
g5467
sg76
(lp5474
S'headers'
p5475
asbag69
(g90
g71
NtRp5476
(dp5477
g74
(dp5478
g101
g102
ssg83
g5467
sg76
(lp5479
S':'
asbag69
(g90
g71
NtRp5480
(dp5481
g74
(dp5482
sg83
g5467
sg76
(lp5483
g69
(g70
g71
NtRp5484
(dp5485
g74
(dp5486
g82
I5
ssg83
g5480
sg76
(lp5487
g69
(g78
g71
NtRp5488
(dp5489
g74
(dp5490
g82
I4
ssg83
Nsg76
(lp5491
g69
(g85
g71
NtRp5492
(dp5493
g74
(dp5494
sg83
g5488
sg76
(lp5495
g69
(g90
g71
NtRp5496
(dp5497
g74
(dp5498
g94
g95
ssg83
g5492
sg76
(lp5499
S'X-Powered-By'
p5500
asbag69
(g90
g71
NtRp5501
(dp5502
g74
(dp5503
g101
g102
ssg83
g5492
sg76
(lp5504
S':'
asbag69
(g90
g71
NtRp5505
(dp5506
g74
(dp5507
sg83
g5492
sg76
(lp5508
g69
(g70
g71
NtRp5509
(dp5510
g74
(dp5511
g82
I4
ssg83
g5505
sg76
(lp5512
S'web2py'
p5513
asbasbasbasbasbasbasbag69
(g85
g71
NtRp5514
(dp5515
g74
(dp5516
sg83
g5098
sg76
(lp5517
g69
(g90
g71
NtRp5518
(dp5519
g74
(dp5520
g94
g95
ssg83
g5514
sg76
(lp5521
S'menu'
p5522
asbag69
(g90
g71
NtRp5523
(dp5524
g74
(dp5525
g101
g102
ssg83
g5514
sg76
(lp5526
S':'
asbag69
(g90
g71
NtRp5527
(dp5528
g74
(dp5529
sg83
g5514
sg76
(lp5530
g69
(g70
g71
NtRp5531
(dp5532
g74
(dp5533
g82
I5
ssg83
g5527
sg76
(lp5534
g69
(g78
g71
NtRp5535
(dp5536
g74
(dp5537
g82
I4
ssg83
Nsg76
(lp5538
sbasbasbasbag69
(g85
g71
NtRp5539
(dp5540
g74
(dp5541
sg83
g5098
sg76
(lp5542
g69
(g90
g71
NtRp5543
(dp5544
g74
(dp5545
g94
g95
ssg83
g5539
sg76
(lp5546
S'meta'
p5547
asbag69
(g90
g71
NtRp5548
(dp5549
g74
(dp5550
g101
g102
ssg83
g5539
sg76
(lp5551
S':'
asbag69
(g90
g71
NtRp5552
(dp5553
g74
(dp5554
sg83
g5539
sg76
(lp5555
g69
(g70
g71
NtRp5556
(dp5557
g74
(dp5558
g82
I5
ssg83
g5552
sg76
(lp5559
g69
(g78
g71
NtRp5560
(dp5561
g74
(dp5562
g82
I4
ssg83
Nsg76
(lp5563
sbasbasbasbag69
(g85
g71
NtRp5564
(dp5565
g74
(dp5566
sg83
g5098
sg76
(lp5567
g69
(g90
g71
NtRp5568
(dp5569
g74
(dp5570
g94
g95
ssg83
g5564
sg76
(lp5571
S'models_to_run'
p5572
asbag69
(g90
g71
NtRp5573
(dp5574
g74
(dp5575
g101
g102
ssg83
g5564
sg76
(lp5576
S':'
asbag69
(g90
g71
NtRp5577
(dp5578
g74
(dp5579
sg83
g5564
sg76
(lp5580
g69
(g70
g71
NtRp5581
(dp5582
g74
(dp5583
g82
I5
ssg83
g5577
sg76
(lp5584
g69
(g78
g71
NtRp5585
(dp5586
g74
(dp5587
g82
I4
ssg83
Nsg76
(lp5588
g69
(g85
g71
NtRp5589
(dp5590
g74
(dp5591
sg83
g5585
sg76
(lp5592
g69
(g90
g71
NtRp5593
(dp5594
g74
(dp5595
sg83
g5589
sg76
(lp5596
g69
(g70
g71
NtRp5597
(dp5598
g74
(dp5599
g82
I4
ssg83
g5593
sg76
(lp5600
S'^\\w+\\.py$'
p5601
asbasbasbag69
(g85
g71
NtRp5602
(dp5603
g74
(dp5604
sg83
g5585
sg76
(lp5605
g69
(g90
g71
NtRp5606
(dp5607
g74
(dp5608
sg83
g5602
sg76
(lp5609
g69
(g70
g71
NtRp5610
(dp5611
g74
(dp5612
g82
I4
ssg83
g5606
sg76
(lp5613
S'^default/\\w+\\.py$'
p5614
asbasbasbag69
(g85
g71
NtRp5615
(dp5616
g74
(dp5617
sg83
g5585
sg76
(lp5618
g69
(g90
g71
NtRp5619
(dp5620
g74
(dp5621
sg83
g5615
sg76
(lp5622
g69
(g70
g71
NtRp5623
(dp5624
g74
(dp5625
g82
I4
ssg83
g5619
sg76
(lp5626
S'^default/index/\\w+\\.py$'
p5627
asbasbasbasbasbasbasbag69
(g85
g71
NtRp5628
(dp5629
g74
(dp5630
sg83
g5098
sg76
(lp5631
g69
(g90
g71
NtRp5632
(dp5633
g74
(dp5634
g94
g95
ssg83
g5628
sg76
(lp5635
S'postprocessing'
p5636
asbag69
(g90
g71
NtRp5637
(dp5638
g74
(dp5639
g101
g102
ssg83
g5628
sg76
(lp5640
S':'
asbag69
(g90
g71
NtRp5641
(dp5642
g74
(dp5643
sg83
g5628
sg76
(lp5644
g69
(g70
g71
NtRp5645
(dp5646
g74
(dp5647
g82
I5
ssg83
g5641
sg76
(lp5648
g69
(g78
g71
NtRp5649
(dp5650
g74
(dp5651
g82
I4
ssg83
Nsg76
(lp5652
sbasbasbasbag69
(g85
g71
NtRp5653
(dp5654
g74
(dp5655
sg83
g5098
sg76
(lp5656
g69
(g90
g71
NtRp5657
(dp5658
g74
(dp5659
g94
g95
ssg83
g5653
sg76
(lp5660
S'session_cookie_expires'
p5661
asbag69
(g90
g71
NtRp5662
(dp5663
g74
(dp5664
g101
g102
ssg83
g5653
sg76
(lp5665
S':'
asbag69
(g90
g71
NtRp5666
(dp5667
g74
(dp5668
sg83
g5653
sg76
(lp5669
g69
(g70
g71
NtRp5670
(dp5671
g74
(dp5672
g82
I5
ssg83
g5666
sg76
(lp5673
S'None'
p5674
asbasbasbag69
(g85
g71
NtRp5675
(dp5676
g74
(dp5677
sg83
g5098
sg76
(lp5678
g69
(g90
g71
NtRp5679
(dp5680
g74
(dp5681
g94
g95
ssg83
g5675
sg76
(lp5682
S'session_data_name'
p5683
asbag69
(g90
g71
NtRp5684
(dp5685
g74
(dp5686
g101
g102
ssg83
g5675
sg76
(lp5687
S':'
asbag69
(g90
g71
NtRp5688
(dp5689
g74
(dp5690
sg83
g5675
sg76
(lp5691
g69
(g70
g71
NtRp5692
(dp5693
g74
(dp5694
g82
I5
ssg83
g5688
sg76
(lp5695
S'session_data_reddit'
p5696
asbasbasbag69
(g85
g71
NtRp5697
(dp5698
g74
(dp5699
sg83
g5098
sg76
(lp5700
g69
(g90
g71
NtRp5701
(dp5702
g74
(dp5703
g94
g95
ssg83
g5697
sg76
(lp5704
S'session_filename'
p5705
asbag69
(g90
g71
NtRp5706
(dp5707
g74
(dp5708
g101
g102
ssg83
g5697
sg76
(lp5709
S':'
asbag69
(g90
g71
NtRp5710
(dp5711
g74
(dp5712
sg83
g5697
sg76
(lp5713
g69
(g70
g71
NtRp5714
(dp5715
g74
(dp5716
g82
I5
ssg83
g5710
sg76
(lp5717
S'/home/pankaj/web2py/applications/reddit/sessions/127.0.0.1-2a60fe75-186f-4f09-ba94-d6426dad4ca7'
p5718
asbasbasbag69
(g85
g71
NtRp5719
(dp5720
g74
(dp5721
sg83
g5098
sg76
(lp5722
g69
(g90
g71
NtRp5723
(dp5724
g74
(dp5725
g94
g95
ssg83
g5719
sg76
(lp5726
S'session_id'
p5727
asbag69
(g90
g71
NtRp5728
(dp5729
g74
(dp5730
g101
g102
ssg83
g5719
sg76
(lp5731
S':'
asbag69
(g90
g71
NtRp5732
(dp5733
g74
(dp5734
sg83
g5719
sg76
(lp5735
g69
(g70
g71
NtRp5736
(dp5737
g74
(dp5738
g82
I5
ssg83
g5732
sg76
(lp5739
g5168
asbasbasbag69
(g85
g71
NtRp5740
(dp5741
g74
(dp5742
sg83
g5098
sg76
(lp5743
g69
(g90
g71
NtRp5744
(dp5745
g74
(dp5746
g94
g95
ssg83
g5740
sg76
(lp5747
S'session_id_name'
p5748
asbag69
(g90
g71
NtRp5749
(dp5750
g74
(dp5751
g101
g102
ssg83
g5740
sg76
(lp5752
S':'
asbag69
(g90
g71
NtRp5753
(dp5754
g74
(dp5755
sg83
g5740
sg76
(lp5756
g69
(g70
g71
NtRp5757
(dp5758
g74
(dp5759
g82
I5
ssg83
g5753
sg76
(lp5760
g5155
asbasbasbag69
(g85
g71
NtRp5761
(dp5762
g74
(dp5763
sg83
g5098
sg76
(lp5764
g69
(g90
g71
NtRp5765
(dp5766
g74
(dp5767
g94
g95
ssg83
g5761
sg76
(lp5768
S'session_new'
p5769
asbag69
(g90
g71
NtRp5770
(dp5771
g74
(dp5772
g101
g102
ssg83
g5761
sg76
(lp5773
S':'
asbag69
(g90
g71
NtRp5774
(dp5775
g74
(dp5776
sg83
g5761
sg76
(lp5777
g69
(g70
g71
NtRp5778
(dp5779
g74
(dp5780
g82
I5
ssg83
g5774
sg76
(lp5781
g3477
asbasbasbag69
(g85
g71
NtRp5782
(dp5783
g74
(dp5784
sg83
g5098
sg76
(lp5785
g69
(g90
g71
NtRp5786
(dp5787
g74
(dp5788
g94
g95
ssg83
g5782
sg76
(lp5789
S'session_storage_type'
p5790
asbag69
(g90
g71
NtRp5791
(dp5792
g74
(dp5793
g101
g102
ssg83
g5782
sg76
(lp5794
S':'
asbag69
(g90
g71
NtRp5795
(dp5796
g74
(dp5797
sg83
g5782
sg76
(lp5798
g69
(g70
g71
NtRp5799
(dp5800
g74
(dp5801
g82
I5
ssg83
g5795
sg76
(lp5802
g4929
asbasbasbag69
(g85
g71
NtRp5803
(dp5804
g74
(dp5805
sg83
g5098
sg76
(lp5806
g69
(g90
g71
NtRp5807
(dp5808
g74
(dp5809
g94
g95
ssg83
g5803
sg76
(lp5810
S'status'
p5811
asbag69
(g90
g71
NtRp5812
(dp5813
g74
(dp5814
g101
g102
ssg83
g5803
sg76
(lp5815
S':'
asbag69
(g90
g71
NtRp5816
(dp5817
g74
(dp5818
sg83
g5803
sg76
(lp5819
g69
(g70
g71
NtRp5820
(dp5821
g74
(dp5822
g82
I5
ssg83
g5816
sg76
(lp5823
S'200'
p5824
asbasbasbag69
(g85
g71
NtRp5825
(dp5826
g74
(dp5827
sg83
g5098
sg76
(lp5828
g69
(g90
g71
NtRp5829
(dp5830
g74
(dp5831
g94
g95
ssg83
g5825
sg76
(lp5832
S'view'
p5833
asbag69
(g90
g71
NtRp5834
(dp5835
g74
(dp5836
g101
g102
ssg83
g5825
sg76
(lp5837
S':'
asbag69
(g90
g71
NtRp5838
(dp5839
g74
(dp5840
sg83
g5825
sg76
(lp5841
g69
(g70
g71
NtRp5842
(dp5843
g74
(dp5844
g82
I5
ssg83
g5838
sg76
(lp5845
S'default/index.html'
p5846
asbasbasbasbasbsS'locals'
p5847
(dp5848
S'self'
p5849
S'<DAL uri="sqlite://storage.sqlite">'
p5850
sS'name'
p5851
S"'comment'"
p5852
sS'backend'
p5853
S"'all'"
p5854
sssS'traceback'
p5855
S'Traceback (most recent call last):\n  File "/home/pankaj/web2py/gluon/restricted.py", line 212, in restricted\n    exec ccode in environment\n  File "/home/pankaj/web2py/applications/reddit/models/db.py", line 83, in <module>\n    db.define_table(\'comments\',db.Field(\'comment\',\'text\',requires=IS_NOT_EMPTY()),db.Field(\'username\',\'string\',requires=IS_IN_DB(db,\'auth_user.username\'),label=\'Username\'),db.Field(\'date\',\'datetime\',default=request.now,writable=False,label=\'Date\'),db.Field(\'rating\',\'integer\',default=100,label=\'Rating\'))\n  File "/home/pankaj/web2py/gluon/dal.py", line 7186, in define_table\n    table = self.lazy_define_table(tablename,*fields,**args)\n  File "/home/pankaj/web2py/gluon/dal.py", line 7203, in lazy_define_table\n    table = table_class(self, tablename, *fields, **args)\n  File "/home/pankaj/web2py/gluon/dal.py", line 7609, in __init__\n    db.check_reserved_keyword(field_name)\n  File "/home/pankaj/web2py/gluon/dal.py", line 6930, in check_reserved_keyword\n    \'invalid table/column name "%s" is a "%s" reserved SQL keyword\' % (name, backend.upper()))\nSyntaxError: invalid table/column name "comment" is a "ALL" reserved SQL keyword\n'
p5856
s.