(dp1
S'output'
p2
S''
sS'layer'
p3
S'Framework'
p4
sS'code'
p5
S''
sS'snapshot'
p6
(dp7
S'exception'
p8
(dp9
S'__hash__'
p10
S"<method-wrapper '__hash__' of exceptions.NameError object>"
p11
sS'__setattr__'
p12
S"<method-wrapper '__setattr__' of exceptions.NameError object>"
p13
sS'__reduce_ex__'
p14
S'<built-in method __reduce_ex__ of exceptions.NameError object>'
p15
sS'__getslice__'
p16
S"<method-wrapper '__getslice__' of exceptions.NameError object>"
p17
sS'__getitem__'
p18
S"<method-wrapper '__getitem__' of exceptions.NameError object>"
p19
sS'__setstate__'
p20
S'<built-in method __setstate__ of exceptions.NameError object>'
p21
sS'__reduce__'
p22
S'<built-in method __reduce__ of exceptions.NameError object>'
p23
sS'__str__'
p24
S"<method-wrapper '__str__' of exceptions.NameError object>"
p25
sS'__format__'
p26
S'<built-in method __format__ of exceptions.NameError object>'
p27
sS'__getattribute__'
p28
S"<method-wrapper '__getattribute__' of exceptions.NameError object>"
p29
sS'__class__'
p30
S"<type 'exceptions.NameError'>"
p31
sS'__unicode__'
p32
S'<built-in method __unicode__ of exceptions.NameError object>'
p33
sS'__delattr__'
p34
S"<method-wrapper '__delattr__' of exceptions.NameError object>"
p35
sS'__subclasshook__'
p36
S'<built-in method __subclasshook__ of type object>'
p37
sS'__repr__'
p38
S"<method-wrapper '__repr__' of exceptions.NameError object>"
p39
sS'args'
p40
S'("name \'layout\' is not defined",)'
p41
sS'__dict__'
p42
S'{}'
p43
sS'__sizeof__'
p44
S'<built-in method __sizeof__ of exceptions.NameError object>'
p45
sS'__doc__'
p46
S"'Name not found globally.'"
p47
sS'__init__'
p48
S"<method-wrapper '__init__' of exceptions.NameError object>"
p49
sS'__new__'
p50
S'<built-in method __new__ of type object>'
p51
ssS'evalue'
p52
S"name 'layout' is not defined"
p53
sS'request'
p54
ccopy_reg
_reconstructor
p55
(cgluon.html
BEAUTIFY
p56
c__builtin__
object
p57
NtRp58
(dp59
S'attributes'
p60
(dp61
sS'components'
p62
(lp63
g55
(cgluon.html
TABLE
p64
g57
NtRp65
(dp66
g60
(dp67
S'level'
p68
I5
ssS'parent'
p69
Nsg62
(lp70
g55
(cgluon.html
TR
p71
g57
NtRp72
(dp73
g60
(dp74
sg69
g65
sg62
(lp75
g55
(cgluon.html
TD
p76
g57
NtRp77
(dp78
g60
(dp79
S'_style'
p80
S'font-weight:bold;vertical-align:top'
p81
ssg69
g72
sg62
(lp82
S'ajax'
p83
asbag55
(g76
g57
NtRp84
(dp85
g60
(dp86
S'_valign'
p87
S'top'
p88
ssg69
g72
sg62
(lp89
S':'
asbag55
(g76
g57
NtRp90
(dp91
g60
(dp92
sg69
g72
sg62
(lp93
g55
(g56
g57
NtRp94
(dp95
g60
(dp96
g68
I5
ssg69
g90
sg62
(lp97
S'False'
p98
asbasbasbag55
(g71
g57
NtRp99
(dp100
g60
(dp101
sg69
g65
sg62
(lp102
g55
(g76
g57
NtRp103
(dp104
g60
(dp105
g80
g81
ssg69
g99
sg62
(lp106
S'application'
p107
asbag55
(g76
g57
NtRp108
(dp109
g60
(dp110
g87
g88
ssg69
g99
sg62
(lp111
S':'
asbag55
(g76
g57
NtRp112
(dp113
g60
(dp114
sg69
g99
sg62
(lp115
g55
(g56
g57
NtRp116
(dp117
g60
(dp118
g68
I5
ssg69
g112
sg62
(lp119
S'reddit'
p120
asbasbasbag55
(g71
g57
NtRp121
(dp122
g60
(dp123
sg69
g65
sg62
(lp124
g55
(g76
g57
NtRp125
(dp126
g60
(dp127
g80
g81
ssg69
g121
sg62
(lp128
g40
asbag55
(g76
g57
NtRp129
(dp130
g60
(dp131
g87
g88
ssg69
g121
sg62
(lp132
S':'
asbag55
(g76
g57
NtRp133
(dp134
g60
(dp135
sg69
g121
sg62
(lp136
g55
(g56
g57
NtRp137
(dp138
g60
(dp139
g68
I5
ssg69
g133
sg62
(lp140
g55
(g64
g57
NtRp141
(dp142
g60
(dp143
g68
I4
ssg69
Nsg62
(lp144
sbasbasbasbag55
(g71
g57
NtRp145
(dp146
g60
(dp147
sg69
g65
sg62
(lp148
g55
(g76
g57
NtRp149
(dp150
g60
(dp151
g80
g81
ssg69
g145
sg62
(lp152
S'body'
p153
asbag55
(g76
g57
NtRp154
(dp155
g60
(dp156
g87
g88
ssg69
g145
sg62
(lp157
S':'
asbag55
(g76
g57
NtRp158
(dp159
g60
(dp160
sg69
g145
sg62
(lp161
g55
(g56
g57
NtRp162
(dp163
g60
(dp164
g68
I5
ssg69
g158
sg62
(lp165
S'<cStringIO.StringO object at 0xaee84b00>'
p166
asbasbasbag55
(g71
g57
NtRp167
(dp168
g60
(dp169
sg69
g65
sg62
(lp170
g55
(g76
g57
NtRp171
(dp172
g60
(dp173
g80
g81
ssg69
g167
sg62
(lp174
S'cid'
p175
asbag55
(g76
g57
NtRp176
(dp177
g60
(dp178
g87
g88
ssg69
g167
sg62
(lp179
S':'
asbag55
(g76
g57
NtRp180
(dp181
g60
(dp182
sg69
g167
sg62
(lp183
g55
(g56
g57
NtRp184
(dp185
g60
(dp186
g68
I5
ssg69
g180
sg62
(lp187
S'None'
p188
asbasbasbag55
(g71
g57
NtRp189
(dp190
g60
(dp191
sg69
g65
sg62
(lp192
g55
(g76
g57
NtRp193
(dp194
g60
(dp195
g80
g81
ssg69
g189
sg62
(lp196
S'client'
p197
asbag55
(g76
g57
NtRp198
(dp199
g60
(dp200
g87
g88
ssg69
g189
sg62
(lp201
S':'
asbag55
(g76
g57
NtRp202
(dp203
g60
(dp204
sg69
g189
sg62
(lp205
g55
(g56
g57
NtRp206
(dp207
g60
(dp208
g68
I5
ssg69
g202
sg62
(lp209
S'127.0.0.1'
p210
asbasbasbag55
(g71
g57
NtRp211
(dp212
g60
(dp213
sg69
g65
sg62
(lp214
g55
(g76
g57
NtRp215
(dp216
g60
(dp217
g80
g81
ssg69
g211
sg62
(lp218
S'controller'
p219
asbag55
(g76
g57
NtRp220
(dp221
g60
(dp222
g87
g88
ssg69
g211
sg62
(lp223
S':'
asbag55
(g76
g57
NtRp224
(dp225
g60
(dp226
sg69
g211
sg62
(lp227
g55
(g56
g57
NtRp228
(dp229
g60
(dp230
g68
I5
ssg69
g224
sg62
(lp231
S'default'
p232
asbasbasbag55
(g71
g57
NtRp233
(dp234
g60
(dp235
sg69
g65
sg62
(lp236
g55
(g76
g57
NtRp237
(dp238
g60
(dp239
g80
g81
ssg69
g233
sg62
(lp240
S'cookies'
p241
asbag55
(g76
g57
NtRp242
(dp243
g60
(dp244
g87
g88
ssg69
g233
sg62
(lp245
S':'
asbag55
(g76
g57
NtRp246
(dp247
g60
(dp248
sg69
g233
sg62
(lp249
g55
(g56
g57
NtRp250
(dp251
g60
(dp252
g68
I5
ssg69
g246
sg62
(lp253
g55
(g64
g57
NtRp254
(dp255
g60
(dp256
g68
I4
ssg69
Nsg62
(lp257
g55
(g71
g57
NtRp258
(dp259
g60
(dp260
sg69
g254
sg62
(lp261
g55
(g76
g57
NtRp262
(dp263
g60
(dp264
g80
g81
ssg69
g258
sg62
(lp265
S'session_id_admin'
p266
asbag55
(g76
g57
NtRp267
(dp268
g60
(dp269
g87
g88
ssg69
g258
sg62
(lp270
S':'
asbag55
(g76
g57
NtRp271
(dp272
g60
(dp273
sg69
g258
sg62
(lp274
g55
(g56
g57
NtRp275
(dp276
g60
(dp277
g68
I4
ssg69
g271
sg62
(lp278
S'127.0.0.1-c7fd2c30-a4a8-47f9-8435-2955b7e0489d'
p279
ag55
(g64
g57
NtRp280
(dp281
g60
(dp282
g68
I3
ssg69
Nsg62
(lp283
g55
(g71
g57
NtRp284
(dp285
g60
(dp286
sg69
g280
sg62
(lp287
g55
(g76
g57
NtRp288
(dp289
g60
(dp290
g80
g81
ssg69
g284
sg62
(lp291
S'comment'
p292
asbag55
(g76
g57
NtRp293
(dp294
g60
(dp295
g87
g88
ssg69
g284
sg62
(lp296
S':'
asbag55
(g76
g57
NtRp297
(dp298
g60
(dp299
sg69
g284
sg62
(lp300
g55
(g56
g57
NtRp301
(dp302
g60
(dp303
g68
I3
ssg69
g297
sg62
(lp304
S''
asbasbasbag55
(g71
g57
NtRp305
(dp306
g60
(dp307
sg69
g280
sg62
(lp308
g55
(g76
g57
NtRp309
(dp310
g60
(dp311
g80
g81
ssg69
g305
sg62
(lp312
S'domain'
p313
asbag55
(g76
g57
NtRp314
(dp315
g60
(dp316
g87
g88
ssg69
g305
sg62
(lp317
S':'
asbag55
(g76
g57
NtRp318
(dp319
g60
(dp320
sg69
g305
sg62
(lp321
g55
(g56
g57
NtRp322
(dp323
g60
(dp324
g68
I3
ssg69
g318
sg62
(lp325
S''
asbasbasbag55
(g71
g57
NtRp326
(dp327
g60
(dp328
sg69
g280
sg62
(lp329
g55
(g76
g57
NtRp330
(dp331
g60
(dp332
g80
g81
ssg69
g326
sg62
(lp333
S'expires'
p334
asbag55
(g76
g57
NtRp335
(dp336
g60
(dp337
g87
g88
ssg69
g326
sg62
(lp338
S':'
asbag55
(g76
g57
NtRp339
(dp340
g60
(dp341
sg69
g326
sg62
(lp342
g55
(g56
g57
NtRp343
(dp344
g60
(dp345
g68
I3
ssg69
g339
sg62
(lp346
S''
asbasbasbag55
(g71
g57
NtRp347
(dp348
g60
(dp349
sg69
g280
sg62
(lp350
g55
(g76
g57
NtRp351
(dp352
g60
(dp353
g80
g81
ssg69
g347
sg62
(lp354
S'httponly'
p355
asbag55
(g76
g57
NtRp356
(dp357
g60
(dp358
g87
g88
ssg69
g347
sg62
(lp359
S':'
asbag55
(g76
g57
NtRp360
(dp361
g60
(dp362
sg69
g347
sg62
(lp363
g55
(g56
g57
NtRp364
(dp365
g60
(dp366
g68
I3
ssg69
g360
sg62
(lp367
S''
asbasbasbag55
(g71
g57
NtRp368
(dp369
g60
(dp370
sg69
g280
sg62
(lp371
g55
(g76
g57
NtRp372
(dp373
g60
(dp374
g80
g81
ssg69
g368
sg62
(lp375
S'max-age'
p376
asbag55
(g76
g57
NtRp377
(dp378
g60
(dp379
g87
g88
ssg69
g368
sg62
(lp380
S':'
asbag55
(g76
g57
NtRp381
(dp382
g60
(dp383
sg69
g368
sg62
(lp384
g55
(g56
g57
NtRp385
(dp386
g60
(dp387
g68
I3
ssg69
g381
sg62
(lp388
S''
asbasbasbag55
(g71
g57
NtRp389
(dp390
g60
(dp391
sg69
g280
sg62
(lp392
g55
(g76
g57
NtRp393
(dp394
g60
(dp395
g80
g81
ssg69
g389
sg62
(lp396
S'path'
p397
asbag55
(g76
g57
NtRp398
(dp399
g60
(dp400
g87
g88
ssg69
g389
sg62
(lp401
S':'
asbag55
(g76
g57
NtRp402
(dp403
g60
(dp404
sg69
g389
sg62
(lp405
g55
(g56
g57
NtRp406
(dp407
g60
(dp408
g68
I3
ssg69
g402
sg62
(lp409
S''
asbasbasbag55
(g71
g57
NtRp410
(dp411
g60
(dp412
sg69
g280
sg62
(lp413
g55
(g76
g57
NtRp414
(dp415
g60
(dp416
g80
g81
ssg69
g410
sg62
(lp417
S'secure'
p418
asbag55
(g76
g57
NtRp419
(dp420
g60
(dp421
g87
g88
ssg69
g410
sg62
(lp422
S':'
asbag55
(g76
g57
NtRp423
(dp424
g60
(dp425
sg69
g410
sg62
(lp426
g55
(g56
g57
NtRp427
(dp428
g60
(dp429
g68
I3
ssg69
g423
sg62
(lp430
S''
asbasbasbag55
(g71
g57
NtRp431
(dp432
g60
(dp433
sg69
g280
sg62
(lp434
g55
(g76
g57
NtRp435
(dp436
g60
(dp437
g80
g81
ssg69
g431
sg62
(lp438
S'version'
p439
asbag55
(g76
g57
NtRp440
(dp441
g60
(dp442
g87
g88
ssg69
g431
sg62
(lp443
S':'
asbag55
(g76
g57
NtRp444
(dp445
g60
(dp446
sg69
g431
sg62
(lp447
g55
(g56
g57
NtRp448
(dp449
g60
(dp450
g68
I3
ssg69
g444
sg62
(lp451
S''
asbasbasbasbasbasbasbag55
(g71
g57
NtRp452
(dp453
g60
(dp454
sg69
g254
sg62
(lp455
g55
(g76
g57
NtRp456
(dp457
g60
(dp458
g80
g81
ssg69
g452
sg62
(lp459
S'session_id_cataminder'
p460
asbag55
(g76
g57
NtRp461
(dp462
g60
(dp463
g87
g88
ssg69
g452
sg62
(lp464
S':'
asbag55
(g76
g57
NtRp465
(dp466
g60
(dp467
sg69
g452
sg62
(lp468
g55
(g56
g57
NtRp469
(dp470
g60
(dp471
g68
I4
ssg69
g465
sg62
(lp472
S'127.0.0.1-f68dfbc3-e46b-4d7f-ad40-351d31d2febb'
p473
ag55
(g64
g57
NtRp474
(dp475
g60
(dp476
g68
I3
ssg69
Nsg62
(lp477
g55
(g71
g57
NtRp478
(dp479
g60
(dp480
sg69
g474
sg62
(lp481
g55
(g76
g57
NtRp482
(dp483
g60
(dp484
g80
g81
ssg69
g478
sg62
(lp485
g292
asbag55
(g76
g57
NtRp486
(dp487
g60
(dp488
g87
g88
ssg69
g478
sg62
(lp489
S':'
asbag55
(g76
g57
NtRp490
(dp491
g60
(dp492
sg69
g478
sg62
(lp493
g55
(g56
g57
NtRp494
(dp495
g60
(dp496
g68
I3
ssg69
g490
sg62
(lp497
S''
asbasbasbag55
(g71
g57
NtRp498
(dp499
g60
(dp500
sg69
g474
sg62
(lp501
g55
(g76
g57
NtRp502
(dp503
g60
(dp504
g80
g81
ssg69
g498
sg62
(lp505
g313
asbag55
(g76
g57
NtRp506
(dp507
g60
(dp508
g87
g88
ssg69
g498
sg62
(lp509
S':'
asbag55
(g76
g57
NtRp510
(dp511
g60
(dp512
sg69
g498
sg62
(lp513
g55
(g56
g57
NtRp514
(dp515
g60
(dp516
g68
I3
ssg69
g510
sg62
(lp517
S''
asbasbasbag55
(g71
g57
NtRp518
(dp519
g60
(dp520
sg69
g474
sg62
(lp521
g55
(g76
g57
NtRp522
(dp523
g60
(dp524
g80
g81
ssg69
g518
sg62
(lp525
g334
asbag55
(g76
g57
NtRp526
(dp527
g60
(dp528
g87
g88
ssg69
g518
sg62
(lp529
S':'
asbag55
(g76
g57
NtRp530
(dp531
g60
(dp532
sg69
g518
sg62
(lp533
g55
(g56
g57
NtRp534
(dp535
g60
(dp536
g68
I3
ssg69
g530
sg62
(lp537
S''
asbasbasbag55
(g71
g57
NtRp538
(dp539
g60
(dp540
sg69
g474
sg62
(lp541
g55
(g76
g57
NtRp542
(dp543
g60
(dp544
g80
g81
ssg69
g538
sg62
(lp545
g355
asbag55
(g76
g57
NtRp546
(dp547
g60
(dp548
g87
g88
ssg69
g538
sg62
(lp549
S':'
asbag55
(g76
g57
NtRp550
(dp551
g60
(dp552
sg69
g538
sg62
(lp553
g55
(g56
g57
NtRp554
(dp555
g60
(dp556
g68
I3
ssg69
g550
sg62
(lp557
S''
asbasbasbag55
(g71
g57
NtRp558
(dp559
g60
(dp560
sg69
g474
sg62
(lp561
g55
(g76
g57
NtRp562
(dp563
g60
(dp564
g80
g81
ssg69
g558
sg62
(lp565
g376
asbag55
(g76
g57
NtRp566
(dp567
g60
(dp568
g87
g88
ssg69
g558
sg62
(lp569
S':'
asbag55
(g76
g57
NtRp570
(dp571
g60
(dp572
sg69
g558
sg62
(lp573
g55
(g56
g57
NtRp574
(dp575
g60
(dp576
g68
I3
ssg69
g570
sg62
(lp577
S''
asbasbasbag55
(g71
g57
NtRp578
(dp579
g60
(dp580
sg69
g474
sg62
(lp581
g55
(g76
g57
NtRp582
(dp583
g60
(dp584
g80
g81
ssg69
g578
sg62
(lp585
g397
asbag55
(g76
g57
NtRp586
(dp587
g60
(dp588
g87
g88
ssg69
g578
sg62
(lp589
S':'
asbag55
(g76
g57
NtRp590
(dp591
g60
(dp592
sg69
g578
sg62
(lp593
g55
(g56
g57
NtRp594
(dp595
g60
(dp596
g68
I3
ssg69
g590
sg62
(lp597
S''
asbasbasbag55
(g71
g57
NtRp598
(dp599
g60
(dp600
sg69
g474
sg62
(lp601
g55
(g76
g57
NtRp602
(dp603
g60
(dp604
g80
g81
ssg69
g598
sg62
(lp605
g418
asbag55
(g76
g57
NtRp606
(dp607
g60
(dp608
g87
g88
ssg69
g598
sg62
(lp609
S':'
asbag55
(g76
g57
NtRp610
(dp611
g60
(dp612
sg69
g598
sg62
(lp613
g55
(g56
g57
NtRp614
(dp615
g60
(dp616
g68
I3
ssg69
g610
sg62
(lp617
S''
asbasbasbag55
(g71
g57
NtRp618
(dp619
g60
(dp620
sg69
g474
sg62
(lp621
g55
(g76
g57
NtRp622
(dp623
g60
(dp624
g80
g81
ssg69
g618
sg62
(lp625
g439
asbag55
(g76
g57
NtRp626
(dp627
g60
(dp628
g87
g88
ssg69
g618
sg62
(lp629
S':'
asbag55
(g76
g57
NtRp630
(dp631
g60
(dp632
sg69
g618
sg62
(lp633
g55
(g56
g57
NtRp634
(dp635
g60
(dp636
g68
I3
ssg69
g630
sg62
(lp637
S''
asbasbasbasbasbasbasbag55
(g71
g57
NtRp638
(dp639
g60
(dp640
sg69
g254
sg62
(lp641
g55
(g76
g57
NtRp642
(dp643
g60
(dp644
g80
g81
ssg69
g638
sg62
(lp645
S'session_id_reddit'
p646
asbag55
(g76
g57
NtRp647
(dp648
g60
(dp649
g87
g88
ssg69
g638
sg62
(lp650
S':'
asbag55
(g76
g57
NtRp651
(dp652
g60
(dp653
sg69
g638
sg62
(lp654
g55
(g56
g57
NtRp655
(dp656
g60
(dp657
g68
I4
ssg69
g651
sg62
(lp658
S'127.0.0.1-b2e6bf86-ee8a-43c0-88e9-12c7f35bec5f'
p659
ag55
(g64
g57
NtRp660
(dp661
g60
(dp662
g68
I3
ssg69
Nsg62
(lp663
g55
(g71
g57
NtRp664
(dp665
g60
(dp666
sg69
g660
sg62
(lp667
g55
(g76
g57
NtRp668
(dp669
g60
(dp670
g80
g81
ssg69
g664
sg62
(lp671
g292
asbag55
(g76
g57
NtRp672
(dp673
g60
(dp674
g87
g88
ssg69
g664
sg62
(lp675
S':'
asbag55
(g76
g57
NtRp676
(dp677
g60
(dp678
sg69
g664
sg62
(lp679
g55
(g56
g57
NtRp680
(dp681
g60
(dp682
g68
I3
ssg69
g676
sg62
(lp683
S''
asbasbasbag55
(g71
g57
NtRp684
(dp685
g60
(dp686
sg69
g660
sg62
(lp687
g55
(g76
g57
NtRp688
(dp689
g60
(dp690
g80
g81
ssg69
g684
sg62
(lp691
g313
asbag55
(g76
g57
NtRp692
(dp693
g60
(dp694
g87
g88
ssg69
g684
sg62
(lp695
S':'
asbag55
(g76
g57
NtRp696
(dp697
g60
(dp698
sg69
g684
sg62
(lp699
g55
(g56
g57
NtRp700
(dp701
g60
(dp702
g68
I3
ssg69
g696
sg62
(lp703
S''
asbasbasbag55
(g71
g57
NtRp704
(dp705
g60
(dp706
sg69
g660
sg62
(lp707
g55
(g76
g57
NtRp708
(dp709
g60
(dp710
g80
g81
ssg69
g704
sg62
(lp711
g334
asbag55
(g76
g57
NtRp712
(dp713
g60
(dp714
g87
g88
ssg69
g704
sg62
(lp715
S':'
asbag55
(g76
g57
NtRp716
(dp717
g60
(dp718
sg69
g704
sg62
(lp719
g55
(g56
g57
NtRp720
(dp721
g60
(dp722
g68
I3
ssg69
g716
sg62
(lp723
S''
asbasbasbag55
(g71
g57
NtRp724
(dp725
g60
(dp726
sg69
g660
sg62
(lp727
g55
(g76
g57
NtRp728
(dp729
g60
(dp730
g80
g81
ssg69
g724
sg62
(lp731
g355
asbag55
(g76
g57
NtRp732
(dp733
g60
(dp734
g87
g88
ssg69
g724
sg62
(lp735
S':'
asbag55
(g76
g57
NtRp736
(dp737
g60
(dp738
sg69
g724
sg62
(lp739
g55
(g56
g57
NtRp740
(dp741
g60
(dp742
g68
I3
ssg69
g736
sg62
(lp743
S''
asbasbasbag55
(g71
g57
NtRp744
(dp745
g60
(dp746
sg69
g660
sg62
(lp747
g55
(g76
g57
NtRp748
(dp749
g60
(dp750
g80
g81
ssg69
g744
sg62
(lp751
g376
asbag55
(g76
g57
NtRp752
(dp753
g60
(dp754
g87
g88
ssg69
g744
sg62
(lp755
S':'
asbag55
(g76
g57
NtRp756
(dp757
g60
(dp758
sg69
g744
sg62
(lp759
g55
(g56
g57
NtRp760
(dp761
g60
(dp762
g68
I3
ssg69
g756
sg62
(lp763
S''
asbasbasbag55
(g71
g57
NtRp764
(dp765
g60
(dp766
sg69
g660
sg62
(lp767
g55
(g76
g57
NtRp768
(dp769
g60
(dp770
g80
g81
ssg69
g764
sg62
(lp771
g397
asbag55
(g76
g57
NtRp772
(dp773
g60
(dp774
g87
g88
ssg69
g764
sg62
(lp775
S':'
asbag55
(g76
g57
NtRp776
(dp777
g60
(dp778
sg69
g764
sg62
(lp779
g55
(g56
g57
NtRp780
(dp781
g60
(dp782
g68
I3
ssg69
g776
sg62
(lp783
S''
asbasbasbag55
(g71
g57
NtRp784
(dp785
g60
(dp786
sg69
g660
sg62
(lp787
g55
(g76
g57
NtRp788
(dp789
g60
(dp790
g80
g81
ssg69
g784
sg62
(lp791
g418
asbag55
(g76
g57
NtRp792
(dp793
g60
(dp794
g87
g88
ssg69
g784
sg62
(lp795
S':'
asbag55
(g76
g57
NtRp796
(dp797
g60
(dp798
sg69
g784
sg62
(lp799
g55
(g56
g57
NtRp800
(dp801
g60
(dp802
g68
I3
ssg69
g796
sg62
(lp803
S''
asbasbasbag55
(g71
g57
NtRp804
(dp805
g60
(dp806
sg69
g660
sg62
(lp807
g55
(g76
g57
NtRp808
(dp809
g60
(dp810
g80
g81
ssg69
g804
sg62
(lp811
g439
asbag55
(g76
g57
NtRp812
(dp813
g60
(dp814
g87
g88
ssg69
g804
sg62
(lp815
S':'
asbag55
(g76
g57
NtRp816
(dp817
g60
(dp818
sg69
g804
sg62
(lp819
g55
(g56
g57
NtRp820
(dp821
g60
(dp822
g68
I3
ssg69
g816
sg62
(lp823
S''
asbasbasbasbasbasbasbag55
(g71
g57
NtRp824
(dp825
g60
(dp826
sg69
g254
sg62
(lp827
g55
(g76
g57
NtRp828
(dp829
g60
(dp830
g80
g81
ssg69
g824
sg62
(lp831
S'session_id_welcome'
p832
asbag55
(g76
g57
NtRp833
(dp834
g60
(dp835
g87
g88
ssg69
g824
sg62
(lp836
S':'
asbag55
(g76
g57
NtRp837
(dp838
g60
(dp839
sg69
g824
sg62
(lp840
g55
(g56
g57
NtRp841
(dp842
g60
(dp843
g68
I4
ssg69
g837
sg62
(lp844
S'127.0.0.1-9b4305a2-907d-4b57-83fc-68c21fe009e1'
p845
ag55
(g64
g57
NtRp846
(dp847
g60
(dp848
g68
I3
ssg69
Nsg62
(lp849
g55
(g71
g57
NtRp850
(dp851
g60
(dp852
sg69
g846
sg62
(lp853
g55
(g76
g57
NtRp854
(dp855
g60
(dp856
g80
g81
ssg69
g850
sg62
(lp857
g292
asbag55
(g76
g57
NtRp858
(dp859
g60
(dp860
g87
g88
ssg69
g850
sg62
(lp861
S':'
asbag55
(g76
g57
NtRp862
(dp863
g60
(dp864
sg69
g850
sg62
(lp865
g55
(g56
g57
NtRp866
(dp867
g60
(dp868
g68
I3
ssg69
g862
sg62
(lp869
S''
asbasbasbag55
(g71
g57
NtRp870
(dp871
g60
(dp872
sg69
g846
sg62
(lp873
g55
(g76
g57
NtRp874
(dp875
g60
(dp876
g80
g81
ssg69
g870
sg62
(lp877
g313
asbag55
(g76
g57
NtRp878
(dp879
g60
(dp880
g87
g88
ssg69
g870
sg62
(lp881
S':'
asbag55
(g76
g57
NtRp882
(dp883
g60
(dp884
sg69
g870
sg62
(lp885
g55
(g56
g57
NtRp886
(dp887
g60
(dp888
g68
I3
ssg69
g882
sg62
(lp889
S''
asbasbasbag55
(g71
g57
NtRp890
(dp891
g60
(dp892
sg69
g846
sg62
(lp893
g55
(g76
g57
NtRp894
(dp895
g60
(dp896
g80
g81
ssg69
g890
sg62
(lp897
g334
asbag55
(g76
g57
NtRp898
(dp899
g60
(dp900
g87
g88
ssg69
g890
sg62
(lp901
S':'
asbag55
(g76
g57
NtRp902
(dp903
g60
(dp904
sg69
g890
sg62
(lp905
g55
(g56
g57
NtRp906
(dp907
g60
(dp908
g68
I3
ssg69
g902
sg62
(lp909
S''
asbasbasbag55
(g71
g57
NtRp910
(dp911
g60
(dp912
sg69
g846
sg62
(lp913
g55
(g76
g57
NtRp914
(dp915
g60
(dp916
g80
g81
ssg69
g910
sg62
(lp917
g355
asbag55
(g76
g57
NtRp918
(dp919
g60
(dp920
g87
g88
ssg69
g910
sg62
(lp921
S':'
asbag55
(g76
g57
NtRp922
(dp923
g60
(dp924
sg69
g910
sg62
(lp925
g55
(g56
g57
NtRp926
(dp927
g60
(dp928
g68
I3
ssg69
g922
sg62
(lp929
S''
asbasbasbag55
(g71
g57
NtRp930
(dp931
g60
(dp932
sg69
g846
sg62
(lp933
g55
(g76
g57
NtRp934
(dp935
g60
(dp936
g80
g81
ssg69
g930
sg62
(lp937
g376
asbag55
(g76
g57
NtRp938
(dp939
g60
(dp940
g87
g88
ssg69
g930
sg62
(lp941
S':'
asbag55
(g76
g57
NtRp942
(dp943
g60
(dp944
sg69
g930
sg62
(lp945
g55
(g56
g57
NtRp946
(dp947
g60
(dp948
g68
I3
ssg69
g942
sg62
(lp949
S''
asbasbasbag55
(g71
g57
NtRp950
(dp951
g60
(dp952
sg69
g846
sg62
(lp953
g55
(g76
g57
NtRp954
(dp955
g60
(dp956
g80
g81
ssg69
g950
sg62
(lp957
g397
asbag55
(g76
g57
NtRp958
(dp959
g60
(dp960
g87
g88
ssg69
g950
sg62
(lp961
S':'
asbag55
(g76
g57
NtRp962
(dp963
g60
(dp964
sg69
g950
sg62
(lp965
g55
(g56
g57
NtRp966
(dp967
g60
(dp968
g68
I3
ssg69
g962
sg62
(lp969
S''
asbasbasbag55
(g71
g57
NtRp970
(dp971
g60
(dp972
sg69
g846
sg62
(lp973
g55
(g76
g57
NtRp974
(dp975
g60
(dp976
g80
g81
ssg69
g970
sg62
(lp977
g418
asbag55
(g76
g57
NtRp978
(dp979
g60
(dp980
g87
g88
ssg69
g970
sg62
(lp981
S':'
asbag55
(g76
g57
NtRp982
(dp983
g60
(dp984
sg69
g970
sg62
(lp985
g55
(g56
g57
NtRp986
(dp987
g60
(dp988
g68
I3
ssg69
g982
sg62
(lp989
S''
asbasbasbag55
(g71
g57
NtRp990
(dp991
g60
(dp992
sg69
g846
sg62
(lp993
g55
(g76
g57
NtRp994
(dp995
g60
(dp996
g80
g81
ssg69
g990
sg62
(lp997
g439
asbag55
(g76
g57
NtRp998
(dp999
g60
(dp1000
g87
g88
ssg69
g990
sg62
(lp1001
S':'
asbag55
(g76
g57
NtRp1002
(dp1003
g60
(dp1004
sg69
g990
sg62
(lp1005
g55
(g56
g57
NtRp1006
(dp1007
g60
(dp1008
g68
I3
ssg69
g1002
sg62
(lp1009
S''
asbasbasbasbasbasbasbasbasbasbasbag55
(g71
g57
NtRp1010
(dp1011
g60
(dp1012
sg69
g65
sg62
(lp1013
g55
(g76
g57
NtRp1014
(dp1015
g60
(dp1016
g80
g81
ssg69
g1010
sg62
(lp1017
S'env'
p1018
asbag55
(g76
g57
NtRp1019
(dp1020
g60
(dp1021
g87
g88
ssg69
g1010
sg62
(lp1022
S':'
asbag55
(g76
g57
NtRp1023
(dp1024
g60
(dp1025
sg69
g1010
sg62
(lp1026
g55
(g56
g57
NtRp1027
(dp1028
g60
(dp1029
g68
I5
ssg69
g1023
sg62
(lp1030
g55
(g64
g57
NtRp1031
(dp1032
g60
(dp1033
g68
I4
ssg69
Nsg62
(lp1034
g55
(g71
g57
NtRp1035
(dp1036
g60
(dp1037
sg69
g1031
sg62
(lp1038
g55
(g76
g57
NtRp1039
(dp1040
g60
(dp1041
g80
g81
ssg69
g1035
sg62
(lp1042
S'app_folders'
p1043
asbag55
(g76
g57
NtRp1044
(dp1045
g60
(dp1046
g87
g88
ssg69
g1035
sg62
(lp1047
S':'
asbag55
(g76
g57
NtRp1048
(dp1049
g60
(dp1050
sg69
g1035
sg62
(lp1051
g55
(g56
g57
NtRp1052
(dp1053
g60
(dp1054
g68
I4
ssg69
g1048
sg62
(lp1055
S"set(['/home/pankaj/web2py/applications/admin/', '/home/pankaj/web2py/applications/welcome/', '/home/pankaj/web2py/applications/reddit/'])"
p1056
asbasbasbag55
(g71
g57
NtRp1057
(dp1058
g60
(dp1059
sg69
g1031
sg62
(lp1060
g55
(g76
g57
NtRp1061
(dp1062
g60
(dp1063
g80
g81
ssg69
g1057
sg62
(lp1064
S'applications_parent'
p1065
asbag55
(g76
g57
NtRp1066
(dp1067
g60
(dp1068
g87
g88
ssg69
g1057
sg62
(lp1069
S':'
asbag55
(g76
g57
NtRp1070
(dp1071
g60
(dp1072
sg69
g1057
sg62
(lp1073
g55
(g56
g57
NtRp1074
(dp1075
g60
(dp1076
g68
I4
ssg69
g1070
sg62
(lp1077
S'/home/pankaj/web2py'
p1078
asbasbasbag55
(g71
g57
NtRp1079
(dp1080
g60
(dp1081
sg69
g1031
sg62
(lp1082
g55
(g76
g57
NtRp1083
(dp1084
g60
(dp1085
g80
g81
ssg69
g1079
sg62
(lp1086
S'cmd_args'
p1087
asbag55
(g76
g57
NtRp1088
(dp1089
g60
(dp1090
g87
g88
ssg69
g1079
sg62
(lp1091
S':'
asbag55
(g76
g57
NtRp1092
(dp1093
g60
(dp1094
sg69
g1079
sg62
(lp1095
g55
(g56
g57
NtRp1096
(dp1097
g60
(dp1098
g68
I4
ssg69
g1092
sg62
(lp1099
g55
(g64
g57
NtRp1100
(dp1101
g60
(dp1102
g68
I3
ssg69
Nsg62
(lp1103
sbasbasbasbag55
(g71
g57
NtRp1104
(dp1105
g60
(dp1106
sg69
g1031
sg62
(lp1107
g55
(g76
g57
NtRp1108
(dp1109
g60
(dp1110
g80
g81
ssg69
g1104
sg62
(lp1111
S'cmd_options'
p1112
asbag55
(g76
g57
NtRp1113
(dp1114
g60
(dp1115
g87
g88
ssg69
g1104
sg62
(lp1116
S':'
asbag55
(g76
g57
NtRp1117
(dp1118
g60
(dp1119
sg69
g1104
sg62
(lp1120
g55
(g56
g57
NtRp1121
(dp1122
g60
(dp1123
g68
I4
ssg69
g1117
sg62
(lp1124
S"<Values at 0x96ccdcc: {'verbose': False, 'ip': '127.0.0.1', 'with_scheduler': False, 'ips': [], 'shutdown_timeout': 5, 'taskbar': False, 'port': 8000, 'maxthreads': None, 'softcron': False, 'server_name': 'pankaj-HP-Pavilion-dv4-Notebook-PC', 'bpython': False, 'nogui': False, 'pid_filename': 'httpserver.pid', 'extcron': False, 'runcron': False, 'run_system_tests': False, 'test': None, 'folder': '/home/pankaj/web2py', 'config': '', 'import_models': False, 'winservice': '', 'shell': None, 'run': '', 'log_filename': 'httpserver.log', 'debuglevel': 30, 'args': [''], 'socket_timeout': 5, 'ssl_ca_certificate': None, 'scheduler': None, 'profiler_filename': None, 'ssl_private_key': '', 'scheduler_groups': None, 'password': '<ask>', 'request_queue_size': 5, 'ssl_certificate': '', 'cronjob': False, 'numthreads': None, 'quiet': False, 'interfaces': None, 'minthreads': None, 'timeout': 10, 'plain': False, 'nobanner': False}>"
p1125
asbasbasbag55
(g71
g57
NtRp1126
(dp1127
g60
(dp1128
sg69
g1031
sg62
(lp1129
g55
(g76
g57
NtRp1130
(dp1131
g60
(dp1132
g80
g81
ssg69
g1126
sg62
(lp1133
S'db_sessions'
p1134
asbag55
(g76
g57
NtRp1135
(dp1136
g60
(dp1137
g87
g88
ssg69
g1126
sg62
(lp1138
S':'
asbag55
(g76
g57
NtRp1139
(dp1140
g60
(dp1141
sg69
g1126
sg62
(lp1142
g55
(g56
g57
NtRp1143
(dp1144
g60
(dp1145
g68
I4
ssg69
g1139
sg62
(lp1146
S'set([])'
p1147
asbasbasbag55
(g71
g57
NtRp1148
(dp1149
g60
(dp1150
sg69
g1031
sg62
(lp1151
g55
(g76
g57
NtRp1152
(dp1153
g60
(dp1154
g80
g81
ssg69
g1148
sg62
(lp1155
S'debugging'
p1156
asbag55
(g76
g57
NtRp1157
(dp1158
g60
(dp1159
g87
g88
ssg69
g1148
sg62
(lp1160
S':'
asbag55
(g76
g57
NtRp1161
(dp1162
g60
(dp1163
sg69
g1148
sg62
(lp1164
g55
(g56
g57
NtRp1165
(dp1166
g60
(dp1167
g68
I4
ssg69
g1161
sg62
(lp1168
g98
asbasbasbag55
(g71
g57
NtRp1169
(dp1170
g60
(dp1171
sg69
g1031
sg62
(lp1172
g55
(g76
g57
NtRp1173
(dp1174
g60
(dp1175
g80
g81
ssg69
g1169
sg62
(lp1176
S'gluon_parent'
p1177
asbag55
(g76
g57
NtRp1178
(dp1179
g60
(dp1180
g87
g88
ssg69
g1169
sg62
(lp1181
S':'
asbag55
(g76
g57
NtRp1182
(dp1183
g60
(dp1184
sg69
g1169
sg62
(lp1185
g55
(g56
g57
NtRp1186
(dp1187
g60
(dp1188
g68
I4
ssg69
g1182
sg62
(lp1189
S'/home/pankaj/web2py'
p1190
asbasbasbag55
(g71
g57
NtRp1191
(dp1192
g60
(dp1193
sg69
g1031
sg62
(lp1194
g55
(g76
g57
NtRp1195
(dp1196
g60
(dp1197
g80
g81
ssg69
g1191
sg62
(lp1198
S'http_accept'
p1199
asbag55
(g76
g57
NtRp1200
(dp1201
g60
(dp1202
g87
g88
ssg69
g1191
sg62
(lp1203
S':'
asbag55
(g76
g57
NtRp1204
(dp1205
g60
(dp1206
sg69
g1191
sg62
(lp1207
g55
(g56
g57
NtRp1208
(dp1209
g60
(dp1210
g68
I4
ssg69
g1204
sg62
(lp1211
S'text/html,application/xhtml+xml,application/xml;q=0.9,*/*;q=0.8'
p1212
asbasbasbag55
(g71
g57
NtRp1213
(dp1214
g60
(dp1215
sg69
g1031
sg62
(lp1216
g55
(g76
g57
NtRp1217
(dp1218
g60
(dp1219
g80
g81
ssg69
g1213
sg62
(lp1220
S'http_accept_encoding'
p1221
asbag55
(g76
g57
NtRp1222
(dp1223
g60
(dp1224
g87
g88
ssg69
g1213
sg62
(lp1225
S':'
asbag55
(g76
g57
NtRp1226
(dp1227
g60
(dp1228
sg69
g1213
sg62
(lp1229
g55
(g56
g57
NtRp1230
(dp1231
g60
(dp1232
g68
I4
ssg69
g1226
sg62
(lp1233
S'gzip, deflate'
p1234
asbasbasbag55
(g71
g57
NtRp1235
(dp1236
g60
(dp1237
sg69
g1031
sg62
(lp1238
g55
(g76
g57
NtRp1239
(dp1240
g60
(dp1241
g80
g81
ssg69
g1235
sg62
(lp1242
S'http_accept_language'
p1243
asbag55
(g76
g57
NtRp1244
(dp1245
g60
(dp1246
g87
g88
ssg69
g1235
sg62
(lp1247
S':'
asbag55
(g76
g57
NtRp1248
(dp1249
g60
(dp1250
sg69
g1235
sg62
(lp1251
g55
(g56
g57
NtRp1252
(dp1253
g60
(dp1254
g68
I4
ssg69
g1248
sg62
(lp1255
S'en-US,en;q=0.5'
p1256
asbasbasbag55
(g71
g57
NtRp1257
(dp1258
g60
(dp1259
sg69
g1031
sg62
(lp1260
g55
(g76
g57
NtRp1261
(dp1262
g60
(dp1263
g80
g81
ssg69
g1257
sg62
(lp1264
S'http_connection'
p1265
asbag55
(g76
g57
NtRp1266
(dp1267
g60
(dp1268
g87
g88
ssg69
g1257
sg62
(lp1269
S':'
asbag55
(g76
g57
NtRp1270
(dp1271
g60
(dp1272
sg69
g1257
sg62
(lp1273
g55
(g56
g57
NtRp1274
(dp1275
g60
(dp1276
g68
I4
ssg69
g1270
sg62
(lp1277
S'keep-alive'
p1278
asbasbasbag55
(g71
g57
NtRp1279
(dp1280
g60
(dp1281
sg69
g1031
sg62
(lp1282
g55
(g76
g57
NtRp1283
(dp1284
g60
(dp1285
g80
g81
ssg69
g1279
sg62
(lp1286
S'http_cookie'
p1287
asbag55
(g76
g57
NtRp1288
(dp1289
g60
(dp1290
g87
g88
ssg69
g1279
sg62
(lp1291
S':'
asbag55
(g76
g57
NtRp1292
(dp1293
g60
(dp1294
sg69
g1279
sg62
(lp1295
g55
(g56
g57
NtRp1296
(dp1297
g60
(dp1298
g68
I4
ssg69
g1292
sg62
(lp1299
S'session_id_cataminder=127.0.0.1-f68dfbc3-e46b-4d7f-ad40-351d31d2febb; session_id_welcome=127.0.0.1-9b4305a2-907d-4b57-83fc-68c21fe009e1; session_id_admin=127.0.0.1-c7fd2c30-a4a8-47f9-8435-2955b7e0489d; session_id_reddit=127.0.0.1-b2e6bf86-ee8a-43c0-88e9-12c7f35bec5f'
p1300
asbasbasbag55
(g71
g57
NtRp1301
(dp1302
g60
(dp1303
sg69
g1031
sg62
(lp1304
g55
(g76
g57
NtRp1305
(dp1306
g60
(dp1307
g80
g81
ssg69
g1301
sg62
(lp1308
S'http_host'
p1309
asbag55
(g76
g57
NtRp1310
(dp1311
g60
(dp1312
g87
g88
ssg69
g1301
sg62
(lp1313
S':'
asbag55
(g76
g57
NtRp1314
(dp1315
g60
(dp1316
sg69
g1301
sg62
(lp1317
g55
(g56
g57
NtRp1318
(dp1319
g60
(dp1320
g68
I4
ssg69
g1314
sg62
(lp1321
S'127.0.0.1:8000'
p1322
asbasbasbag55
(g71
g57
NtRp1323
(dp1324
g60
(dp1325
sg69
g1031
sg62
(lp1326
g55
(g76
g57
NtRp1327
(dp1328
g60
(dp1329
g80
g81
ssg69
g1323
sg62
(lp1330
S'http_referer'
p1331
asbag55
(g76
g57
NtRp1332
(dp1333
g60
(dp1334
g87
g88
ssg69
g1323
sg62
(lp1335
S':'
asbag55
(g76
g57
NtRp1336
(dp1337
g60
(dp1338
sg69
g1323
sg62
(lp1339
g55
(g56
g57
NtRp1340
(dp1341
g60
(dp1342
g68
I4
ssg69
g1336
sg62
(lp1343
S'http://127.0.0.1:8000/reddit/default/adminpage.html'
p1344
asbasbasbag55
(g71
g57
NtRp1345
(dp1346
g60
(dp1347
sg69
g1031
sg62
(lp1348
g55
(g76
g57
NtRp1349
(dp1350
g60
(dp1351
g80
g81
ssg69
g1345
sg62
(lp1352
S'http_user_agent'
p1353
asbag55
(g76
g57
NtRp1354
(dp1355
g60
(dp1356
g87
g88
ssg69
g1345
sg62
(lp1357
S':'
asbag55
(g76
g57
NtRp1358
(dp1359
g60
(dp1360
sg69
g1345
sg62
(lp1361
g55
(g56
g57
NtRp1362
(dp1363
g60
(dp1364
g68
I4
ssg69
g1358
sg62
(lp1365
S'Mozilla/5.0 (X11; Ubuntu; Linux i686; rv:23.0) Gecko/20100101 Firefox/23.0'
p1366
asbasbasbag55
(g71
g57
NtRp1367
(dp1368
g60
(dp1369
sg69
g1031
sg62
(lp1370
g55
(g76
g57
NtRp1371
(dp1372
g60
(dp1373
g80
g81
ssg69
g1367
sg62
(lp1374
S'is_jython'
p1375
asbag55
(g76
g57
NtRp1376
(dp1377
g60
(dp1378
g87
g88
ssg69
g1367
sg62
(lp1379
S':'
asbag55
(g76
g57
NtRp1380
(dp1381
g60
(dp1382
sg69
g1367
sg62
(lp1383
g55
(g56
g57
NtRp1384
(dp1385
g60
(dp1386
g68
I4
ssg69
g1380
sg62
(lp1387
g98
asbasbasbag55
(g71
g57
NtRp1388
(dp1389
g60
(dp1390
sg69
g1031
sg62
(lp1391
g55
(g76
g57
NtRp1392
(dp1393
g60
(dp1394
g80
g81
ssg69
g1388
sg62
(lp1395
S'is_pypy'
p1396
asbag55
(g76
g57
NtRp1397
(dp1398
g60
(dp1399
g87
g88
ssg69
g1388
sg62
(lp1400
S':'
asbag55
(g76
g57
NtRp1401
(dp1402
g60
(dp1403
sg69
g1388
sg62
(lp1404
g55
(g56
g57
NtRp1405
(dp1406
g60
(dp1407
g68
I4
ssg69
g1401
sg62
(lp1408
g98
asbasbasbag55
(g71
g57
NtRp1409
(dp1410
g60
(dp1411
sg69
g1031
sg62
(lp1412
g55
(g76
g57
NtRp1413
(dp1414
g60
(dp1415
g80
g81
ssg69
g1409
sg62
(lp1416
S'local_hosts'
p1417
asbag55
(g76
g57
NtRp1418
(dp1419
g60
(dp1420
g87
g88
ssg69
g1409
sg62
(lp1421
S':'
asbag55
(g76
g57
NtRp1422
(dp1423
g60
(dp1424
sg69
g1409
sg62
(lp1425
g55
(g56
g57
NtRp1426
(dp1427
g60
(dp1428
g68
I4
ssg69
g1422
sg62
(lp1429
g55
(g64
g57
NtRp1430
(dp1431
g60
(dp1432
g68
I3
ssg69
Nsg62
(lp1433
g55
(g71
g57
NtRp1434
(dp1435
g60
(dp1436
sg69
g1430
sg62
(lp1437
g55
(g76
g57
NtRp1438
(dp1439
g60
(dp1440
sg69
g1434
sg62
(lp1441
g55
(g56
g57
NtRp1442
(dp1443
g60
(dp1444
g68
I3
ssg69
g1438
sg62
(lp1445
S'pankaj-HP-Pavilion-dv4-Notebook-PC'
p1446
asbasbasbag55
(g71
g57
NtRp1447
(dp1448
g60
(dp1449
sg69
g1430
sg62
(lp1450
g55
(g76
g57
NtRp1451
(dp1452
g60
(dp1453
sg69
g1447
sg62
(lp1454
g55
(g56
g57
NtRp1455
(dp1456
g60
(dp1457
g68
I3
ssg69
g1451
sg62
(lp1458
S'::1'
p1459
asbasbasbag55
(g71
g57
NtRp1460
(dp1461
g60
(dp1462
sg69
g1430
sg62
(lp1463
g55
(g76
g57
NtRp1464
(dp1465
g60
(dp1466
sg69
g1460
sg62
(lp1467
g55
(g56
g57
NtRp1468
(dp1469
g60
(dp1470
g68
I3
ssg69
g1464
sg62
(lp1471
S'127.0.1.1'
p1472
asbasbasbag55
(g71
g57
NtRp1473
(dp1474
g60
(dp1475
sg69
g1430
sg62
(lp1476
g55
(g76
g57
NtRp1477
(dp1478
g60
(dp1479
sg69
g1473
sg62
(lp1480
g55
(g56
g57
NtRp1481
(dp1482
g60
(dp1483
g68
I3
ssg69
g1477
sg62
(lp1484
S'::ffff:127.0.0.1'
p1485
asbasbasbag55
(g71
g57
NtRp1486
(dp1487
g60
(dp1488
sg69
g1430
sg62
(lp1489
g55
(g76
g57
NtRp1490
(dp1491
g60
(dp1492
sg69
g1486
sg62
(lp1493
g55
(g56
g57
NtRp1494
(dp1495
g60
(dp1496
g68
I3
ssg69
g1490
sg62
(lp1497
S'127.0.0.1'
p1498
asbasbasbasbasbasbasbag55
(g71
g57
NtRp1499
(dp1500
g60
(dp1501
sg69
g1031
sg62
(lp1502
g55
(g76
g57
NtRp1503
(dp1504
g60
(dp1505
g80
g81
ssg69
g1499
sg62
(lp1506
S'path_info'
p1507
asbag55
(g76
g57
NtRp1508
(dp1509
g60
(dp1510
g87
g88
ssg69
g1499
sg62
(lp1511
S':'
asbag55
(g76
g57
NtRp1512
(dp1513
g60
(dp1514
sg69
g1499
sg62
(lp1515
g55
(g56
g57
NtRp1516
(dp1517
g60
(dp1518
g68
I4
ssg69
g1512
sg62
(lp1519
S'/reddit/default/addcat.html'
p1520
asbasbasbag55
(g71
g57
NtRp1521
(dp1522
g60
(dp1523
sg69
g1031
sg62
(lp1524
g55
(g76
g57
NtRp1525
(dp1526
g60
(dp1527
g80
g81
ssg69
g1521
sg62
(lp1528
S'query_string'
p1529
asbag55
(g76
g57
NtRp1530
(dp1531
g60
(dp1532
g87
g88
ssg69
g1521
sg62
(lp1533
S':'
asbag55
(g76
g57
NtRp1534
(dp1535
g60
(dp1536
sg69
g1521
sg62
(lp1537
g55
(g56
g57
NtRp1538
(dp1539
g60
(dp1540
g68
I4
ssg69
g1534
sg62
(lp1541
S''
asbasbasbag55
(g71
g57
NtRp1542
(dp1543
g60
(dp1544
sg69
g1031
sg62
(lp1545
g55
(g76
g57
NtRp1546
(dp1547
g60
(dp1548
g80
g81
ssg69
g1542
sg62
(lp1549
S'remote_addr'
p1550
asbag55
(g76
g57
NtRp1551
(dp1552
g60
(dp1553
g87
g88
ssg69
g1542
sg62
(lp1554
S':'
asbag55
(g76
g57
NtRp1555
(dp1556
g60
(dp1557
sg69
g1542
sg62
(lp1558
g55
(g56
g57
NtRp1559
(dp1560
g60
(dp1561
g68
I4
ssg69
g1555
sg62
(lp1562
g210
asbasbasbag55
(g71
g57
NtRp1563
(dp1564
g60
(dp1565
sg69
g1031
sg62
(lp1566
g55
(g76
g57
NtRp1567
(dp1568
g60
(dp1569
g80
g81
ssg69
g1563
sg62
(lp1570
S'remote_port'
p1571
asbag55
(g76
g57
NtRp1572
(dp1573
g60
(dp1574
g87
g88
ssg69
g1563
sg62
(lp1575
S':'
asbag55
(g76
g57
NtRp1576
(dp1577
g60
(dp1578
sg69
g1563
sg62
(lp1579
g55
(g56
g57
NtRp1580
(dp1581
g60
(dp1582
g68
I4
ssg69
g1576
sg62
(lp1583
S'48985'
p1584
asbasbasbag55
(g71
g57
NtRp1585
(dp1586
g60
(dp1587
sg69
g1031
sg62
(lp1588
g55
(g76
g57
NtRp1589
(dp1590
g60
(dp1591
g80
g81
ssg69
g1585
sg62
(lp1592
S'request_method'
p1593
asbag55
(g76
g57
NtRp1594
(dp1595
g60
(dp1596
g87
g88
ssg69
g1585
sg62
(lp1597
S':'
asbag55
(g76
g57
NtRp1598
(dp1599
g60
(dp1600
sg69
g1585
sg62
(lp1601
g55
(g56
g57
NtRp1602
(dp1603
g60
(dp1604
g68
I4
ssg69
g1598
sg62
(lp1605
S'GET'
p1606
asbasbasbag55
(g71
g57
NtRp1607
(dp1608
g60
(dp1609
sg69
g1031
sg62
(lp1610
g55
(g76
g57
NtRp1611
(dp1612
g60
(dp1613
g80
g81
ssg69
g1607
sg62
(lp1614
S'request_uri'
p1615
asbag55
(g76
g57
NtRp1616
(dp1617
g60
(dp1618
g87
g88
ssg69
g1607
sg62
(lp1619
S':'
asbag55
(g76
g57
NtRp1620
(dp1621
g60
(dp1622
sg69
g1607
sg62
(lp1623
g55
(g56
g57
NtRp1624
(dp1625
g60
(dp1626
g68
I4
ssg69
g1620
sg62
(lp1627
g1520
asbasbasbag55
(g71
g57
NtRp1628
(dp1629
g60
(dp1630
sg69
g1031
sg62
(lp1631
g55
(g76
g57
NtRp1632
(dp1633
g60
(dp1634
g80
g81
ssg69
g1628
sg62
(lp1635
S'script_name'
p1636
asbag55
(g76
g57
NtRp1637
(dp1638
g60
(dp1639
g87
g88
ssg69
g1628
sg62
(lp1640
S':'
asbag55
(g76
g57
NtRp1641
(dp1642
g60
(dp1643
sg69
g1628
sg62
(lp1644
g55
(g56
g57
NtRp1645
(dp1646
g60
(dp1647
g68
I4
ssg69
g1641
sg62
(lp1648
S''
asbasbasbag55
(g71
g57
NtRp1649
(dp1650
g60
(dp1651
sg69
g1031
sg62
(lp1652
g55
(g76
g57
NtRp1653
(dp1654
g60
(dp1655
g80
g81
ssg69
g1649
sg62
(lp1656
S'server_name'
p1657
asbag55
(g76
g57
NtRp1658
(dp1659
g60
(dp1660
g87
g88
ssg69
g1649
sg62
(lp1661
S':'
asbag55
(g76
g57
NtRp1662
(dp1663
g60
(dp1664
sg69
g1649
sg62
(lp1665
g55
(g56
g57
NtRp1666
(dp1667
g60
(dp1668
g68
I4
ssg69
g1662
sg62
(lp1669
S'pankaj-HP-Pavilion-dv4-Notebook-PC'
p1670
asbasbasbag55
(g71
g57
NtRp1671
(dp1672
g60
(dp1673
sg69
g1031
sg62
(lp1674
g55
(g76
g57
NtRp1675
(dp1676
g60
(dp1677
g80
g81
ssg69
g1671
sg62
(lp1678
S'server_port'
p1679
asbag55
(g76
g57
NtRp1680
(dp1681
g60
(dp1682
g87
g88
ssg69
g1671
sg62
(lp1683
S':'
asbag55
(g76
g57
NtRp1684
(dp1685
g60
(dp1686
sg69
g1671
sg62
(lp1687
g55
(g56
g57
NtRp1688
(dp1689
g60
(dp1690
g68
I4
ssg69
g1684
sg62
(lp1691
S'8000'
p1692
asbasbasbag55
(g71
g57
NtRp1693
(dp1694
g60
(dp1695
sg69
g1031
sg62
(lp1696
g55
(g76
g57
NtRp1697
(dp1698
g60
(dp1699
g80
g81
ssg69
g1693
sg62
(lp1700
S'server_protocol'
p1701
asbag55
(g76
g57
NtRp1702
(dp1703
g60
(dp1704
g87
g88
ssg69
g1693
sg62
(lp1705
S':'
asbag55
(g76
g57
NtRp1706
(dp1707
g60
(dp1708
sg69
g1693
sg62
(lp1709
g55
(g56
g57
NtRp1710
(dp1711
g60
(dp1712
g68
I4
ssg69
g1706
sg62
(lp1713
S'HTTP/1.1'
p1714
asbasbasbag55
(g71
g57
NtRp1715
(dp1716
g60
(dp1717
sg69
g1031
sg62
(lp1718
g55
(g76
g57
NtRp1719
(dp1720
g60
(dp1721
g80
g81
ssg69
g1715
sg62
(lp1722
S'server_software'
p1723
asbag55
(g76
g57
NtRp1724
(dp1725
g60
(dp1726
g87
g88
ssg69
g1715
sg62
(lp1727
S':'
asbag55
(g76
g57
NtRp1728
(dp1729
g60
(dp1730
sg69
g1715
sg62
(lp1731
g55
(g56
g57
NtRp1732
(dp1733
g60
(dp1734
g68
I4
ssg69
g1728
sg62
(lp1735
S'Rocket 1.2.6'
p1736
asbasbasbag55
(g71
g57
NtRp1737
(dp1738
g60
(dp1739
sg69
g1031
sg62
(lp1740
g55
(g76
g57
NtRp1741
(dp1742
g60
(dp1743
g80
g81
ssg69
g1737
sg62
(lp1744
S'web2py_path'
p1745
asbag55
(g76
g57
NtRp1746
(dp1747
g60
(dp1748
g87
g88
ssg69
g1737
sg62
(lp1749
S':'
asbag55
(g76
g57
NtRp1750
(dp1751
g60
(dp1752
sg69
g1737
sg62
(lp1753
g55
(g56
g57
NtRp1754
(dp1755
g60
(dp1756
g68
I4
ssg69
g1750
sg62
(lp1757
g1078
asbasbasbag55
(g71
g57
NtRp1758
(dp1759
g60
(dp1760
sg69
g1031
sg62
(lp1761
g55
(g76
g57
NtRp1762
(dp1763
g60
(dp1764
g80
g81
ssg69
g1758
sg62
(lp1765
S'web2py_version'
p1766
asbag55
(g76
g57
NtRp1767
(dp1768
g60
(dp1769
g87
g88
ssg69
g1758
sg62
(lp1770
S':'
asbag55
(g76
g57
NtRp1771
(dp1772
g60
(dp1773
sg69
g1758
sg62
(lp1774
g55
(g56
g57
NtRp1775
(dp1776
g60
(dp1777
g68
I4
ssg69
g1771
sg62
(lp1778
g55
(g64
g57
NtRp1779
(dp1780
g60
(dp1781
g68
I3
ssg69
Nsg62
(lp1782
g55
(g71
g57
NtRp1783
(dp1784
g60
(dp1785
sg69
g1779
sg62
(lp1786
g55
(g76
g57
NtRp1787
(dp1788
g60
(dp1789
sg69
g1783
sg62
(lp1790
g55
(g56
g57
NtRp1791
(dp1792
g60
(dp1793
g68
I3
ssg69
g1787
sg62
(lp1794
S'2'
asbasbasbag55
(g71
g57
NtRp1795
(dp1796
g60
(dp1797
sg69
g1779
sg62
(lp1798
g55
(g76
g57
NtRp1799
(dp1800
g60
(dp1801
sg69
g1795
sg62
(lp1802
g55
(g56
g57
NtRp1803
(dp1804
g60
(dp1805
g68
I3
ssg69
g1799
sg62
(lp1806
S'3'
asbasbasbag55
(g71
g57
NtRp1807
(dp1808
g60
(dp1809
sg69
g1779
sg62
(lp1810
g55
(g76
g57
NtRp1811
(dp1812
g60
(dp1813
sg69
g1807
sg62
(lp1814
g55
(g56
g57
NtRp1815
(dp1816
g60
(dp1817
g68
I3
ssg69
g1811
sg62
(lp1818
S'2'
asbasbasbag55
(g71
g57
NtRp1819
(dp1820
g60
(dp1821
sg69
g1779
sg62
(lp1822
g55
(g76
g57
NtRp1823
(dp1824
g60
(dp1825
sg69
g1819
sg62
(lp1826
g55
(g56
g57
NtRp1827
(dp1828
g60
(dp1829
g68
I3
ssg69
g1823
sg62
(lp1830
S'datetime.datetime(2012, 12, 17, 15, 3, 30)'
p1831
asbasbasbag55
(g71
g57
NtRp1832
(dp1833
g60
(dp1834
sg69
g1779
sg62
(lp1835
g55
(g76
g57
NtRp1836
(dp1837
g60
(dp1838
sg69
g1832
sg62
(lp1839
g55
(g56
g57
NtRp1840
(dp1841
g60
(dp1842
g68
I3
ssg69
g1836
sg62
(lp1843
S'stable'
p1844
asbasbasbasbasbasbasbag55
(g71
g57
NtRp1845
(dp1846
g60
(dp1847
sg69
g1031
sg62
(lp1848
g55
(g76
g57
NtRp1849
(dp1850
g60
(dp1851
g80
g81
ssg69
g1845
sg62
(lp1852
S'wsgi_errors'
p1853
asbag55
(g76
g57
NtRp1854
(dp1855
g60
(dp1856
g87
g88
ssg69
g1845
sg62
(lp1857
S':'
asbag55
(g76
g57
NtRp1858
(dp1859
g60
(dp1860
sg69
g1845
sg62
(lp1861
g55
(g56
g57
NtRp1862
(dp1863
g60
(dp1864
g68
I4
ssg69
g1858
sg62
(lp1865
S"<open file '<stderr>', mode 'w' at 0xb72ba0d0>"
p1866
asbasbasbag55
(g71
g57
NtRp1867
(dp1868
g60
(dp1869
sg69
g1031
sg62
(lp1870
g55
(g76
g57
NtRp1871
(dp1872
g60
(dp1873
g80
g81
ssg69
g1867
sg62
(lp1874
S'wsgi_file_wrapper'
p1875
asbag55
(g76
g57
NtRp1876
(dp1877
g60
(dp1878
g87
g88
ssg69
g1867
sg62
(lp1879
S':'
asbag55
(g76
g57
NtRp1880
(dp1881
g60
(dp1882
sg69
g1867
sg62
(lp1883
g55
(g56
g57
NtRp1884
(dp1885
g60
(dp1886
g68
I4
ssg69
g1880
sg62
(lp1887
S'<class wsgiref.util.FileWrapper at 0x969205c>'
p1888
asbasbasbag55
(g71
g57
NtRp1889
(dp1890
g60
(dp1891
sg69
g1031
sg62
(lp1892
g55
(g76
g57
NtRp1893
(dp1894
g60
(dp1895
g80
g81
ssg69
g1889
sg62
(lp1896
S'wsgi_input'
p1897
asbag55
(g76
g57
NtRp1898
(dp1899
g60
(dp1900
g87
g88
ssg69
g1889
sg62
(lp1901
S':'
asbag55
(g76
g57
NtRp1902
(dp1903
g60
(dp1904
sg69
g1889
sg62
(lp1905
g55
(g56
g57
NtRp1906
(dp1907
g60
(dp1908
g68
I4
ssg69
g1902
sg62
(lp1909
S'<socket._fileobject object at 0xaebbfcec>'
p1910
asbasbasbag55
(g71
g57
NtRp1911
(dp1912
g60
(dp1913
sg69
g1031
sg62
(lp1914
g55
(g76
g57
NtRp1915
(dp1916
g60
(dp1917
g80
g81
ssg69
g1911
sg62
(lp1918
S'wsgi_multiprocess'
p1919
asbag55
(g76
g57
NtRp1920
(dp1921
g60
(dp1922
g87
g88
ssg69
g1911
sg62
(lp1923
S':'
asbag55
(g76
g57
NtRp1924
(dp1925
g60
(dp1926
sg69
g1911
sg62
(lp1927
g55
(g56
g57
NtRp1928
(dp1929
g60
(dp1930
g68
I4
ssg69
g1924
sg62
(lp1931
g98
asbasbasbag55
(g71
g57
NtRp1932
(dp1933
g60
(dp1934
sg69
g1031
sg62
(lp1935
g55
(g76
g57
NtRp1936
(dp1937
g60
(dp1938
g80
g81
ssg69
g1932
sg62
(lp1939
S'wsgi_multithread'
p1940
asbag55
(g76
g57
NtRp1941
(dp1942
g60
(dp1943
g87
g88
ssg69
g1932
sg62
(lp1944
S':'
asbag55
(g76
g57
NtRp1945
(dp1946
g60
(dp1947
sg69
g1932
sg62
(lp1948
g55
(g56
g57
NtRp1949
(dp1950
g60
(dp1951
g68
I4
ssg69
g1945
sg62
(lp1952
S'True'
p1953
asbasbasbag55
(g71
g57
NtRp1954
(dp1955
g60
(dp1956
sg69
g1031
sg62
(lp1957
g55
(g76
g57
NtRp1958
(dp1959
g60
(dp1960
g80
g81
ssg69
g1954
sg62
(lp1961
S'wsgi_run_once'
p1962
asbag55
(g76
g57
NtRp1963
(dp1964
g60
(dp1965
g87
g88
ssg69
g1954
sg62
(lp1966
S':'
asbag55
(g76
g57
NtRp1967
(dp1968
g60
(dp1969
sg69
g1954
sg62
(lp1970
g55
(g56
g57
NtRp1971
(dp1972
g60
(dp1973
g68
I4
ssg69
g1967
sg62
(lp1974
g98
asbasbasbag55
(g71
g57
NtRp1975
(dp1976
g60
(dp1977
sg69
g1031
sg62
(lp1978
g55
(g76
g57
NtRp1979
(dp1980
g60
(dp1981
g80
g81
ssg69
g1975
sg62
(lp1982
S'wsgi_url_scheme'
p1983
asbag55
(g76
g57
NtRp1984
(dp1985
g60
(dp1986
g87
g88
ssg69
g1975
sg62
(lp1987
S':'
asbag55
(g76
g57
NtRp1988
(dp1989
g60
(dp1990
sg69
g1975
sg62
(lp1991
g55
(g56
g57
NtRp1992
(dp1993
g60
(dp1994
g68
I4
ssg69
g1988
sg62
(lp1995
S'http'
p1996
asbasbasbag55
(g71
g57
NtRp1997
(dp1998
g60
(dp1999
sg69
g1031
sg62
(lp2000
g55
(g76
g57
NtRp2001
(dp2002
g60
(dp2003
g80
g81
ssg69
g1997
sg62
(lp2004
S'wsgi_version'
p2005
asbag55
(g76
g57
NtRp2006
(dp2007
g60
(dp2008
g87
g88
ssg69
g1997
sg62
(lp2009
S':'
asbag55
(g76
g57
NtRp2010
(dp2011
g60
(dp2012
sg69
g1997
sg62
(lp2013
g55
(g56
g57
NtRp2014
(dp2015
g60
(dp2016
g68
I4
ssg69
g2010
sg62
(lp2017
g55
(g64
g57
NtRp2018
(dp2019
g60
(dp2020
g68
I3
ssg69
Nsg62
(lp2021
g55
(g71
g57
NtRp2022
(dp2023
g60
(dp2024
sg69
g2018
sg62
(lp2025
g55
(g76
g57
NtRp2026
(dp2027
g60
(dp2028
sg69
g2022
sg62
(lp2029
g55
(g56
g57
NtRp2030
(dp2031
g60
(dp2032
g68
I3
ssg69
g2026
sg62
(lp2033
S'1'
asbasbasbag55
(g71
g57
NtRp2034
(dp2035
g60
(dp2036
sg69
g2018
sg62
(lp2037
g55
(g76
g57
NtRp2038
(dp2039
g60
(dp2040
sg69
g2034
sg62
(lp2041
g55
(g56
g57
NtRp2042
(dp2043
g60
(dp2044
g68
I3
ssg69
g2038
sg62
(lp2045
S'0'
asbasbasbasbasbasbasbasbasbasbasbag55
(g71
g57
NtRp2046
(dp2047
g60
(dp2048
sg69
g65
sg62
(lp2049
g55
(g76
g57
NtRp2050
(dp2051
g60
(dp2052
g80
g81
ssg69
g2046
sg62
(lp2053
S'extension'
p2054
asbag55
(g76
g57
NtRp2055
(dp2056
g60
(dp2057
g87
g88
ssg69
g2046
sg62
(lp2058
S':'
asbag55
(g76
g57
NtRp2059
(dp2060
g60
(dp2061
sg69
g2046
sg62
(lp2062
g55
(g56
g57
NtRp2063
(dp2064
g60
(dp2065
g68
I5
ssg69
g2059
sg62
(lp2066
S'html'
p2067
asbasbasbag55
(g71
g57
NtRp2068
(dp2069
g60
(dp2070
sg69
g65
sg62
(lp2071
g55
(g76
g57
NtRp2072
(dp2073
g60
(dp2074
g80
g81
ssg69
g2068
sg62
(lp2075
S'folder'
p2076
asbag55
(g76
g57
NtRp2077
(dp2078
g60
(dp2079
g87
g88
ssg69
g2068
sg62
(lp2080
S':'
asbag55
(g76
g57
NtRp2081
(dp2082
g60
(dp2083
sg69
g2068
sg62
(lp2084
g55
(g56
g57
NtRp2085
(dp2086
g60
(dp2087
g68
I5
ssg69
g2081
sg62
(lp2088
S'/home/pankaj/web2py/applications/reddit/'
p2089
asbasbasbag55
(g71
g57
NtRp2090
(dp2091
g60
(dp2092
sg69
g65
sg62
(lp2093
g55
(g76
g57
NtRp2094
(dp2095
g60
(dp2096
g80
g81
ssg69
g2090
sg62
(lp2097
S'function'
p2098
asbag55
(g76
g57
NtRp2099
(dp2100
g60
(dp2101
g87
g88
ssg69
g2090
sg62
(lp2102
S':'
asbag55
(g76
g57
NtRp2103
(dp2104
g60
(dp2105
sg69
g2090
sg62
(lp2106
g55
(g56
g57
NtRp2107
(dp2108
g60
(dp2109
g68
I5
ssg69
g2103
sg62
(lp2110
S'addcat'
p2111
asbasbasbag55
(g71
g57
NtRp2112
(dp2113
g60
(dp2114
sg69
g65
sg62
(lp2115
g55
(g76
g57
NtRp2116
(dp2117
g60
(dp2118
g80
g81
ssg69
g2112
sg62
(lp2119
S'get_vars'
p2120
asbag55
(g76
g57
NtRp2121
(dp2122
g60
(dp2123
g87
g88
ssg69
g2112
sg62
(lp2124
S':'
asbag55
(g76
g57
NtRp2125
(dp2126
g60
(dp2127
sg69
g2112
sg62
(lp2128
g55
(g56
g57
NtRp2129
(dp2130
g60
(dp2131
g68
I5
ssg69
g2125
sg62
(lp2132
g55
(g64
g57
NtRp2133
(dp2134
g60
(dp2135
g68
I4
ssg69
Nsg62
(lp2136
sbasbasbasbag55
(g71
g57
NtRp2137
(dp2138
g60
(dp2139
sg69
g65
sg62
(lp2140
g55
(g76
g57
NtRp2141
(dp2142
g60
(dp2143
g80
g81
ssg69
g2137
sg62
(lp2144
S'global_settings'
p2145
asbag55
(g76
g57
NtRp2146
(dp2147
g60
(dp2148
g87
g88
ssg69
g2137
sg62
(lp2149
S':'
asbag55
(g76
g57
NtRp2150
(dp2151
g60
(dp2152
sg69
g2137
sg62
(lp2153
g55
(g56
g57
NtRp2154
(dp2155
g60
(dp2156
g68
I5
ssg69
g2150
sg62
(lp2157
g55
(g64
g57
NtRp2158
(dp2159
g60
(dp2160
g68
I4
ssg69
Nsg62
(lp2161
g55
(g71
g57
NtRp2162
(dp2163
g60
(dp2164
sg69
g2158
sg62
(lp2165
g55
(g76
g57
NtRp2166
(dp2167
g60
(dp2168
g80
g81
ssg69
g2162
sg62
(lp2169
g1043
asbag55
(g76
g57
NtRp2170
(dp2171
g60
(dp2172
g87
g88
ssg69
g2162
sg62
(lp2173
S':'
asbag55
(g76
g57
NtRp2174
(dp2175
g60
(dp2176
sg69
g2162
sg62
(lp2177
g55
(g56
g57
NtRp2178
(dp2179
g60
(dp2180
g68
I4
ssg69
g2174
sg62
(lp2181
S"set(['/home/pankaj/web2py/applications/admin/', '/home/pankaj/web2py/applications/welcome/', '/home/pankaj/web2py/applications/reddit/'])"
p2182
asbasbasbag55
(g71
g57
NtRp2183
(dp2184
g60
(dp2185
sg69
g2158
sg62
(lp2186
g55
(g76
g57
NtRp2187
(dp2188
g60
(dp2189
g80
g81
ssg69
g2183
sg62
(lp2190
g1065
asbag55
(g76
g57
NtRp2191
(dp2192
g60
(dp2193
g87
g88
ssg69
g2183
sg62
(lp2194
S':'
asbag55
(g76
g57
NtRp2195
(dp2196
g60
(dp2197
sg69
g2183
sg62
(lp2198
g55
(g56
g57
NtRp2199
(dp2200
g60
(dp2201
g68
I4
ssg69
g2195
sg62
(lp2202
g1078
asbasbasbag55
(g71
g57
NtRp2203
(dp2204
g60
(dp2205
sg69
g2158
sg62
(lp2206
g55
(g76
g57
NtRp2207
(dp2208
g60
(dp2209
g80
g81
ssg69
g2203
sg62
(lp2210
g1087
asbag55
(g76
g57
NtRp2211
(dp2212
g60
(dp2213
g87
g88
ssg69
g2203
sg62
(lp2214
S':'
asbag55
(g76
g57
NtRp2215
(dp2216
g60
(dp2217
sg69
g2203
sg62
(lp2218
g55
(g56
g57
NtRp2219
(dp2220
g60
(dp2221
g68
I4
ssg69
g2215
sg62
(lp2222
g55
(g64
g57
NtRp2223
(dp2224
g60
(dp2225
g68
I3
ssg69
Nsg62
(lp2226
sbasbasbasbag55
(g71
g57
NtRp2227
(dp2228
g60
(dp2229
sg69
g2158
sg62
(lp2230
g55
(g76
g57
NtRp2231
(dp2232
g60
(dp2233
g80
g81
ssg69
g2227
sg62
(lp2234
g1112
asbag55
(g76
g57
NtRp2235
(dp2236
g60
(dp2237
g87
g88
ssg69
g2227
sg62
(lp2238
S':'
asbag55
(g76
g57
NtRp2239
(dp2240
g60
(dp2241
sg69
g2227
sg62
(lp2242
g55
(g56
g57
NtRp2243
(dp2244
g60
(dp2245
g68
I4
ssg69
g2239
sg62
(lp2246
S"<Values at 0x96ccdcc: {'verbose': False, 'ip': '127.0.0.1', 'with_scheduler': False, 'ips': [], 'shutdown_timeout': 5, 'taskbar': False, 'port': 8000, 'maxthreads': None, 'softcron': False, 'server_name': 'pankaj-HP-Pavilion-dv4-Notebook-PC', 'bpython': False, 'nogui': False, 'pid_filename': 'httpserver.pid', 'extcron': False, 'runcron': False, 'run_system_tests': False, 'test': None, 'folder': '/home/pankaj/web2py', 'config': '', 'import_models': False, 'winservice': '', 'shell': None, 'run': '', 'log_filename': 'httpserver.log', 'debuglevel': 30, 'args': [''], 'socket_timeout': 5, 'ssl_ca_certificate': None, 'scheduler': None, 'profiler_filename': None, 'ssl_private_key': '', 'scheduler_groups': None, 'password': '<ask>', 'request_queue_size': 5, 'ssl_certificate': '', 'cronjob': False, 'numthreads': None, 'quiet': False, 'interfaces': None, 'minthreads': None, 'timeout': 10, 'plain': False, 'nobanner': False}>"
p2247
asbasbasbag55
(g71
g57
NtRp2248
(dp2249
g60
(dp2250
sg69
g2158
sg62
(lp2251
g55
(g76
g57
NtRp2252
(dp2253
g60
(dp2254
g80
g81
ssg69
g2248
sg62
(lp2255
g1134
asbag55
(g76
g57
NtRp2256
(dp2257
g60
(dp2258
g87
g88
ssg69
g2248
sg62
(lp2259
S':'
asbag55
(g76
g57
NtRp2260
(dp2261
g60
(dp2262
sg69
g2248
sg62
(lp2263
g55
(g56
g57
NtRp2264
(dp2265
g60
(dp2266
g68
I4
ssg69
g2260
sg62
(lp2267
S'set([])'
p2268
asbasbasbag55
(g71
g57
NtRp2269
(dp2270
g60
(dp2271
sg69
g2158
sg62
(lp2272
g55
(g76
g57
NtRp2273
(dp2274
g60
(dp2275
g80
g81
ssg69
g2269
sg62
(lp2276
g1156
asbag55
(g76
g57
NtRp2277
(dp2278
g60
(dp2279
g87
g88
ssg69
g2269
sg62
(lp2280
S':'
asbag55
(g76
g57
NtRp2281
(dp2282
g60
(dp2283
sg69
g2269
sg62
(lp2284
g55
(g56
g57
NtRp2285
(dp2286
g60
(dp2287
g68
I4
ssg69
g2281
sg62
(lp2288
g98
asbasbasbag55
(g71
g57
NtRp2289
(dp2290
g60
(dp2291
sg69
g2158
sg62
(lp2292
g55
(g76
g57
NtRp2293
(dp2294
g60
(dp2295
g80
g81
ssg69
g2289
sg62
(lp2296
g1177
asbag55
(g76
g57
NtRp2297
(dp2298
g60
(dp2299
g87
g88
ssg69
g2289
sg62
(lp2300
S':'
asbag55
(g76
g57
NtRp2301
(dp2302
g60
(dp2303
sg69
g2289
sg62
(lp2304
g55
(g56
g57
NtRp2305
(dp2306
g60
(dp2307
g68
I4
ssg69
g2301
sg62
(lp2308
g1190
asbasbasbag55
(g71
g57
NtRp2309
(dp2310
g60
(dp2311
sg69
g2158
sg62
(lp2312
g55
(g76
g57
NtRp2313
(dp2314
g60
(dp2315
g80
g81
ssg69
g2309
sg62
(lp2316
g1375
asbag55
(g76
g57
NtRp2317
(dp2318
g60
(dp2319
g87
g88
ssg69
g2309
sg62
(lp2320
S':'
asbag55
(g76
g57
NtRp2321
(dp2322
g60
(dp2323
sg69
g2309
sg62
(lp2324
g55
(g56
g57
NtRp2325
(dp2326
g60
(dp2327
g68
I4
ssg69
g2321
sg62
(lp2328
g98
asbasbasbag55
(g71
g57
NtRp2329
(dp2330
g60
(dp2331
sg69
g2158
sg62
(lp2332
g55
(g76
g57
NtRp2333
(dp2334
g60
(dp2335
g80
g81
ssg69
g2329
sg62
(lp2336
g1396
asbag55
(g76
g57
NtRp2337
(dp2338
g60
(dp2339
g87
g88
ssg69
g2329
sg62
(lp2340
S':'
asbag55
(g76
g57
NtRp2341
(dp2342
g60
(dp2343
sg69
g2329
sg62
(lp2344
g55
(g56
g57
NtRp2345
(dp2346
g60
(dp2347
g68
I4
ssg69
g2341
sg62
(lp2348
g98
asbasbasbag55
(g71
g57
NtRp2349
(dp2350
g60
(dp2351
sg69
g2158
sg62
(lp2352
g55
(g76
g57
NtRp2353
(dp2354
g60
(dp2355
g80
g81
ssg69
g2349
sg62
(lp2356
g1417
asbag55
(g76
g57
NtRp2357
(dp2358
g60
(dp2359
g87
g88
ssg69
g2349
sg62
(lp2360
S':'
asbag55
(g76
g57
NtRp2361
(dp2362
g60
(dp2363
sg69
g2349
sg62
(lp2364
g55
(g56
g57
NtRp2365
(dp2366
g60
(dp2367
g68
I4
ssg69
g2361
sg62
(lp2368
g55
(g64
g57
NtRp2369
(dp2370
g60
(dp2371
g68
I3
ssg69
Nsg62
(lp2372
g55
(g71
g57
NtRp2373
(dp2374
g60
(dp2375
sg69
g2369
sg62
(lp2376
g55
(g76
g57
NtRp2377
(dp2378
g60
(dp2379
sg69
g2373
sg62
(lp2380
g55
(g56
g57
NtRp2381
(dp2382
g60
(dp2383
g68
I3
ssg69
g2377
sg62
(lp2384
g1446
asbasbasbag55
(g71
g57
NtRp2385
(dp2386
g60
(dp2387
sg69
g2369
sg62
(lp2388
g55
(g76
g57
NtRp2389
(dp2390
g60
(dp2391
sg69
g2385
sg62
(lp2392
g55
(g56
g57
NtRp2393
(dp2394
g60
(dp2395
g68
I3
ssg69
g2389
sg62
(lp2396
g1459
asbasbasbag55
(g71
g57
NtRp2397
(dp2398
g60
(dp2399
sg69
g2369
sg62
(lp2400
g55
(g76
g57
NtRp2401
(dp2402
g60
(dp2403
sg69
g2397
sg62
(lp2404
g55
(g56
g57
NtRp2405
(dp2406
g60
(dp2407
g68
I3
ssg69
g2401
sg62
(lp2408
g1472
asbasbasbag55
(g71
g57
NtRp2409
(dp2410
g60
(dp2411
sg69
g2369
sg62
(lp2412
g55
(g76
g57
NtRp2413
(dp2414
g60
(dp2415
sg69
g2409
sg62
(lp2416
g55
(g56
g57
NtRp2417
(dp2418
g60
(dp2419
g68
I3
ssg69
g2413
sg62
(lp2420
g1485
asbasbasbag55
(g71
g57
NtRp2421
(dp2422
g60
(dp2423
sg69
g2369
sg62
(lp2424
g55
(g76
g57
NtRp2425
(dp2426
g60
(dp2427
sg69
g2421
sg62
(lp2428
g55
(g56
g57
NtRp2429
(dp2430
g60
(dp2431
g68
I3
ssg69
g2425
sg62
(lp2432
g1498
asbasbasbasbasbasbasbag55
(g71
g57
NtRp2433
(dp2434
g60
(dp2435
sg69
g2158
sg62
(lp2436
g55
(g76
g57
NtRp2437
(dp2438
g60
(dp2439
g80
g81
ssg69
g2433
sg62
(lp2440
g1766
asbag55
(g76
g57
NtRp2441
(dp2442
g60
(dp2443
g87
g88
ssg69
g2433
sg62
(lp2444
S':'
asbag55
(g76
g57
NtRp2445
(dp2446
g60
(dp2447
sg69
g2433
sg62
(lp2448
g55
(g56
g57
NtRp2449
(dp2450
g60
(dp2451
g68
I4
ssg69
g2445
sg62
(lp2452
g55
(g64
g57
NtRp2453
(dp2454
g60
(dp2455
g68
I3
ssg69
Nsg62
(lp2456
g55
(g71
g57
NtRp2457
(dp2458
g60
(dp2459
sg69
g2453
sg62
(lp2460
g55
(g76
g57
NtRp2461
(dp2462
g60
(dp2463
sg69
g2457
sg62
(lp2464
g55
(g56
g57
NtRp2465
(dp2466
g60
(dp2467
g68
I3
ssg69
g2461
sg62
(lp2468
S'2'
asbasbasbag55
(g71
g57
NtRp2469
(dp2470
g60
(dp2471
sg69
g2453
sg62
(lp2472
g55
(g76
g57
NtRp2473
(dp2474
g60
(dp2475
sg69
g2469
sg62
(lp2476
g55
(g56
g57
NtRp2477
(dp2478
g60
(dp2479
g68
I3
ssg69
g2473
sg62
(lp2480
S'3'
asbasbasbag55
(g71
g57
NtRp2481
(dp2482
g60
(dp2483
sg69
g2453
sg62
(lp2484
g55
(g76
g57
NtRp2485
(dp2486
g60
(dp2487
sg69
g2481
sg62
(lp2488
g55
(g56
g57
NtRp2489
(dp2490
g60
(dp2491
g68
I3
ssg69
g2485
sg62
(lp2492
S'2'
asbasbasbag55
(g71
g57
NtRp2493
(dp2494
g60
(dp2495
sg69
g2453
sg62
(lp2496
g55
(g76
g57
NtRp2497
(dp2498
g60
(dp2499
sg69
g2493
sg62
(lp2500
g55
(g56
g57
NtRp2501
(dp2502
g60
(dp2503
g68
I3
ssg69
g2497
sg62
(lp2504
S'datetime.datetime(2012, 12, 17, 15, 3, 30)'
p2505
asbasbasbag55
(g71
g57
NtRp2506
(dp2507
g60
(dp2508
sg69
g2453
sg62
(lp2509
g55
(g76
g57
NtRp2510
(dp2511
g60
(dp2512
sg69
g2506
sg62
(lp2513
g55
(g56
g57
NtRp2514
(dp2515
g60
(dp2516
g68
I3
ssg69
g2510
sg62
(lp2517
g1844
asbasbasbasbasbasbasbasbasbasbasbag55
(g71
g57
NtRp2518
(dp2519
g60
(dp2520
sg69
g65
sg62
(lp2521
g55
(g76
g57
NtRp2522
(dp2523
g60
(dp2524
g80
g81
ssg69
g2518
sg62
(lp2525
S'is_https'
p2526
asbag55
(g76
g57
NtRp2527
(dp2528
g60
(dp2529
g87
g88
ssg69
g2518
sg62
(lp2530
S':'
asbag55
(g76
g57
NtRp2531
(dp2532
g60
(dp2533
sg69
g2518
sg62
(lp2534
g55
(g56
g57
NtRp2535
(dp2536
g60
(dp2537
g68
I5
ssg69
g2531
sg62
(lp2538
g98
asbasbasbag55
(g71
g57
NtRp2539
(dp2540
g60
(dp2541
sg69
g65
sg62
(lp2542
g55
(g76
g57
NtRp2543
(dp2544
g60
(dp2545
g80
g81
ssg69
g2539
sg62
(lp2546
S'is_local'
p2547
asbag55
(g76
g57
NtRp2548
(dp2549
g60
(dp2550
g87
g88
ssg69
g2539
sg62
(lp2551
S':'
asbag55
(g76
g57
NtRp2552
(dp2553
g60
(dp2554
sg69
g2539
sg62
(lp2555
g55
(g56
g57
NtRp2556
(dp2557
g60
(dp2558
g68
I5
ssg69
g2552
sg62
(lp2559
g1953
asbasbasbag55
(g71
g57
NtRp2560
(dp2561
g60
(dp2562
sg69
g65
sg62
(lp2563
g55
(g76
g57
NtRp2564
(dp2565
g60
(dp2566
g80
g81
ssg69
g2560
sg62
(lp2567
S'is_restful'
p2568
asbag55
(g76
g57
NtRp2569
(dp2570
g60
(dp2571
g87
g88
ssg69
g2560
sg62
(lp2572
S':'
asbag55
(g76
g57
NtRp2573
(dp2574
g60
(dp2575
sg69
g2560
sg62
(lp2576
g55
(g56
g57
NtRp2577
(dp2578
g60
(dp2579
g68
I5
ssg69
g2573
sg62
(lp2580
g98
asbasbasbag55
(g71
g57
NtRp2581
(dp2582
g60
(dp2583
sg69
g65
sg62
(lp2584
g55
(g76
g57
NtRp2585
(dp2586
g60
(dp2587
g80
g81
ssg69
g2581
sg62
(lp2588
S'now'
p2589
asbag55
(g76
g57
NtRp2590
(dp2591
g60
(dp2592
g87
g88
ssg69
g2581
sg62
(lp2593
S':'
asbag55
(g76
g57
NtRp2594
(dp2595
g60
(dp2596
sg69
g2581
sg62
(lp2597
g55
(g56
g57
NtRp2598
(dp2599
g60
(dp2600
g68
I5
ssg69
g2594
sg62
(lp2601
S'datetime.datetime(2013, 9, 2, 12, 9, 34, 205726)'
p2602
asbasbasbag55
(g71
g57
NtRp2603
(dp2604
g60
(dp2605
sg69
g65
sg62
(lp2606
g55
(g76
g57
NtRp2607
(dp2608
g60
(dp2609
g80
g81
ssg69
g2603
sg62
(lp2610
S'post_vars'
p2611
asbag55
(g76
g57
NtRp2612
(dp2613
g60
(dp2614
g87
g88
ssg69
g2603
sg62
(lp2615
S':'
asbag55
(g76
g57
NtRp2616
(dp2617
g60
(dp2618
sg69
g2603
sg62
(lp2619
g55
(g56
g57
NtRp2620
(dp2621
g60
(dp2622
g68
I5
ssg69
g2616
sg62
(lp2623
g55
(g64
g57
NtRp2624
(dp2625
g60
(dp2626
g68
I4
ssg69
Nsg62
(lp2627
sbasbasbasbag55
(g71
g57
NtRp2628
(dp2629
g60
(dp2630
sg69
g65
sg62
(lp2631
g55
(g76
g57
NtRp2632
(dp2633
g60
(dp2634
g80
g81
ssg69
g2628
sg62
(lp2635
S'raw_args'
p2636
asbag55
(g76
g57
NtRp2637
(dp2638
g60
(dp2639
g87
g88
ssg69
g2628
sg62
(lp2640
S':'
asbag55
(g76
g57
NtRp2641
(dp2642
g60
(dp2643
sg69
g2628
sg62
(lp2644
g55
(g56
g57
NtRp2645
(dp2646
g60
(dp2647
g68
I5
ssg69
g2641
sg62
(lp2648
S''
asbasbasbag55
(g71
g57
NtRp2649
(dp2650
g60
(dp2651
sg69
g65
sg62
(lp2652
g55
(g76
g57
NtRp2653
(dp2654
g60
(dp2655
g80
g81
ssg69
g2649
sg62
(lp2656
S'raw_extension'
p2657
asbag55
(g76
g57
NtRp2658
(dp2659
g60
(dp2660
g87
g88
ssg69
g2649
sg62
(lp2661
S':'
asbag55
(g76
g57
NtRp2662
(dp2663
g60
(dp2664
sg69
g2649
sg62
(lp2665
g55
(g56
g57
NtRp2666
(dp2667
g60
(dp2668
g68
I5
ssg69
g2662
sg62
(lp2669
g2067
asbasbasbag55
(g71
g57
NtRp2670
(dp2671
g60
(dp2672
sg69
g65
sg62
(lp2673
g55
(g76
g57
NtRp2674
(dp2675
g60
(dp2676
g80
g81
ssg69
g2670
sg62
(lp2677
S'url'
p2678
asbag55
(g76
g57
NtRp2679
(dp2680
g60
(dp2681
g87
g88
ssg69
g2670
sg62
(lp2682
S':'
asbag55
(g76
g57
NtRp2683
(dp2684
g60
(dp2685
sg69
g2670
sg62
(lp2686
g55
(g56
g57
NtRp2687
(dp2688
g60
(dp2689
g68
I5
ssg69
g2683
sg62
(lp2690
g1520
asbasbasbag55
(g71
g57
NtRp2691
(dp2692
g60
(dp2693
sg69
g65
sg62
(lp2694
g55
(g76
g57
NtRp2695
(dp2696
g60
(dp2697
g80
g81
ssg69
g2691
sg62
(lp2698
S'utcnow'
p2699
asbag55
(g76
g57
NtRp2700
(dp2701
g60
(dp2702
g87
g88
ssg69
g2691
sg62
(lp2703
S':'
asbag55
(g76
g57
NtRp2704
(dp2705
g60
(dp2706
sg69
g2691
sg62
(lp2707
g55
(g56
g57
NtRp2708
(dp2709
g60
(dp2710
g68
I5
ssg69
g2704
sg62
(lp2711
S'datetime.datetime(2013, 9, 2, 6, 39, 34, 205780)'
p2712
asbasbasbag55
(g71
g57
NtRp2713
(dp2714
g60
(dp2715
sg69
g65
sg62
(lp2716
g55
(g76
g57
NtRp2717
(dp2718
g60
(dp2719
g80
g81
ssg69
g2713
sg62
(lp2720
S'uuid'
p2721
asbag55
(g76
g57
NtRp2722
(dp2723
g60
(dp2724
g87
g88
ssg69
g2713
sg62
(lp2725
S':'
asbag55
(g76
g57
NtRp2726
(dp2727
g60
(dp2728
sg69
g2713
sg62
(lp2729
g55
(g56
g57
NtRp2730
(dp2731
g60
(dp2732
g68
I5
ssg69
g2726
sg62
(lp2733
S'reddit/127.0.0.1.2013-09-02.12-09-34.784835f7-c7dc-4256-9043-bdda46e2d8c8'
p2734
asbasbasbag55
(g71
g57
NtRp2735
(dp2736
g60
(dp2737
sg69
g65
sg62
(lp2738
g55
(g76
g57
NtRp2739
(dp2740
g60
(dp2741
g80
g81
ssg69
g2735
sg62
(lp2742
S'vars'
p2743
asbag55
(g76
g57
NtRp2744
(dp2745
g60
(dp2746
g87
g88
ssg69
g2735
sg62
(lp2747
S':'
asbag55
(g76
g57
NtRp2748
(dp2749
g60
(dp2750
sg69
g2735
sg62
(lp2751
g55
(g56
g57
NtRp2752
(dp2753
g60
(dp2754
g68
I5
ssg69
g2748
sg62
(lp2755
g55
(g64
g57
NtRp2756
(dp2757
g60
(dp2758
g68
I4
ssg69
Nsg62
(lp2759
sbasbasbasbag55
(g71
g57
NtRp2760
(dp2761
g60
(dp2762
sg69
g65
sg62
(lp2763
g55
(g76
g57
NtRp2764
(dp2765
g60
(dp2766
g80
g81
ssg69
g2760
sg62
(lp2767
S'wsgi'
p2768
asbag55
(g76
g57
NtRp2769
(dp2770
g60
(dp2771
g87
g88
ssg69
g2760
sg62
(lp2772
S':'
asbag55
(g76
g57
NtRp2773
(dp2774
g60
(dp2775
sg69
g2760
sg62
(lp2776
g55
(g56
g57
NtRp2777
(dp2778
g60
(dp2779
g68
I5
ssg69
g2773
sg62
(lp2780
g55
(g64
g57
NtRp2781
(dp2782
g60
(dp2783
g68
I4
ssg69
Nsg62
(lp2784
g55
(g71
g57
NtRp2785
(dp2786
g60
(dp2787
sg69
g2781
sg62
(lp2788
g55
(g76
g57
NtRp2789
(dp2790
g60
(dp2791
g80
g81
ssg69
g2785
sg62
(lp2792
S'environ'
p2793
asbag55
(g76
g57
NtRp2794
(dp2795
g60
(dp2796
g87
g88
ssg69
g2785
sg62
(lp2797
S':'
asbag55
(g76
g57
NtRp2798
(dp2799
g60
(dp2800
sg69
g2785
sg62
(lp2801
g55
(g56
g57
NtRp2802
(dp2803
g60
(dp2804
g68
I4
ssg69
g2798
sg62
(lp2805
g55
(g64
g57
NtRp2806
(dp2807
g60
(dp2808
g68
I3
ssg69
Nsg62
(lp2809
g55
(g71
g57
NtRp2810
(dp2811
g60
(dp2812
sg69
g2806
sg62
(lp2813
g55
(g76
g57
NtRp2814
(dp2815
g60
(dp2816
g80
g81
ssg69
g2810
sg62
(lp2817
S'HTTP_ACCEPT'
p2818
asbag55
(g76
g57
NtRp2819
(dp2820
g60
(dp2821
g87
g88
ssg69
g2810
sg62
(lp2822
S':'
asbag55
(g76
g57
NtRp2823
(dp2824
g60
(dp2825
sg69
g2810
sg62
(lp2826
g55
(g56
g57
NtRp2827
(dp2828
g60
(dp2829
g68
I3
ssg69
g2823
sg62
(lp2830
g1212
asbasbasbag55
(g71
g57
NtRp2831
(dp2832
g60
(dp2833
sg69
g2806
sg62
(lp2834
g55
(g76
g57
NtRp2835
(dp2836
g60
(dp2837
g80
g81
ssg69
g2831
sg62
(lp2838
S'HTTP_ACCEPT_ENCODING'
p2839
asbag55
(g76
g57
NtRp2840
(dp2841
g60
(dp2842
g87
g88
ssg69
g2831
sg62
(lp2843
S':'
asbag55
(g76
g57
NtRp2844
(dp2845
g60
(dp2846
sg69
g2831
sg62
(lp2847
g55
(g56
g57
NtRp2848
(dp2849
g60
(dp2850
g68
I3
ssg69
g2844
sg62
(lp2851
g1234
asbasbasbag55
(g71
g57
NtRp2852
(dp2853
g60
(dp2854
sg69
g2806
sg62
(lp2855
g55
(g76
g57
NtRp2856
(dp2857
g60
(dp2858
g80
g81
ssg69
g2852
sg62
(lp2859
S'HTTP_ACCEPT_LANGUAGE'
p2860
asbag55
(g76
g57
NtRp2861
(dp2862
g60
(dp2863
g87
g88
ssg69
g2852
sg62
(lp2864
S':'
asbag55
(g76
g57
NtRp2865
(dp2866
g60
(dp2867
sg69
g2852
sg62
(lp2868
g55
(g56
g57
NtRp2869
(dp2870
g60
(dp2871
g68
I3
ssg69
g2865
sg62
(lp2872
g1256
asbasbasbag55
(g71
g57
NtRp2873
(dp2874
g60
(dp2875
sg69
g2806
sg62
(lp2876
g55
(g76
g57
NtRp2877
(dp2878
g60
(dp2879
g80
g81
ssg69
g2873
sg62
(lp2880
S'HTTP_CONNECTION'
p2881
asbag55
(g76
g57
NtRp2882
(dp2883
g60
(dp2884
g87
g88
ssg69
g2873
sg62
(lp2885
S':'
asbag55
(g76
g57
NtRp2886
(dp2887
g60
(dp2888
sg69
g2873
sg62
(lp2889
g55
(g56
g57
NtRp2890
(dp2891
g60
(dp2892
g68
I3
ssg69
g2886
sg62
(lp2893
g1278
asbasbasbag55
(g71
g57
NtRp2894
(dp2895
g60
(dp2896
sg69
g2806
sg62
(lp2897
g55
(g76
g57
NtRp2898
(dp2899
g60
(dp2900
g80
g81
ssg69
g2894
sg62
(lp2901
S'HTTP_COOKIE'
p2902
asbag55
(g76
g57
NtRp2903
(dp2904
g60
(dp2905
g87
g88
ssg69
g2894
sg62
(lp2906
S':'
asbag55
(g76
g57
NtRp2907
(dp2908
g60
(dp2909
sg69
g2894
sg62
(lp2910
g55
(g56
g57
NtRp2911
(dp2912
g60
(dp2913
g68
I3
ssg69
g2907
sg62
(lp2914
g1300
asbasbasbag55
(g71
g57
NtRp2915
(dp2916
g60
(dp2917
sg69
g2806
sg62
(lp2918
g55
(g76
g57
NtRp2919
(dp2920
g60
(dp2921
g80
g81
ssg69
g2915
sg62
(lp2922
S'HTTP_HOST'
p2923
asbag55
(g76
g57
NtRp2924
(dp2925
g60
(dp2926
g87
g88
ssg69
g2915
sg62
(lp2927
S':'
asbag55
(g76
g57
NtRp2928
(dp2929
g60
(dp2930
sg69
g2915
sg62
(lp2931
g55
(g56
g57
NtRp2932
(dp2933
g60
(dp2934
g68
I3
ssg69
g2928
sg62
(lp2935
g1322
asbasbasbag55
(g71
g57
NtRp2936
(dp2937
g60
(dp2938
sg69
g2806
sg62
(lp2939
g55
(g76
g57
NtRp2940
(dp2941
g60
(dp2942
g80
g81
ssg69
g2936
sg62
(lp2943
S'HTTP_REFERER'
p2944
asbag55
(g76
g57
NtRp2945
(dp2946
g60
(dp2947
g87
g88
ssg69
g2936
sg62
(lp2948
S':'
asbag55
(g76
g57
NtRp2949
(dp2950
g60
(dp2951
sg69
g2936
sg62
(lp2952
g55
(g56
g57
NtRp2953
(dp2954
g60
(dp2955
g68
I3
ssg69
g2949
sg62
(lp2956
g1344
asbasbasbag55
(g71
g57
NtRp2957
(dp2958
g60
(dp2959
sg69
g2806
sg62
(lp2960
g55
(g76
g57
NtRp2961
(dp2962
g60
(dp2963
g80
g81
ssg69
g2957
sg62
(lp2964
S'HTTP_USER_AGENT'
p2965
asbag55
(g76
g57
NtRp2966
(dp2967
g60
(dp2968
g87
g88
ssg69
g2957
sg62
(lp2969
S':'
asbag55
(g76
g57
NtRp2970
(dp2971
g60
(dp2972
sg69
g2957
sg62
(lp2973
g55
(g56
g57
NtRp2974
(dp2975
g60
(dp2976
g68
I3
ssg69
g2970
sg62
(lp2977
g1366
asbasbasbag55
(g71
g57
NtRp2978
(dp2979
g60
(dp2980
sg69
g2806
sg62
(lp2981
g55
(g76
g57
NtRp2982
(dp2983
g60
(dp2984
g80
g81
ssg69
g2978
sg62
(lp2985
S'PATH_INFO'
p2986
asbag55
(g76
g57
NtRp2987
(dp2988
g60
(dp2989
g87
g88
ssg69
g2978
sg62
(lp2990
S':'
asbag55
(g76
g57
NtRp2991
(dp2992
g60
(dp2993
sg69
g2978
sg62
(lp2994
g55
(g56
g57
NtRp2995
(dp2996
g60
(dp2997
g68
I3
ssg69
g2991
sg62
(lp2998
g1520
asbasbasbag55
(g71
g57
NtRp2999
(dp3000
g60
(dp3001
sg69
g2806
sg62
(lp3002
g55
(g76
g57
NtRp3003
(dp3004
g60
(dp3005
g80
g81
ssg69
g2999
sg62
(lp3006
S'QUERY_STRING'
p3007
asbag55
(g76
g57
NtRp3008
(dp3009
g60
(dp3010
g87
g88
ssg69
g2999
sg62
(lp3011
S':'
asbag55
(g76
g57
NtRp3012
(dp3013
g60
(dp3014
sg69
g2999
sg62
(lp3015
g55
(g56
g57
NtRp3016
(dp3017
g60
(dp3018
g68
I3
ssg69
g3012
sg62
(lp3019
S''
asbasbasbag55
(g71
g57
NtRp3020
(dp3021
g60
(dp3022
sg69
g2806
sg62
(lp3023
g55
(g76
g57
NtRp3024
(dp3025
g60
(dp3026
g80
g81
ssg69
g3020
sg62
(lp3027
S'REMOTE_ADDR'
p3028
asbag55
(g76
g57
NtRp3029
(dp3030
g60
(dp3031
g87
g88
ssg69
g3020
sg62
(lp3032
S':'
asbag55
(g76
g57
NtRp3033
(dp3034
g60
(dp3035
sg69
g3020
sg62
(lp3036
g55
(g56
g57
NtRp3037
(dp3038
g60
(dp3039
g68
I3
ssg69
g3033
sg62
(lp3040
g210
asbasbasbag55
(g71
g57
NtRp3041
(dp3042
g60
(dp3043
sg69
g2806
sg62
(lp3044
g55
(g76
g57
NtRp3045
(dp3046
g60
(dp3047
g80
g81
ssg69
g3041
sg62
(lp3048
S'REMOTE_PORT'
p3049
asbag55
(g76
g57
NtRp3050
(dp3051
g60
(dp3052
g87
g88
ssg69
g3041
sg62
(lp3053
S':'
asbag55
(g76
g57
NtRp3054
(dp3055
g60
(dp3056
sg69
g3041
sg62
(lp3057
g55
(g56
g57
NtRp3058
(dp3059
g60
(dp3060
g68
I3
ssg69
g3054
sg62
(lp3061
g1584
asbasbasbag55
(g71
g57
NtRp3062
(dp3063
g60
(dp3064
sg69
g2806
sg62
(lp3065
g55
(g76
g57
NtRp3066
(dp3067
g60
(dp3068
g80
g81
ssg69
g3062
sg62
(lp3069
S'REQUEST_METHOD'
p3070
asbag55
(g76
g57
NtRp3071
(dp3072
g60
(dp3073
g87
g88
ssg69
g3062
sg62
(lp3074
S':'
asbag55
(g76
g57
NtRp3075
(dp3076
g60
(dp3077
sg69
g3062
sg62
(lp3078
g55
(g56
g57
NtRp3079
(dp3080
g60
(dp3081
g68
I3
ssg69
g3075
sg62
(lp3082
g1606
asbasbasbag55
(g71
g57
NtRp3083
(dp3084
g60
(dp3085
sg69
g2806
sg62
(lp3086
g55
(g76
g57
NtRp3087
(dp3088
g60
(dp3089
g80
g81
ssg69
g3083
sg62
(lp3090
S'REQUEST_URI'
p3091
asbag55
(g76
g57
NtRp3092
(dp3093
g60
(dp3094
g87
g88
ssg69
g3083
sg62
(lp3095
S':'
asbag55
(g76
g57
NtRp3096
(dp3097
g60
(dp3098
sg69
g3083
sg62
(lp3099
g55
(g56
g57
NtRp3100
(dp3101
g60
(dp3102
g68
I3
ssg69
g3096
sg62
(lp3103
g1520
asbasbasbag55
(g71
g57
NtRp3104
(dp3105
g60
(dp3106
sg69
g2806
sg62
(lp3107
g55
(g76
g57
NtRp3108
(dp3109
g60
(dp3110
g80
g81
ssg69
g3104
sg62
(lp3111
S'SCRIPT_NAME'
p3112
asbag55
(g76
g57
NtRp3113
(dp3114
g60
(dp3115
g87
g88
ssg69
g3104
sg62
(lp3116
S':'
asbag55
(g76
g57
NtRp3117
(dp3118
g60
(dp3119
sg69
g3104
sg62
(lp3120
g55
(g56
g57
NtRp3121
(dp3122
g60
(dp3123
g68
I3
ssg69
g3117
sg62
(lp3124
S''
asbasbasbag55
(g71
g57
NtRp3125
(dp3126
g60
(dp3127
sg69
g2806
sg62
(lp3128
g55
(g76
g57
NtRp3129
(dp3130
g60
(dp3131
g80
g81
ssg69
g3125
sg62
(lp3132
S'SERVER_NAME'
p3133
asbag55
(g76
g57
NtRp3134
(dp3135
g60
(dp3136
g87
g88
ssg69
g3125
sg62
(lp3137
S':'
asbag55
(g76
g57
NtRp3138
(dp3139
g60
(dp3140
sg69
g3125
sg62
(lp3141
g55
(g56
g57
NtRp3142
(dp3143
g60
(dp3144
g68
I3
ssg69
g3138
sg62
(lp3145
g1670
asbasbasbag55
(g71
g57
NtRp3146
(dp3147
g60
(dp3148
sg69
g2806
sg62
(lp3149
g55
(g76
g57
NtRp3150
(dp3151
g60
(dp3152
g80
g81
ssg69
g3146
sg62
(lp3153
S'SERVER_PORT'
p3154
asbag55
(g76
g57
NtRp3155
(dp3156
g60
(dp3157
g87
g88
ssg69
g3146
sg62
(lp3158
S':'
asbag55
(g76
g57
NtRp3159
(dp3160
g60
(dp3161
sg69
g3146
sg62
(lp3162
g55
(g56
g57
NtRp3163
(dp3164
g60
(dp3165
g68
I3
ssg69
g3159
sg62
(lp3166
g1692
asbasbasbag55
(g71
g57
NtRp3167
(dp3168
g60
(dp3169
sg69
g2806
sg62
(lp3170
g55
(g76
g57
NtRp3171
(dp3172
g60
(dp3173
g80
g81
ssg69
g3167
sg62
(lp3174
S'SERVER_PROTOCOL'
p3175
asbag55
(g76
g57
NtRp3176
(dp3177
g60
(dp3178
g87
g88
ssg69
g3167
sg62
(lp3179
S':'
asbag55
(g76
g57
NtRp3180
(dp3181
g60
(dp3182
sg69
g3167
sg62
(lp3183
g55
(g56
g57
NtRp3184
(dp3185
g60
(dp3186
g68
I3
ssg69
g3180
sg62
(lp3187
g1714
asbasbasbag55
(g71
g57
NtRp3188
(dp3189
g60
(dp3190
sg69
g2806
sg62
(lp3191
g55
(g76
g57
NtRp3192
(dp3193
g60
(dp3194
g80
g81
ssg69
g3188
sg62
(lp3195
S'SERVER_SOFTWARE'
p3196
asbag55
(g76
g57
NtRp3197
(dp3198
g60
(dp3199
g87
g88
ssg69
g3188
sg62
(lp3200
S':'
asbag55
(g76
g57
NtRp3201
(dp3202
g60
(dp3203
sg69
g3188
sg62
(lp3204
g55
(g56
g57
NtRp3205
(dp3206
g60
(dp3207
g68
I3
ssg69
g3201
sg62
(lp3208
g1736
asbasbasbag55
(g71
g57
NtRp3209
(dp3210
g60
(dp3211
sg69
g2806
sg62
(lp3212
g55
(g76
g57
NtRp3213
(dp3214
g60
(dp3215
g80
g81
ssg69
g3209
sg62
(lp3216
S'wsgi.errors'
p3217
asbag55
(g76
g57
NtRp3218
(dp3219
g60
(dp3220
g87
g88
ssg69
g3209
sg62
(lp3221
S':'
asbag55
(g76
g57
NtRp3222
(dp3223
g60
(dp3224
sg69
g3209
sg62
(lp3225
g55
(g56
g57
NtRp3226
(dp3227
g60
(dp3228
g68
I3
ssg69
g3222
sg62
(lp3229
S"<open file '<stderr>', mode 'w' at 0xb72ba0d0>"
p3230
asbasbasbag55
(g71
g57
NtRp3231
(dp3232
g60
(dp3233
sg69
g2806
sg62
(lp3234
g55
(g76
g57
NtRp3235
(dp3236
g60
(dp3237
g80
g81
ssg69
g3231
sg62
(lp3238
S'wsgi.file_wrapper'
p3239
asbag55
(g76
g57
NtRp3240
(dp3241
g60
(dp3242
g87
g88
ssg69
g3231
sg62
(lp3243
S':'
asbag55
(g76
g57
NtRp3244
(dp3245
g60
(dp3246
sg69
g3231
sg62
(lp3247
g55
(g56
g57
NtRp3248
(dp3249
g60
(dp3250
g68
I3
ssg69
g3244
sg62
(lp3251
S'<class wsgiref.util.FileWrapper at 0x969205c>'
p3252
asbasbasbag55
(g71
g57
NtRp3253
(dp3254
g60
(dp3255
sg69
g2806
sg62
(lp3256
g55
(g76
g57
NtRp3257
(dp3258
g60
(dp3259
g80
g81
ssg69
g3253
sg62
(lp3260
S'wsgi.input'
p3261
asbag55
(g76
g57
NtRp3262
(dp3263
g60
(dp3264
g87
g88
ssg69
g3253
sg62
(lp3265
S':'
asbag55
(g76
g57
NtRp3266
(dp3267
g60
(dp3268
sg69
g3253
sg62
(lp3269
g55
(g56
g57
NtRp3270
(dp3271
g60
(dp3272
g68
I3
ssg69
g3266
sg62
(lp3273
S'<cStringIO.StringO object at 0xaee84b00>'
p3274
asbasbasbag55
(g71
g57
NtRp3275
(dp3276
g60
(dp3277
sg69
g2806
sg62
(lp3278
g55
(g76
g57
NtRp3279
(dp3280
g60
(dp3281
g80
g81
ssg69
g3275
sg62
(lp3282
S'wsgi.multiprocess'
p3283
asbag55
(g76
g57
NtRp3284
(dp3285
g60
(dp3286
g87
g88
ssg69
g3275
sg62
(lp3287
S':'
asbag55
(g76
g57
NtRp3288
(dp3289
g60
(dp3290
sg69
g3275
sg62
(lp3291
g55
(g56
g57
NtRp3292
(dp3293
g60
(dp3294
g68
I3
ssg69
g3288
sg62
(lp3295
g98
asbasbasbag55
(g71
g57
NtRp3296
(dp3297
g60
(dp3298
sg69
g2806
sg62
(lp3299
g55
(g76
g57
NtRp3300
(dp3301
g60
(dp3302
g80
g81
ssg69
g3296
sg62
(lp3303
S'wsgi.multithread'
p3304
asbag55
(g76
g57
NtRp3305
(dp3306
g60
(dp3307
g87
g88
ssg69
g3296
sg62
(lp3308
S':'
asbag55
(g76
g57
NtRp3309
(dp3310
g60
(dp3311
sg69
g3296
sg62
(lp3312
g55
(g56
g57
NtRp3313
(dp3314
g60
(dp3315
g68
I3
ssg69
g3309
sg62
(lp3316
g1953
asbasbasbag55
(g71
g57
NtRp3317
(dp3318
g60
(dp3319
sg69
g2806
sg62
(lp3320
g55
(g76
g57
NtRp3321
(dp3322
g60
(dp3323
g80
g81
ssg69
g3317
sg62
(lp3324
S'wsgi.run_once'
p3325
asbag55
(g76
g57
NtRp3326
(dp3327
g60
(dp3328
g87
g88
ssg69
g3317
sg62
(lp3329
S':'
asbag55
(g76
g57
NtRp3330
(dp3331
g60
(dp3332
sg69
g3317
sg62
(lp3333
g55
(g56
g57
NtRp3334
(dp3335
g60
(dp3336
g68
I3
ssg69
g3330
sg62
(lp3337
g98
asbasbasbag55
(g71
g57
NtRp3338
(dp3339
g60
(dp3340
sg69
g2806
sg62
(lp3341
g55
(g76
g57
NtRp3342
(dp3343
g60
(dp3344
g80
g81
ssg69
g3338
sg62
(lp3345
S'wsgi.url_scheme'
p3346
asbag55
(g76
g57
NtRp3347
(dp3348
g60
(dp3349
g87
g88
ssg69
g3338
sg62
(lp3350
S':'
asbag55
(g76
g57
NtRp3351
(dp3352
g60
(dp3353
sg69
g3338
sg62
(lp3354
g55
(g56
g57
NtRp3355
(dp3356
g60
(dp3357
g68
I3
ssg69
g3351
sg62
(lp3358
g1996
asbasbasbag55
(g71
g57
NtRp3359
(dp3360
g60
(dp3361
sg69
g2806
sg62
(lp3362
g55
(g76
g57
NtRp3363
(dp3364
g60
(dp3365
g80
g81
ssg69
g3359
sg62
(lp3366
S'wsgi.version'
p3367
asbag55
(g76
g57
NtRp3368
(dp3369
g60
(dp3370
g87
g88
ssg69
g3359
sg62
(lp3371
S':'
asbag55
(g76
g57
NtRp3372
(dp3373
g60
(dp3374
sg69
g3359
sg62
(lp3375
g55
(g56
g57
NtRp3376
(dp3377
g60
(dp3378
g68
I3
ssg69
g3372
sg62
(lp3379
S'1'
asbasbasbasbasbasbasbasbasbasbasbasbasbsS'frames'
p3380
(lp3381
(dp3382
S'file'
p3383
S'/home/pankaj/web2py/gluon/main.py'
p3384
sS'dump'
p3385
(dp3386
S'global serve_controller'
p3387
S'<function serve_controller>'
p3388
sS'session'
p3389
S"<Storage {'_formkey[login]': '7fb6d461-1fd9-4e7b..., 'id': 1}>, 'user_groups': {3: 'admingroup'}}>}>"
p3390
sS'request'
p3391
S"<Storage {'function': 'addcat', 'body': <cString...pplications/reddit/', 'post_vars': <Storage {}>}>"
p3392
sS'response'
p3393
S"<Storage {'body': <cStringIO.StringO object at 0...> at 0xaeb4fa74>, 'view': 'default/addcat.html'}>"
p3394
ssS'lnum'
p3395
I543
sS'lines'
p3396
(dp3397
I544
S''
sI545
S'            except HTTP, http_response:'
p3398
sI546
S''
sI547
S'                if static_file:'
p3399
sI538
S'                if global_settings.debugging and app != "admin":'
p3400
sI539
S'                    import gluon.debug'
p3401
sI540
S'                    # activate the debugger'
p3402
sI541
S'                    gluon.debug.dbg.do_debug(mainpyfile=request.folder)'
p3403
sI542
S''
sI543
S'                serve_controller(request, response, session)'
p3404
ssS'call'
p3405
S"(environ={'HTTP_ACCEPT': 'text/html,application/xhtml+xml,application/xml;q=0.9,*/*;q=0.8', 'HTTP_ACCEPT_ENCODING': 'gzip, deflate', 'HTTP_ACCEPT_LANGUAGE': 'en-US,en;q=0.5', 'HTTP_CONNECTION': 'keep-alive', 'HTTP_COOKIE': 'session_id_cataminder=127.0.0.1-f68dfbc3-e46b-4d...it=127.0.0.1-b2e6bf86-ee8a-43c0-88e9-12c7f35bec5f', 'HTTP_HOST': '127.0.0.1:8000', 'HTTP_REFERER': 'http://127.0.0.1:8000/reddit/default/adminpage.html', 'HTTP_USER_AGENT': 'Mozilla/5.0 (X11; Ubuntu; Linux i686; rv:23.0) Gecko/20100101 Firefox/23.0', 'PATH_INFO': '/reddit/default/addcat.html', 'QUERY_STRING': '', ...}, responder=<function responder2>)"
p3406
sS'func'
p3407
S'wsgibase'
p3408
sa(dp3409
g3383
S'/home/pankaj/web2py/gluon/main.py'
p3410
sg3385
(dp3411
S'response._view_environment'
p3412
S"{'A': <class 'gluon.html.A'>, 'Auth': <class 'gluon.tools.Auth'>, 'B': <class 'gluon.html.B'>, 'BEAUTIFY': <class 'gluon.html.BEAUTIFY'>, 'BODY': <class 'gluon.html.BODY'>, 'BR': <class 'gluon.html.BR'>, 'BUTTON': <class 'gluon.html.BUTTON'>, 'CAT': <class 'gluon.html.CAT'>, 'CENTER': <class 'gluon.html.CENTER'>, 'CLEANUP': <class 'gluon.validators.CLEANUP'>, ...}"
p3413
sS'response'
p3414
S"<Storage {'body': <cStringIO.StringO object at 0...> at 0xaeb4fa74>, 'view': 'default/addcat.html'}>"
p3415
sS'global run_view_in'
p3416
S'<function run_view_in>'
p3417
ssg3395
I227
sg3396
(dp3418
I224
S'    if isinstance(page, dict):'
p3419
sI225
S'        response._vars = page'
p3420
sI226
S'        response._view_environment.update(page)'
p3421
sI227
S'        run_view_in(response._view_environment)'
p3422
sI228
S'        page = response.body.getvalue()'
p3423
sI229
S'    # logic to garbage collect after exec, not always, once every 100 requests'
p3424
sI230
S'    global requests'
p3425
sI231
S"    requests = ('requests' in globals()) and (requests + 1) % 100 or 0"
p3426
sI222
S'    response._view_environment = copy.copy(environment)'
p3427
sI223
S'    page = run_controller_in(request.controller, request.function, environment)'
p3428
ssg3405
S"(request=<Storage {'function': 'addcat', 'body': <cString...pplications/reddit/', 'post_vars': <Storage {}>}>, response=<Storage {'body': <cStringIO.StringO object at 0...> at 0xaeb4fa74>, 'view': 'default/addcat.html'}>, session=<Storage {'_formkey[login]': '7fb6d461-1fd9-4e7b..., 'id': 1}>, 'user_groups': {3: 'admingroup'}}>}>)"
p3429
sg3407
S'serve_controller'
p3430
sa(dp3431
g3383
S'/home/pankaj/web2py/gluon/compileapp.py'
p3432
sg3385
(dp3433
S'environment'
p3434
S"{'A': <class 'gluon.html.A'>, 'Auth': <class 'gluon.tools.Auth'>, 'B': <class 'gluon.html.B'>, 'BEAUTIFY': <class 'gluon.html.BEAUTIFY'>, 'BODY': <class 'gluon.html.BODY'>, 'BR': <class 'gluon.html.BR'>, 'BUTTON': <class 'gluon.html.BUTTON'>, 'CAT': <class 'gluon.html.CAT'>, 'CENTER': <class 'gluon.html.CENTER'>, 'CLEANUP': <class 'gluon.validators.CLEANUP'>, ...}"
p3435
sS'context'
p3436
S'undefined'
p3437
ssg3395
I672
sg3396
(dp3438
I672
S'                                   context=environment)'
p3439
sI673
S'        restricted(ccode, environment, layer)'
p3440
sI674
S''
sI675
S''
sI676
S'def remove_compiled_application(folder):'
p3441
sI667
S"                                            pjoin(folder, 'views'),"
p3442
sI668
S'                                            context=environment), layer))'
p3443
sI669
S'        else:'
p3444
sI670
S'            ccode = parse_template(view,'
p3445
sI671
S"                                   pjoin(folder, 'views'),"
p3446
ssg3405
S"(environment={'A': <class 'gluon.html.A'>, 'Auth': <class 'gluon.tools.Auth'>, 'B': <class 'gluon.html.B'>, 'BEAUTIFY': <class 'gluon.html.BEAUTIFY'>, 'BODY': <class 'gluon.html.BODY'>, 'BR': <class 'gluon.html.BR'>, 'BUTTON': <class 'gluon.html.BUTTON'>, 'CAT': <class 'gluon.html.CAT'>, 'CENTER': <class 'gluon.html.CENTER'>, 'CLEANUP': <class 'gluon.validators.CLEANUP'>, ...})"
p3447
sg3407
S'run_view_in'
p3448
sa(dp3449
g3383
S'/home/pankaj/web2py/gluon/template.py'
p3450
sg3385
(dp3451
S'builtinstr'
p3452
S"<type 'str'>"
p3453
sS'global TemplateParser'
p3454
S"<class 'gluon.template.TemplateParser'>"
p3455
sS'delimiters'
p3456
S"('{{', '}}')"
p3457
sS'context'
p3458
S"{'A': <class 'gluon.html.A'>, 'Auth': <class 'gluon.tools.Auth'>, 'B': <class 'gluon.html.B'>, 'BEAUTIFY': <class 'gluon.html.BEAUTIFY'>, 'BODY': <class 'gluon.html.BODY'>, 'BR': <class 'gluon.html.BR'>, 'BUTTON': <class 'gluon.html.BUTTON'>, 'CAT': <class 'gluon.html.CAT'>, 'CENTER': <class 'gluon.html.CENTER'>, 'CLEANUP': <class 'gluon.validators.CLEANUP'>, ...}"
p3459
sS'text'
p3460
S"'{{extend layout.html}}\\n{{=form}}\\n'"
p3461
sS'path'
p3462
S"'/home/pankaj/web2py/applications/reddit/views'"
p3463
sS'lexers'
p3464
g43
ssg3395
I785
sg3396
(dp3465
I780
S"            raise RestrictedError(filename, '', 'Unable to find the file')"
p3466
sI781
S'    else:'
p3467
sI782
S'        text = filename.read()'
p3468
sI783
S''
sI784
S'    # Use the file contents to get a parsed template and return it.'
p3469
sI785
S'    return str(TemplateParser(text, context=context, path=path, lexers=lexers, delimiters=delimiters))'
p3470
sI786
S''
sI787
S''
sI788
S'def get_parsed(text):'
p3471
sI789
S'    """'
p3472
ssg3405
S"(filename='default/addcat.html', path='/home/pankaj/web2py/applications/reddit/views', context={'A': <class 'gluon.html.A'>, 'Auth': <class 'gluon.tools.Auth'>, 'B': <class 'gluon.html.B'>, 'BEAUTIFY': <class 'gluon.html.BEAUTIFY'>, 'BODY': <class 'gluon.html.BODY'>, 'BR': <class 'gluon.html.BR'>, 'BUTTON': <class 'gluon.html.BUTTON'>, 'CAT': <class 'gluon.html.CAT'>, 'CENTER': <class 'gluon.html.CENTER'>, 'CLEANUP': <class 'gluon.validators.CLEANUP'>, ...}, lexers={}, delimiters=('{{', '}}'))"
p3473
sg3407
S'parse_template'
p3474
sa(dp3475
g3383
S'/home/pankaj/web2py/gluon/template.py'
p3476
sg3385
(dp3477
S'text'
p3478
S"'{{extend layout.html}}\\n{{=form}}\\n'"
p3479
sS'self'
p3480
S'<gluon.template.TemplateParser object>'
p3481
sS'self.parse'
p3482
S'<bound method TemplateParser.parse of <gluon.template.TemplateParser object>>'
p3483
ssg3395
I316
sg3396
(dp3484
I320
S'        Return the parsed template with correct indentation.'
p3485
sI311
S'        # This variable will hold a reference to every block'
p3486
sI312
S'        # that we come across in this template'
p3487
sI313
S'        self.blocks = {}'
p3488
sI314
S''
sI315
S'        # Begin parsing.'
p3489
sI316
S'        self.parse(text)'
p3490
sI317
S''
sI318
S'    def to_string(self):'
p3491
sI319
S'        """'
p3492
ssg3405
S"(self=<gluon.template.TemplateParser object>, text='{{extend layout.html}}\\n{{=form}}\\n', name='ParserContainer', context={'A': <class 'gluon.html.A'>, 'Auth': <class 'gluon.tools.Auth'>, 'B': <class 'gluon.html.B'>, 'BEAUTIFY': <class 'gluon.html.BEAUTIFY'>, 'BODY': <class 'gluon.html.BODY'>, 'BR': <class 'gluon.html.BR'>, 'BUTTON': <class 'gluon.html.BUTTON'>, 'CAT': <class 'gluon.html.CAT'>, 'CENTER': <class 'gluon.html.CENTER'>, 'CLEANUP': <class 'gluon.validators.CLEANUP'>, ...}, path='/home/pankaj/web2py/applications/reddit/views', writer='response.write', lexers={}, delimiters=('{{', '}}'), _super_nodes=[])"
p3493
sg3407
g48
sa(dp3494
g3383
S'/home/pankaj/web2py/gluon/template.py'
p3495
sg3385
(dp3496
S'self'
p3497
S'<gluon.template.TemplateParser object>'
p3498
sS'extend'
p3499
S"'layout.html'"
p3500
sS'self.extend'
p3501
S'<bound method TemplateParser.extend of <gluon.template.TemplateParser object>>'
p3502
ssg3395
I756
sg3396
(dp3503
I751
S'            # Sometimes I miss C-Style pointers... I want my asterisk...'
p3504
sI752
S'            self.child_super_nodes.remove(node)'
p3505
sI753
S''
sI754
S'        # If we need to extend a template.'
p3506
sI755
S'        if extend:'
p3507
sI756
S'            self.extend(extend)'
p3508
sI757
S''
sI758
S'# We need this for integration with gluon'
p3509
sI759
S''
sI760
S''
ssg3405
S"(self=<gluon.template.TemplateParser object>, text='{{extend layout.html}}\\n{{=form}}\\n')"
p3510
sg3407
S'parse'
p3511
sa(dp3512
g3383
S'/home/pankaj/web2py/gluon/template.py'
p3513
sg3385
(dp3514
S'text'
p3515
g3437
sS'self'
p3516
S'<gluon.template.TemplateParser object>'
p3517
sS'self._get_file_text'
p3518
S'<bound method TemplateParser._get_file_text of <gluon.template.TemplateParser object>>'
p3519
sS'filename'
p3520
S"'layout.html'"
p3521
ssg3395
I471
sg3396
(dp3522
I466
S'    def extend(self, filename):'
p3523
sI467
S'        """'
p3524
sI468
S'        Extend ``filename``. Anything not declared in a block defined by the'
p3525
sI469
S'        parent will be placed in the parent templates ``{{include}}`` block.'
p3526
sI470
S'        """'
p3527
sI471
S'        text = self._get_file_text(filename)'
p3528
sI472
S''
sI473
S'        # Create out nodes list to send to the parent'
p3529
sI474
S'        super_nodes = []'
p3530
sI475
S'        # We want to include any non-handled nodes.'
p3531
ssg3405
S"(self=<gluon.template.TemplateParser object>, filename='layout.html')"
p3532
sg3407
S'extend'
p3533
sa(dp3534
g3383
S'/home/pankaj/web2py/gluon/template.py'
p3535
sg3385
(dp3536
S'builtineval'
p3537
S'<built-in function eval>'
p3538
sS'context'
p3539
S"{'A': <class 'gluon.html.A'>, 'Auth': <class 'gluon.tools.Auth'>, 'B': <class 'gluon.html.B'>, 'BEAUTIFY': <class 'gluon.html.BEAUTIFY'>, 'BODY': <class 'gluon.html.BODY'>, 'BR': <class 'gluon.html.BR'>, 'BUTTON': <class 'gluon.html.BUTTON'>, 'CAT': <class 'gluon.html.CAT'>, 'CENTER': <class 'gluon.html.CENTER'>, 'CLEANUP': <class 'gluon.validators.CLEANUP'>, ...}"
p3540
sS'filename'
p3541
S"'layout.html'"
p3542
ssg3395
I436
sg3396
(dp3543
I431
S'        if current and not "response" in context:'
p3544
sI432
S'            context["response"] = getattr(current, \'response\', None)'
p3545
sI433
S''
sI434
S'        # Get the filename; filename looks like ``"template.html"``.'
p3546
sI435
S'        # We need to eval to remove the quotes and get the string type.'
p3547
sI436
S'        filename = eval(filename, context)'
p3548
sI437
S''
sI438
S'        # Get the path of the file on the system.'
p3549
sI439
S'        filepath = self.path and os.path.join(self.path, filename) or filename'
p3550
sI440
S''
ssg3405
S"(self=<gluon.template.TemplateParser object>, filename='layout.html')"
p3551
sg3407
S'_get_file_text'
p3552
sa(dp3553
g3383
S'/home/pankaj/web2py/<string>'
p3554
sg3385
(dp3555
sg3395
I1
sg3396
(dp3556
sg3405
S'()'
p3557
sg3407
S'<module>'
p3558
sasS'pyver'
p3559
S'Python 2.7.3: /usr/bin/python'
p3560
sS'session'
p3561
g55
(g56
g57
NtRp3562
(dp3563
g60
(dp3564
sg62
(lp3565
g55
(g64
g57
NtRp3566
(dp3567
g60
(dp3568
g68
I5
ssg69
Nsg62
(lp3569
g55
(g71
g57
NtRp3570
(dp3571
g60
(dp3572
sg69
g3566
sg62
(lp3573
g55
(g76
g57
NtRp3574
(dp3575
g60
(dp3576
g80
g81
ssg69
g3570
sg62
(lp3577
S'auth'
p3578
asbag55
(g76
g57
NtRp3579
(dp3580
g60
(dp3581
g87
g88
ssg69
g3570
sg62
(lp3582
S':'
asbag55
(g76
g57
NtRp3583
(dp3584
g60
(dp3585
sg69
g3570
sg62
(lp3586
g55
(g56
g57
NtRp3587
(dp3588
g60
(dp3589
g68
I5
ssg69
g3583
sg62
(lp3590
g55
(g64
g57
NtRp3591
(dp3592
g60
(dp3593
g68
I4
ssg69
Nsg62
(lp3594
g55
(g71
g57
NtRp3595
(dp3596
g60
(dp3597
sg69
g3591
sg62
(lp3598
g55
(g76
g57
NtRp3599
(dp3600
g60
(dp3601
g80
g81
ssg69
g3595
sg62
(lp3602
S'expiration'
p3603
asbag55
(g76
g57
NtRp3604
(dp3605
g60
(dp3606
g87
g88
ssg69
g3595
sg62
(lp3607
S':'
asbag55
(g76
g57
NtRp3608
(dp3609
g60
(dp3610
sg69
g3595
sg62
(lp3611
g55
(g56
g57
NtRp3612
(dp3613
g60
(dp3614
g68
I4
ssg69
g3608
sg62
(lp3615
S'3600'
p3616
asbasbasbag55
(g71
g57
NtRp3617
(dp3618
g60
(dp3619
sg69
g3591
sg62
(lp3620
g55
(g76
g57
NtRp3621
(dp3622
g60
(dp3623
g80
g81
ssg69
g3617
sg62
(lp3624
S'hmac_key'
p3625
asbag55
(g76
g57
NtRp3626
(dp3627
g60
(dp3628
g87
g88
ssg69
g3617
sg62
(lp3629
S':'
asbag55
(g76
g57
NtRp3630
(dp3631
g60
(dp3632
sg69
g3617
sg62
(lp3633
g55
(g56
g57
NtRp3634
(dp3635
g60
(dp3636
g68
I4
ssg69
g3630
sg62
(lp3637
S'f1e6e5ca-9679-4854-9197-f7b9ff86a3e7'
p3638
asbasbasbag55
(g71
g57
NtRp3639
(dp3640
g60
(dp3641
sg69
g3591
sg62
(lp3642
g55
(g76
g57
NtRp3643
(dp3644
g60
(dp3645
g80
g81
ssg69
g3639
sg62
(lp3646
S'last_visit'
p3647
asbag55
(g76
g57
NtRp3648
(dp3649
g60
(dp3650
g87
g88
ssg69
g3639
sg62
(lp3651
S':'
asbag55
(g76
g57
NtRp3652
(dp3653
g60
(dp3654
sg69
g3639
sg62
(lp3655
g55
(g56
g57
NtRp3656
(dp3657
g60
(dp3658
g68
I4
ssg69
g3652
sg62
(lp3659
S'datetime.datetime(2013, 9, 2, 12, 6, 0, 107108)'
p3660
asbasbasbag55
(g71
g57
NtRp3661
(dp3662
g60
(dp3663
sg69
g3591
sg62
(lp3664
g55
(g76
g57
NtRp3665
(dp3666
g60
(dp3667
g80
g81
ssg69
g3661
sg62
(lp3668
S'remember'
p3669
asbag55
(g76
g57
NtRp3670
(dp3671
g60
(dp3672
g87
g88
ssg69
g3661
sg62
(lp3673
S':'
asbag55
(g76
g57
NtRp3674
(dp3675
g60
(dp3676
sg69
g3661
sg62
(lp3677
g55
(g56
g57
NtRp3678
(dp3679
g60
(dp3680
g68
I4
ssg69
g3674
sg62
(lp3681
g98
asbasbasbag55
(g71
g57
NtRp3682
(dp3683
g60
(dp3684
sg69
g3591
sg62
(lp3685
g55
(g76
g57
NtRp3686
(dp3687
g60
(dp3688
g80
g81
ssg69
g3682
sg62
(lp3689
S'user'
p3690
asbag55
(g76
g57
NtRp3691
(dp3692
g60
(dp3693
g87
g88
ssg69
g3682
sg62
(lp3694
S':'
asbag55
(g76
g57
NtRp3695
(dp3696
g60
(dp3697
sg69
g3682
sg62
(lp3698
g55
(g56
g57
NtRp3699
(dp3700
g60
(dp3701
g68
I4
ssg69
g3695
sg62
(lp3702
g55
(g64
g57
NtRp3703
(dp3704
g60
(dp3705
g68
I3
ssg69
Nsg62
(lp3706
g55
(g71
g57
NtRp3707
(dp3708
g60
(dp3709
sg69
g3703
sg62
(lp3710
g55
(g76
g57
NtRp3711
(dp3712
g60
(dp3713
g80
g81
ssg69
g3707
sg62
(lp3714
S'email'
p3715
asbag55
(g76
g57
NtRp3716
(dp3717
g60
(dp3718
g87
g88
ssg69
g3707
sg62
(lp3719
S':'
asbag55
(g76
g57
NtRp3720
(dp3721
g60
(dp3722
sg69
g3707
sg62
(lp3723
g55
(g56
g57
NtRp3724
(dp3725
g60
(dp3726
g68
I3
ssg69
g3720
sg62
(lp3727
S'pankaj@gmail.com'
p3728
asbasbasbag55
(g71
g57
NtRp3729
(dp3730
g60
(dp3731
sg69
g3703
sg62
(lp3732
g55
(g76
g57
NtRp3733
(dp3734
g60
(dp3735
g80
g81
ssg69
g3729
sg62
(lp3736
S'first_name'
p3737
asbag55
(g76
g57
NtRp3738
(dp3739
g60
(dp3740
g87
g88
ssg69
g3729
sg62
(lp3741
S':'
asbag55
(g76
g57
NtRp3742
(dp3743
g60
(dp3744
sg69
g3729
sg62
(lp3745
g55
(g56
g57
NtRp3746
(dp3747
g60
(dp3748
g68
I3
ssg69
g3742
sg62
(lp3749
S'pankaj'
p3750
asbasbasbag55
(g71
g57
NtRp3751
(dp3752
g60
(dp3753
sg69
g3703
sg62
(lp3754
g55
(g76
g57
NtRp3755
(dp3756
g60
(dp3757
g80
g81
ssg69
g3751
sg62
(lp3758
S'id'
p3759
asbag55
(g76
g57
NtRp3760
(dp3761
g60
(dp3762
g87
g88
ssg69
g3751
sg62
(lp3763
S':'
asbag55
(g76
g57
NtRp3764
(dp3765
g60
(dp3766
sg69
g3751
sg62
(lp3767
g55
(g56
g57
NtRp3768
(dp3769
g60
(dp3770
g68
I3
ssg69
g3764
sg62
(lp3771
S'1'
asbasbasbag55
(g71
g57
NtRp3772
(dp3773
g60
(dp3774
sg69
g3703
sg62
(lp3775
g55
(g76
g57
NtRp3776
(dp3777
g60
(dp3778
g80
g81
ssg69
g3772
sg62
(lp3779
S'last_name'
p3780
asbag55
(g76
g57
NtRp3781
(dp3782
g60
(dp3783
g87
g88
ssg69
g3772
sg62
(lp3784
S':'
asbag55
(g76
g57
NtRp3785
(dp3786
g60
(dp3787
sg69
g3772
sg62
(lp3788
g55
(g56
g57
NtRp3789
(dp3790
g60
(dp3791
g68
I3
ssg69
g3785
sg62
(lp3792
S'malhotra'
p3793
asbasbasbag55
(g71
g57
NtRp3794
(dp3795
g60
(dp3796
sg69
g3703
sg62
(lp3797
g55
(g76
g57
NtRp3798
(dp3799
g60
(dp3800
g80
g81
ssg69
g3794
sg62
(lp3801
S'registration_id'
p3802
asbag55
(g76
g57
NtRp3803
(dp3804
g60
(dp3805
g87
g88
ssg69
g3794
sg62
(lp3806
S':'
asbag55
(g76
g57
NtRp3807
(dp3808
g60
(dp3809
sg69
g3794
sg62
(lp3810
g55
(g56
g57
NtRp3811
(dp3812
g60
(dp3813
g68
I3
ssg69
g3807
sg62
(lp3814
S''
asbasbasbag55
(g71
g57
NtRp3815
(dp3816
g60
(dp3817
sg69
g3703
sg62
(lp3818
g55
(g76
g57
NtRp3819
(dp3820
g60
(dp3821
g80
g81
ssg69
g3815
sg62
(lp3822
S'registration_key'
p3823
asbag55
(g76
g57
NtRp3824
(dp3825
g60
(dp3826
g87
g88
ssg69
g3815
sg62
(lp3827
S':'
asbag55
(g76
g57
NtRp3828
(dp3829
g60
(dp3830
sg69
g3815
sg62
(lp3831
g55
(g56
g57
NtRp3832
(dp3833
g60
(dp3834
g68
I3
ssg69
g3828
sg62
(lp3835
S''
asbasbasbag55
(g71
g57
NtRp3836
(dp3837
g60
(dp3838
sg69
g3703
sg62
(lp3839
g55
(g76
g57
NtRp3840
(dp3841
g60
(dp3842
g80
g81
ssg69
g3836
sg62
(lp3843
S'reset_password_key'
p3844
asbag55
(g76
g57
NtRp3845
(dp3846
g60
(dp3847
g87
g88
ssg69
g3836
sg62
(lp3848
S':'
asbag55
(g76
g57
NtRp3849
(dp3850
g60
(dp3851
sg69
g3836
sg62
(lp3852
g55
(g56
g57
NtRp3853
(dp3854
g60
(dp3855
g68
I3
ssg69
g3849
sg62
(lp3856
S''
asbasbasbag55
(g71
g57
NtRp3857
(dp3858
g60
(dp3859
sg69
g3703
sg62
(lp3860
g55
(g76
g57
NtRp3861
(dp3862
g60
(dp3863
g80
g81
ssg69
g3857
sg62
(lp3864
S'role'
p3865
asbag55
(g76
g57
NtRp3866
(dp3867
g60
(dp3868
g87
g88
ssg69
g3857
sg62
(lp3869
S':'
asbag55
(g76
g57
NtRp3870
(dp3871
g60
(dp3872
sg69
g3857
sg62
(lp3873
g55
(g56
g57
NtRp3874
(dp3875
g60
(dp3876
g68
I3
ssg69
g3870
sg62
(lp3877
S'None'
p3878
asbasbasbasbasbasbasbag55
(g71
g57
NtRp3879
(dp3880
g60
(dp3881
sg69
g3591
sg62
(lp3882
g55
(g76
g57
NtRp3883
(dp3884
g60
(dp3885
g80
g81
ssg69
g3879
sg62
(lp3886
S'user_groups'
p3887
asbag55
(g76
g57
NtRp3888
(dp3889
g60
(dp3890
g87
g88
ssg69
g3879
sg62
(lp3891
S':'
asbag55
(g76
g57
NtRp3892
(dp3893
g60
(dp3894
sg69
g3879
sg62
(lp3895
g55
(g56
g57
NtRp3896
(dp3897
g60
(dp3898
g68
I4
ssg69
g3892
sg62
(lp3899
g55
(g64
g57
NtRp3900
(dp3901
g60
(dp3902
g68
I3
ssg69
Nsg62
(lp3903
g55
(g71
g57
NtRp3904
(dp3905
g60
(dp3906
sg69
g3900
sg62
(lp3907
g55
(g76
g57
NtRp3908
(dp3909
g60
(dp3910
g80
g81
ssg69
g3904
sg62
(lp3911
S'3'
asbag55
(g76
g57
NtRp3912
(dp3913
g60
(dp3914
g87
g88
ssg69
g3904
sg62
(lp3915
S':'
asbag55
(g76
g57
NtRp3916
(dp3917
g60
(dp3918
sg69
g3904
sg62
(lp3919
g55
(g56
g57
NtRp3920
(dp3921
g60
(dp3922
g68
I3
ssg69
g3916
sg62
(lp3923
S'admingroup'
p3924
asbasbasbasbasbasbasbasbasbasbasbag55
(g71
g57
NtRp3925
(dp3926
g60
(dp3927
sg69
g3566
sg62
(lp3928
g55
(g76
g57
NtRp3929
(dp3930
g60
(dp3931
g80
g81
ssg69
g3925
sg62
(lp3932
S'flash'
p3933
asbag55
(g76
g57
NtRp3934
(dp3935
g60
(dp3936
g87
g88
ssg69
g3925
sg62
(lp3937
S':'
asbag55
(g76
g57
NtRp3938
(dp3939
g60
(dp3940
sg69
g3925
sg62
(lp3941
g55
(g56
g57
NtRp3942
(dp3943
g60
(dp3944
g68
I5
ssg69
g3938
sg62
(lp3945
S'None'
p3946
asbasbasbasbasbsS'etype'
p3947
S"<type 'exceptions.NameError'>"
p3948
sS'date'
p3949
S'Mon Sep  2 12:09:34 2013'
p3950
sS'response'
p3951
g55
(g56
g57
NtRp3952
(dp3953
g60
(dp3954
sg62
(lp3955
g55
(g64
g57
NtRp3956
(dp3957
g60
(dp3958
g68
I5
ssg69
Nsg62
(lp3959
g55
(g71
g57
NtRp3960
(dp3961
g60
(dp3962
sg69
g3956
sg62
(lp3963
g55
(g76
g57
NtRp3964
(dp3965
g60
(dp3966
g80
g81
ssg69
g3960
sg62
(lp3967
g153
asbag55
(g76
g57
NtRp3968
(dp3969
g60
(dp3970
g87
g88
ssg69
g3960
sg62
(lp3971
S':'
asbag55
(g76
g57
NtRp3972
(dp3973
g60
(dp3974
sg69
g3960
sg62
(lp3975
g55
(g56
g57
NtRp3976
(dp3977
g60
(dp3978
g68
I5
ssg69
g3972
sg62
(lp3979
S'<cStringIO.StringO object at 0x993e940>'
p3980
asbasbasbag55
(g71
g57
NtRp3981
(dp3982
g60
(dp3983
sg69
g3956
sg62
(lp3984
g55
(g76
g57
NtRp3985
(dp3986
g60
(dp3987
g80
g81
ssg69
g3981
sg62
(lp3988
g241
asbag55
(g76
g57
NtRp3989
(dp3990
g60
(dp3991
g87
g88
ssg69
g3981
sg62
(lp3992
S':'
asbag55
(g76
g57
NtRp3993
(dp3994
g60
(dp3995
sg69
g3981
sg62
(lp3996
g55
(g56
g57
NtRp3997
(dp3998
g60
(dp3999
g68
I5
ssg69
g3993
sg62
(lp4000
g55
(g64
g57
NtRp4001
(dp4002
g60
(dp4003
g68
I4
ssg69
Nsg62
(lp4004
g55
(g71
g57
NtRp4005
(dp4006
g60
(dp4007
sg69
g4001
sg62
(lp4008
g55
(g76
g57
NtRp4009
(dp4010
g60
(dp4011
g80
g81
ssg69
g4005
sg62
(lp4012
S'session_id_reddit'
p4013
asbag55
(g76
g57
NtRp4014
(dp4015
g60
(dp4016
g87
g88
ssg69
g4005
sg62
(lp4017
S':'
asbag55
(g76
g57
NtRp4018
(dp4019
g60
(dp4020
sg69
g4005
sg62
(lp4021
g55
(g56
g57
NtRp4022
(dp4023
g60
(dp4024
g68
I4
ssg69
g4018
sg62
(lp4025
g659
ag55
(g64
g57
NtRp4026
(dp4027
g60
(dp4028
g68
I3
ssg69
Nsg62
(lp4029
g55
(g71
g57
NtRp4030
(dp4031
g60
(dp4032
sg69
g4026
sg62
(lp4033
g55
(g76
g57
NtRp4034
(dp4035
g60
(dp4036
g80
g81
ssg69
g4030
sg62
(lp4037
g292
asbag55
(g76
g57
NtRp4038
(dp4039
g60
(dp4040
g87
g88
ssg69
g4030
sg62
(lp4041
S':'
asbag55
(g76
g57
NtRp4042
(dp4043
g60
(dp4044
sg69
g4030
sg62
(lp4045
g55
(g56
g57
NtRp4046
(dp4047
g60
(dp4048
g68
I3
ssg69
g4042
sg62
(lp4049
S''
asbasbasbag55
(g71
g57
NtRp4050
(dp4051
g60
(dp4052
sg69
g4026
sg62
(lp4053
g55
(g76
g57
NtRp4054
(dp4055
g60
(dp4056
g80
g81
ssg69
g4050
sg62
(lp4057
g313
asbag55
(g76
g57
NtRp4058
(dp4059
g60
(dp4060
g87
g88
ssg69
g4050
sg62
(lp4061
S':'
asbag55
(g76
g57
NtRp4062
(dp4063
g60
(dp4064
sg69
g4050
sg62
(lp4065
g55
(g56
g57
NtRp4066
(dp4067
g60
(dp4068
g68
I3
ssg69
g4062
sg62
(lp4069
S''
asbasbasbag55
(g71
g57
NtRp4070
(dp4071
g60
(dp4072
sg69
g4026
sg62
(lp4073
g55
(g76
g57
NtRp4074
(dp4075
g60
(dp4076
g80
g81
ssg69
g4070
sg62
(lp4077
g334
asbag55
(g76
g57
NtRp4078
(dp4079
g60
(dp4080
g87
g88
ssg69
g4070
sg62
(lp4081
S':'
asbag55
(g76
g57
NtRp4082
(dp4083
g60
(dp4084
sg69
g4070
sg62
(lp4085
g55
(g56
g57
NtRp4086
(dp4087
g60
(dp4088
g68
I3
ssg69
g4082
sg62
(lp4089
S''
asbasbasbag55
(g71
g57
NtRp4090
(dp4091
g60
(dp4092
sg69
g4026
sg62
(lp4093
g55
(g76
g57
NtRp4094
(dp4095
g60
(dp4096
g80
g81
ssg69
g4090
sg62
(lp4097
g355
asbag55
(g76
g57
NtRp4098
(dp4099
g60
(dp4100
g87
g88
ssg69
g4090
sg62
(lp4101
S':'
asbag55
(g76
g57
NtRp4102
(dp4103
g60
(dp4104
sg69
g4090
sg62
(lp4105
g55
(g56
g57
NtRp4106
(dp4107
g60
(dp4108
g68
I3
ssg69
g4102
sg62
(lp4109
S''
asbasbasbag55
(g71
g57
NtRp4110
(dp4111
g60
(dp4112
sg69
g4026
sg62
(lp4113
g55
(g76
g57
NtRp4114
(dp4115
g60
(dp4116
g80
g81
ssg69
g4110
sg62
(lp4117
g376
asbag55
(g76
g57
NtRp4118
(dp4119
g60
(dp4120
g87
g88
ssg69
g4110
sg62
(lp4121
S':'
asbag55
(g76
g57
NtRp4122
(dp4123
g60
(dp4124
sg69
g4110
sg62
(lp4125
g55
(g56
g57
NtRp4126
(dp4127
g60
(dp4128
g68
I3
ssg69
g4122
sg62
(lp4129
S''
asbasbasbag55
(g71
g57
NtRp4130
(dp4131
g60
(dp4132
sg69
g4026
sg62
(lp4133
g55
(g76
g57
NtRp4134
(dp4135
g60
(dp4136
g80
g81
ssg69
g4130
sg62
(lp4137
g397
asbag55
(g76
g57
NtRp4138
(dp4139
g60
(dp4140
g87
g88
ssg69
g4130
sg62
(lp4141
S':'
asbag55
(g76
g57
NtRp4142
(dp4143
g60
(dp4144
sg69
g4130
sg62
(lp4145
g55
(g56
g57
NtRp4146
(dp4147
g60
(dp4148
g68
I3
ssg69
g4142
sg62
(lp4149
S'/'
asbasbasbag55
(g71
g57
NtRp4150
(dp4151
g60
(dp4152
sg69
g4026
sg62
(lp4153
g55
(g76
g57
NtRp4154
(dp4155
g60
(dp4156
g80
g81
ssg69
g4150
sg62
(lp4157
g418
asbag55
(g76
g57
NtRp4158
(dp4159
g60
(dp4160
g87
g88
ssg69
g4150
sg62
(lp4161
S':'
asbag55
(g76
g57
NtRp4162
(dp4163
g60
(dp4164
sg69
g4150
sg62
(lp4165
g55
(g56
g57
NtRp4166
(dp4167
g60
(dp4168
g68
I3
ssg69
g4162
sg62
(lp4169
S''
asbasbasbag55
(g71
g57
NtRp4170
(dp4171
g60
(dp4172
sg69
g4026
sg62
(lp4173
g55
(g76
g57
NtRp4174
(dp4175
g60
(dp4176
g80
g81
ssg69
g4170
sg62
(lp4177
g439
asbag55
(g76
g57
NtRp4178
(dp4179
g60
(dp4180
g87
g88
ssg69
g4170
sg62
(lp4181
S':'
asbag55
(g76
g57
NtRp4182
(dp4183
g60
(dp4184
sg69
g4170
sg62
(lp4185
g55
(g56
g57
NtRp4186
(dp4187
g60
(dp4188
g68
I3
ssg69
g4182
sg62
(lp4189
S''
asbasbasbasbasbasbasbasbasbasbasbag55
(g71
g57
NtRp4190
(dp4191
g60
(dp4192
sg69
g3956
sg62
(lp4193
g55
(g76
g57
NtRp4194
(dp4195
g60
(dp4196
g80
g81
ssg69
g4190
sg62
(lp4197
S'delimiters'
p4198
asbag55
(g76
g57
NtRp4199
(dp4200
g60
(dp4201
g87
g88
ssg69
g4190
sg62
(lp4202
S':'
asbag55
(g76
g57
NtRp4203
(dp4204
g60
(dp4205
sg69
g4190
sg62
(lp4206
g55
(g56
g57
NtRp4207
(dp4208
g60
(dp4209
g68
I5
ssg69
g4203
sg62
(lp4210
g55
(g64
g57
NtRp4211
(dp4212
g60
(dp4213
g68
I4
ssg69
Nsg62
(lp4214
g55
(g71
g57
NtRp4215
(dp4216
g60
(dp4217
sg69
g4211
sg62
(lp4218
g55
(g76
g57
NtRp4219
(dp4220
g60
(dp4221
sg69
g4215
sg62
(lp4222
g55
(g56
g57
NtRp4223
(dp4224
g60
(dp4225
g68
I4
ssg69
g4219
sg62
(lp4226
S'{{'
p4227
asbasbasbag55
(g71
g57
NtRp4228
(dp4229
g60
(dp4230
sg69
g4211
sg62
(lp4231
g55
(g76
g57
NtRp4232
(dp4233
g60
(dp4234
sg69
g4228
sg62
(lp4235
g55
(g56
g57
NtRp4236
(dp4237
g60
(dp4238
g68
I4
ssg69
g4232
sg62
(lp4239
S'}}'
p4240
asbasbasbasbasbasbasbag55
(g71
g57
NtRp4241
(dp4242
g60
(dp4243
sg69
g3956
sg62
(lp4244
g55
(g76
g57
NtRp4245
(dp4246
g60
(dp4247
g80
g81
ssg69
g4241
sg62
(lp4248
S'files'
p4249
asbag55
(g76
g57
NtRp4250
(dp4251
g60
(dp4252
g87
g88
ssg69
g4241
sg62
(lp4253
S':'
asbag55
(g76
g57
NtRp4254
(dp4255
g60
(dp4256
sg69
g4241
sg62
(lp4257
g55
(g56
g57
NtRp4258
(dp4259
g60
(dp4260
g68
I5
ssg69
g4254
sg62
(lp4261
g55
(g64
g57
NtRp4262
(dp4263
g60
(dp4264
g68
I4
ssg69
Nsg62
(lp4265
sbasbasbasbag55
(g71
g57
NtRp4266
(dp4267
g60
(dp4268
sg69
g3956
sg62
(lp4269
g55
(g76
g57
NtRp4270
(dp4271
g60
(dp4272
g80
g81
ssg69
g4266
sg62
(lp4273
S'flash'
p4274
asbag55
(g76
g57
NtRp4275
(dp4276
g60
(dp4277
g87
g88
ssg69
g4266
sg62
(lp4278
S':'
asbag55
(g76
g57
NtRp4279
(dp4280
g60
(dp4281
sg69
g4266
sg62
(lp4282
g55
(g56
g57
NtRp4283
(dp4284
g60
(dp4285
g68
I5
ssg69
g4279
sg62
(lp4286
S''
asbasbasbag55
(g71
g57
NtRp4287
(dp4288
g60
(dp4289
sg69
g3956
sg62
(lp4290
g55
(g76
g57
NtRp4291
(dp4292
g60
(dp4293
g80
g81
ssg69
g4287
sg62
(lp4294
S'generic_patterns'
p4295
asbag55
(g76
g57
NtRp4296
(dp4297
g60
(dp4298
g87
g88
ssg69
g4287
sg62
(lp4299
S':'
asbag55
(g76
g57
NtRp4300
(dp4301
g60
(dp4302
sg69
g4287
sg62
(lp4303
g55
(g56
g57
NtRp4304
(dp4305
g60
(dp4306
g68
I5
ssg69
g4300
sg62
(lp4307
g55
(g64
g57
NtRp4308
(dp4309
g60
(dp4310
g68
I4
ssg69
Nsg62
(lp4311
g55
(g71
g57
NtRp4312
(dp4313
g60
(dp4314
sg69
g4308
sg62
(lp4315
g55
(g76
g57
NtRp4316
(dp4317
g60
(dp4318
sg69
g4312
sg62
(lp4319
g55
(g56
g57
NtRp4320
(dp4321
g60
(dp4322
g68
I4
ssg69
g4316
sg62
(lp4323
S'*'
asbasbasbasbasbasbasbag55
(g71
g57
NtRp4324
(dp4325
g60
(dp4326
sg69
g3956
sg62
(lp4327
g55
(g76
g57
NtRp4328
(dp4329
g60
(dp4330
g80
g81
ssg69
g4324
sg62
(lp4331
S'google_analytics_id'
p4332
asbag55
(g76
g57
NtRp4333
(dp4334
g60
(dp4335
g87
g88
ssg69
g4324
sg62
(lp4336
S':'
asbag55
(g76
g57
NtRp4337
(dp4338
g60
(dp4339
sg69
g4324
sg62
(lp4340
g55
(g56
g57
NtRp4341
(dp4342
g60
(dp4343
g68
I5
ssg69
g4337
sg62
(lp4344
S'None'
p4345
asbasbasbag55
(g71
g57
NtRp4346
(dp4347
g60
(dp4348
sg69
g3956
sg62
(lp4349
g55
(g76
g57
NtRp4350
(dp4351
g60
(dp4352
g80
g81
ssg69
g4346
sg62
(lp4353
S'headers'
p4354
asbag55
(g76
g57
NtRp4355
(dp4356
g60
(dp4357
g87
g88
ssg69
g4346
sg62
(lp4358
S':'
asbag55
(g76
g57
NtRp4359
(dp4360
g60
(dp4361
sg69
g4346
sg62
(lp4362
g55
(g56
g57
NtRp4363
(dp4364
g60
(dp4365
g68
I5
ssg69
g4359
sg62
(lp4366
g55
(g64
g57
NtRp4367
(dp4368
g60
(dp4369
g68
I4
ssg69
Nsg62
(lp4370
g55
(g71
g57
NtRp4371
(dp4372
g60
(dp4373
sg69
g4367
sg62
(lp4374
g55
(g76
g57
NtRp4375
(dp4376
g60
(dp4377
g80
g81
ssg69
g4371
sg62
(lp4378
S'X-Powered-By'
p4379
asbag55
(g76
g57
NtRp4380
(dp4381
g60
(dp4382
g87
g88
ssg69
g4371
sg62
(lp4383
S':'
asbag55
(g76
g57
NtRp4384
(dp4385
g60
(dp4386
sg69
g4371
sg62
(lp4387
g55
(g56
g57
NtRp4388
(dp4389
g60
(dp4390
g68
I4
ssg69
g4384
sg62
(lp4391
S'web2py'
p4392
asbasbasbasbasbasbasbag55
(g71
g57
NtRp4393
(dp4394
g60
(dp4395
sg69
g3956
sg62
(lp4396
g55
(g76
g57
NtRp4397
(dp4398
g60
(dp4399
g80
g81
ssg69
g4393
sg62
(lp4400
S'logo'
p4401
asbag55
(g76
g57
NtRp4402
(dp4403
g60
(dp4404
g87
g88
ssg69
g4393
sg62
(lp4405
S':'
asbag55
(g76
g57
NtRp4406
(dp4407
g60
(dp4408
sg69
g4393
sg62
(lp4409
g55
(g56
g57
NtRp4410
(dp4411
g60
(dp4412
g68
I5
ssg69
g4406
sg62
(lp4413
g55
(cgluon.html
A
p4414
g57
NtRp4415
(dp4416
g60
(dp4417
S'_class'
p4418
S'brand'
p4419
sS'_href'
p4420
S'http://www.web2py.com/'
p4421
ssg69
Nsg62
(lp4422
g55
(cgluon.html
B
p4423
g57
NtRp4424
(dp4425
g60
(dp4426
sg69
g4415
sg62
(lp4427
S'web'
p4428
ag55
(cgluon.html
SPAN
p4429
g57
NtRp4430
(dp4431
g60
(dp4432
sg69
g4424
sg62
(lp4433
I2
asbaS'py'
p4434
asbacgluon.html
XML_unpickle
p4435
(S's\r\x00\x00\x00&trade;&nbsp;'
tRp4436
asbasbasbasbag55
(g71
g57
NtRp4437
(dp4438
g60
(dp4439
sg69
g3956
sg62
(lp4440
g55
(g76
g57
NtRp4441
(dp4442
g60
(dp4443
g80
g81
ssg69
g4437
sg62
(lp4444
S'menu'
p4445
asbag55
(g76
g57
NtRp4446
(dp4447
g60
(dp4448
g87
g88
ssg69
g4437
sg62
(lp4449
S':'
asbag55
(g76
g57
NtRp4450
(dp4451
g60
(dp4452
sg69
g4437
sg62
(lp4453
g55
(g56
g57
NtRp4454
(dp4455
g60
(dp4456
g68
I5
ssg69
g4450
sg62
(lp4457
g55
(g64
g57
NtRp4458
(dp4459
g60
(dp4460
g68
I4
ssg69
Nsg62
(lp4461
g55
(g71
g57
NtRp4462
(dp4463
g60
(dp4464
sg69
g4458
sg62
(lp4465
g55
(g76
g57
NtRp4466
(dp4467
g60
(dp4468
sg69
g4462
sg62
(lp4469
g55
(g56
g57
NtRp4470
(dp4471
g60
(dp4472
g68
I4
ssg69
g4466
sg62
(lp4473
g55
(g64
g57
NtRp4474
(dp4475
g60
(dp4476
g68
I3
ssg69
Nsg62
(lp4477
g55
(g71
g57
NtRp4478
(dp4479
g60
(dp4480
sg69
g4474
sg62
(lp4481
g55
(g76
g57
NtRp4482
(dp4483
g60
(dp4484
sg69
g4478
sg62
(lp4485
g55
(g56
g57
NtRp4486
(dp4487
g60
(dp4488
g68
I3
ssg69
g4482
sg62
(lp4489
cgluon.languages
lazyT_unpickle
p4490
(S's\x04\x00\x00\x00Home'
tRp4491
asbasbasbag55
(g71
g57
NtRp4492
(dp4493
g60
(dp4494
sg69
g4474
sg62
(lp4495
g55
(g76
g57
NtRp4496
(dp4497
g60
(dp4498
sg69
g4492
sg62
(lp4499
g55
(g56
g57
NtRp4500
(dp4501
g60
(dp4502
g68
I3
ssg69
g4496
sg62
(lp4503
g98
asbasbasbag55
(g71
g57
NtRp4504
(dp4505
g60
(dp4506
sg69
g4474
sg62
(lp4507
g55
(g76
g57
NtRp4508
(dp4509
g60
(dp4510
sg69
g4504
sg62
(lp4511
g55
(g56
g57
NtRp4512
(dp4513
g60
(dp4514
g68
I3
ssg69
g4508
sg62
(lp4515
S'/reddit/default/index'
p4516
asbasbasbag55
(g71
g57
NtRp4517
(dp4518
g60
(dp4519
sg69
g4474
sg62
(lp4520
g55
(g76
g57
NtRp4521
(dp4522
g60
(dp4523
sg69
g4517
sg62
(lp4524
g55
(g56
g57
NtRp4525
(dp4526
g60
(dp4527
g68
I3
ssg69
g4521
sg62
(lp4528
g55
(g64
g57
NtRp4529
(dp4530
g60
(dp4531
g68
I2
ssg69
Nsg62
(lp4532
sbasbasbasbasbasbasbasbag55
(g71
g57
NtRp4533
(dp4534
g60
(dp4535
sg69
g4458
sg62
(lp4536
g55
(g76
g57
NtRp4537
(dp4538
g60
(dp4539
sg69
g4533
sg62
(lp4540
g55
(g56
g57
NtRp4541
(dp4542
g60
(dp4543
g68
I4
ssg69
g4537
sg62
(lp4544
g55
(g64
g57
NtRp4545
(dp4546
g60
(dp4547
g68
I3
ssg69
Nsg62
(lp4548
g55
(g71
g57
NtRp4549
(dp4550
g60
(dp4551
sg69
g4545
sg62
(lp4552
g55
(g76
g57
NtRp4553
(dp4554
g60
(dp4555
sg69
g4549
sg62
(lp4556
g55
(g56
g57
NtRp4557
(dp4558
g60
(dp4559
g68
I3
ssg69
g4553
sg62
(lp4560
g55
(g4429
g57
NtRp4561
(dp4562
g60
(dp4563
g4418
S'highlighted'
p4564
ssg69
Nsg62
(lp4565
g4392
asbasbasbasbag55
(g71
g57
NtRp4566
(dp4567
g60
(dp4568
sg69
g4545
sg62
(lp4569
g55
(g76
g57
NtRp4570
(dp4571
g60
(dp4572
sg69
g4566
sg62
(lp4573
g55
(g56
g57
NtRp4574
(dp4575
g60
(dp4576
g68
I3
ssg69
g4570
sg62
(lp4577
g98
asbasbasbag55
(g71
g57
NtRp4578
(dp4579
g60
(dp4580
sg69
g4545
sg62
(lp4581
g55
(g76
g57
NtRp4582
(dp4583
g60
(dp4584
sg69
g4578
sg62
(lp4585
g55
(g56
g57
NtRp4586
(dp4587
g60
(dp4588
g68
I3
ssg69
g4582
sg62
(lp4589
S'http://web2py.com'
p4590
asbasbasbag55
(g71
g57
NtRp4591
(dp4592
g60
(dp4593
sg69
g4545
sg62
(lp4594
g55
(g76
g57
NtRp4595
(dp4596
g60
(dp4597
sg69
g4591
sg62
(lp4598
g55
(g56
g57
NtRp4599
(dp4600
g60
(dp4601
g68
I3
ssg69
g4595
sg62
(lp4602
g55
(g64
g57
NtRp4603
(dp4604
g60
(dp4605
g68
I2
ssg69
Nsg62
(lp4606
g55
(g71
g57
NtRp4607
(dp4608
g60
(dp4609
sg69
g4603
sg62
(lp4610
g55
(g76
g57
NtRp4611
(dp4612
g60
(dp4613
sg69
g4607
sg62
(lp4614
g55
(g56
g57
NtRp4615
(dp4616
g60
(dp4617
g68
I2
ssg69
g4611
sg62
(lp4618
g55
(g64
g57
NtRp4619
(dp4620
g60
(dp4621
g68
I1
ssg69
Nsg62
(lp4622
g55
(g71
g57
NtRp4623
(dp4624
g60
(dp4625
sg69
g4619
sg62
(lp4626
g55
(g76
g57
NtRp4627
(dp4628
g60
(dp4629
sg69
g4623
sg62
(lp4630
g55
(g56
g57
NtRp4631
(dp4632
g60
(dp4633
g68
I1
ssg69
g4627
sg62
(lp4634
g4490
(S's\x08\x00\x00\x00My Sites'
tRp4635
asbasbasbag55
(g71
g57
NtRp4636
(dp4637
g60
(dp4638
sg69
g4619
sg62
(lp4639
g55
(g76
g57
NtRp4640
(dp4641
g60
(dp4642
sg69
g4636
sg62
(lp4643
g55
(g56
g57
NtRp4644
(dp4645
g60
(dp4646
g68
I1
ssg69
g4640
sg62
(lp4647
I00
asbasbasbag55
(g71
g57
NtRp4648
(dp4649
g60
(dp4650
sg69
g4619
sg62
(lp4651
g55
(g76
g57
NtRp4652
(dp4653
g60
(dp4654
sg69
g4648
sg62
(lp4655
g55
(g56
g57
NtRp4656
(dp4657
g60
(dp4658
g68
I1
ssg69
g4652
sg62
(lp4659
S'/admin/default/site'
p4660
asbasbasbasbasbasbasbag55
(g71
g57
NtRp4661
(dp4662
g60
(dp4663
sg69
g4603
sg62
(lp4664
g55
(g76
g57
NtRp4665
(dp4666
g60
(dp4667
sg69
g4661
sg62
(lp4668
g55
(g56
g57
NtRp4669
(dp4670
g60
(dp4671
g68
I2
ssg69
g4665
sg62
(lp4672
g55
(g64
g57
NtRp4673
(dp4674
g60
(dp4675
g68
I1
ssg69
Nsg62
(lp4676
g55
(g71
g57
NtRp4677
(dp4678
g60
(dp4679
sg69
g4673
sg62
(lp4680
g55
(g76
g57
NtRp4681
(dp4682
g60
(dp4683
sg69
g4677
sg62
(lp4684
g55
(g56
g57
NtRp4685
(dp4686
g60
(dp4687
g68
I1
ssg69
g4681
sg62
(lp4688
g4490
(S's\x08\x00\x00\x00This App'
tRp4689
asbasbasbag55
(g71
g57
NtRp4690
(dp4691
g60
(dp4692
sg69
g4673
sg62
(lp4693
g55
(g76
g57
NtRp4694
(dp4695
g60
(dp4696
sg69
g4690
sg62
(lp4697
g55
(g56
g57
NtRp4698
(dp4699
g60
(dp4700
g68
I1
ssg69
g4694
sg62
(lp4701
I00
asbasbasbag55
(g71
g57
NtRp4702
(dp4703
g60
(dp4704
sg69
g4673
sg62
(lp4705
g55
(g76
g57
NtRp4706
(dp4707
g60
(dp4708
sg69
g4702
sg62
(lp4709
g55
(g56
g57
NtRp4710
(dp4711
g60
(dp4712
g68
I1
ssg69
g4706
sg62
(lp4713
S'/admin/default/design/reddit'
p4714
asbasbasbag55
(g71
g57
NtRp4715
(dp4716
g60
(dp4717
sg69
g4673
sg62
(lp4718
g55
(g76
g57
NtRp4719
(dp4720
g60
(dp4721
sg69
g4715
sg62
(lp4722
g55
(g56
g57
NtRp4723
(dp4724
g60
(dp4725
g68
I1
ssg69
g4719
sg62
(lp4726
(lp4727
(g4490
(S's\n\x00\x00\x00Controller'
tRp4728
I00
S'/admin/default/edit/reddit/controllers/default.py'
tp4729
a(g4490
(S's\x04\x00\x00\x00View'
tRp4730
I00
S'/admin/default/edit/reddit/views/default/addcat.html'
tp4731
a(g4490
(S's\x06\x00\x00\x00Layout'
tRp4732
I00
S'/admin/default/edit/reddit/views/layout.html'
tp4733
a(g4490
(S's\n\x00\x00\x00Stylesheet'
tRp4734
I00
S'/admin/default/edit/reddit/static/css/web2py.css'
tp4735
a(g4490
(S's\x08\x00\x00\x00DB Model'
tRp4736
I00
S'/admin/default/edit/reddit/models/db.py'
tp4737
a(g4490
(S's\n\x00\x00\x00Menu Model'
tRp4738
I00
S'/admin/default/edit/reddit/models/menu.py'
tp4739
a(g4490
(S's\x08\x00\x00\x00Database'
tRp4740
I00
S'/reddit/appadmin/index'
tp4741
a(g4490
(S's\x06\x00\x00\x00Errors'
tRp4742
I00
S'/admin/default/errors/reddit'
tp4743
a(g4490
(S's\x05\x00\x00\x00About'
tRp4744
I00
S'/admin/default/about/reddit'
tp4745
aasbasbasbasbasbasbasbag55
(g71
g57
NtRp4746
(dp4747
g60
(dp4748
sg69
g4603
sg62
(lp4749
g55
(g76
g57
NtRp4750
(dp4751
g60
(dp4752
sg69
g4746
sg62
(lp4753
g55
(g56
g57
NtRp4754
(dp4755
g60
(dp4756
g68
I2
ssg69
g4750
sg62
(lp4757
g55
(g64
g57
NtRp4758
(dp4759
g60
(dp4760
g68
I1
ssg69
Nsg62
(lp4761
g55
(g71
g57
NtRp4762
(dp4763
g60
(dp4764
sg69
g4758
sg62
(lp4765
g55
(g76
g57
NtRp4766
(dp4767
g60
(dp4768
sg69
g4762
sg62
(lp4769
g55
(g56
g57
NtRp4770
(dp4771
g60
(dp4772
g68
I1
ssg69
g4766
sg62
(lp4773
S'web2py.com'
p4774
asbasbasbag55
(g71
g57
NtRp4775
(dp4776
g60
(dp4777
sg69
g4758
sg62
(lp4778
g55
(g76
g57
NtRp4779
(dp4780
g60
(dp4781
sg69
g4775
sg62
(lp4782
g55
(g56
g57
NtRp4783
(dp4784
g60
(dp4785
g68
I1
ssg69
g4779
sg62
(lp4786
I00
asbasbasbag55
(g71
g57
NtRp4787
(dp4788
g60
(dp4789
sg69
g4758
sg62
(lp4790
g55
(g76
g57
NtRp4791
(dp4792
g60
(dp4793
sg69
g4787
sg62
(lp4794
g55
(g56
g57
NtRp4795
(dp4796
g60
(dp4797
g68
I1
ssg69
g4791
sg62
(lp4798
S'http://www.web2py.com'
p4799
asbasbasbag55
(g71
g57
NtRp4800
(dp4801
g60
(dp4802
sg69
g4758
sg62
(lp4803
g55
(g76
g57
NtRp4804
(dp4805
g60
(dp4806
sg69
g4800
sg62
(lp4807
g55
(g56
g57
NtRp4808
(dp4809
g60
(dp4810
g68
I1
ssg69
g4804
sg62
(lp4811
(lp4812
(g4490
(S's\x08\x00\x00\x00Download'
tRp4813
I00
S'http://www.web2py.com/examples/default/download'
p4814
tp4815
a(g4490
(S's\x07\x00\x00\x00Support'
tRp4816
I00
S'http://www.web2py.com/examples/default/support'
p4817
tp4818
a(g4490
(S's\x04\x00\x00\x00Demo'
tRp4819
I00
S'http://web2py.com/demo_admin'
p4820
tp4821
a(g4490
(S's\x0e\x00\x00\x00Quick Examples'
tRp4822
I00
S'http://web2py.com/examples/default/examples'
p4823
tp4824
a(g4490
(S's\x03\x00\x00\x00FAQ'
tRp4825
I00
S'http://web2py.com/AlterEgo'
p4826
tp4827
a(g4490
(S's\x06\x00\x00\x00Videos'
tRp4828
I00
S'http://www.web2py.com/examples/default/videos/'
p4829
tp4830
a(g4490
(S's\x11\x00\x00\x00Free Applications'
tRp4831
I00
S'http://web2py.com/appliances'
p4832
tp4833
a(g4490
(S's\x07\x00\x00\x00Plugins'
tRp4834
I00
S'http://web2py.com/plugins'
p4835
tp4836
a(g4490
(S's\x07\x00\x00\x00Layouts'
tRp4837
I00
S'http://web2py.com/layouts'
p4838
tp4839
a(g4490
(S's\x07\x00\x00\x00Recipes'
tRp4840
I00
S'http://web2pyslices.com/'
p4841
tp4842
a(g4490
(S's\x08\x00\x00\x00Semantic'
tRp4843
I00
S'http://web2py.com/semantic'
p4844
tp4845
aasbasbasbasbasbasbasbag55
(g71
g57
NtRp4846
(dp4847
g60
(dp4848
sg69
g4603
sg62
(lp4849
g55
(g76
g57
NtRp4850
(dp4851
g60
(dp4852
sg69
g4846
sg62
(lp4853
g55
(g56
g57
NtRp4854
(dp4855
g60
(dp4856
g68
I2
ssg69
g4850
sg62
(lp4857
g55
(g64
g57
NtRp4858
(dp4859
g60
(dp4860
g68
I1
ssg69
Nsg62
(lp4861
g55
(g71
g57
NtRp4862
(dp4863
g60
(dp4864
sg69
g4858
sg62
(lp4865
g55
(g76
g57
NtRp4866
(dp4867
g60
(dp4868
sg69
g4862
sg62
(lp4869
g55
(g56
g57
NtRp4870
(dp4871
g60
(dp4872
g68
I1
ssg69
g4866
sg62
(lp4873
g4490
(S's\r\x00\x00\x00Documentation'
tRp4874
asbasbasbag55
(g71
g57
NtRp4875
(dp4876
g60
(dp4877
sg69
g4858
sg62
(lp4878
g55
(g76
g57
NtRp4879
(dp4880
g60
(dp4881
sg69
g4875
sg62
(lp4882
g55
(g56
g57
NtRp4883
(dp4884
g60
(dp4885
g68
I1
ssg69
g4879
sg62
(lp4886
I00
asbasbasbag55
(g71
g57
NtRp4887
(dp4888
g60
(dp4889
sg69
g4858
sg62
(lp4890
g55
(g76
g57
NtRp4891
(dp4892
g60
(dp4893
sg69
g4887
sg62
(lp4894
g55
(g56
g57
NtRp4895
(dp4896
g60
(dp4897
g68
I1
ssg69
g4891
sg62
(lp4898
S'http://www.web2py.com/book'
p4899
asbasbasbag55
(g71
g57
NtRp4900
(dp4901
g60
(dp4902
sg69
g4858
sg62
(lp4903
g55
(g76
g57
NtRp4904
(dp4905
g60
(dp4906
sg69
g4900
sg62
(lp4907
g55
(g56
g57
NtRp4908
(dp4909
g60
(dp4910
g68
I1
ssg69
g4904
sg62
(lp4911
(lp4912
(g4490
(S's\x07\x00\x00\x00Preface'
tRp4913
I00
S'http://www.web2py.com/book/default/chapter/00'
p4914
tp4915
a(g4490
(S's\x0c\x00\x00\x00Introduction'
tRp4916
I00
S'http://www.web2py.com/book/default/chapter/01'
p4917
tp4918
a(g4490
(S's\x06\x00\x00\x00Python'
tRp4919
I00
S'http://www.web2py.com/book/default/chapter/02'
p4920
tp4921
a(g4490
(S's\x08\x00\x00\x00Overview'
tRp4922
I00
S'http://www.web2py.com/book/default/chapter/03'
p4923
tp4924
a(g4490
(S's\x08\x00\x00\x00The Core'
tRp4925
I00
S'http://www.web2py.com/book/default/chapter/04'
p4926
tp4927
a(g4490
(S's\t\x00\x00\x00The Views'
tRp4928
I00
S'http://www.web2py.com/book/default/chapter/05'
p4929
tp4930
a(g4490
(S's\x08\x00\x00\x00Database'
tRp4931
I00
S'http://www.web2py.com/book/default/chapter/06'
p4932
tp4933
a(g4490
(S's\x14\x00\x00\x00Forms and Validators'
tRp4934
I00
S'http://www.web2py.com/book/default/chapter/07'
p4935
tp4936
a(g4490
(S's\r\x00\x00\x00Email and SMS'
tRp4937
I00
S'http://www.web2py.com/book/default/chapter/08'
p4938
tp4939
a(g4490
(S's\x0e\x00\x00\x00Access Control'
tRp4940
I00
S'http://www.web2py.com/book/default/chapter/09'
p4941
tp4942
a(g4490
(S's\x08\x00\x00\x00Services'
tRp4943
I00
S'http://www.web2py.com/book/default/chapter/10'
p4944
tp4945
a(g4490
(S's\x0c\x00\x00\x00Ajax Recipes'
tRp4946
I00
S'http://www.web2py.com/book/default/chapter/11'
p4947
tp4948
a(g4490
(S's\x16\x00\x00\x00Components and Plugins'
tRp4949
I00
S'http://www.web2py.com/book/default/chapter/12'
p4950
tp4951
a(g4490
(S's\x12\x00\x00\x00Deployment Recipes'
tRp4952
I00
S'http://www.web2py.com/book/default/chapter/13'
p4953
tp4954
a(g4490
(S's\r\x00\x00\x00Other Recipes'
tRp4955
I00
S'http://www.web2py.com/book/default/chapter/14'
p4956
tp4957
a(g4490
(S's\r\x00\x00\x00Buy this book'
tRp4958
I00
S'http://stores.lulu.com/web2py'
p4959
tp4960
aasbasbasbasbasbasbasbag55
(g71
g57
NtRp4961
(dp4962
g60
(dp4963
sg69
g4603
sg62
(lp4964
g55
(g76
g57
NtRp4965
(dp4966
g60
(dp4967
sg69
g4961
sg62
(lp4968
g55
(g56
g57
NtRp4969
(dp4970
g60
(dp4971
g68
I2
ssg69
g4965
sg62
(lp4972
g55
(g64
g57
NtRp4973
(dp4974
g60
(dp4975
g68
I1
ssg69
Nsg62
(lp4976
g55
(g71
g57
NtRp4977
(dp4978
g60
(dp4979
sg69
g4973
sg62
(lp4980
g55
(g76
g57
NtRp4981
(dp4982
g60
(dp4983
sg69
g4977
sg62
(lp4984
g55
(g56
g57
NtRp4985
(dp4986
g60
(dp4987
g68
I1
ssg69
g4981
sg62
(lp4988
g4490
(S's\t\x00\x00\x00Community'
tRp4989
asbasbasbag55
(g71
g57
NtRp4990
(dp4991
g60
(dp4992
sg69
g4973
sg62
(lp4993
g55
(g76
g57
NtRp4994
(dp4995
g60
(dp4996
sg69
g4990
sg62
(lp4997
g55
(g56
g57
NtRp4998
(dp4999
g60
(dp5000
g68
I1
ssg69
g4994
sg62
(lp5001
I00
asbasbasbag55
(g71
g57
NtRp5002
(dp5003
g60
(dp5004
sg69
g4973
sg62
(lp5005
g55
(g76
g57
NtRp5006
(dp5007
g60
(dp5008
sg69
g5002
sg62
(lp5009
g55
(g56
g57
NtRp5010
(dp5011
g60
(dp5012
g68
I1
ssg69
g5006
sg62
(lp5013
Nasbasbasbag55
(g71
g57
NtRp5014
(dp5015
g60
(dp5016
sg69
g4973
sg62
(lp5017
g55
(g76
g57
NtRp5018
(dp5019
g60
(dp5020
sg69
g5014
sg62
(lp5021
g55
(g56
g57
NtRp5022
(dp5023
g60
(dp5024
g68
I1
ssg69
g5018
sg62
(lp5025
(lp5026
(g4490
(S's\x06\x00\x00\x00Groups'
tRp5027
I00
S'http://www.web2py.com/examples/default/usergroups'
p5028
tp5029
a(g4490
(S's\x07\x00\x00\x00Twitter'
tRp5030
I00
S'http://twitter.com/web2py'
p5031
tp5032
a(g4490
(S's\t\x00\x00\x00Live Chat'
tRp5033
I00
S'http://webchat.freenode.net/?channels=web2py'
p5034
tp5035
aasbasbasbasbasbasbasbag55
(g71
g57
NtRp5036
(dp5037
g60
(dp5038
sg69
g4603
sg62
(lp5039
g55
(g76
g57
NtRp5040
(dp5041
g60
(dp5042
sg69
g5036
sg62
(lp5043
g55
(g56
g57
NtRp5044
(dp5045
g60
(dp5046
g68
I2
ssg69
g5040
sg62
(lp5047
g55
(g64
g57
NtRp5048
(dp5049
g60
(dp5050
g68
I1
ssg69
Nsg62
(lp5051
g55
(g71
g57
NtRp5052
(dp5053
g60
(dp5054
sg69
g5048
sg62
(lp5055
g55
(g76
g57
NtRp5056
(dp5057
g60
(dp5058
sg69
g5052
sg62
(lp5059
g55
(g56
g57
NtRp5060
(dp5061
g60
(dp5062
g68
I1
ssg69
g5056
sg62
(lp5063
g4490
(S's\x07\x00\x00\x00Plugins'
tRp5064
asbasbasbag55
(g71
g57
NtRp5065
(dp5066
g60
(dp5067
sg69
g5048
sg62
(lp5068
g55
(g76
g57
NtRp5069
(dp5070
g60
(dp5071
sg69
g5065
sg62
(lp5072
g55
(g56
g57
NtRp5073
(dp5074
g60
(dp5075
g68
I1
ssg69
g5069
sg62
(lp5076
I00
asbasbasbag55
(g71
g57
NtRp5077
(dp5078
g60
(dp5079
sg69
g5048
sg62
(lp5080
g55
(g76
g57
NtRp5081
(dp5082
g60
(dp5083
sg69
g5077
sg62
(lp5084
g55
(g56
g57
NtRp5085
(dp5086
g60
(dp5087
g68
I1
ssg69
g5081
sg62
(lp5088
Nasbasbasbag55
(g71
g57
NtRp5089
(dp5090
g60
(dp5091
sg69
g5048
sg62
(lp5092
g55
(g76
g57
NtRp5093
(dp5094
g60
(dp5095
sg69
g5089
sg62
(lp5096
g55
(g56
g57
NtRp5097
(dp5098
g60
(dp5099
g68
I1
ssg69
g5093
sg62
(lp5100
(lp5101
(S'plugin_wiki'
p5102
I00
S'http://web2py.com/examples/default/download'
p5103
tp5104
a(g4490
(S's\r\x00\x00\x00Other Plugins'
tRp5105
I00
g4835
tp5106
a(g4490
(S's\x0e\x00\x00\x00Layout Plugins'
tRp5107
I00
g4838
tp5108
aasbasbasbasbasbasbasbasbasbasbasbasbasbasbasbasbasbasbasbag55
(g71
g57
NtRp5109
(dp5110
g60
(dp5111
sg69
g3956
sg62
(lp5112
g55
(g76
g57
NtRp5113
(dp5114
g60
(dp5115
g80
g81
ssg69
g5109
sg62
(lp5116
S'meta'
p5117
asbag55
(g76
g57
NtRp5118
(dp5119
g60
(dp5120
g87
g88
ssg69
g5109
sg62
(lp5121
S':'
asbag55
(g76
g57
NtRp5122
(dp5123
g60
(dp5124
sg69
g5109
sg62
(lp5125
g55
(g56
g57
NtRp5126
(dp5127
g60
(dp5128
g68
I5
ssg69
g5122
sg62
(lp5129
g55
(g64
g57
NtRp5130
(dp5131
g60
(dp5132
g68
I4
ssg69
Nsg62
(lp5133
g55
(g71
g57
NtRp5134
(dp5135
g60
(dp5136
sg69
g5130
sg62
(lp5137
g55
(g76
g57
NtRp5138
(dp5139
g60
(dp5140
g80
g81
ssg69
g5134
sg62
(lp5141
S'author'
p5142
asbag55
(g76
g57
NtRp5143
(dp5144
g60
(dp5145
g87
g88
ssg69
g5134
sg62
(lp5146
S':'
asbag55
(g76
g57
NtRp5147
(dp5148
g60
(dp5149
sg69
g5134
sg62
(lp5150
g55
(g56
g57
NtRp5151
(dp5152
g60
(dp5153
g68
I4
ssg69
g5147
sg62
(lp5154
S'Your Name <you@example.com>'
p5155
asbasbasbag55
(g71
g57
NtRp5156
(dp5157
g60
(dp5158
sg69
g5130
sg62
(lp5159
g55
(g76
g57
NtRp5160
(dp5161
g60
(dp5162
g80
g81
ssg69
g5156
sg62
(lp5163
S'description'
p5164
asbag55
(g76
g57
NtRp5165
(dp5166
g60
(dp5167
g87
g88
ssg69
g5156
sg62
(lp5168
S':'
asbag55
(g76
g57
NtRp5169
(dp5170
g60
(dp5171
sg69
g5156
sg62
(lp5172
g55
(g56
g57
NtRp5173
(dp5174
g60
(dp5175
g68
I4
ssg69
g5169
sg62
(lp5176
S'a cool new app'
p5177
asbasbasbag55
(g71
g57
NtRp5178
(dp5179
g60
(dp5180
sg69
g5130
sg62
(lp5181
g55
(g76
g57
NtRp5182
(dp5183
g60
(dp5184
g80
g81
ssg69
g5178
sg62
(lp5185
S'generator'
p5186
asbag55
(g76
g57
NtRp5187
(dp5188
g60
(dp5189
g87
g88
ssg69
g5178
sg62
(lp5190
S':'
asbag55
(g76
g57
NtRp5191
(dp5192
g60
(dp5193
sg69
g5178
sg62
(lp5194
g55
(g56
g57
NtRp5195
(dp5196
g60
(dp5197
g68
I4
ssg69
g5191
sg62
(lp5198
S'Web2py Web Framework'
p5199
asbasbasbag55
(g71
g57
NtRp5200
(dp5201
g60
(dp5202
sg69
g5130
sg62
(lp5203
g55
(g76
g57
NtRp5204
(dp5205
g60
(dp5206
g80
g81
ssg69
g5200
sg62
(lp5207
S'keywords'
p5208
asbag55
(g76
g57
NtRp5209
(dp5210
g60
(dp5211
g87
g88
ssg69
g5200
sg62
(lp5212
S':'
asbag55
(g76
g57
NtRp5213
(dp5214
g60
(dp5215
sg69
g5200
sg62
(lp5216
g55
(g56
g57
NtRp5217
(dp5218
g60
(dp5219
g68
I4
ssg69
g5213
sg62
(lp5220
S'web2py, python, framework'
p5221
asbasbasbasbasbasbasbag55
(g71
g57
NtRp5222
(dp5223
g60
(dp5224
sg69
g3956
sg62
(lp5225
g55
(g76
g57
NtRp5226
(dp5227
g60
(dp5228
g80
g81
ssg69
g5222
sg62
(lp5229
S'models_to_run'
p5230
asbag55
(g76
g57
NtRp5231
(dp5232
g60
(dp5233
g87
g88
ssg69
g5222
sg62
(lp5234
S':'
asbag55
(g76
g57
NtRp5235
(dp5236
g60
(dp5237
sg69
g5222
sg62
(lp5238
g55
(g56
g57
NtRp5239
(dp5240
g60
(dp5241
g68
I5
ssg69
g5235
sg62
(lp5242
g55
(g64
g57
NtRp5243
(dp5244
g60
(dp5245
g68
I4
ssg69
Nsg62
(lp5246
g55
(g71
g57
NtRp5247
(dp5248
g60
(dp5249
sg69
g5243
sg62
(lp5250
g55
(g76
g57
NtRp5251
(dp5252
g60
(dp5253
sg69
g5247
sg62
(lp5254
g55
(g56
g57
NtRp5255
(dp5256
g60
(dp5257
g68
I4
ssg69
g5251
sg62
(lp5258
S'^\\w+\\.py$'
p5259
asbasbasbag55
(g71
g57
NtRp5260
(dp5261
g60
(dp5262
sg69
g5243
sg62
(lp5263
g55
(g76
g57
NtRp5264
(dp5265
g60
(dp5266
sg69
g5260
sg62
(lp5267
g55
(g56
g57
NtRp5268
(dp5269
g60
(dp5270
g68
I4
ssg69
g5264
sg62
(lp5271
S'^default/\\w+\\.py$'
p5272
asbasbasbag55
(g71
g57
NtRp5273
(dp5274
g60
(dp5275
sg69
g5243
sg62
(lp5276
g55
(g76
g57
NtRp5277
(dp5278
g60
(dp5279
sg69
g5273
sg62
(lp5280
g55
(g56
g57
NtRp5281
(dp5282
g60
(dp5283
g68
I4
ssg69
g5277
sg62
(lp5284
S'^default/addcat/\\w+\\.py$'
p5285
asbasbasbasbasbasbasbag55
(g71
g57
NtRp5286
(dp5287
g60
(dp5288
sg69
g3956
sg62
(lp5289
g55
(g76
g57
NtRp5290
(dp5291
g60
(dp5292
g80
g81
ssg69
g5286
sg62
(lp5293
S'postprocessing'
p5294
asbag55
(g76
g57
NtRp5295
(dp5296
g60
(dp5297
g87
g88
ssg69
g5286
sg62
(lp5298
S':'
asbag55
(g76
g57
NtRp5299
(dp5300
g60
(dp5301
sg69
g5286
sg62
(lp5302
g55
(g56
g57
NtRp5303
(dp5304
g60
(dp5305
g68
I5
ssg69
g5299
sg62
(lp5306
g55
(g64
g57
NtRp5307
(dp5308
g60
(dp5309
g68
I4
ssg69
Nsg62
(lp5310
sbasbasbasbag55
(g71
g57
NtRp5311
(dp5312
g60
(dp5313
sg69
g3956
sg62
(lp5314
g55
(g76
g57
NtRp5315
(dp5316
g60
(dp5317
g80
g81
ssg69
g5311
sg62
(lp5318
S'session_cookie_expires'
p5319
asbag55
(g76
g57
NtRp5320
(dp5321
g60
(dp5322
g87
g88
ssg69
g5311
sg62
(lp5323
S':'
asbag55
(g76
g57
NtRp5324
(dp5325
g60
(dp5326
sg69
g5311
sg62
(lp5327
g55
(g56
g57
NtRp5328
(dp5329
g60
(dp5330
g68
I5
ssg69
g5324
sg62
(lp5331
S'None'
p5332
asbasbasbag55
(g71
g57
NtRp5333
(dp5334
g60
(dp5335
sg69
g3956
sg62
(lp5336
g55
(g76
g57
NtRp5337
(dp5338
g60
(dp5339
g80
g81
ssg69
g5333
sg62
(lp5340
S'session_data_name'
p5341
asbag55
(g76
g57
NtRp5342
(dp5343
g60
(dp5344
g87
g88
ssg69
g5333
sg62
(lp5345
S':'
asbag55
(g76
g57
NtRp5346
(dp5347
g60
(dp5348
sg69
g5333
sg62
(lp5349
g55
(g56
g57
NtRp5350
(dp5351
g60
(dp5352
g68
I5
ssg69
g5346
sg62
(lp5353
S'session_data_reddit'
p5354
asbasbasbag55
(g71
g57
NtRp5355
(dp5356
g60
(dp5357
sg69
g3956
sg62
(lp5358
g55
(g76
g57
NtRp5359
(dp5360
g60
(dp5361
g80
g81
ssg69
g5355
sg62
(lp5362
S'session_file'
p5363
asbag55
(g76
g57
NtRp5364
(dp5365
g60
(dp5366
g87
g88
ssg69
g5355
sg62
(lp5367
S':'
asbag55
(g76
g57
NtRp5368
(dp5369
g60
(dp5370
sg69
g5355
sg62
(lp5371
g55
(g56
g57
NtRp5372
(dp5373
g60
(dp5374
g68
I5
ssg69
g5368
sg62
(lp5375
S"<open file '/home/pankaj/web2py/applications/reddit/sessions/127.0.0.1-b2e6bf86-ee8a-43c0-88e9-12c7f35bec5f', mode 'rb+' at 0xaebb9a18>"
p5376
asbasbasbag55
(g71
g57
NtRp5377
(dp5378
g60
(dp5379
sg69
g3956
sg62
(lp5380
g55
(g76
g57
NtRp5381
(dp5382
g60
(dp5383
g80
g81
ssg69
g5377
sg62
(lp5384
S'session_filename'
p5385
asbag55
(g76
g57
NtRp5386
(dp5387
g60
(dp5388
g87
g88
ssg69
g5377
sg62
(lp5389
S':'
asbag55
(g76
g57
NtRp5390
(dp5391
g60
(dp5392
sg69
g5377
sg62
(lp5393
g55
(g56
g57
NtRp5394
(dp5395
g60
(dp5396
g68
I5
ssg69
g5390
sg62
(lp5397
S'/home/pankaj/web2py/applications/reddit/sessions/127.0.0.1-b2e6bf86-ee8a-43c0-88e9-12c7f35bec5f'
p5398
asbasbasbag55
(g71
g57
NtRp5399
(dp5400
g60
(dp5401
sg69
g3956
sg62
(lp5402
g55
(g76
g57
NtRp5403
(dp5404
g60
(dp5405
g80
g81
ssg69
g5399
sg62
(lp5406
S'session_id'
p5407
asbag55
(g76
g57
NtRp5408
(dp5409
g60
(dp5410
g87
g88
ssg69
g5399
sg62
(lp5411
S':'
asbag55
(g76
g57
NtRp5412
(dp5413
g60
(dp5414
sg69
g5399
sg62
(lp5415
g55
(g56
g57
NtRp5416
(dp5417
g60
(dp5418
g68
I5
ssg69
g5412
sg62
(lp5419
g659
asbasbasbag55
(g71
g57
NtRp5420
(dp5421
g60
(dp5422
sg69
g3956
sg62
(lp5423
g55
(g76
g57
NtRp5424
(dp5425
g60
(dp5426
g80
g81
ssg69
g5420
sg62
(lp5427
S'session_id_name'
p5428
asbag55
(g76
g57
NtRp5429
(dp5430
g60
(dp5431
g87
g88
ssg69
g5420
sg62
(lp5432
S':'
asbag55
(g76
g57
NtRp5433
(dp5434
g60
(dp5435
sg69
g5420
sg62
(lp5436
g55
(g56
g57
NtRp5437
(dp5438
g60
(dp5439
g68
I5
ssg69
g5433
sg62
(lp5440
g4013
asbasbasbag55
(g71
g57
NtRp5441
(dp5442
g60
(dp5443
sg69
g3956
sg62
(lp5444
g55
(g76
g57
NtRp5445
(dp5446
g60
(dp5447
g80
g81
ssg69
g5441
sg62
(lp5448
S'session_locked'
p5449
asbag55
(g76
g57
NtRp5450
(dp5451
g60
(dp5452
g87
g88
ssg69
g5441
sg62
(lp5453
S':'
asbag55
(g76
g57
NtRp5454
(dp5455
g60
(dp5456
sg69
g5441
sg62
(lp5457
g55
(g56
g57
NtRp5458
(dp5459
g60
(dp5460
g68
I5
ssg69
g5454
sg62
(lp5461
g1953
asbasbasbag55
(g71
g57
NtRp5462
(dp5463
g60
(dp5464
sg69
g3956
sg62
(lp5465
g55
(g76
g57
NtRp5466
(dp5467
g60
(dp5468
g80
g81
ssg69
g5462
sg62
(lp5469
S'session_new'
p5470
asbag55
(g76
g57
NtRp5471
(dp5472
g60
(dp5473
g87
g88
ssg69
g5462
sg62
(lp5474
S':'
asbag55
(g76
g57
NtRp5475
(dp5476
g60
(dp5477
sg69
g5462
sg62
(lp5478
g55
(g56
g57
NtRp5479
(dp5480
g60
(dp5481
g68
I5
ssg69
g5475
sg62
(lp5482
g98
asbasbasbag55
(g71
g57
NtRp5483
(dp5484
g60
(dp5485
sg69
g3956
sg62
(lp5486
g55
(g76
g57
NtRp5487
(dp5488
g60
(dp5489
g80
g81
ssg69
g5483
sg62
(lp5490
S'session_storage_type'
p5491
asbag55
(g76
g57
NtRp5492
(dp5493
g60
(dp5494
g87
g88
ssg69
g5483
sg62
(lp5495
S':'
asbag55
(g76
g57
NtRp5496
(dp5497
g60
(dp5498
sg69
g5483
sg62
(lp5499
g55
(g56
g57
NtRp5500
(dp5501
g60
(dp5502
g68
I5
ssg69
g5496
sg62
(lp5503
g3383
asbasbasbag55
(g71
g57
NtRp5504
(dp5505
g60
(dp5506
sg69
g3956
sg62
(lp5507
g55
(g76
g57
NtRp5508
(dp5509
g60
(dp5510
g80
g81
ssg69
g5504
sg62
(lp5511
S'status'
p5512
asbag55
(g76
g57
NtRp5513
(dp5514
g60
(dp5515
g87
g88
ssg69
g5504
sg62
(lp5516
S':'
asbag55
(g76
g57
NtRp5517
(dp5518
g60
(dp5519
sg69
g5504
sg62
(lp5520
g55
(g56
g57
NtRp5521
(dp5522
g60
(dp5523
g68
I5
ssg69
g5517
sg62
(lp5524
S'200'
p5525
asbasbasbag55
(g71
g57
NtRp5526
(dp5527
g60
(dp5528
sg69
g3956
sg62
(lp5529
g55
(g76
g57
NtRp5530
(dp5531
g60
(dp5532
g80
g81
ssg69
g5526
sg62
(lp5533
S'subtitle'
p5534
asbag55
(g76
g57
NtRp5535
(dp5536
g60
(dp5537
g87
g88
ssg69
g5526
sg62
(lp5538
S':'
asbag55
(g76
g57
NtRp5539
(dp5540
g60
(dp5541
sg69
g5526
sg62
(lp5542
g55
(g56
g57
NtRp5543
(dp5544
g60
(dp5545
g68
I5
ssg69
g5539
sg62
(lp5546
g4490
(S's\r\x00\x00\x00customize me!'
tRp5547
asbasbasbag55
(g71
g57
NtRp5548
(dp5549
g60
(dp5550
sg69
g3956
sg62
(lp5551
g55
(g76
g57
NtRp5552
(dp5553
g60
(dp5554
g80
g81
ssg69
g5548
sg62
(lp5555
S'title'
p5556
asbag55
(g76
g57
NtRp5557
(dp5558
g60
(dp5559
g87
g88
ssg69
g5548
sg62
(lp5560
S':'
asbag55
(g76
g57
NtRp5561
(dp5562
g60
(dp5563
sg69
g5548
sg62
(lp5564
g55
(g56
g57
NtRp5565
(dp5566
g60
(dp5567
g68
I5
ssg69
g5561
sg62
(lp5568
S'Reddit'
p5569
asbasbasbag55
(g71
g57
NtRp5570
(dp5571
g60
(dp5572
sg69
g3956
sg62
(lp5573
g55
(g76
g57
NtRp5574
(dp5575
g60
(dp5576
g80
g81
ssg69
g5570
sg62
(lp5577
S'view'
p5578
asbag55
(g76
g57
NtRp5579
(dp5580
g60
(dp5581
g87
g88
ssg69
g5570
sg62
(lp5582
S':'
asbag55
(g76
g57
NtRp5583
(dp5584
g60
(dp5585
sg69
g5570
sg62
(lp5586
g55
(g56
g57
NtRp5587
(dp5588
g60
(dp5589
g68
I5
ssg69
g5583
sg62
(lp5590
S'default/addcat.html'
p5591
asbasbasbasbasbsS'locals'
p5592
(dp5593
S'Service'
p5594
S"<class 'gluon.tools.Service'>"
p5595
sS'OBJECT'
p5596
S"<class 'gluon.html.OBJECT'>"
p5597
sS'SQLDB'
p5598
S"<class 'gluon.dal.DAL'>"
p5599
sg3561
S"<Storage {'_formkey[login]': '7fb6d461-1fd9-4e7b..., 'id': 1}>, 'user_groups': {3: 'admingroup'}}>}>"
p5600
sS'LINK'
p5601
S"<class 'gluon.html.LINK'>"
p5602
sS'BR'
p5603
S"<class 'gluon.html.BR'>"
p5604
sS'local_import'
p5605
S'<function <lambda>>'
p5606
sS'OPTGROUP'
p5607
S"<class 'gluon.html.OPTGROUP'>"
p5608
sS'__package__'
p5609
S'None'
p5610
sS'PRE'
p5611
S"<class 'gluon.html.PRE'>"
p5612
sS'IS_INT_IN_RANGE'
p5613
S"<class 'gluon.validators.IS_INT_IN_RANGE'>"
p5614
sS'IS_LOWER'
p5615
S"<class 'gluon.validators.IS_LOWER'>"
p5616
sS'IS_STRONG'
p5617
S"<class 'gluon.validators.IS_STRONG'>"
p5618
sS'cache'
p5619
S'<gluon.cache.Cache object>'
p5620
sS'IS_IN_DB'
p5621
S"<class 'gluon.validators.IS_IN_DB'>"
p5622
sS'TAG'
p5623
S'<gluon.html.__TAG__ object>'
p5624
sS'SQLField'
p5625
S"<class 'gluon.dal.Field'>"
p5626
sS'mail'
p5627
S'<gluon.tools.Mail object>'
p5628
sS'BODY'
p5629
S"<class 'gluon.html.BODY'>"
p5630
sS'IS_DATE_IN_RANGE'
p5631
S"<class 'gluon.validators.IS_DATE_IN_RANGE'>"
p5632
sS'IFRAME'
p5633
S"<class 'gluon.html.IFRAME'>"
p5634
sS'URL'
p5635
S'<function URL>'
p5636
sS'__file__'
p5637
S"'/home/pankaj/web2py/applications/reddit/models/menu.py'"
p5638
sS'db'
p5639
S'<DAL uri="sqlite://storage.sqlite">'
p5640
sS'auth'
p5641
S'<gluon.tools.Auth object>'
p5642
sS'P'
S"<class 'gluon.html.P'>"
p5643
sS'TFOOT'
p5644
S"<class 'gluon.html.TFOOT'>"
p5645
sS'XHTML'
p5646
S"<class 'gluon.html.XHTML'>"
p5647
sS'ON'
p5648
g1953
sS'OL'
p5649
S"<class 'gluon.html.OL'>"
p5650
sS'TEXTAREA'
p5651
S"<class 'gluon.html.TEXTAREA'>"
p5652
sS'MENU'
p5653
S"<class 'gluon.html.MENU'>"
p5654
sS'IS_IMAGE'
p5655
S"<class 'gluon.validators.IS_IMAGE'>"
p5656
sS'EM'
p5657
S"<class 'gluon.html.EM'>"
p5658
sS'CODE'
p5659
S"<class 'gluon.html.CODE'>"
p5660
sS'HTTP'
p5661
S"<class 'gluon.http.HTTP'>"
p5662
sS'HR'
p5663
S"<class 'gluon.html.HR'>"
p5664
sS'IS_DATETIME'
p5665
S"<class 'gluon.validators.IS_DATETIME'>"
p5666
sS'STYLE'
p5667
S"<class 'gluon.html.STYLE'>"
p5668
sS'LABEL'
p5669
S"<class 'gluon.html.LABEL'>"
p5670
sS'CLEANUP'
p5671
S"<class 'gluon.validators.CLEANUP'>"
p5672
sS'plugins'
p5673
S'<gluon.tools.PluginManager object>'
p5674
sS'SELECT'
p5675
S"<class 'gluon.html.SELECT'>"
p5676
sS'use_janrain'
p5677
S'<function use_janrain>'
p5678
sS'CENTER'
p5679
S"<class 'gluon.html.CENTER'>"
p5680
sS'prettydate'
p5681
S'<function prettydate>'
p5682
sS'Crud'
p5683
S"<class 'gluon.tools.Crud'>"
p5684
sS'Auth'
p5685
S"<class 'gluon.tools.Auth'>"
p5686
sS'DEVELOPMENT_MENU'
p5687
g1953
sS'__builtins__'
p5688
S"{'ArithmeticError': <type 'exceptions.ArithmeticError'>, 'AssertionError': <type 'exceptions.AssertionError'>, 'AttributeError': <type 'exceptions.AttributeError'>, 'BaseException': <type 'exceptions.BaseException'>, 'BufferError': <type 'exceptions.BufferError'>, 'BytesWarning': <type 'exceptions.BytesWarning'>, 'DeprecationWarning': <type 'exceptions.DeprecationWarning'>, 'EOFError': <type 'exceptions.EOFError'>, 'Ellipsis': Ellipsis, 'EnvironmentError': <type 'exceptions.EnvironmentError'>, ...}"
p5689
sS'HTML'
p5690
S"<class 'gluon.html.HTML'>"
p5691
sS'SQLFORM'
p5692
S"<class 'gluon.sqlhtml.SQLFORM'>"
p5693
sS'LOAD'
p5694
S'<function LOAD>'
p5695
sS'redirect'
p5696
S'<function redirect>'
p5697
sS'FIELDSET'
p5698
S"<class 'gluon.html.FIELDSET'>"
p5699
sS'IS_EQUAL_TO'
p5700
S"<class 'gluon.validators.IS_EQUAL_TO'>"
p5701
sS'embed64'
p5702
S'<function embed64>'
p5703
sS'IS_LIST_OF'
p5704
S"<class 'gluon.validators.IS_LIST_OF'>"
p5705
sS'INPUT'
p5706
S"<class 'gluon.html.INPUT'>"
p5707
sS'EMBED'
p5708
S"<class 'gluon.html.EMBED'>"
p5709
sS'_'
S'<function _>'
p5710
sS'H2'
p5711
S"<class 'gluon.html.H2'>"
p5712
sS'H3'
p5713
S"<class 'gluon.html.H3'>"
p5714
sS'BUTTON'
p5715
S"<class 'gluon.html.BUTTON'>"
p5716
sS'H1'
p5717
S"<class 'gluon.html.H1'>"
p5718
sS'H6'
p5719
S"<class 'gluon.html.H6'>"
p5720
sS'H4'
p5721
S"<class 'gluon.html.H4'>"
p5722
sS'H5'
p5723
S"<class 'gluon.html.H5'>"
p5724
sS'UL'
p5725
S"<class 'gluon.html.UL'>"
p5726
sS'IS_UPPER'
p5727
S"<class 'gluon.validators.IS_UPPER'>"
p5728
sS'xmlescape'
p5729
S'<function xmlescape>'
p5730
sS'IS_TIME'
p5731
S"<class 'gluon.validators.IS_TIME'>"
p5732
sS'OPTION'
p5733
S"<class 'gluon.html.OPTION'>"
p5734
sS'TITLE'
p5735
S"<class 'gluon.html.TITLE'>"
p5736
sS'CRYPT'
p5737
S"<class 'gluon.validators.CRYPT'>"
p5738
sS'IS_EMPTY_OR'
p5739
S"<class 'gluon.validators.IS_EMPTY_OR'>"
p5740
sS'MARKMIN'
p5741
S"<class 'gluon.html.MARKMIN'>"
p5742
sS'__name__'
p5743
S"'__restricted__'"
p5744
sS'STRONG'
p5745
S"<class 'gluon.html.STRONG'>"
p5746
sS'COL'
p5747
S"<class 'gluon.html.COL'>"
p5748
sS'service'
p5749
S'<gluon.tools.Service object>'
p5750
sS'SCRIPT'
p5751
S"<class 'gluon.html.SCRIPT'>"
p5752
sS'TABLE'
p5753
S"<class 'gluon.html.TABLE'>"
p5754
sS'IS_IPV4'
p5755
S"<class 'gluon.validators.IS_IPV4'>"
p5756
sS'IS_LENGTH'
p5757
S"<class 'gluon.validators.IS_LENGTH'>"
p5758
sS'XML'
p5759
S"<class 'gluon.html.XML'>"
p5760
sS'B'
S"<class 'gluon.html.B'>"
p5761
sS'IMG'
p5762
S"<class 'gluon.html.IMG'>"
p5763
sS'SQLTABLE'
p5764
S"<class 'gluon.sqlhtml.SQLTABLE'>"
p5765
sS'IS_MATCH'
p5766
S"<class 'gluon.validators.IS_MATCH'>"
p5767
sS'IS_ALPHANUMERIC'
p5768
S"<class 'gluon.validators.IS_ALPHANUMERIC'>"
p5769
sS'SPAN'
p5770
S"<class 'gluon.html.SPAN'>"
p5771
sS'IS_SLUG'
p5772
S"<class 'gluon.validators.IS_SLUG'>"
p5773
sS'BEAUTIFY'
p5774
S"<class 'gluon.html.BEAUTIFY'>"
p5775
sS'META'
p5776
S"<class 'gluon.html.META'>"
p5777
sS'IS_DATE'
p5778
S"<class 'gluon.validators.IS_DATE'>"
p5779
sS'IS_EMAIL'
p5780
S"<class 'gluon.validators.IS_EMAIL'>"
p5781
sS'IS_NOT_EMPTY'
p5782
S"<class 'gluon.validators.IS_NOT_EMPTY'>"
p5783
sS'IS_FLOAT_IN_RANGE'
p5784
S"<class 'gluon.validators.IS_FLOAT_IN_RANGE'>"
p5785
sS'TBODY'
p5786
S"<class 'gluon.html.TBODY'>"
p5787
sS'CAT'
p5788
S"<class 'gluon.html.CAT'>"
p5789
sS'Field'
p5790
S"<class 'gluon.dal.Field'>"
p5791
sS'DIV'
p5792
S"<class 'gluon.html.DIV'>"
p5793
sS'LEGEND'
p5794
S"<class 'gluon.html.LEGEND'>"
p5795
sS'form'
p5796
S'<gluon.sqlhtml.SQLFORM object>'
p5797
sS'COLGROUP'
p5798
S"<class 'gluon.html.COLGROUP'>"
p5799
sS'DAL'
p5800
S"<class 'gluon.dal.DAL'>"
p5801
sS'TT'
p5802
S"<class 'gluon.html.TT'>"
p5803
sS'TR'
p5804
S"<class 'gluon.html.TR'>"
p5805
sS'LI'
p5806
S"<class 'gluon.html.LI'>"
p5807
sS'TH'
p5808
S"<class 'gluon.html.TH'>"
p5809
sS'TD'
p5810
S"<class 'gluon.html.TD'>"
p5811
sS'PluginManager'
p5812
S"<class 'gluon.tools.PluginManager'>"
p5813
sS'IS_URL'
p5814
S"<class 'gluon.validators.IS_URL'>"
p5815
sS'A'
S"<class 'gluon.html.A'>"
p5816
sS'HEAD'
p5817
S"<class 'gluon.html.HEAD'>"
p5818
sS'IS_DATETIME_IN_RANGE'
p5819
S"<class 'gluon.validators.IS_DATETIME_IN_RANGE'>"
p5820
sS'FORM'
p5821
S"<class 'gluon.html.FORM'>"
p5822
sS'I'
S"<class 'gluon.html.I'>"
p5823
sS'crud'
p5824
S'<gluon.tools.Crud object>'
p5825
sS'IS_NOT_IN_DB'
p5826
S"<class 'gluon.validators.IS_NOT_IN_DB'>"
p5827
sg3951
S"<Storage {'body': <cStringIO.StringO object at 0...> at 0xaeb4fa74>, 'view': 'default/addcat.html'}>"
p5828
sS'THEAD'
p5829
S"<class 'gluon.html.THEAD'>"
p5830
sS'IS_NULL_OR'
p5831
S"<class 'gluon.validators.IS_EMPTY_OR'>"
p5832
sg54
S"<Storage {'function': 'addcat', 'body': <cString...pplications/reddit/', 'post_vars': <Storage {}>}>"
p5833
sS'IS_EXPR'
p5834
S"<class 'gluon.validators.IS_EXPR'>"
p5835
sS'T'
S'<gluon.languages.translator object>'
p5836
sS'IS_IN_SET'
p5837
S"<class 'gluon.validators.IS_IN_SET'>"
p5838
sS'IS_UPLOAD_FILENAME'
p5839
S"<class 'gluon.validators.IS_UPLOAD_FILENAME'>"
p5840
sS'IS_DECIMAL_IN_RANGE'
p5841
S"<class 'gluon.validators.IS_DECIMAL_IN_RANGE'>"
p5842
sssS'traceback'
p5843
S'Traceback (most recent call last):\n  File "/home/pankaj/web2py/gluon/main.py", line 543, in wsgibase\n    serve_controller(request, response, session)\n  File "/home/pankaj/web2py/gluon/main.py", line 227, in serve_controller\n    run_view_in(response._view_environment)\n  File "/home/pankaj/web2py/gluon/compileapp.py", line 672, in run_view_in\n    context=environment)\n  File "/home/pankaj/web2py/gluon/template.py", line 785, in parse_template\n    return str(TemplateParser(text, context=context, path=path, lexers=lexers, delimiters=delimiters))\n  File "/home/pankaj/web2py/gluon/template.py", line 316, in __init__\n    self.parse(text)\n  File "/home/pankaj/web2py/gluon/template.py", line 756, in parse\n    self.extend(extend)\n  File "/home/pankaj/web2py/gluon/template.py", line 471, in extend\n    text = self._get_file_text(filename)\n  File "/home/pankaj/web2py/gluon/template.py", line 436, in _get_file_text\n    filename = eval(filename, context)\n  File "<string>", line 1, in <module>\nNameError: name \'layout\' is not defined\n'
p5844
s.