(dp1
S'output'
p2
S"<type 'exceptions.SyntaxError'> invalid syntax (default.py, line 96)"
p3
sS'layer'
p4
S'/home/pankaj/web2py/applications/reddit/controllers/default.py'
p5
sS'code'
p6
S'# -*- coding: utf-8 -*-\n# this file is released under public domain and you can use without limitations\n\n#########################################################################\n## This is a samples controller\n## - index is the default action of any application\n## - user is required for authentication and authorization\n## - download is for downloading files uploaded in the db (does streaming)\n## - call exposes all registered services (none by default)\n#########################################################################\n\nimport operator\n@auth.requires_login()\ndef index():\n\n    #   response.flash = T("Welcome to Reddit.com!")\n    nstore=db(db.news.id > 0).select()\n    cstore=db(db.comments.id > 0).select()\n    catg=db(db.category.id>0).select()\n    news = sorted(nstore, key=lambda k: k[\'rating\'])\n    comments = sorted(cstore, key=lambda k: k[\'rating\'])\n    news.reverse()\n    comments.reverse()\n    return dict(nstore=news,cstore=comments,catg=catg)\n\n@auth.requires_login()\ndef displaycat():\n\tcatid=int(request.post_vars[\'catid\'])\n\tnstore=db((db.news.cat==db.category.name)&(db.category.id==catid)).select()\n\tnstore=db((db.category.id == catid)&(db.category.name == db.news.cat)).select(db.news.ALL)\n\t\'\'\' selecting all comments no matter what the category is \'\'\'\n\tcstore=db(db.comments.id > 0).select()\n\tcatg=db(db.category.id>0).select()\n\tnews = sorted(nstore, key=lambda k: k[\'rating\'])\n\tcomments = sorted(cstore, key=lambda k: k[\'rating\'])\n\tnews.reverse()\n\tcomments.reverse()\n\treturn dict(nstore=news,cstore=comments,catg=catg)\n\n@auth.requires_login()\ndef myposts():\n    nstore=db(db.news.usrid == auth.user.id).select()\n    cstore=db(db.comments.id > 0).select()\n    catg=db(db.category.id>0).select()\n    news = sorted(nstore, key=lambda k: k[\'rating\'])\n    comments = sorted(cstore, key=lambda k: k[\'rating\'])\n    news.reverse()\n    comments.reverse()\n    return dict(nstore=news,cstore=comments,catg=catg)\n\n@auth.requires_login()\ndef uplike():\n\tcheck=int(request.post_vars[\'check\'])\n\tnid=int(request.post_vars[\'nid\'])\n\tuid=int(request.post_vars[\'uid\'])\n\tnval=db(db.news.id==nid).select()\n\tprint nval\n\tval=int(nval[0][\'rating\'])\n\tif check==1:\n\t\tval=val+5\n\t\tdb.lstate.insert(newsid=nid,usrid=uid,cflag=1)\n\telif check==2:\n\t\tval=val-3\n\t\tdb.lstate.insert(newsid=nid,usrid=uid,cflag=0)\n\telif check==3:\n\t\tval=val+3\n\t\tdb((db.lstate.newsid==nid)&(db.lstate.usrid==uid)).update(cflag=-1)\n\telif check==4:\n\t\tval=val-5\n\t\tdb((db.lstate.newsid==nid)&(db.lstate.usrid==uid)).update(cflag=-1)\n\tdb(db.news.id==nid).update(rating=val)\n\tredirect(URL(\'index\'))\n\treturn dict()\n\n@auth.requires_login()\ndef addpost():\n\tform = SQLFORM(db.news)\n\tif form.process().accepted:\n\t\tsession.flash=\'form accepted\'\n\t\tredirect(URL(\'index\'))\n\telif form.errors:\n\t\tresponse.flash = \'form has errors\'\n\treturn dict(form=form)\n\n@auth.requires_login()\ndef addc():\n\tcval=request.post_vars[\'cval\']\n\tnid=int(request.post_vars[\'nid\'])\n\tusri=int(request.post_vars[\'usri\'])\n\tdb.comments.insert(val=cval,newsid=nid,usrid=usri)\n\tredirect(URL(\'index\'))\n\treturn dict()\n\n@auth.requires_login()\ndef editn():\n\ttemp=request.vars[\'nid\'])\n\tif temp is not None:\n\t\tnid=int(temp)\n\tif session.newid == None:\n\t\tsession.newid=nid\n\tform = SQLFORM(db.news, session.newid,deletable=True)\n\tif form.accepts(request.vars,session):\n\t\tresponse.flash = \'form accepted\'\n\telif form.errors:\n\t\tresponse.flash = \'form has errors\'\n\treturn dict(form=form)\n\n\ndef user():\n   return dict(form=auth())\n"""\n    exposes:\n    http://..../[app]/default/user/login\n    http://..../[app]/default/user/logout\n    http://..../[app]/default/user/register\n    http://..../[app]/default/user/profile\n    http://..../[app]/default/user/retrieve_password\n    http://..../[app]/default/user/change_password\n    use @auth.requires_login()\n\t@auth.requires_membership(\'group name\')\n\t@auth.requires_permission(\'read\',\'table name\',record_id)\n    to decorate functions that need access control\n"""\n\ndef download():\n    """\n    allows downloading of uploaded files\n    http://..../[app]/default/download/[filename]\n    """\n    return response.download(request, db)\n\n\ndef call():\n    """\n    exposes services. for example:\n    http://..../[app]/default/call/jsonrpc\n    decorate with @services.jsonrpc the functions to expose\n    supports xml, json, xmlrpc, jsonrpc, amfrpc, rss, csv\n    """\n    return service()\n\n\n@auth.requires_signature()\ndef data():\n    """\n    http://..../[app]/default/data/tables\n    http://..../[app]/default/data/create/[table]\n    http://..../[app]/default/data/read/[table]/[id]\n    http://..../[app]/default/data/update/[table]/[id]\n    http://..../[app]/default/data/delete/[table]/[id]\n    http://..../[app]/default/data/select/[table]\n    http://..../[app]/default/data/search/[table]\n    but URLs must be signed, i.e. linked with\n      A(\'table\',_href=URL(\'data/tables\',user_signature=True))\n    or with the signed load operator\n      LOAD(\'default\',\'data.load\',args=\'tables\',ajax=True,user_signature=True)\n    """\n    return dict(form=crud())\n\nresponse._vars=response._caller(index)\n'
p7
sS'snapshot'
p8
(dp9
S'exception'
p10
(dp11
S'__getslice__'
p12
S"<method-wrapper '__getslice__' of exceptions.SyntaxError object>"
p13
sS'text'
p14
S'"\\ttemp=request.vars[\'nid\'])\\n"'
p15
sS'__str__'
p16
S"<method-wrapper '__str__' of exceptions.SyntaxError object>"
p17
sS'__reduce__'
p18
S'<built-in method __reduce__ of exceptions.SyntaxError object>'
p19
sS'__dict__'
p20
S'{}'
p21
sS'__sizeof__'
p22
S'<built-in method __sizeof__ of exceptions.SyntaxError object>'
p23
sS'__init__'
p24
S"<method-wrapper '__init__' of exceptions.SyntaxError object>"
p25
sS'__setattr__'
p26
S"<method-wrapper '__setattr__' of exceptions.SyntaxError object>"
p27
sS'__reduce_ex__'
p28
S'<built-in method __reduce_ex__ of exceptions.SyntaxError object>'
p29
sS'__new__'
p30
S'<built-in method __new__ of type object>'
p31
sS'__format__'
p32
S'<built-in method __format__ of exceptions.SyntaxError object>'
p33
sS'__class__'
p34
S"<type 'exceptions.SyntaxError'>"
p35
sS'filename'
p36
S"'/home/pankaj/web2py/applications/reddit/controllers/default.py'"
p37
sS'lineno'
p38
S'96'
p39
sS'msg'
p40
S"'invalid syntax'"
p41
sS'__doc__'
p42
S"'Invalid syntax.'"
p43
sS'__getitem__'
p44
S"<method-wrapper '__getitem__' of exceptions.SyntaxError object>"
p45
sS'__setstate__'
p46
S'<built-in method __setstate__ of exceptions.SyntaxError object>'
p47
sS'__getattribute__'
p48
S"<method-wrapper '__getattribute__' of exceptions.SyntaxError object>"
p49
sS'print_file_and_line'
p50
S'None'
p51
sS'args'
p52
S'(\'invalid syntax\', (\'/home/pankaj/web2py/applications/reddit/controllers/default.py\', 96, 26, "\\ttemp=request.vars[\'nid\'])\\n"))'
p53
sS'__subclasshook__'
p54
S'<built-in method __subclasshook__ of type object>'
p55
sS'offset'
p56
S'26'
p57
sS'__unicode__'
p58
S'<built-in method __unicode__ of exceptions.SyntaxError object>'
p59
sS'__delattr__'
p60
S"<method-wrapper '__delattr__' of exceptions.SyntaxError object>"
p61
sS'__repr__'
p62
S"<method-wrapper '__repr__' of exceptions.SyntaxError object>"
p63
sS'__hash__'
p64
S"<method-wrapper '__hash__' of exceptions.SyntaxError object>"
p65
ssS'evalue'
p66
S'invalid syntax (default.py, line 96)'
p67
sS'request'
p68
ccopy_reg
_reconstructor
p69
(cgluon.html
BEAUTIFY
p70
c__builtin__
object
p71
NtRp72
(dp73
S'attributes'
p74
(dp75
sS'components'
p76
(lp77
g69
(cgluon.html
TABLE
p78
g71
NtRp79
(dp80
g74
(dp81
S'level'
p82
I5
ssS'parent'
p83
Nsg76
(lp84
g69
(cgluon.html
TR
p85
g71
NtRp86
(dp87
g74
(dp88
sg83
g79
sg76
(lp89
g69
(cgluon.html
TD
p90
g71
NtRp91
(dp92
g74
(dp93
S'_style'
p94
S'font-weight:bold;vertical-align:top'
p95
ssg83
g86
sg76
(lp96
S'ajax'
p97
asbag69
(g90
g71
NtRp98
(dp99
g74
(dp100
S'_valign'
p101
S'top'
p102
ssg83
g86
sg76
(lp103
S':'
asbag69
(g90
g71
NtRp104
(dp105
g74
(dp106
sg83
g86
sg76
(lp107
g69
(g70
g71
NtRp108
(dp109
g74
(dp110
g82
I5
ssg83
g104
sg76
(lp111
S'False'
p112
asbasbasbag69
(g85
g71
NtRp113
(dp114
g74
(dp115
sg83
g79
sg76
(lp116
g69
(g90
g71
NtRp117
(dp118
g74
(dp119
g94
g95
ssg83
g113
sg76
(lp120
S'application'
p121
asbag69
(g90
g71
NtRp122
(dp123
g74
(dp124
g101
g102
ssg83
g113
sg76
(lp125
S':'
asbag69
(g90
g71
NtRp126
(dp127
g74
(dp128
sg83
g113
sg76
(lp129
g69
(g70
g71
NtRp130
(dp131
g74
(dp132
g82
I5
ssg83
g126
sg76
(lp133
S'reddit'
p134
asbasbasbag69
(g85
g71
NtRp135
(dp136
g74
(dp137
sg83
g79
sg76
(lp138
g69
(g90
g71
NtRp139
(dp140
g74
(dp141
g94
g95
ssg83
g135
sg76
(lp142
g52
asbag69
(g90
g71
NtRp143
(dp144
g74
(dp145
g101
g102
ssg83
g135
sg76
(lp146
S':'
asbag69
(g90
g71
NtRp147
(dp148
g74
(dp149
sg83
g135
sg76
(lp150
g69
(g70
g71
NtRp151
(dp152
g74
(dp153
g82
I5
ssg83
g147
sg76
(lp154
g69
(g78
g71
NtRp155
(dp156
g74
(dp157
g82
I4
ssg83
Nsg76
(lp158
sbasbasbasbag69
(g85
g71
NtRp159
(dp160
g74
(dp161
sg83
g79
sg76
(lp162
g69
(g90
g71
NtRp163
(dp164
g74
(dp165
g94
g95
ssg83
g159
sg76
(lp166
S'body'
p167
asbag69
(g90
g71
NtRp168
(dp169
g74
(dp170
g101
g102
ssg83
g159
sg76
(lp171
S':'
asbag69
(g90
g71
NtRp172
(dp173
g74
(dp174
sg83
g159
sg76
(lp175
g69
(g70
g71
NtRp176
(dp177
g74
(dp178
g82
I5
ssg83
g172
sg76
(lp179
S'<cStringIO.StringO object at 0xae34bd40>'
p180
asbasbasbag69
(g85
g71
NtRp181
(dp182
g74
(dp183
sg83
g79
sg76
(lp184
g69
(g90
g71
NtRp185
(dp186
g74
(dp187
g94
g95
ssg83
g181
sg76
(lp188
S'cid'
p189
asbag69
(g90
g71
NtRp190
(dp191
g74
(dp192
g101
g102
ssg83
g181
sg76
(lp193
S':'
asbag69
(g90
g71
NtRp194
(dp195
g74
(dp196
sg83
g181
sg76
(lp197
g69
(g70
g71
NtRp198
(dp199
g74
(dp200
g82
I5
ssg83
g194
sg76
(lp201
S'None'
p202
asbasbasbag69
(g85
g71
NtRp203
(dp204
g74
(dp205
sg83
g79
sg76
(lp206
g69
(g90
g71
NtRp207
(dp208
g74
(dp209
g94
g95
ssg83
g203
sg76
(lp210
S'client'
p211
asbag69
(g90
g71
NtRp212
(dp213
g74
(dp214
g101
g102
ssg83
g203
sg76
(lp215
S':'
asbag69
(g90
g71
NtRp216
(dp217
g74
(dp218
sg83
g203
sg76
(lp219
g69
(g70
g71
NtRp220
(dp221
g74
(dp222
g82
I5
ssg83
g216
sg76
(lp223
S'127.0.0.1'
p224
asbasbasbag69
(g85
g71
NtRp225
(dp226
g74
(dp227
sg83
g79
sg76
(lp228
g69
(g90
g71
NtRp229
(dp230
g74
(dp231
g94
g95
ssg83
g225
sg76
(lp232
S'controller'
p233
asbag69
(g90
g71
NtRp234
(dp235
g74
(dp236
g101
g102
ssg83
g225
sg76
(lp237
S':'
asbag69
(g90
g71
NtRp238
(dp239
g74
(dp240
sg83
g225
sg76
(lp241
g69
(g70
g71
NtRp242
(dp243
g74
(dp244
g82
I5
ssg83
g238
sg76
(lp245
S'default'
p246
asbasbasbag69
(g85
g71
NtRp247
(dp248
g74
(dp249
sg83
g79
sg76
(lp250
g69
(g90
g71
NtRp251
(dp252
g74
(dp253
g94
g95
ssg83
g247
sg76
(lp254
S'cookies'
p255
asbag69
(g90
g71
NtRp256
(dp257
g74
(dp258
g101
g102
ssg83
g247
sg76
(lp259
S':'
asbag69
(g90
g71
NtRp260
(dp261
g74
(dp262
sg83
g247
sg76
(lp263
g69
(g70
g71
NtRp264
(dp265
g74
(dp266
g82
I5
ssg83
g260
sg76
(lp267
g69
(g78
g71
NtRp268
(dp269
g74
(dp270
g82
I4
ssg83
Nsg76
(lp271
g69
(g85
g71
NtRp272
(dp273
g74
(dp274
sg83
g268
sg76
(lp275
g69
(g90
g71
NtRp276
(dp277
g74
(dp278
g94
g95
ssg83
g272
sg76
(lp279
S'session_id_admin'
p280
asbag69
(g90
g71
NtRp281
(dp282
g74
(dp283
g101
g102
ssg83
g272
sg76
(lp284
S':'
asbag69
(g90
g71
NtRp285
(dp286
g74
(dp287
sg83
g272
sg76
(lp288
g69
(g70
g71
NtRp289
(dp290
g74
(dp291
g82
I4
ssg83
g285
sg76
(lp292
S'127.0.0.1-b12d36e5-38f3-46ab-bf33-377848bfeca4'
p293
ag69
(g78
g71
NtRp294
(dp295
g74
(dp296
g82
I3
ssg83
Nsg76
(lp297
g69
(g85
g71
NtRp298
(dp299
g74
(dp300
sg83
g294
sg76
(lp301
g69
(g90
g71
NtRp302
(dp303
g74
(dp304
g94
g95
ssg83
g298
sg76
(lp305
S'comment'
p306
asbag69
(g90
g71
NtRp307
(dp308
g74
(dp309
g101
g102
ssg83
g298
sg76
(lp310
S':'
asbag69
(g90
g71
NtRp311
(dp312
g74
(dp313
sg83
g298
sg76
(lp314
g69
(g70
g71
NtRp315
(dp316
g74
(dp317
g82
I3
ssg83
g311
sg76
(lp318
S''
asbasbasbag69
(g85
g71
NtRp319
(dp320
g74
(dp321
sg83
g294
sg76
(lp322
g69
(g90
g71
NtRp323
(dp324
g74
(dp325
g94
g95
ssg83
g319
sg76
(lp326
S'domain'
p327
asbag69
(g90
g71
NtRp328
(dp329
g74
(dp330
g101
g102
ssg83
g319
sg76
(lp331
S':'
asbag69
(g90
g71
NtRp332
(dp333
g74
(dp334
sg83
g319
sg76
(lp335
g69
(g70
g71
NtRp336
(dp337
g74
(dp338
g82
I3
ssg83
g332
sg76
(lp339
S''
asbasbasbag69
(g85
g71
NtRp340
(dp341
g74
(dp342
sg83
g294
sg76
(lp343
g69
(g90
g71
NtRp344
(dp345
g74
(dp346
g94
g95
ssg83
g340
sg76
(lp347
S'expires'
p348
asbag69
(g90
g71
NtRp349
(dp350
g74
(dp351
g101
g102
ssg83
g340
sg76
(lp352
S':'
asbag69
(g90
g71
NtRp353
(dp354
g74
(dp355
sg83
g340
sg76
(lp356
g69
(g70
g71
NtRp357
(dp358
g74
(dp359
g82
I3
ssg83
g353
sg76
(lp360
S''
asbasbasbag69
(g85
g71
NtRp361
(dp362
g74
(dp363
sg83
g294
sg76
(lp364
g69
(g90
g71
NtRp365
(dp366
g74
(dp367
g94
g95
ssg83
g361
sg76
(lp368
S'httponly'
p369
asbag69
(g90
g71
NtRp370
(dp371
g74
(dp372
g101
g102
ssg83
g361
sg76
(lp373
S':'
asbag69
(g90
g71
NtRp374
(dp375
g74
(dp376
sg83
g361
sg76
(lp377
g69
(g70
g71
NtRp378
(dp379
g74
(dp380
g82
I3
ssg83
g374
sg76
(lp381
S''
asbasbasbag69
(g85
g71
NtRp382
(dp383
g74
(dp384
sg83
g294
sg76
(lp385
g69
(g90
g71
NtRp386
(dp387
g74
(dp388
g94
g95
ssg83
g382
sg76
(lp389
S'max-age'
p390
asbag69
(g90
g71
NtRp391
(dp392
g74
(dp393
g101
g102
ssg83
g382
sg76
(lp394
S':'
asbag69
(g90
g71
NtRp395
(dp396
g74
(dp397
sg83
g382
sg76
(lp398
g69
(g70
g71
NtRp399
(dp400
g74
(dp401
g82
I3
ssg83
g395
sg76
(lp402
S''
asbasbasbag69
(g85
g71
NtRp403
(dp404
g74
(dp405
sg83
g294
sg76
(lp406
g69
(g90
g71
NtRp407
(dp408
g74
(dp409
g94
g95
ssg83
g403
sg76
(lp410
S'path'
p411
asbag69
(g90
g71
NtRp412
(dp413
g74
(dp414
g101
g102
ssg83
g403
sg76
(lp415
S':'
asbag69
(g90
g71
NtRp416
(dp417
g74
(dp418
sg83
g403
sg76
(lp419
g69
(g70
g71
NtRp420
(dp421
g74
(dp422
g82
I3
ssg83
g416
sg76
(lp423
S''
asbasbasbag69
(g85
g71
NtRp424
(dp425
g74
(dp426
sg83
g294
sg76
(lp427
g69
(g90
g71
NtRp428
(dp429
g74
(dp430
g94
g95
ssg83
g424
sg76
(lp431
S'secure'
p432
asbag69
(g90
g71
NtRp433
(dp434
g74
(dp435
g101
g102
ssg83
g424
sg76
(lp436
S':'
asbag69
(g90
g71
NtRp437
(dp438
g74
(dp439
sg83
g424
sg76
(lp440
g69
(g70
g71
NtRp441
(dp442
g74
(dp443
g82
I3
ssg83
g437
sg76
(lp444
S''
asbasbasbag69
(g85
g71
NtRp445
(dp446
g74
(dp447
sg83
g294
sg76
(lp448
g69
(g90
g71
NtRp449
(dp450
g74
(dp451
g94
g95
ssg83
g445
sg76
(lp452
S'version'
p453
asbag69
(g90
g71
NtRp454
(dp455
g74
(dp456
g101
g102
ssg83
g445
sg76
(lp457
S':'
asbag69
(g90
g71
NtRp458
(dp459
g74
(dp460
sg83
g445
sg76
(lp461
g69
(g70
g71
NtRp462
(dp463
g74
(dp464
g82
I3
ssg83
g458
sg76
(lp465
S''
asbasbasbasbasbasbasbag69
(g85
g71
NtRp466
(dp467
g74
(dp468
sg83
g268
sg76
(lp469
g69
(g90
g71
NtRp470
(dp471
g74
(dp472
g94
g95
ssg83
g466
sg76
(lp473
S'session_id_cataminder'
p474
asbag69
(g90
g71
NtRp475
(dp476
g74
(dp477
g101
g102
ssg83
g466
sg76
(lp478
S':'
asbag69
(g90
g71
NtRp479
(dp480
g74
(dp481
sg83
g466
sg76
(lp482
g69
(g70
g71
NtRp483
(dp484
g74
(dp485
g82
I4
ssg83
g479
sg76
(lp486
S'127.0.0.1-f68dfbc3-e46b-4d7f-ad40-351d31d2febb'
p487
ag69
(g78
g71
NtRp488
(dp489
g74
(dp490
g82
I3
ssg83
Nsg76
(lp491
g69
(g85
g71
NtRp492
(dp493
g74
(dp494
sg83
g488
sg76
(lp495
g69
(g90
g71
NtRp496
(dp497
g74
(dp498
g94
g95
ssg83
g492
sg76
(lp499
g306
asbag69
(g90
g71
NtRp500
(dp501
g74
(dp502
g101
g102
ssg83
g492
sg76
(lp503
S':'
asbag69
(g90
g71
NtRp504
(dp505
g74
(dp506
sg83
g492
sg76
(lp507
g69
(g70
g71
NtRp508
(dp509
g74
(dp510
g82
I3
ssg83
g504
sg76
(lp511
S''
asbasbasbag69
(g85
g71
NtRp512
(dp513
g74
(dp514
sg83
g488
sg76
(lp515
g69
(g90
g71
NtRp516
(dp517
g74
(dp518
g94
g95
ssg83
g512
sg76
(lp519
g327
asbag69
(g90
g71
NtRp520
(dp521
g74
(dp522
g101
g102
ssg83
g512
sg76
(lp523
S':'
asbag69
(g90
g71
NtRp524
(dp525
g74
(dp526
sg83
g512
sg76
(lp527
g69
(g70
g71
NtRp528
(dp529
g74
(dp530
g82
I3
ssg83
g524
sg76
(lp531
S''
asbasbasbag69
(g85
g71
NtRp532
(dp533
g74
(dp534
sg83
g488
sg76
(lp535
g69
(g90
g71
NtRp536
(dp537
g74
(dp538
g94
g95
ssg83
g532
sg76
(lp539
g348
asbag69
(g90
g71
NtRp540
(dp541
g74
(dp542
g101
g102
ssg83
g532
sg76
(lp543
S':'
asbag69
(g90
g71
NtRp544
(dp545
g74
(dp546
sg83
g532
sg76
(lp547
g69
(g70
g71
NtRp548
(dp549
g74
(dp550
g82
I3
ssg83
g544
sg76
(lp551
S''
asbasbasbag69
(g85
g71
NtRp552
(dp553
g74
(dp554
sg83
g488
sg76
(lp555
g69
(g90
g71
NtRp556
(dp557
g74
(dp558
g94
g95
ssg83
g552
sg76
(lp559
g369
asbag69
(g90
g71
NtRp560
(dp561
g74
(dp562
g101
g102
ssg83
g552
sg76
(lp563
S':'
asbag69
(g90
g71
NtRp564
(dp565
g74
(dp566
sg83
g552
sg76
(lp567
g69
(g70
g71
NtRp568
(dp569
g74
(dp570
g82
I3
ssg83
g564
sg76
(lp571
S''
asbasbasbag69
(g85
g71
NtRp572
(dp573
g74
(dp574
sg83
g488
sg76
(lp575
g69
(g90
g71
NtRp576
(dp577
g74
(dp578
g94
g95
ssg83
g572
sg76
(lp579
g390
asbag69
(g90
g71
NtRp580
(dp581
g74
(dp582
g101
g102
ssg83
g572
sg76
(lp583
S':'
asbag69
(g90
g71
NtRp584
(dp585
g74
(dp586
sg83
g572
sg76
(lp587
g69
(g70
g71
NtRp588
(dp589
g74
(dp590
g82
I3
ssg83
g584
sg76
(lp591
S''
asbasbasbag69
(g85
g71
NtRp592
(dp593
g74
(dp594
sg83
g488
sg76
(lp595
g69
(g90
g71
NtRp596
(dp597
g74
(dp598
g94
g95
ssg83
g592
sg76
(lp599
g411
asbag69
(g90
g71
NtRp600
(dp601
g74
(dp602
g101
g102
ssg83
g592
sg76
(lp603
S':'
asbag69
(g90
g71
NtRp604
(dp605
g74
(dp606
sg83
g592
sg76
(lp607
g69
(g70
g71
NtRp608
(dp609
g74
(dp610
g82
I3
ssg83
g604
sg76
(lp611
S''
asbasbasbag69
(g85
g71
NtRp612
(dp613
g74
(dp614
sg83
g488
sg76
(lp615
g69
(g90
g71
NtRp616
(dp617
g74
(dp618
g94
g95
ssg83
g612
sg76
(lp619
g432
asbag69
(g90
g71
NtRp620
(dp621
g74
(dp622
g101
g102
ssg83
g612
sg76
(lp623
S':'
asbag69
(g90
g71
NtRp624
(dp625
g74
(dp626
sg83
g612
sg76
(lp627
g69
(g70
g71
NtRp628
(dp629
g74
(dp630
g82
I3
ssg83
g624
sg76
(lp631
S''
asbasbasbag69
(g85
g71
NtRp632
(dp633
g74
(dp634
sg83
g488
sg76
(lp635
g69
(g90
g71
NtRp636
(dp637
g74
(dp638
g94
g95
ssg83
g632
sg76
(lp639
g453
asbag69
(g90
g71
NtRp640
(dp641
g74
(dp642
g101
g102
ssg83
g632
sg76
(lp643
S':'
asbag69
(g90
g71
NtRp644
(dp645
g74
(dp646
sg83
g632
sg76
(lp647
g69
(g70
g71
NtRp648
(dp649
g74
(dp650
g82
I3
ssg83
g644
sg76
(lp651
S''
asbasbasbasbasbasbasbag69
(g85
g71
NtRp652
(dp653
g74
(dp654
sg83
g268
sg76
(lp655
g69
(g90
g71
NtRp656
(dp657
g74
(dp658
g94
g95
ssg83
g652
sg76
(lp659
S'session_id_reddit'
p660
asbag69
(g90
g71
NtRp661
(dp662
g74
(dp663
g101
g102
ssg83
g652
sg76
(lp664
S':'
asbag69
(g90
g71
NtRp665
(dp666
g74
(dp667
sg83
g652
sg76
(lp668
g69
(g70
g71
NtRp669
(dp670
g74
(dp671
g82
I4
ssg83
g665
sg76
(lp672
S'127.0.0.1-24289f39-32a1-48fb-a367-22792fb8b813'
p673
ag69
(g78
g71
NtRp674
(dp675
g74
(dp676
g82
I3
ssg83
Nsg76
(lp677
g69
(g85
g71
NtRp678
(dp679
g74
(dp680
sg83
g674
sg76
(lp681
g69
(g90
g71
NtRp682
(dp683
g74
(dp684
g94
g95
ssg83
g678
sg76
(lp685
g306
asbag69
(g90
g71
NtRp686
(dp687
g74
(dp688
g101
g102
ssg83
g678
sg76
(lp689
S':'
asbag69
(g90
g71
NtRp690
(dp691
g74
(dp692
sg83
g678
sg76
(lp693
g69
(g70
g71
NtRp694
(dp695
g74
(dp696
g82
I3
ssg83
g690
sg76
(lp697
S''
asbasbasbag69
(g85
g71
NtRp698
(dp699
g74
(dp700
sg83
g674
sg76
(lp701
g69
(g90
g71
NtRp702
(dp703
g74
(dp704
g94
g95
ssg83
g698
sg76
(lp705
g327
asbag69
(g90
g71
NtRp706
(dp707
g74
(dp708
g101
g102
ssg83
g698
sg76
(lp709
S':'
asbag69
(g90
g71
NtRp710
(dp711
g74
(dp712
sg83
g698
sg76
(lp713
g69
(g70
g71
NtRp714
(dp715
g74
(dp716
g82
I3
ssg83
g710
sg76
(lp717
S''
asbasbasbag69
(g85
g71
NtRp718
(dp719
g74
(dp720
sg83
g674
sg76
(lp721
g69
(g90
g71
NtRp722
(dp723
g74
(dp724
g94
g95
ssg83
g718
sg76
(lp725
g348
asbag69
(g90
g71
NtRp726
(dp727
g74
(dp728
g101
g102
ssg83
g718
sg76
(lp729
S':'
asbag69
(g90
g71
NtRp730
(dp731
g74
(dp732
sg83
g718
sg76
(lp733
g69
(g70
g71
NtRp734
(dp735
g74
(dp736
g82
I3
ssg83
g730
sg76
(lp737
S''
asbasbasbag69
(g85
g71
NtRp738
(dp739
g74
(dp740
sg83
g674
sg76
(lp741
g69
(g90
g71
NtRp742
(dp743
g74
(dp744
g94
g95
ssg83
g738
sg76
(lp745
g369
asbag69
(g90
g71
NtRp746
(dp747
g74
(dp748
g101
g102
ssg83
g738
sg76
(lp749
S':'
asbag69
(g90
g71
NtRp750
(dp751
g74
(dp752
sg83
g738
sg76
(lp753
g69
(g70
g71
NtRp754
(dp755
g74
(dp756
g82
I3
ssg83
g750
sg76
(lp757
S''
asbasbasbag69
(g85
g71
NtRp758
(dp759
g74
(dp760
sg83
g674
sg76
(lp761
g69
(g90
g71
NtRp762
(dp763
g74
(dp764
g94
g95
ssg83
g758
sg76
(lp765
g390
asbag69
(g90
g71
NtRp766
(dp767
g74
(dp768
g101
g102
ssg83
g758
sg76
(lp769
S':'
asbag69
(g90
g71
NtRp770
(dp771
g74
(dp772
sg83
g758
sg76
(lp773
g69
(g70
g71
NtRp774
(dp775
g74
(dp776
g82
I3
ssg83
g770
sg76
(lp777
S''
asbasbasbag69
(g85
g71
NtRp778
(dp779
g74
(dp780
sg83
g674
sg76
(lp781
g69
(g90
g71
NtRp782
(dp783
g74
(dp784
g94
g95
ssg83
g778
sg76
(lp785
g411
asbag69
(g90
g71
NtRp786
(dp787
g74
(dp788
g101
g102
ssg83
g778
sg76
(lp789
S':'
asbag69
(g90
g71
NtRp790
(dp791
g74
(dp792
sg83
g778
sg76
(lp793
g69
(g70
g71
NtRp794
(dp795
g74
(dp796
g82
I3
ssg83
g790
sg76
(lp797
S''
asbasbasbag69
(g85
g71
NtRp798
(dp799
g74
(dp800
sg83
g674
sg76
(lp801
g69
(g90
g71
NtRp802
(dp803
g74
(dp804
g94
g95
ssg83
g798
sg76
(lp805
g432
asbag69
(g90
g71
NtRp806
(dp807
g74
(dp808
g101
g102
ssg83
g798
sg76
(lp809
S':'
asbag69
(g90
g71
NtRp810
(dp811
g74
(dp812
sg83
g798
sg76
(lp813
g69
(g70
g71
NtRp814
(dp815
g74
(dp816
g82
I3
ssg83
g810
sg76
(lp817
S''
asbasbasbag69
(g85
g71
NtRp818
(dp819
g74
(dp820
sg83
g674
sg76
(lp821
g69
(g90
g71
NtRp822
(dp823
g74
(dp824
g94
g95
ssg83
g818
sg76
(lp825
g453
asbag69
(g90
g71
NtRp826
(dp827
g74
(dp828
g101
g102
ssg83
g818
sg76
(lp829
S':'
asbag69
(g90
g71
NtRp830
(dp831
g74
(dp832
sg83
g818
sg76
(lp833
g69
(g70
g71
NtRp834
(dp835
g74
(dp836
g82
I3
ssg83
g830
sg76
(lp837
S''
asbasbasbasbasbasbasbag69
(g85
g71
NtRp838
(dp839
g74
(dp840
sg83
g268
sg76
(lp841
g69
(g90
g71
NtRp842
(dp843
g74
(dp844
g94
g95
ssg83
g838
sg76
(lp845
S'session_id_welcome'
p846
asbag69
(g90
g71
NtRp847
(dp848
g74
(dp849
g101
g102
ssg83
g838
sg76
(lp850
S':'
asbag69
(g90
g71
NtRp851
(dp852
g74
(dp853
sg83
g838
sg76
(lp854
g69
(g70
g71
NtRp855
(dp856
g74
(dp857
g82
I4
ssg83
g851
sg76
(lp858
S'127.0.0.1-6c6acb01-dab7-498a-a6cb-f847f2ae3337'
p859
ag69
(g78
g71
NtRp860
(dp861
g74
(dp862
g82
I3
ssg83
Nsg76
(lp863
g69
(g85
g71
NtRp864
(dp865
g74
(dp866
sg83
g860
sg76
(lp867
g69
(g90
g71
NtRp868
(dp869
g74
(dp870
g94
g95
ssg83
g864
sg76
(lp871
g306
asbag69
(g90
g71
NtRp872
(dp873
g74
(dp874
g101
g102
ssg83
g864
sg76
(lp875
S':'
asbag69
(g90
g71
NtRp876
(dp877
g74
(dp878
sg83
g864
sg76
(lp879
g69
(g70
g71
NtRp880
(dp881
g74
(dp882
g82
I3
ssg83
g876
sg76
(lp883
S''
asbasbasbag69
(g85
g71
NtRp884
(dp885
g74
(dp886
sg83
g860
sg76
(lp887
g69
(g90
g71
NtRp888
(dp889
g74
(dp890
g94
g95
ssg83
g884
sg76
(lp891
g327
asbag69
(g90
g71
NtRp892
(dp893
g74
(dp894
g101
g102
ssg83
g884
sg76
(lp895
S':'
asbag69
(g90
g71
NtRp896
(dp897
g74
(dp898
sg83
g884
sg76
(lp899
g69
(g70
g71
NtRp900
(dp901
g74
(dp902
g82
I3
ssg83
g896
sg76
(lp903
S''
asbasbasbag69
(g85
g71
NtRp904
(dp905
g74
(dp906
sg83
g860
sg76
(lp907
g69
(g90
g71
NtRp908
(dp909
g74
(dp910
g94
g95
ssg83
g904
sg76
(lp911
g348
asbag69
(g90
g71
NtRp912
(dp913
g74
(dp914
g101
g102
ssg83
g904
sg76
(lp915
S':'
asbag69
(g90
g71
NtRp916
(dp917
g74
(dp918
sg83
g904
sg76
(lp919
g69
(g70
g71
NtRp920
(dp921
g74
(dp922
g82
I3
ssg83
g916
sg76
(lp923
S''
asbasbasbag69
(g85
g71
NtRp924
(dp925
g74
(dp926
sg83
g860
sg76
(lp927
g69
(g90
g71
NtRp928
(dp929
g74
(dp930
g94
g95
ssg83
g924
sg76
(lp931
g369
asbag69
(g90
g71
NtRp932
(dp933
g74
(dp934
g101
g102
ssg83
g924
sg76
(lp935
S':'
asbag69
(g90
g71
NtRp936
(dp937
g74
(dp938
sg83
g924
sg76
(lp939
g69
(g70
g71
NtRp940
(dp941
g74
(dp942
g82
I3
ssg83
g936
sg76
(lp943
S''
asbasbasbag69
(g85
g71
NtRp944
(dp945
g74
(dp946
sg83
g860
sg76
(lp947
g69
(g90
g71
NtRp948
(dp949
g74
(dp950
g94
g95
ssg83
g944
sg76
(lp951
g390
asbag69
(g90
g71
NtRp952
(dp953
g74
(dp954
g101
g102
ssg83
g944
sg76
(lp955
S':'
asbag69
(g90
g71
NtRp956
(dp957
g74
(dp958
sg83
g944
sg76
(lp959
g69
(g70
g71
NtRp960
(dp961
g74
(dp962
g82
I3
ssg83
g956
sg76
(lp963
S''
asbasbasbag69
(g85
g71
NtRp964
(dp965
g74
(dp966
sg83
g860
sg76
(lp967
g69
(g90
g71
NtRp968
(dp969
g74
(dp970
g94
g95
ssg83
g964
sg76
(lp971
g411
asbag69
(g90
g71
NtRp972
(dp973
g74
(dp974
g101
g102
ssg83
g964
sg76
(lp975
S':'
asbag69
(g90
g71
NtRp976
(dp977
g74
(dp978
sg83
g964
sg76
(lp979
g69
(g70
g71
NtRp980
(dp981
g74
(dp982
g82
I3
ssg83
g976
sg76
(lp983
S''
asbasbasbag69
(g85
g71
NtRp984
(dp985
g74
(dp986
sg83
g860
sg76
(lp987
g69
(g90
g71
NtRp988
(dp989
g74
(dp990
g94
g95
ssg83
g984
sg76
(lp991
g432
asbag69
(g90
g71
NtRp992
(dp993
g74
(dp994
g101
g102
ssg83
g984
sg76
(lp995
S':'
asbag69
(g90
g71
NtRp996
(dp997
g74
(dp998
sg83
g984
sg76
(lp999
g69
(g70
g71
NtRp1000
(dp1001
g74
(dp1002
g82
I3
ssg83
g996
sg76
(lp1003
S''
asbasbasbag69
(g85
g71
NtRp1004
(dp1005
g74
(dp1006
sg83
g860
sg76
(lp1007
g69
(g90
g71
NtRp1008
(dp1009
g74
(dp1010
g94
g95
ssg83
g1004
sg76
(lp1011
g453
asbag69
(g90
g71
NtRp1012
(dp1013
g74
(dp1014
g101
g102
ssg83
g1004
sg76
(lp1015
S':'
asbag69
(g90
g71
NtRp1016
(dp1017
g74
(dp1018
sg83
g1004
sg76
(lp1019
g69
(g70
g71
NtRp1020
(dp1021
g74
(dp1022
g82
I3
ssg83
g1016
sg76
(lp1023
S''
asbasbasbasbasbasbasbasbasbasbasbag69
(g85
g71
NtRp1024
(dp1025
g74
(dp1026
sg83
g79
sg76
(lp1027
g69
(g90
g71
NtRp1028
(dp1029
g74
(dp1030
g94
g95
ssg83
g1024
sg76
(lp1031
S'env'
p1032
asbag69
(g90
g71
NtRp1033
(dp1034
g74
(dp1035
g101
g102
ssg83
g1024
sg76
(lp1036
S':'
asbag69
(g90
g71
NtRp1037
(dp1038
g74
(dp1039
sg83
g1024
sg76
(lp1040
g69
(g70
g71
NtRp1041
(dp1042
g74
(dp1043
g82
I5
ssg83
g1037
sg76
(lp1044
g69
(g78
g71
NtRp1045
(dp1046
g74
(dp1047
g82
I4
ssg83
Nsg76
(lp1048
g69
(g85
g71
NtRp1049
(dp1050
g74
(dp1051
sg83
g1045
sg76
(lp1052
g69
(g90
g71
NtRp1053
(dp1054
g74
(dp1055
g94
g95
ssg83
g1049
sg76
(lp1056
S'app_folders'
p1057
asbag69
(g90
g71
NtRp1058
(dp1059
g74
(dp1060
g101
g102
ssg83
g1049
sg76
(lp1061
S':'
asbag69
(g90
g71
NtRp1062
(dp1063
g74
(dp1064
sg83
g1049
sg76
(lp1065
g69
(g70
g71
NtRp1066
(dp1067
g74
(dp1068
g82
I4
ssg83
g1062
sg76
(lp1069
S"set(['/home/pankaj/web2py/applications/admin/', '/home/pankaj/web2py/applications/welcome/', '/home/pankaj/web2py/applications/Cataminder/', '/home/pankaj/web2py/applications/reddit/'])"
p1070
asbasbasbag69
(g85
g71
NtRp1071
(dp1072
g74
(dp1073
sg83
g1045
sg76
(lp1074
g69
(g90
g71
NtRp1075
(dp1076
g74
(dp1077
g94
g95
ssg83
g1071
sg76
(lp1078
S'applications_parent'
p1079
asbag69
(g90
g71
NtRp1080
(dp1081
g74
(dp1082
g101
g102
ssg83
g1071
sg76
(lp1083
S':'
asbag69
(g90
g71
NtRp1084
(dp1085
g74
(dp1086
sg83
g1071
sg76
(lp1087
g69
(g70
g71
NtRp1088
(dp1089
g74
(dp1090
g82
I4
ssg83
g1084
sg76
(lp1091
S'/home/pankaj/web2py'
p1092
asbasbasbag69
(g85
g71
NtRp1093
(dp1094
g74
(dp1095
sg83
g1045
sg76
(lp1096
g69
(g90
g71
NtRp1097
(dp1098
g74
(dp1099
g94
g95
ssg83
g1093
sg76
(lp1100
S'cmd_args'
p1101
asbag69
(g90
g71
NtRp1102
(dp1103
g74
(dp1104
g101
g102
ssg83
g1093
sg76
(lp1105
S':'
asbag69
(g90
g71
NtRp1106
(dp1107
g74
(dp1108
sg83
g1093
sg76
(lp1109
g69
(g70
g71
NtRp1110
(dp1111
g74
(dp1112
g82
I4
ssg83
g1106
sg76
(lp1113
g69
(g78
g71
NtRp1114
(dp1115
g74
(dp1116
g82
I3
ssg83
Nsg76
(lp1117
sbasbasbasbag69
(g85
g71
NtRp1118
(dp1119
g74
(dp1120
sg83
g1045
sg76
(lp1121
g69
(g90
g71
NtRp1122
(dp1123
g74
(dp1124
g94
g95
ssg83
g1118
sg76
(lp1125
S'cmd_options'
p1126
asbag69
(g90
g71
NtRp1127
(dp1128
g74
(dp1129
g101
g102
ssg83
g1118
sg76
(lp1130
S':'
asbag69
(g90
g71
NtRp1131
(dp1132
g74
(dp1133
sg83
g1118
sg76
(lp1134
g69
(g70
g71
NtRp1135
(dp1136
g74
(dp1137
g82
I4
ssg83
g1131
sg76
(lp1138
S"<Values at 0x96dbdcc: {'verbose': False, 'ip': '127.0.0.1', 'with_scheduler': False, 'ips': [], 'shutdown_timeout': 5, 'taskbar': False, 'port': 8000, 'maxthreads': None, 'softcron': False, 'server_name': 'pankaj-HP-Pavilion-dv4-Notebook-PC', 'bpython': False, 'nogui': False, 'pid_filename': 'httpserver.pid', 'extcron': False, 'runcron': False, 'run_system_tests': False, 'test': None, 'folder': '/home/pankaj/web2py', 'config': '', 'import_models': False, 'winservice': '', 'shell': None, 'run': '', 'log_filename': 'httpserver.log', 'debuglevel': 30, 'args': [''], 'socket_timeout': 5, 'ssl_ca_certificate': None, 'scheduler': None, 'profiler_filename': None, 'ssl_private_key': '', 'scheduler_groups': None, 'password': '<ask>', 'request_queue_size': 5, 'ssl_certificate': '', 'cronjob': False, 'numthreads': None, 'quiet': False, 'interfaces': None, 'minthreads': None, 'timeout': 10, 'plain': False, 'nobanner': False}>"
p1139
asbasbasbag69
(g85
g71
NtRp1140
(dp1141
g74
(dp1142
sg83
g1045
sg76
(lp1143
g69
(g90
g71
NtRp1144
(dp1145
g74
(dp1146
g94
g95
ssg83
g1140
sg76
(lp1147
S'db_sessions'
p1148
asbag69
(g90
g71
NtRp1149
(dp1150
g74
(dp1151
g101
g102
ssg83
g1140
sg76
(lp1152
S':'
asbag69
(g90
g71
NtRp1153
(dp1154
g74
(dp1155
sg83
g1140
sg76
(lp1156
g69
(g70
g71
NtRp1157
(dp1158
g74
(dp1159
g82
I4
ssg83
g1153
sg76
(lp1160
S'set([])'
p1161
asbasbasbag69
(g85
g71
NtRp1162
(dp1163
g74
(dp1164
sg83
g1045
sg76
(lp1165
g69
(g90
g71
NtRp1166
(dp1167
g74
(dp1168
g94
g95
ssg83
g1162
sg76
(lp1169
S'debugging'
p1170
asbag69
(g90
g71
NtRp1171
(dp1172
g74
(dp1173
g101
g102
ssg83
g1162
sg76
(lp1174
S':'
asbag69
(g90
g71
NtRp1175
(dp1176
g74
(dp1177
sg83
g1162
sg76
(lp1178
g69
(g70
g71
NtRp1179
(dp1180
g74
(dp1181
g82
I4
ssg83
g1175
sg76
(lp1182
g112
asbasbasbag69
(g85
g71
NtRp1183
(dp1184
g74
(dp1185
sg83
g1045
sg76
(lp1186
g69
(g90
g71
NtRp1187
(dp1188
g74
(dp1189
g94
g95
ssg83
g1183
sg76
(lp1190
S'gluon_parent'
p1191
asbag69
(g90
g71
NtRp1192
(dp1193
g74
(dp1194
g101
g102
ssg83
g1183
sg76
(lp1195
S':'
asbag69
(g90
g71
NtRp1196
(dp1197
g74
(dp1198
sg83
g1183
sg76
(lp1199
g69
(g70
g71
NtRp1200
(dp1201
g74
(dp1202
g82
I4
ssg83
g1196
sg76
(lp1203
S'/home/pankaj/web2py'
p1204
asbasbasbag69
(g85
g71
NtRp1205
(dp1206
g74
(dp1207
sg83
g1045
sg76
(lp1208
g69
(g90
g71
NtRp1209
(dp1210
g74
(dp1211
g94
g95
ssg83
g1205
sg76
(lp1212
S'http_accept'
p1213
asbag69
(g90
g71
NtRp1214
(dp1215
g74
(dp1216
g101
g102
ssg83
g1205
sg76
(lp1217
S':'
asbag69
(g90
g71
NtRp1218
(dp1219
g74
(dp1220
sg83
g1205
sg76
(lp1221
g69
(g70
g71
NtRp1222
(dp1223
g74
(dp1224
g82
I4
ssg83
g1218
sg76
(lp1225
S'text/html,application/xhtml+xml,application/xml;q=0.9,*/*;q=0.8'
p1226
asbasbasbag69
(g85
g71
NtRp1227
(dp1228
g74
(dp1229
sg83
g1045
sg76
(lp1230
g69
(g90
g71
NtRp1231
(dp1232
g74
(dp1233
g94
g95
ssg83
g1227
sg76
(lp1234
S'http_accept_encoding'
p1235
asbag69
(g90
g71
NtRp1236
(dp1237
g74
(dp1238
g101
g102
ssg83
g1227
sg76
(lp1239
S':'
asbag69
(g90
g71
NtRp1240
(dp1241
g74
(dp1242
sg83
g1227
sg76
(lp1243
g69
(g70
g71
NtRp1244
(dp1245
g74
(dp1246
g82
I4
ssg83
g1240
sg76
(lp1247
S'gzip, deflate'
p1248
asbasbasbag69
(g85
g71
NtRp1249
(dp1250
g74
(dp1251
sg83
g1045
sg76
(lp1252
g69
(g90
g71
NtRp1253
(dp1254
g74
(dp1255
g94
g95
ssg83
g1249
sg76
(lp1256
S'http_accept_language'
p1257
asbag69
(g90
g71
NtRp1258
(dp1259
g74
(dp1260
g101
g102
ssg83
g1249
sg76
(lp1261
S':'
asbag69
(g90
g71
NtRp1262
(dp1263
g74
(dp1264
sg83
g1249
sg76
(lp1265
g69
(g70
g71
NtRp1266
(dp1267
g74
(dp1268
g82
I4
ssg83
g1262
sg76
(lp1269
S'en-US,en;q=0.5'
p1270
asbasbasbag69
(g85
g71
NtRp1271
(dp1272
g74
(dp1273
sg83
g1045
sg76
(lp1274
g69
(g90
g71
NtRp1275
(dp1276
g74
(dp1277
g94
g95
ssg83
g1271
sg76
(lp1278
S'http_connection'
p1279
asbag69
(g90
g71
NtRp1280
(dp1281
g74
(dp1282
g101
g102
ssg83
g1271
sg76
(lp1283
S':'
asbag69
(g90
g71
NtRp1284
(dp1285
g74
(dp1286
sg83
g1271
sg76
(lp1287
g69
(g70
g71
NtRp1288
(dp1289
g74
(dp1290
g82
I4
ssg83
g1284
sg76
(lp1291
S'keep-alive'
p1292
asbasbasbag69
(g85
g71
NtRp1293
(dp1294
g74
(dp1295
sg83
g1045
sg76
(lp1296
g69
(g90
g71
NtRp1297
(dp1298
g74
(dp1299
g94
g95
ssg83
g1293
sg76
(lp1300
S'http_cookie'
p1301
asbag69
(g90
g71
NtRp1302
(dp1303
g74
(dp1304
g101
g102
ssg83
g1293
sg76
(lp1305
S':'
asbag69
(g90
g71
NtRp1306
(dp1307
g74
(dp1308
sg83
g1293
sg76
(lp1309
g69
(g70
g71
NtRp1310
(dp1311
g74
(dp1312
g82
I4
ssg83
g1306
sg76
(lp1313
S'session_id_reddit=127.0.0.1-24289f39-32a1-48fb-a367-22792fb8b813; session_id_welcome=127.0.0.1-6c6acb01-dab7-498a-a6cb-f847f2ae3337; session_id_admin=127.0.0.1-b12d36e5-38f3-46ab-bf33-377848bfeca4; session_id_cataminder=127.0.0.1-f68dfbc3-e46b-4d7f-ad40-351d31d2febb'
p1314
asbasbasbag69
(g85
g71
NtRp1315
(dp1316
g74
(dp1317
sg83
g1045
sg76
(lp1318
g69
(g90
g71
NtRp1319
(dp1320
g74
(dp1321
g94
g95
ssg83
g1315
sg76
(lp1322
S'http_host'
p1323
asbag69
(g90
g71
NtRp1324
(dp1325
g74
(dp1326
g101
g102
ssg83
g1315
sg76
(lp1327
S':'
asbag69
(g90
g71
NtRp1328
(dp1329
g74
(dp1330
sg83
g1315
sg76
(lp1331
g69
(g70
g71
NtRp1332
(dp1333
g74
(dp1334
g82
I4
ssg83
g1328
sg76
(lp1335
S'127.0.0.1:8000'
p1336
asbasbasbag69
(g85
g71
NtRp1337
(dp1338
g74
(dp1339
sg83
g1045
sg76
(lp1340
g69
(g90
g71
NtRp1341
(dp1342
g74
(dp1343
g94
g95
ssg83
g1337
sg76
(lp1344
S'http_referer'
p1345
asbag69
(g90
g71
NtRp1346
(dp1347
g74
(dp1348
g101
g102
ssg83
g1337
sg76
(lp1349
S':'
asbag69
(g90
g71
NtRp1350
(dp1351
g74
(dp1352
sg83
g1337
sg76
(lp1353
g69
(g70
g71
NtRp1354
(dp1355
g74
(dp1356
g82
I4
ssg83
g1350
sg76
(lp1357
S'http://127.0.0.1:8000/reddit/default/user/login?_next=/reddit/default/index'
p1358
asbasbasbag69
(g85
g71
NtRp1359
(dp1360
g74
(dp1361
sg83
g1045
sg76
(lp1362
g69
(g90
g71
NtRp1363
(dp1364
g74
(dp1365
g94
g95
ssg83
g1359
sg76
(lp1366
S'http_user_agent'
p1367
asbag69
(g90
g71
NtRp1368
(dp1369
g74
(dp1370
g101
g102
ssg83
g1359
sg76
(lp1371
S':'
asbag69
(g90
g71
NtRp1372
(dp1373
g74
(dp1374
sg83
g1359
sg76
(lp1375
g69
(g70
g71
NtRp1376
(dp1377
g74
(dp1378
g82
I4
ssg83
g1372
sg76
(lp1379
S'Mozilla/5.0 (X11; Ubuntu; Linux i686; rv:23.0) Gecko/20100101 Firefox/23.0'
p1380
asbasbasbag69
(g85
g71
NtRp1381
(dp1382
g74
(dp1383
sg83
g1045
sg76
(lp1384
g69
(g90
g71
NtRp1385
(dp1386
g74
(dp1387
g94
g95
ssg83
g1381
sg76
(lp1388
S'is_jython'
p1389
asbag69
(g90
g71
NtRp1390
(dp1391
g74
(dp1392
g101
g102
ssg83
g1381
sg76
(lp1393
S':'
asbag69
(g90
g71
NtRp1394
(dp1395
g74
(dp1396
sg83
g1381
sg76
(lp1397
g69
(g70
g71
NtRp1398
(dp1399
g74
(dp1400
g82
I4
ssg83
g1394
sg76
(lp1401
g112
asbasbasbag69
(g85
g71
NtRp1402
(dp1403
g74
(dp1404
sg83
g1045
sg76
(lp1405
g69
(g90
g71
NtRp1406
(dp1407
g74
(dp1408
g94
g95
ssg83
g1402
sg76
(lp1409
S'is_pypy'
p1410
asbag69
(g90
g71
NtRp1411
(dp1412
g74
(dp1413
g101
g102
ssg83
g1402
sg76
(lp1414
S':'
asbag69
(g90
g71
NtRp1415
(dp1416
g74
(dp1417
sg83
g1402
sg76
(lp1418
g69
(g70
g71
NtRp1419
(dp1420
g74
(dp1421
g82
I4
ssg83
g1415
sg76
(lp1422
g112
asbasbasbag69
(g85
g71
NtRp1423
(dp1424
g74
(dp1425
sg83
g1045
sg76
(lp1426
g69
(g90
g71
NtRp1427
(dp1428
g74
(dp1429
g94
g95
ssg83
g1423
sg76
(lp1430
S'local_hosts'
p1431
asbag69
(g90
g71
NtRp1432
(dp1433
g74
(dp1434
g101
g102
ssg83
g1423
sg76
(lp1435
S':'
asbag69
(g90
g71
NtRp1436
(dp1437
g74
(dp1438
sg83
g1423
sg76
(lp1439
g69
(g70
g71
NtRp1440
(dp1441
g74
(dp1442
g82
I4
ssg83
g1436
sg76
(lp1443
g69
(g78
g71
NtRp1444
(dp1445
g74
(dp1446
g82
I3
ssg83
Nsg76
(lp1447
g69
(g85
g71
NtRp1448
(dp1449
g74
(dp1450
sg83
g1444
sg76
(lp1451
g69
(g90
g71
NtRp1452
(dp1453
g74
(dp1454
sg83
g1448
sg76
(lp1455
g69
(g70
g71
NtRp1456
(dp1457
g74
(dp1458
g82
I3
ssg83
g1452
sg76
(lp1459
S'pankaj-HP-Pavilion-dv4-Notebook-PC'
p1460
asbasbasbag69
(g85
g71
NtRp1461
(dp1462
g74
(dp1463
sg83
g1444
sg76
(lp1464
g69
(g90
g71
NtRp1465
(dp1466
g74
(dp1467
sg83
g1461
sg76
(lp1468
g69
(g70
g71
NtRp1469
(dp1470
g74
(dp1471
g82
I3
ssg83
g1465
sg76
(lp1472
S'::1'
p1473
asbasbasbag69
(g85
g71
NtRp1474
(dp1475
g74
(dp1476
sg83
g1444
sg76
(lp1477
g69
(g90
g71
NtRp1478
(dp1479
g74
(dp1480
sg83
g1474
sg76
(lp1481
g69
(g70
g71
NtRp1482
(dp1483
g74
(dp1484
g82
I3
ssg83
g1478
sg76
(lp1485
S'127.0.1.1'
p1486
asbasbasbag69
(g85
g71
NtRp1487
(dp1488
g74
(dp1489
sg83
g1444
sg76
(lp1490
g69
(g90
g71
NtRp1491
(dp1492
g74
(dp1493
sg83
g1487
sg76
(lp1494
g69
(g70
g71
NtRp1495
(dp1496
g74
(dp1497
g82
I3
ssg83
g1491
sg76
(lp1498
S'::ffff:127.0.0.1'
p1499
asbasbasbag69
(g85
g71
NtRp1500
(dp1501
g74
(dp1502
sg83
g1444
sg76
(lp1503
g69
(g90
g71
NtRp1504
(dp1505
g74
(dp1506
sg83
g1500
sg76
(lp1507
g69
(g70
g71
NtRp1508
(dp1509
g74
(dp1510
g82
I3
ssg83
g1504
sg76
(lp1511
S'127.0.0.1'
p1512
asbasbasbasbasbasbasbag69
(g85
g71
NtRp1513
(dp1514
g74
(dp1515
sg83
g1045
sg76
(lp1516
g69
(g90
g71
NtRp1517
(dp1518
g74
(dp1519
g94
g95
ssg83
g1513
sg76
(lp1520
S'path_info'
p1521
asbag69
(g90
g71
NtRp1522
(dp1523
g74
(dp1524
g101
g102
ssg83
g1513
sg76
(lp1525
S':'
asbag69
(g90
g71
NtRp1526
(dp1527
g74
(dp1528
sg83
g1513
sg76
(lp1529
g69
(g70
g71
NtRp1530
(dp1531
g74
(dp1532
g82
I4
ssg83
g1526
sg76
(lp1533
S'/reddit/default/index'
p1534
asbasbasbag69
(g85
g71
NtRp1535
(dp1536
g74
(dp1537
sg83
g1045
sg76
(lp1538
g69
(g90
g71
NtRp1539
(dp1540
g74
(dp1541
g94
g95
ssg83
g1535
sg76
(lp1542
S'query_string'
p1543
asbag69
(g90
g71
NtRp1544
(dp1545
g74
(dp1546
g101
g102
ssg83
g1535
sg76
(lp1547
S':'
asbag69
(g90
g71
NtRp1548
(dp1549
g74
(dp1550
sg83
g1535
sg76
(lp1551
g69
(g70
g71
NtRp1552
(dp1553
g74
(dp1554
g82
I4
ssg83
g1548
sg76
(lp1555
S''
asbasbasbag69
(g85
g71
NtRp1556
(dp1557
g74
(dp1558
sg83
g1045
sg76
(lp1559
g69
(g90
g71
NtRp1560
(dp1561
g74
(dp1562
g94
g95
ssg83
g1556
sg76
(lp1563
S'remote_addr'
p1564
asbag69
(g90
g71
NtRp1565
(dp1566
g74
(dp1567
g101
g102
ssg83
g1556
sg76
(lp1568
S':'
asbag69
(g90
g71
NtRp1569
(dp1570
g74
(dp1571
sg83
g1556
sg76
(lp1572
g69
(g70
g71
NtRp1573
(dp1574
g74
(dp1575
g82
I4
ssg83
g1569
sg76
(lp1576
g224
asbasbasbag69
(g85
g71
NtRp1577
(dp1578
g74
(dp1579
sg83
g1045
sg76
(lp1580
g69
(g90
g71
NtRp1581
(dp1582
g74
(dp1583
g94
g95
ssg83
g1577
sg76
(lp1584
S'remote_port'
p1585
asbag69
(g90
g71
NtRp1586
(dp1587
g74
(dp1588
g101
g102
ssg83
g1577
sg76
(lp1589
S':'
asbag69
(g90
g71
NtRp1590
(dp1591
g74
(dp1592
sg83
g1577
sg76
(lp1593
g69
(g70
g71
NtRp1594
(dp1595
g74
(dp1596
g82
I4
ssg83
g1590
sg76
(lp1597
S'42911'
p1598
asbasbasbag69
(g85
g71
NtRp1599
(dp1600
g74
(dp1601
sg83
g1045
sg76
(lp1602
g69
(g90
g71
NtRp1603
(dp1604
g74
(dp1605
g94
g95
ssg83
g1599
sg76
(lp1606
S'request_method'
p1607
asbag69
(g90
g71
NtRp1608
(dp1609
g74
(dp1610
g101
g102
ssg83
g1599
sg76
(lp1611
S':'
asbag69
(g90
g71
NtRp1612
(dp1613
g74
(dp1614
sg83
g1599
sg76
(lp1615
g69
(g70
g71
NtRp1616
(dp1617
g74
(dp1618
g82
I4
ssg83
g1612
sg76
(lp1619
S'GET'
p1620
asbasbasbag69
(g85
g71
NtRp1621
(dp1622
g74
(dp1623
sg83
g1045
sg76
(lp1624
g69
(g90
g71
NtRp1625
(dp1626
g74
(dp1627
g94
g95
ssg83
g1621
sg76
(lp1628
S'request_uri'
p1629
asbag69
(g90
g71
NtRp1630
(dp1631
g74
(dp1632
g101
g102
ssg83
g1621
sg76
(lp1633
S':'
asbag69
(g90
g71
NtRp1634
(dp1635
g74
(dp1636
sg83
g1621
sg76
(lp1637
g69
(g70
g71
NtRp1638
(dp1639
g74
(dp1640
g82
I4
ssg83
g1634
sg76
(lp1641
g1534
asbasbasbag69
(g85
g71
NtRp1642
(dp1643
g74
(dp1644
sg83
g1045
sg76
(lp1645
g69
(g90
g71
NtRp1646
(dp1647
g74
(dp1648
g94
g95
ssg83
g1642
sg76
(lp1649
S'script_name'
p1650
asbag69
(g90
g71
NtRp1651
(dp1652
g74
(dp1653
g101
g102
ssg83
g1642
sg76
(lp1654
S':'
asbag69
(g90
g71
NtRp1655
(dp1656
g74
(dp1657
sg83
g1642
sg76
(lp1658
g69
(g70
g71
NtRp1659
(dp1660
g74
(dp1661
g82
I4
ssg83
g1655
sg76
(lp1662
S''
asbasbasbag69
(g85
g71
NtRp1663
(dp1664
g74
(dp1665
sg83
g1045
sg76
(lp1666
g69
(g90
g71
NtRp1667
(dp1668
g74
(dp1669
g94
g95
ssg83
g1663
sg76
(lp1670
S'server_name'
p1671
asbag69
(g90
g71
NtRp1672
(dp1673
g74
(dp1674
g101
g102
ssg83
g1663
sg76
(lp1675
S':'
asbag69
(g90
g71
NtRp1676
(dp1677
g74
(dp1678
sg83
g1663
sg76
(lp1679
g69
(g70
g71
NtRp1680
(dp1681
g74
(dp1682
g82
I4
ssg83
g1676
sg76
(lp1683
S'pankaj-HP-Pavilion-dv4-Notebook-PC'
p1684
asbasbasbag69
(g85
g71
NtRp1685
(dp1686
g74
(dp1687
sg83
g1045
sg76
(lp1688
g69
(g90
g71
NtRp1689
(dp1690
g74
(dp1691
g94
g95
ssg83
g1685
sg76
(lp1692
S'server_port'
p1693
asbag69
(g90
g71
NtRp1694
(dp1695
g74
(dp1696
g101
g102
ssg83
g1685
sg76
(lp1697
S':'
asbag69
(g90
g71
NtRp1698
(dp1699
g74
(dp1700
sg83
g1685
sg76
(lp1701
g69
(g70
g71
NtRp1702
(dp1703
g74
(dp1704
g82
I4
ssg83
g1698
sg76
(lp1705
S'8000'
p1706
asbasbasbag69
(g85
g71
NtRp1707
(dp1708
g74
(dp1709
sg83
g1045
sg76
(lp1710
g69
(g90
g71
NtRp1711
(dp1712
g74
(dp1713
g94
g95
ssg83
g1707
sg76
(lp1714
S'server_protocol'
p1715
asbag69
(g90
g71
NtRp1716
(dp1717
g74
(dp1718
g101
g102
ssg83
g1707
sg76
(lp1719
S':'
asbag69
(g90
g71
NtRp1720
(dp1721
g74
(dp1722
sg83
g1707
sg76
(lp1723
g69
(g70
g71
NtRp1724
(dp1725
g74
(dp1726
g82
I4
ssg83
g1720
sg76
(lp1727
S'HTTP/1.1'
p1728
asbasbasbag69
(g85
g71
NtRp1729
(dp1730
g74
(dp1731
sg83
g1045
sg76
(lp1732
g69
(g90
g71
NtRp1733
(dp1734
g74
(dp1735
g94
g95
ssg83
g1729
sg76
(lp1736
S'server_software'
p1737
asbag69
(g90
g71
NtRp1738
(dp1739
g74
(dp1740
g101
g102
ssg83
g1729
sg76
(lp1741
S':'
asbag69
(g90
g71
NtRp1742
(dp1743
g74
(dp1744
sg83
g1729
sg76
(lp1745
g69
(g70
g71
NtRp1746
(dp1747
g74
(dp1748
g82
I4
ssg83
g1742
sg76
(lp1749
S'Rocket 1.2.6'
p1750
asbasbasbag69
(g85
g71
NtRp1751
(dp1752
g74
(dp1753
sg83
g1045
sg76
(lp1754
g69
(g90
g71
NtRp1755
(dp1756
g74
(dp1757
g94
g95
ssg83
g1751
sg76
(lp1758
S'web2py_path'
p1759
asbag69
(g90
g71
NtRp1760
(dp1761
g74
(dp1762
g101
g102
ssg83
g1751
sg76
(lp1763
S':'
asbag69
(g90
g71
NtRp1764
(dp1765
g74
(dp1766
sg83
g1751
sg76
(lp1767
g69
(g70
g71
NtRp1768
(dp1769
g74
(dp1770
g82
I4
ssg83
g1764
sg76
(lp1771
g1092
asbasbasbag69
(g85
g71
NtRp1772
(dp1773
g74
(dp1774
sg83
g1045
sg76
(lp1775
g69
(g90
g71
NtRp1776
(dp1777
g74
(dp1778
g94
g95
ssg83
g1772
sg76
(lp1779
S'web2py_version'
p1780
asbag69
(g90
g71
NtRp1781
(dp1782
g74
(dp1783
g101
g102
ssg83
g1772
sg76
(lp1784
S':'
asbag69
(g90
g71
NtRp1785
(dp1786
g74
(dp1787
sg83
g1772
sg76
(lp1788
g69
(g70
g71
NtRp1789
(dp1790
g74
(dp1791
g82
I4
ssg83
g1785
sg76
(lp1792
g69
(g78
g71
NtRp1793
(dp1794
g74
(dp1795
g82
I3
ssg83
Nsg76
(lp1796
g69
(g85
g71
NtRp1797
(dp1798
g74
(dp1799
sg83
g1793
sg76
(lp1800
g69
(g90
g71
NtRp1801
(dp1802
g74
(dp1803
sg83
g1797
sg76
(lp1804
g69
(g70
g71
NtRp1805
(dp1806
g74
(dp1807
g82
I3
ssg83
g1801
sg76
(lp1808
S'2'
asbasbasbag69
(g85
g71
NtRp1809
(dp1810
g74
(dp1811
sg83
g1793
sg76
(lp1812
g69
(g90
g71
NtRp1813
(dp1814
g74
(dp1815
sg83
g1809
sg76
(lp1816
g69
(g70
g71
NtRp1817
(dp1818
g74
(dp1819
g82
I3
ssg83
g1813
sg76
(lp1820
S'3'
asbasbasbag69
(g85
g71
NtRp1821
(dp1822
g74
(dp1823
sg83
g1793
sg76
(lp1824
g69
(g90
g71
NtRp1825
(dp1826
g74
(dp1827
sg83
g1821
sg76
(lp1828
g69
(g70
g71
NtRp1829
(dp1830
g74
(dp1831
g82
I3
ssg83
g1825
sg76
(lp1832
S'2'
asbasbasbag69
(g85
g71
NtRp1833
(dp1834
g74
(dp1835
sg83
g1793
sg76
(lp1836
g69
(g90
g71
NtRp1837
(dp1838
g74
(dp1839
sg83
g1833
sg76
(lp1840
g69
(g70
g71
NtRp1841
(dp1842
g74
(dp1843
g82
I3
ssg83
g1837
sg76
(lp1844
S'datetime.datetime(2012, 12, 17, 15, 3, 30)'
p1845
asbasbasbag69
(g85
g71
NtRp1846
(dp1847
g74
(dp1848
sg83
g1793
sg76
(lp1849
g69
(g90
g71
NtRp1850
(dp1851
g74
(dp1852
sg83
g1846
sg76
(lp1853
g69
(g70
g71
NtRp1854
(dp1855
g74
(dp1856
g82
I3
ssg83
g1850
sg76
(lp1857
S'stable'
p1858
asbasbasbasbasbasbasbag69
(g85
g71
NtRp1859
(dp1860
g74
(dp1861
sg83
g1045
sg76
(lp1862
g69
(g90
g71
NtRp1863
(dp1864
g74
(dp1865
g94
g95
ssg83
g1859
sg76
(lp1866
S'wsgi_errors'
p1867
asbag69
(g90
g71
NtRp1868
(dp1869
g74
(dp1870
g101
g102
ssg83
g1859
sg76
(lp1871
S':'
asbag69
(g90
g71
NtRp1872
(dp1873
g74
(dp1874
sg83
g1859
sg76
(lp1875
g69
(g70
g71
NtRp1876
(dp1877
g74
(dp1878
g82
I4
ssg83
g1872
sg76
(lp1879
S"<open file '<stderr>', mode 'w' at 0xb735e0d0>"
p1880
asbasbasbag69
(g85
g71
NtRp1881
(dp1882
g74
(dp1883
sg83
g1045
sg76
(lp1884
g69
(g90
g71
NtRp1885
(dp1886
g74
(dp1887
g94
g95
ssg83
g1881
sg76
(lp1888
S'wsgi_file_wrapper'
p1889
asbag69
(g90
g71
NtRp1890
(dp1891
g74
(dp1892
g101
g102
ssg83
g1881
sg76
(lp1893
S':'
asbag69
(g90
g71
NtRp1894
(dp1895
g74
(dp1896
sg83
g1881
sg76
(lp1897
g69
(g70
g71
NtRp1898
(dp1899
g74
(dp1900
g82
I4
ssg83
g1894
sg76
(lp1901
S'<class wsgiref.util.FileWrapper at 0x96a105c>'
p1902
asbasbasbag69
(g85
g71
NtRp1903
(dp1904
g74
(dp1905
sg83
g1045
sg76
(lp1906
g69
(g90
g71
NtRp1907
(dp1908
g74
(dp1909
g94
g95
ssg83
g1903
sg76
(lp1910
S'wsgi_input'
p1911
asbag69
(g90
g71
NtRp1912
(dp1913
g74
(dp1914
g101
g102
ssg83
g1903
sg76
(lp1915
S':'
asbag69
(g90
g71
NtRp1916
(dp1917
g74
(dp1918
sg83
g1903
sg76
(lp1919
g69
(g70
g71
NtRp1920
(dp1921
g74
(dp1922
g82
I4
ssg83
g1916
sg76
(lp1923
S'<socket._fileobject object at 0xadf3d82c>'
p1924
asbasbasbag69
(g85
g71
NtRp1925
(dp1926
g74
(dp1927
sg83
g1045
sg76
(lp1928
g69
(g90
g71
NtRp1929
(dp1930
g74
(dp1931
g94
g95
ssg83
g1925
sg76
(lp1932
S'wsgi_multiprocess'
p1933
asbag69
(g90
g71
NtRp1934
(dp1935
g74
(dp1936
g101
g102
ssg83
g1925
sg76
(lp1937
S':'
asbag69
(g90
g71
NtRp1938
(dp1939
g74
(dp1940
sg83
g1925
sg76
(lp1941
g69
(g70
g71
NtRp1942
(dp1943
g74
(dp1944
g82
I4
ssg83
g1938
sg76
(lp1945
g112
asbasbasbag69
(g85
g71
NtRp1946
(dp1947
g74
(dp1948
sg83
g1045
sg76
(lp1949
g69
(g90
g71
NtRp1950
(dp1951
g74
(dp1952
g94
g95
ssg83
g1946
sg76
(lp1953
S'wsgi_multithread'
p1954
asbag69
(g90
g71
NtRp1955
(dp1956
g74
(dp1957
g101
g102
ssg83
g1946
sg76
(lp1958
S':'
asbag69
(g90
g71
NtRp1959
(dp1960
g74
(dp1961
sg83
g1946
sg76
(lp1962
g69
(g70
g71
NtRp1963
(dp1964
g74
(dp1965
g82
I4
ssg83
g1959
sg76
(lp1966
S'True'
p1967
asbasbasbag69
(g85
g71
NtRp1968
(dp1969
g74
(dp1970
sg83
g1045
sg76
(lp1971
g69
(g90
g71
NtRp1972
(dp1973
g74
(dp1974
g94
g95
ssg83
g1968
sg76
(lp1975
S'wsgi_run_once'
p1976
asbag69
(g90
g71
NtRp1977
(dp1978
g74
(dp1979
g101
g102
ssg83
g1968
sg76
(lp1980
S':'
asbag69
(g90
g71
NtRp1981
(dp1982
g74
(dp1983
sg83
g1968
sg76
(lp1984
g69
(g70
g71
NtRp1985
(dp1986
g74
(dp1987
g82
I4
ssg83
g1981
sg76
(lp1988
g112
asbasbasbag69
(g85
g71
NtRp1989
(dp1990
g74
(dp1991
sg83
g1045
sg76
(lp1992
g69
(g90
g71
NtRp1993
(dp1994
g74
(dp1995
g94
g95
ssg83
g1989
sg76
(lp1996
S'wsgi_url_scheme'
p1997
asbag69
(g90
g71
NtRp1998
(dp1999
g74
(dp2000
g101
g102
ssg83
g1989
sg76
(lp2001
S':'
asbag69
(g90
g71
NtRp2002
(dp2003
g74
(dp2004
sg83
g1989
sg76
(lp2005
g69
(g70
g71
NtRp2006
(dp2007
g74
(dp2008
g82
I4
ssg83
g2002
sg76
(lp2009
S'http'
p2010
asbasbasbag69
(g85
g71
NtRp2011
(dp2012
g74
(dp2013
sg83
g1045
sg76
(lp2014
g69
(g90
g71
NtRp2015
(dp2016
g74
(dp2017
g94
g95
ssg83
g2011
sg76
(lp2018
S'wsgi_version'
p2019
asbag69
(g90
g71
NtRp2020
(dp2021
g74
(dp2022
g101
g102
ssg83
g2011
sg76
(lp2023
S':'
asbag69
(g90
g71
NtRp2024
(dp2025
g74
(dp2026
sg83
g2011
sg76
(lp2027
g69
(g70
g71
NtRp2028
(dp2029
g74
(dp2030
g82
I4
ssg83
g2024
sg76
(lp2031
g69
(g78
g71
NtRp2032
(dp2033
g74
(dp2034
g82
I3
ssg83
Nsg76
(lp2035
g69
(g85
g71
NtRp2036
(dp2037
g74
(dp2038
sg83
g2032
sg76
(lp2039
g69
(g90
g71
NtRp2040
(dp2041
g74
(dp2042
sg83
g2036
sg76
(lp2043
g69
(g70
g71
NtRp2044
(dp2045
g74
(dp2046
g82
I3
ssg83
g2040
sg76
(lp2047
S'1'
asbasbasbag69
(g85
g71
NtRp2048
(dp2049
g74
(dp2050
sg83
g2032
sg76
(lp2051
g69
(g90
g71
NtRp2052
(dp2053
g74
(dp2054
sg83
g2048
sg76
(lp2055
g69
(g70
g71
NtRp2056
(dp2057
g74
(dp2058
g82
I3
ssg83
g2052
sg76
(lp2059
S'0'
asbasbasbasbasbasbasbasbasbasbasbag69
(g85
g71
NtRp2060
(dp2061
g74
(dp2062
sg83
g79
sg76
(lp2063
g69
(g90
g71
NtRp2064
(dp2065
g74
(dp2066
g94
g95
ssg83
g2060
sg76
(lp2067
S'extension'
p2068
asbag69
(g90
g71
NtRp2069
(dp2070
g74
(dp2071
g101
g102
ssg83
g2060
sg76
(lp2072
S':'
asbag69
(g90
g71
NtRp2073
(dp2074
g74
(dp2075
sg83
g2060
sg76
(lp2076
g69
(g70
g71
NtRp2077
(dp2078
g74
(dp2079
g82
I5
ssg83
g2073
sg76
(lp2080
S'html'
p2081
asbasbasbag69
(g85
g71
NtRp2082
(dp2083
g74
(dp2084
sg83
g79
sg76
(lp2085
g69
(g90
g71
NtRp2086
(dp2087
g74
(dp2088
g94
g95
ssg83
g2082
sg76
(lp2089
S'folder'
p2090
asbag69
(g90
g71
NtRp2091
(dp2092
g74
(dp2093
g101
g102
ssg83
g2082
sg76
(lp2094
S':'
asbag69
(g90
g71
NtRp2095
(dp2096
g74
(dp2097
sg83
g2082
sg76
(lp2098
g69
(g70
g71
NtRp2099
(dp2100
g74
(dp2101
g82
I5
ssg83
g2095
sg76
(lp2102
S'/home/pankaj/web2py/applications/reddit/'
p2103
asbasbasbag69
(g85
g71
NtRp2104
(dp2105
g74
(dp2106
sg83
g79
sg76
(lp2107
g69
(g90
g71
NtRp2108
(dp2109
g74
(dp2110
g94
g95
ssg83
g2104
sg76
(lp2111
S'function'
p2112
asbag69
(g90
g71
NtRp2113
(dp2114
g74
(dp2115
g101
g102
ssg83
g2104
sg76
(lp2116
S':'
asbag69
(g90
g71
NtRp2117
(dp2118
g74
(dp2119
sg83
g2104
sg76
(lp2120
g69
(g70
g71
NtRp2121
(dp2122
g74
(dp2123
g82
I5
ssg83
g2117
sg76
(lp2124
S'index'
p2125
asbasbasbag69
(g85
g71
NtRp2126
(dp2127
g74
(dp2128
sg83
g79
sg76
(lp2129
g69
(g90
g71
NtRp2130
(dp2131
g74
(dp2132
g94
g95
ssg83
g2126
sg76
(lp2133
S'get_vars'
p2134
asbag69
(g90
g71
NtRp2135
(dp2136
g74
(dp2137
g101
g102
ssg83
g2126
sg76
(lp2138
S':'
asbag69
(g90
g71
NtRp2139
(dp2140
g74
(dp2141
sg83
g2126
sg76
(lp2142
g69
(g70
g71
NtRp2143
(dp2144
g74
(dp2145
g82
I5
ssg83
g2139
sg76
(lp2146
g69
(g78
g71
NtRp2147
(dp2148
g74
(dp2149
g82
I4
ssg83
Nsg76
(lp2150
sbasbasbasbag69
(g85
g71
NtRp2151
(dp2152
g74
(dp2153
sg83
g79
sg76
(lp2154
g69
(g90
g71
NtRp2155
(dp2156
g74
(dp2157
g94
g95
ssg83
g2151
sg76
(lp2158
S'global_settings'
p2159
asbag69
(g90
g71
NtRp2160
(dp2161
g74
(dp2162
g101
g102
ssg83
g2151
sg76
(lp2163
S':'
asbag69
(g90
g71
NtRp2164
(dp2165
g74
(dp2166
sg83
g2151
sg76
(lp2167
g69
(g70
g71
NtRp2168
(dp2169
g74
(dp2170
g82
I5
ssg83
g2164
sg76
(lp2171
g69
(g78
g71
NtRp2172
(dp2173
g74
(dp2174
g82
I4
ssg83
Nsg76
(lp2175
g69
(g85
g71
NtRp2176
(dp2177
g74
(dp2178
sg83
g2172
sg76
(lp2179
g69
(g90
g71
NtRp2180
(dp2181
g74
(dp2182
g94
g95
ssg83
g2176
sg76
(lp2183
g1057
asbag69
(g90
g71
NtRp2184
(dp2185
g74
(dp2186
g101
g102
ssg83
g2176
sg76
(lp2187
S':'
asbag69
(g90
g71
NtRp2188
(dp2189
g74
(dp2190
sg83
g2176
sg76
(lp2191
g69
(g70
g71
NtRp2192
(dp2193
g74
(dp2194
g82
I4
ssg83
g2188
sg76
(lp2195
S"set(['/home/pankaj/web2py/applications/admin/', '/home/pankaj/web2py/applications/welcome/', '/home/pankaj/web2py/applications/Cataminder/', '/home/pankaj/web2py/applications/reddit/'])"
p2196
asbasbasbag69
(g85
g71
NtRp2197
(dp2198
g74
(dp2199
sg83
g2172
sg76
(lp2200
g69
(g90
g71
NtRp2201
(dp2202
g74
(dp2203
g94
g95
ssg83
g2197
sg76
(lp2204
g1079
asbag69
(g90
g71
NtRp2205
(dp2206
g74
(dp2207
g101
g102
ssg83
g2197
sg76
(lp2208
S':'
asbag69
(g90
g71
NtRp2209
(dp2210
g74
(dp2211
sg83
g2197
sg76
(lp2212
g69
(g70
g71
NtRp2213
(dp2214
g74
(dp2215
g82
I4
ssg83
g2209
sg76
(lp2216
g1092
asbasbasbag69
(g85
g71
NtRp2217
(dp2218
g74
(dp2219
sg83
g2172
sg76
(lp2220
g69
(g90
g71
NtRp2221
(dp2222
g74
(dp2223
g94
g95
ssg83
g2217
sg76
(lp2224
g1101
asbag69
(g90
g71
NtRp2225
(dp2226
g74
(dp2227
g101
g102
ssg83
g2217
sg76
(lp2228
S':'
asbag69
(g90
g71
NtRp2229
(dp2230
g74
(dp2231
sg83
g2217
sg76
(lp2232
g69
(g70
g71
NtRp2233
(dp2234
g74
(dp2235
g82
I4
ssg83
g2229
sg76
(lp2236
g69
(g78
g71
NtRp2237
(dp2238
g74
(dp2239
g82
I3
ssg83
Nsg76
(lp2240
sbasbasbasbag69
(g85
g71
NtRp2241
(dp2242
g74
(dp2243
sg83
g2172
sg76
(lp2244
g69
(g90
g71
NtRp2245
(dp2246
g74
(dp2247
g94
g95
ssg83
g2241
sg76
(lp2248
g1126
asbag69
(g90
g71
NtRp2249
(dp2250
g74
(dp2251
g101
g102
ssg83
g2241
sg76
(lp2252
S':'
asbag69
(g90
g71
NtRp2253
(dp2254
g74
(dp2255
sg83
g2241
sg76
(lp2256
g69
(g70
g71
NtRp2257
(dp2258
g74
(dp2259
g82
I4
ssg83
g2253
sg76
(lp2260
S"<Values at 0x96dbdcc: {'verbose': False, 'ip': '127.0.0.1', 'with_scheduler': False, 'ips': [], 'shutdown_timeout': 5, 'taskbar': False, 'port': 8000, 'maxthreads': None, 'softcron': False, 'server_name': 'pankaj-HP-Pavilion-dv4-Notebook-PC', 'bpython': False, 'nogui': False, 'pid_filename': 'httpserver.pid', 'extcron': False, 'runcron': False, 'run_system_tests': False, 'test': None, 'folder': '/home/pankaj/web2py', 'config': '', 'import_models': False, 'winservice': '', 'shell': None, 'run': '', 'log_filename': 'httpserver.log', 'debuglevel': 30, 'args': [''], 'socket_timeout': 5, 'ssl_ca_certificate': None, 'scheduler': None, 'profiler_filename': None, 'ssl_private_key': '', 'scheduler_groups': None, 'password': '<ask>', 'request_queue_size': 5, 'ssl_certificate': '', 'cronjob': False, 'numthreads': None, 'quiet': False, 'interfaces': None, 'minthreads': None, 'timeout': 10, 'plain': False, 'nobanner': False}>"
p2261
asbasbasbag69
(g85
g71
NtRp2262
(dp2263
g74
(dp2264
sg83
g2172
sg76
(lp2265
g69
(g90
g71
NtRp2266
(dp2267
g74
(dp2268
g94
g95
ssg83
g2262
sg76
(lp2269
g1148
asbag69
(g90
g71
NtRp2270
(dp2271
g74
(dp2272
g101
g102
ssg83
g2262
sg76
(lp2273
S':'
asbag69
(g90
g71
NtRp2274
(dp2275
g74
(dp2276
sg83
g2262
sg76
(lp2277
g69
(g70
g71
NtRp2278
(dp2279
g74
(dp2280
g82
I4
ssg83
g2274
sg76
(lp2281
S'set([])'
p2282
asbasbasbag69
(g85
g71
NtRp2283
(dp2284
g74
(dp2285
sg83
g2172
sg76
(lp2286
g69
(g90
g71
NtRp2287
(dp2288
g74
(dp2289
g94
g95
ssg83
g2283
sg76
(lp2290
g1170
asbag69
(g90
g71
NtRp2291
(dp2292
g74
(dp2293
g101
g102
ssg83
g2283
sg76
(lp2294
S':'
asbag69
(g90
g71
NtRp2295
(dp2296
g74
(dp2297
sg83
g2283
sg76
(lp2298
g69
(g70
g71
NtRp2299
(dp2300
g74
(dp2301
g82
I4
ssg83
g2295
sg76
(lp2302
g112
asbasbasbag69
(g85
g71
NtRp2303
(dp2304
g74
(dp2305
sg83
g2172
sg76
(lp2306
g69
(g90
g71
NtRp2307
(dp2308
g74
(dp2309
g94
g95
ssg83
g2303
sg76
(lp2310
g1191
asbag69
(g90
g71
NtRp2311
(dp2312
g74
(dp2313
g101
g102
ssg83
g2303
sg76
(lp2314
S':'
asbag69
(g90
g71
NtRp2315
(dp2316
g74
(dp2317
sg83
g2303
sg76
(lp2318
g69
(g70
g71
NtRp2319
(dp2320
g74
(dp2321
g82
I4
ssg83
g2315
sg76
(lp2322
g1204
asbasbasbag69
(g85
g71
NtRp2323
(dp2324
g74
(dp2325
sg83
g2172
sg76
(lp2326
g69
(g90
g71
NtRp2327
(dp2328
g74
(dp2329
g94
g95
ssg83
g2323
sg76
(lp2330
g1389
asbag69
(g90
g71
NtRp2331
(dp2332
g74
(dp2333
g101
g102
ssg83
g2323
sg76
(lp2334
S':'
asbag69
(g90
g71
NtRp2335
(dp2336
g74
(dp2337
sg83
g2323
sg76
(lp2338
g69
(g70
g71
NtRp2339
(dp2340
g74
(dp2341
g82
I4
ssg83
g2335
sg76
(lp2342
g112
asbasbasbag69
(g85
g71
NtRp2343
(dp2344
g74
(dp2345
sg83
g2172
sg76
(lp2346
g69
(g90
g71
NtRp2347
(dp2348
g74
(dp2349
g94
g95
ssg83
g2343
sg76
(lp2350
g1410
asbag69
(g90
g71
NtRp2351
(dp2352
g74
(dp2353
g101
g102
ssg83
g2343
sg76
(lp2354
S':'
asbag69
(g90
g71
NtRp2355
(dp2356
g74
(dp2357
sg83
g2343
sg76
(lp2358
g69
(g70
g71
NtRp2359
(dp2360
g74
(dp2361
g82
I4
ssg83
g2355
sg76
(lp2362
g112
asbasbasbag69
(g85
g71
NtRp2363
(dp2364
g74
(dp2365
sg83
g2172
sg76
(lp2366
g69
(g90
g71
NtRp2367
(dp2368
g74
(dp2369
g94
g95
ssg83
g2363
sg76
(lp2370
g1431
asbag69
(g90
g71
NtRp2371
(dp2372
g74
(dp2373
g101
g102
ssg83
g2363
sg76
(lp2374
S':'
asbag69
(g90
g71
NtRp2375
(dp2376
g74
(dp2377
sg83
g2363
sg76
(lp2378
g69
(g70
g71
NtRp2379
(dp2380
g74
(dp2381
g82
I4
ssg83
g2375
sg76
(lp2382
g69
(g78
g71
NtRp2383
(dp2384
g74
(dp2385
g82
I3
ssg83
Nsg76
(lp2386
g69
(g85
g71
NtRp2387
(dp2388
g74
(dp2389
sg83
g2383
sg76
(lp2390
g69
(g90
g71
NtRp2391
(dp2392
g74
(dp2393
sg83
g2387
sg76
(lp2394
g69
(g70
g71
NtRp2395
(dp2396
g74
(dp2397
g82
I3
ssg83
g2391
sg76
(lp2398
g1460
asbasbasbag69
(g85
g71
NtRp2399
(dp2400
g74
(dp2401
sg83
g2383
sg76
(lp2402
g69
(g90
g71
NtRp2403
(dp2404
g74
(dp2405
sg83
g2399
sg76
(lp2406
g69
(g70
g71
NtRp2407
(dp2408
g74
(dp2409
g82
I3
ssg83
g2403
sg76
(lp2410
g1473
asbasbasbag69
(g85
g71
NtRp2411
(dp2412
g74
(dp2413
sg83
g2383
sg76
(lp2414
g69
(g90
g71
NtRp2415
(dp2416
g74
(dp2417
sg83
g2411
sg76
(lp2418
g69
(g70
g71
NtRp2419
(dp2420
g74
(dp2421
g82
I3
ssg83
g2415
sg76
(lp2422
g1486
asbasbasbag69
(g85
g71
NtRp2423
(dp2424
g74
(dp2425
sg83
g2383
sg76
(lp2426
g69
(g90
g71
NtRp2427
(dp2428
g74
(dp2429
sg83
g2423
sg76
(lp2430
g69
(g70
g71
NtRp2431
(dp2432
g74
(dp2433
g82
I3
ssg83
g2427
sg76
(lp2434
g1499
asbasbasbag69
(g85
g71
NtRp2435
(dp2436
g74
(dp2437
sg83
g2383
sg76
(lp2438
g69
(g90
g71
NtRp2439
(dp2440
g74
(dp2441
sg83
g2435
sg76
(lp2442
g69
(g70
g71
NtRp2443
(dp2444
g74
(dp2445
g82
I3
ssg83
g2439
sg76
(lp2446
g1512
asbasbasbasbasbasbasbag69
(g85
g71
NtRp2447
(dp2448
g74
(dp2449
sg83
g2172
sg76
(lp2450
g69
(g90
g71
NtRp2451
(dp2452
g74
(dp2453
g94
g95
ssg83
g2447
sg76
(lp2454
g1780
asbag69
(g90
g71
NtRp2455
(dp2456
g74
(dp2457
g101
g102
ssg83
g2447
sg76
(lp2458
S':'
asbag69
(g90
g71
NtRp2459
(dp2460
g74
(dp2461
sg83
g2447
sg76
(lp2462
g69
(g70
g71
NtRp2463
(dp2464
g74
(dp2465
g82
I4
ssg83
g2459
sg76
(lp2466
g69
(g78
g71
NtRp2467
(dp2468
g74
(dp2469
g82
I3
ssg83
Nsg76
(lp2470
g69
(g85
g71
NtRp2471
(dp2472
g74
(dp2473
sg83
g2467
sg76
(lp2474
g69
(g90
g71
NtRp2475
(dp2476
g74
(dp2477
sg83
g2471
sg76
(lp2478
g69
(g70
g71
NtRp2479
(dp2480
g74
(dp2481
g82
I3
ssg83
g2475
sg76
(lp2482
S'2'
asbasbasbag69
(g85
g71
NtRp2483
(dp2484
g74
(dp2485
sg83
g2467
sg76
(lp2486
g69
(g90
g71
NtRp2487
(dp2488
g74
(dp2489
sg83
g2483
sg76
(lp2490
g69
(g70
g71
NtRp2491
(dp2492
g74
(dp2493
g82
I3
ssg83
g2487
sg76
(lp2494
S'3'
asbasbasbag69
(g85
g71
NtRp2495
(dp2496
g74
(dp2497
sg83
g2467
sg76
(lp2498
g69
(g90
g71
NtRp2499
(dp2500
g74
(dp2501
sg83
g2495
sg76
(lp2502
g69
(g70
g71
NtRp2503
(dp2504
g74
(dp2505
g82
I3
ssg83
g2499
sg76
(lp2506
S'2'
asbasbasbag69
(g85
g71
NtRp2507
(dp2508
g74
(dp2509
sg83
g2467
sg76
(lp2510
g69
(g90
g71
NtRp2511
(dp2512
g74
(dp2513
sg83
g2507
sg76
(lp2514
g69
(g70
g71
NtRp2515
(dp2516
g74
(dp2517
g82
I3
ssg83
g2511
sg76
(lp2518
S'datetime.datetime(2012, 12, 17, 15, 3, 30)'
p2519
asbasbasbag69
(g85
g71
NtRp2520
(dp2521
g74
(dp2522
sg83
g2467
sg76
(lp2523
g69
(g90
g71
NtRp2524
(dp2525
g74
(dp2526
sg83
g2520
sg76
(lp2527
g69
(g70
g71
NtRp2528
(dp2529
g74
(dp2530
g82
I3
ssg83
g2524
sg76
(lp2531
g1858
asbasbasbasbasbasbasbasbasbasbasbag69
(g85
g71
NtRp2532
(dp2533
g74
(dp2534
sg83
g79
sg76
(lp2535
g69
(g90
g71
NtRp2536
(dp2537
g74
(dp2538
g94
g95
ssg83
g2532
sg76
(lp2539
S'is_https'
p2540
asbag69
(g90
g71
NtRp2541
(dp2542
g74
(dp2543
g101
g102
ssg83
g2532
sg76
(lp2544
S':'
asbag69
(g90
g71
NtRp2545
(dp2546
g74
(dp2547
sg83
g2532
sg76
(lp2548
g69
(g70
g71
NtRp2549
(dp2550
g74
(dp2551
g82
I5
ssg83
g2545
sg76
(lp2552
g112
asbasbasbag69
(g85
g71
NtRp2553
(dp2554
g74
(dp2555
sg83
g79
sg76
(lp2556
g69
(g90
g71
NtRp2557
(dp2558
g74
(dp2559
g94
g95
ssg83
g2553
sg76
(lp2560
S'is_local'
p2561
asbag69
(g90
g71
NtRp2562
(dp2563
g74
(dp2564
g101
g102
ssg83
g2553
sg76
(lp2565
S':'
asbag69
(g90
g71
NtRp2566
(dp2567
g74
(dp2568
sg83
g2553
sg76
(lp2569
g69
(g70
g71
NtRp2570
(dp2571
g74
(dp2572
g82
I5
ssg83
g2566
sg76
(lp2573
g1967
asbasbasbag69
(g85
g71
NtRp2574
(dp2575
g74
(dp2576
sg83
g79
sg76
(lp2577
g69
(g90
g71
NtRp2578
(dp2579
g74
(dp2580
g94
g95
ssg83
g2574
sg76
(lp2581
S'is_restful'
p2582
asbag69
(g90
g71
NtRp2583
(dp2584
g74
(dp2585
g101
g102
ssg83
g2574
sg76
(lp2586
S':'
asbag69
(g90
g71
NtRp2587
(dp2588
g74
(dp2589
sg83
g2574
sg76
(lp2590
g69
(g70
g71
NtRp2591
(dp2592
g74
(dp2593
g82
I5
ssg83
g2587
sg76
(lp2594
g112
asbasbasbag69
(g85
g71
NtRp2595
(dp2596
g74
(dp2597
sg83
g79
sg76
(lp2598
g69
(g90
g71
NtRp2599
(dp2600
g74
(dp2601
g94
g95
ssg83
g2595
sg76
(lp2602
S'now'
p2603
asbag69
(g90
g71
NtRp2604
(dp2605
g74
(dp2606
g101
g102
ssg83
g2595
sg76
(lp2607
S':'
asbag69
(g90
g71
NtRp2608
(dp2609
g74
(dp2610
sg83
g2595
sg76
(lp2611
g69
(g70
g71
NtRp2612
(dp2613
g74
(dp2614
g82
I5
ssg83
g2608
sg76
(lp2615
S'datetime.datetime(2013, 9, 1, 10, 55, 22, 172169)'
p2616
asbasbasbag69
(g85
g71
NtRp2617
(dp2618
g74
(dp2619
sg83
g79
sg76
(lp2620
g69
(g90
g71
NtRp2621
(dp2622
g74
(dp2623
g94
g95
ssg83
g2617
sg76
(lp2624
S'post_vars'
p2625
asbag69
(g90
g71
NtRp2626
(dp2627
g74
(dp2628
g101
g102
ssg83
g2617
sg76
(lp2629
S':'
asbag69
(g90
g71
NtRp2630
(dp2631
g74
(dp2632
sg83
g2617
sg76
(lp2633
g69
(g70
g71
NtRp2634
(dp2635
g74
(dp2636
g82
I5
ssg83
g2630
sg76
(lp2637
g69
(g78
g71
NtRp2638
(dp2639
g74
(dp2640
g82
I4
ssg83
Nsg76
(lp2641
sbasbasbasbag69
(g85
g71
NtRp2642
(dp2643
g74
(dp2644
sg83
g79
sg76
(lp2645
g69
(g90
g71
NtRp2646
(dp2647
g74
(dp2648
g94
g95
ssg83
g2642
sg76
(lp2649
S'raw_args'
p2650
asbag69
(g90
g71
NtRp2651
(dp2652
g74
(dp2653
g101
g102
ssg83
g2642
sg76
(lp2654
S':'
asbag69
(g90
g71
NtRp2655
(dp2656
g74
(dp2657
sg83
g2642
sg76
(lp2658
g69
(g70
g71
NtRp2659
(dp2660
g74
(dp2661
g82
I5
ssg83
g2655
sg76
(lp2662
S''
asbasbasbag69
(g85
g71
NtRp2663
(dp2664
g74
(dp2665
sg83
g79
sg76
(lp2666
g69
(g90
g71
NtRp2667
(dp2668
g74
(dp2669
g94
g95
ssg83
g2663
sg76
(lp2670
S'raw_extension'
p2671
asbag69
(g90
g71
NtRp2672
(dp2673
g74
(dp2674
g101
g102
ssg83
g2663
sg76
(lp2675
S':'
asbag69
(g90
g71
NtRp2676
(dp2677
g74
(dp2678
sg83
g2663
sg76
(lp2679
g69
(g70
g71
NtRp2680
(dp2681
g74
(dp2682
g82
I5
ssg83
g2676
sg76
(lp2683
S'None'
p2684
asbasbasbag69
(g85
g71
NtRp2685
(dp2686
g74
(dp2687
sg83
g79
sg76
(lp2688
g69
(g90
g71
NtRp2689
(dp2690
g74
(dp2691
g94
g95
ssg83
g2685
sg76
(lp2692
S'url'
p2693
asbag69
(g90
g71
NtRp2694
(dp2695
g74
(dp2696
g101
g102
ssg83
g2685
sg76
(lp2697
S':'
asbag69
(g90
g71
NtRp2698
(dp2699
g74
(dp2700
sg83
g2685
sg76
(lp2701
g69
(g70
g71
NtRp2702
(dp2703
g74
(dp2704
g82
I5
ssg83
g2698
sg76
(lp2705
g1534
asbasbasbag69
(g85
g71
NtRp2706
(dp2707
g74
(dp2708
sg83
g79
sg76
(lp2709
g69
(g90
g71
NtRp2710
(dp2711
g74
(dp2712
g94
g95
ssg83
g2706
sg76
(lp2713
S'utcnow'
p2714
asbag69
(g90
g71
NtRp2715
(dp2716
g74
(dp2717
g101
g102
ssg83
g2706
sg76
(lp2718
S':'
asbag69
(g90
g71
NtRp2719
(dp2720
g74
(dp2721
sg83
g2706
sg76
(lp2722
g69
(g70
g71
NtRp2723
(dp2724
g74
(dp2725
g82
I5
ssg83
g2719
sg76
(lp2726
S'datetime.datetime(2013, 9, 1, 5, 25, 22, 172224)'
p2727
asbasbasbag69
(g85
g71
NtRp2728
(dp2729
g74
(dp2730
sg83
g79
sg76
(lp2731
g69
(g90
g71
NtRp2732
(dp2733
g74
(dp2734
g94
g95
ssg83
g2728
sg76
(lp2735
S'uuid'
p2736
asbag69
(g90
g71
NtRp2737
(dp2738
g74
(dp2739
g101
g102
ssg83
g2728
sg76
(lp2740
S':'
asbag69
(g90
g71
NtRp2741
(dp2742
g74
(dp2743
sg83
g2728
sg76
(lp2744
g69
(g70
g71
NtRp2745
(dp2746
g74
(dp2747
g82
I5
ssg83
g2741
sg76
(lp2748
S'reddit/127.0.0.1.2013-09-01.10-55-22.c78b08c1-505b-451e-ad0b-70b76c3aa58f'
p2749
asbasbasbag69
(g85
g71
NtRp2750
(dp2751
g74
(dp2752
sg83
g79
sg76
(lp2753
g69
(g90
g71
NtRp2754
(dp2755
g74
(dp2756
g94
g95
ssg83
g2750
sg76
(lp2757
S'vars'
p2758
asbag69
(g90
g71
NtRp2759
(dp2760
g74
(dp2761
g101
g102
ssg83
g2750
sg76
(lp2762
S':'
asbag69
(g90
g71
NtRp2763
(dp2764
g74
(dp2765
sg83
g2750
sg76
(lp2766
g69
(g70
g71
NtRp2767
(dp2768
g74
(dp2769
g82
I5
ssg83
g2763
sg76
(lp2770
g69
(g78
g71
NtRp2771
(dp2772
g74
(dp2773
g82
I4
ssg83
Nsg76
(lp2774
sbasbasbasbag69
(g85
g71
NtRp2775
(dp2776
g74
(dp2777
sg83
g79
sg76
(lp2778
g69
(g90
g71
NtRp2779
(dp2780
g74
(dp2781
g94
g95
ssg83
g2775
sg76
(lp2782
S'wsgi'
p2783
asbag69
(g90
g71
NtRp2784
(dp2785
g74
(dp2786
g101
g102
ssg83
g2775
sg76
(lp2787
S':'
asbag69
(g90
g71
NtRp2788
(dp2789
g74
(dp2790
sg83
g2775
sg76
(lp2791
g69
(g70
g71
NtRp2792
(dp2793
g74
(dp2794
g82
I5
ssg83
g2788
sg76
(lp2795
g69
(g78
g71
NtRp2796
(dp2797
g74
(dp2798
g82
I4
ssg83
Nsg76
(lp2799
g69
(g85
g71
NtRp2800
(dp2801
g74
(dp2802
sg83
g2796
sg76
(lp2803
g69
(g90
g71
NtRp2804
(dp2805
g74
(dp2806
g94
g95
ssg83
g2800
sg76
(lp2807
S'environ'
p2808
asbag69
(g90
g71
NtRp2809
(dp2810
g74
(dp2811
g101
g102
ssg83
g2800
sg76
(lp2812
S':'
asbag69
(g90
g71
NtRp2813
(dp2814
g74
(dp2815
sg83
g2800
sg76
(lp2816
g69
(g70
g71
NtRp2817
(dp2818
g74
(dp2819
g82
I4
ssg83
g2813
sg76
(lp2820
g69
(g78
g71
NtRp2821
(dp2822
g74
(dp2823
g82
I3
ssg83
Nsg76
(lp2824
g69
(g85
g71
NtRp2825
(dp2826
g74
(dp2827
sg83
g2821
sg76
(lp2828
g69
(g90
g71
NtRp2829
(dp2830
g74
(dp2831
g94
g95
ssg83
g2825
sg76
(lp2832
S'HTTP_ACCEPT'
p2833
asbag69
(g90
g71
NtRp2834
(dp2835
g74
(dp2836
g101
g102
ssg83
g2825
sg76
(lp2837
S':'
asbag69
(g90
g71
NtRp2838
(dp2839
g74
(dp2840
sg83
g2825
sg76
(lp2841
g69
(g70
g71
NtRp2842
(dp2843
g74
(dp2844
g82
I3
ssg83
g2838
sg76
(lp2845
g1226
asbasbasbag69
(g85
g71
NtRp2846
(dp2847
g74
(dp2848
sg83
g2821
sg76
(lp2849
g69
(g90
g71
NtRp2850
(dp2851
g74
(dp2852
g94
g95
ssg83
g2846
sg76
(lp2853
S'HTTP_ACCEPT_ENCODING'
p2854
asbag69
(g90
g71
NtRp2855
(dp2856
g74
(dp2857
g101
g102
ssg83
g2846
sg76
(lp2858
S':'
asbag69
(g90
g71
NtRp2859
(dp2860
g74
(dp2861
sg83
g2846
sg76
(lp2862
g69
(g70
g71
NtRp2863
(dp2864
g74
(dp2865
g82
I3
ssg83
g2859
sg76
(lp2866
g1248
asbasbasbag69
(g85
g71
NtRp2867
(dp2868
g74
(dp2869
sg83
g2821
sg76
(lp2870
g69
(g90
g71
NtRp2871
(dp2872
g74
(dp2873
g94
g95
ssg83
g2867
sg76
(lp2874
S'HTTP_ACCEPT_LANGUAGE'
p2875
asbag69
(g90
g71
NtRp2876
(dp2877
g74
(dp2878
g101
g102
ssg83
g2867
sg76
(lp2879
S':'
asbag69
(g90
g71
NtRp2880
(dp2881
g74
(dp2882
sg83
g2867
sg76
(lp2883
g69
(g70
g71
NtRp2884
(dp2885
g74
(dp2886
g82
I3
ssg83
g2880
sg76
(lp2887
g1270
asbasbasbag69
(g85
g71
NtRp2888
(dp2889
g74
(dp2890
sg83
g2821
sg76
(lp2891
g69
(g90
g71
NtRp2892
(dp2893
g74
(dp2894
g94
g95
ssg83
g2888
sg76
(lp2895
S'HTTP_CONNECTION'
p2896
asbag69
(g90
g71
NtRp2897
(dp2898
g74
(dp2899
g101
g102
ssg83
g2888
sg76
(lp2900
S':'
asbag69
(g90
g71
NtRp2901
(dp2902
g74
(dp2903
sg83
g2888
sg76
(lp2904
g69
(g70
g71
NtRp2905
(dp2906
g74
(dp2907
g82
I3
ssg83
g2901
sg76
(lp2908
g1292
asbasbasbag69
(g85
g71
NtRp2909
(dp2910
g74
(dp2911
sg83
g2821
sg76
(lp2912
g69
(g90
g71
NtRp2913
(dp2914
g74
(dp2915
g94
g95
ssg83
g2909
sg76
(lp2916
S'HTTP_COOKIE'
p2917
asbag69
(g90
g71
NtRp2918
(dp2919
g74
(dp2920
g101
g102
ssg83
g2909
sg76
(lp2921
S':'
asbag69
(g90
g71
NtRp2922
(dp2923
g74
(dp2924
sg83
g2909
sg76
(lp2925
g69
(g70
g71
NtRp2926
(dp2927
g74
(dp2928
g82
I3
ssg83
g2922
sg76
(lp2929
g1314
asbasbasbag69
(g85
g71
NtRp2930
(dp2931
g74
(dp2932
sg83
g2821
sg76
(lp2933
g69
(g90
g71
NtRp2934
(dp2935
g74
(dp2936
g94
g95
ssg83
g2930
sg76
(lp2937
S'HTTP_HOST'
p2938
asbag69
(g90
g71
NtRp2939
(dp2940
g74
(dp2941
g101
g102
ssg83
g2930
sg76
(lp2942
S':'
asbag69
(g90
g71
NtRp2943
(dp2944
g74
(dp2945
sg83
g2930
sg76
(lp2946
g69
(g70
g71
NtRp2947
(dp2948
g74
(dp2949
g82
I3
ssg83
g2943
sg76
(lp2950
g1336
asbasbasbag69
(g85
g71
NtRp2951
(dp2952
g74
(dp2953
sg83
g2821
sg76
(lp2954
g69
(g90
g71
NtRp2955
(dp2956
g74
(dp2957
g94
g95
ssg83
g2951
sg76
(lp2958
S'HTTP_REFERER'
p2959
asbag69
(g90
g71
NtRp2960
(dp2961
g74
(dp2962
g101
g102
ssg83
g2951
sg76
(lp2963
S':'
asbag69
(g90
g71
NtRp2964
(dp2965
g74
(dp2966
sg83
g2951
sg76
(lp2967
g69
(g70
g71
NtRp2968
(dp2969
g74
(dp2970
g82
I3
ssg83
g2964
sg76
(lp2971
g1358
asbasbasbag69
(g85
g71
NtRp2972
(dp2973
g74
(dp2974
sg83
g2821
sg76
(lp2975
g69
(g90
g71
NtRp2976
(dp2977
g74
(dp2978
g94
g95
ssg83
g2972
sg76
(lp2979
S'HTTP_USER_AGENT'
p2980
asbag69
(g90
g71
NtRp2981
(dp2982
g74
(dp2983
g101
g102
ssg83
g2972
sg76
(lp2984
S':'
asbag69
(g90
g71
NtRp2985
(dp2986
g74
(dp2987
sg83
g2972
sg76
(lp2988
g69
(g70
g71
NtRp2989
(dp2990
g74
(dp2991
g82
I3
ssg83
g2985
sg76
(lp2992
g1380
asbasbasbag69
(g85
g71
NtRp2993
(dp2994
g74
(dp2995
sg83
g2821
sg76
(lp2996
g69
(g90
g71
NtRp2997
(dp2998
g74
(dp2999
g94
g95
ssg83
g2993
sg76
(lp3000
S'PATH_INFO'
p3001
asbag69
(g90
g71
NtRp3002
(dp3003
g74
(dp3004
g101
g102
ssg83
g2993
sg76
(lp3005
S':'
asbag69
(g90
g71
NtRp3006
(dp3007
g74
(dp3008
sg83
g2993
sg76
(lp3009
g69
(g70
g71
NtRp3010
(dp3011
g74
(dp3012
g82
I3
ssg83
g3006
sg76
(lp3013
g1534
asbasbasbag69
(g85
g71
NtRp3014
(dp3015
g74
(dp3016
sg83
g2821
sg76
(lp3017
g69
(g90
g71
NtRp3018
(dp3019
g74
(dp3020
g94
g95
ssg83
g3014
sg76
(lp3021
S'QUERY_STRING'
p3022
asbag69
(g90
g71
NtRp3023
(dp3024
g74
(dp3025
g101
g102
ssg83
g3014
sg76
(lp3026
S':'
asbag69
(g90
g71
NtRp3027
(dp3028
g74
(dp3029
sg83
g3014
sg76
(lp3030
g69
(g70
g71
NtRp3031
(dp3032
g74
(dp3033
g82
I3
ssg83
g3027
sg76
(lp3034
S''
asbasbasbag69
(g85
g71
NtRp3035
(dp3036
g74
(dp3037
sg83
g2821
sg76
(lp3038
g69
(g90
g71
NtRp3039
(dp3040
g74
(dp3041
g94
g95
ssg83
g3035
sg76
(lp3042
S'REMOTE_ADDR'
p3043
asbag69
(g90
g71
NtRp3044
(dp3045
g74
(dp3046
g101
g102
ssg83
g3035
sg76
(lp3047
S':'
asbag69
(g90
g71
NtRp3048
(dp3049
g74
(dp3050
sg83
g3035
sg76
(lp3051
g69
(g70
g71
NtRp3052
(dp3053
g74
(dp3054
g82
I3
ssg83
g3048
sg76
(lp3055
g224
asbasbasbag69
(g85
g71
NtRp3056
(dp3057
g74
(dp3058
sg83
g2821
sg76
(lp3059
g69
(g90
g71
NtRp3060
(dp3061
g74
(dp3062
g94
g95
ssg83
g3056
sg76
(lp3063
S'REMOTE_PORT'
p3064
asbag69
(g90
g71
NtRp3065
(dp3066
g74
(dp3067
g101
g102
ssg83
g3056
sg76
(lp3068
S':'
asbag69
(g90
g71
NtRp3069
(dp3070
g74
(dp3071
sg83
g3056
sg76
(lp3072
g69
(g70
g71
NtRp3073
(dp3074
g74
(dp3075
g82
I3
ssg83
g3069
sg76
(lp3076
g1598
asbasbasbag69
(g85
g71
NtRp3077
(dp3078
g74
(dp3079
sg83
g2821
sg76
(lp3080
g69
(g90
g71
NtRp3081
(dp3082
g74
(dp3083
g94
g95
ssg83
g3077
sg76
(lp3084
S'REQUEST_METHOD'
p3085
asbag69
(g90
g71
NtRp3086
(dp3087
g74
(dp3088
g101
g102
ssg83
g3077
sg76
(lp3089
S':'
asbag69
(g90
g71
NtRp3090
(dp3091
g74
(dp3092
sg83
g3077
sg76
(lp3093
g69
(g70
g71
NtRp3094
(dp3095
g74
(dp3096
g82
I3
ssg83
g3090
sg76
(lp3097
g1620
asbasbasbag69
(g85
g71
NtRp3098
(dp3099
g74
(dp3100
sg83
g2821
sg76
(lp3101
g69
(g90
g71
NtRp3102
(dp3103
g74
(dp3104
g94
g95
ssg83
g3098
sg76
(lp3105
S'REQUEST_URI'
p3106
asbag69
(g90
g71
NtRp3107
(dp3108
g74
(dp3109
g101
g102
ssg83
g3098
sg76
(lp3110
S':'
asbag69
(g90
g71
NtRp3111
(dp3112
g74
(dp3113
sg83
g3098
sg76
(lp3114
g69
(g70
g71
NtRp3115
(dp3116
g74
(dp3117
g82
I3
ssg83
g3111
sg76
(lp3118
g1534
asbasbasbag69
(g85
g71
NtRp3119
(dp3120
g74
(dp3121
sg83
g2821
sg76
(lp3122
g69
(g90
g71
NtRp3123
(dp3124
g74
(dp3125
g94
g95
ssg83
g3119
sg76
(lp3126
S'SCRIPT_NAME'
p3127
asbag69
(g90
g71
NtRp3128
(dp3129
g74
(dp3130
g101
g102
ssg83
g3119
sg76
(lp3131
S':'
asbag69
(g90
g71
NtRp3132
(dp3133
g74
(dp3134
sg83
g3119
sg76
(lp3135
g69
(g70
g71
NtRp3136
(dp3137
g74
(dp3138
g82
I3
ssg83
g3132
sg76
(lp3139
S''
asbasbasbag69
(g85
g71
NtRp3140
(dp3141
g74
(dp3142
sg83
g2821
sg76
(lp3143
g69
(g90
g71
NtRp3144
(dp3145
g74
(dp3146
g94
g95
ssg83
g3140
sg76
(lp3147
S'SERVER_NAME'
p3148
asbag69
(g90
g71
NtRp3149
(dp3150
g74
(dp3151
g101
g102
ssg83
g3140
sg76
(lp3152
S':'
asbag69
(g90
g71
NtRp3153
(dp3154
g74
(dp3155
sg83
g3140
sg76
(lp3156
g69
(g70
g71
NtRp3157
(dp3158
g74
(dp3159
g82
I3
ssg83
g3153
sg76
(lp3160
g1684
asbasbasbag69
(g85
g71
NtRp3161
(dp3162
g74
(dp3163
sg83
g2821
sg76
(lp3164
g69
(g90
g71
NtRp3165
(dp3166
g74
(dp3167
g94
g95
ssg83
g3161
sg76
(lp3168
S'SERVER_PORT'
p3169
asbag69
(g90
g71
NtRp3170
(dp3171
g74
(dp3172
g101
g102
ssg83
g3161
sg76
(lp3173
S':'
asbag69
(g90
g71
NtRp3174
(dp3175
g74
(dp3176
sg83
g3161
sg76
(lp3177
g69
(g70
g71
NtRp3178
(dp3179
g74
(dp3180
g82
I3
ssg83
g3174
sg76
(lp3181
g1706
asbasbasbag69
(g85
g71
NtRp3182
(dp3183
g74
(dp3184
sg83
g2821
sg76
(lp3185
g69
(g90
g71
NtRp3186
(dp3187
g74
(dp3188
g94
g95
ssg83
g3182
sg76
(lp3189
S'SERVER_PROTOCOL'
p3190
asbag69
(g90
g71
NtRp3191
(dp3192
g74
(dp3193
g101
g102
ssg83
g3182
sg76
(lp3194
S':'
asbag69
(g90
g71
NtRp3195
(dp3196
g74
(dp3197
sg83
g3182
sg76
(lp3198
g69
(g70
g71
NtRp3199
(dp3200
g74
(dp3201
g82
I3
ssg83
g3195
sg76
(lp3202
g1728
asbasbasbag69
(g85
g71
NtRp3203
(dp3204
g74
(dp3205
sg83
g2821
sg76
(lp3206
g69
(g90
g71
NtRp3207
(dp3208
g74
(dp3209
g94
g95
ssg83
g3203
sg76
(lp3210
S'SERVER_SOFTWARE'
p3211
asbag69
(g90
g71
NtRp3212
(dp3213
g74
(dp3214
g101
g102
ssg83
g3203
sg76
(lp3215
S':'
asbag69
(g90
g71
NtRp3216
(dp3217
g74
(dp3218
sg83
g3203
sg76
(lp3219
g69
(g70
g71
NtRp3220
(dp3221
g74
(dp3222
g82
I3
ssg83
g3216
sg76
(lp3223
g1750
asbasbasbag69
(g85
g71
NtRp3224
(dp3225
g74
(dp3226
sg83
g2821
sg76
(lp3227
g69
(g90
g71
NtRp3228
(dp3229
g74
(dp3230
g94
g95
ssg83
g3224
sg76
(lp3231
S'wsgi.errors'
p3232
asbag69
(g90
g71
NtRp3233
(dp3234
g74
(dp3235
g101
g102
ssg83
g3224
sg76
(lp3236
S':'
asbag69
(g90
g71
NtRp3237
(dp3238
g74
(dp3239
sg83
g3224
sg76
(lp3240
g69
(g70
g71
NtRp3241
(dp3242
g74
(dp3243
g82
I3
ssg83
g3237
sg76
(lp3244
S"<open file '<stderr>', mode 'w' at 0xb735e0d0>"
p3245
asbasbasbag69
(g85
g71
NtRp3246
(dp3247
g74
(dp3248
sg83
g2821
sg76
(lp3249
g69
(g90
g71
NtRp3250
(dp3251
g74
(dp3252
g94
g95
ssg83
g3246
sg76
(lp3253
S'wsgi.file_wrapper'
p3254
asbag69
(g90
g71
NtRp3255
(dp3256
g74
(dp3257
g101
g102
ssg83
g3246
sg76
(lp3258
S':'
asbag69
(g90
g71
NtRp3259
(dp3260
g74
(dp3261
sg83
g3246
sg76
(lp3262
g69
(g70
g71
NtRp3263
(dp3264
g74
(dp3265
g82
I3
ssg83
g3259
sg76
(lp3266
S'<class wsgiref.util.FileWrapper at 0x96a105c>'
p3267
asbasbasbag69
(g85
g71
NtRp3268
(dp3269
g74
(dp3270
sg83
g2821
sg76
(lp3271
g69
(g90
g71
NtRp3272
(dp3273
g74
(dp3274
g94
g95
ssg83
g3268
sg76
(lp3275
S'wsgi.input'
p3276
asbag69
(g90
g71
NtRp3277
(dp3278
g74
(dp3279
g101
g102
ssg83
g3268
sg76
(lp3280
S':'
asbag69
(g90
g71
NtRp3281
(dp3282
g74
(dp3283
sg83
g3268
sg76
(lp3284
g69
(g70
g71
NtRp3285
(dp3286
g74
(dp3287
g82
I3
ssg83
g3281
sg76
(lp3288
S'<cStringIO.StringO object at 0xae34bd40>'
p3289
asbasbasbag69
(g85
g71
NtRp3290
(dp3291
g74
(dp3292
sg83
g2821
sg76
(lp3293
g69
(g90
g71
NtRp3294
(dp3295
g74
(dp3296
g94
g95
ssg83
g3290
sg76
(lp3297
S'wsgi.multiprocess'
p3298
asbag69
(g90
g71
NtRp3299
(dp3300
g74
(dp3301
g101
g102
ssg83
g3290
sg76
(lp3302
S':'
asbag69
(g90
g71
NtRp3303
(dp3304
g74
(dp3305
sg83
g3290
sg76
(lp3306
g69
(g70
g71
NtRp3307
(dp3308
g74
(dp3309
g82
I3
ssg83
g3303
sg76
(lp3310
g112
asbasbasbag69
(g85
g71
NtRp3311
(dp3312
g74
(dp3313
sg83
g2821
sg76
(lp3314
g69
(g90
g71
NtRp3315
(dp3316
g74
(dp3317
g94
g95
ssg83
g3311
sg76
(lp3318
S'wsgi.multithread'
p3319
asbag69
(g90
g71
NtRp3320
(dp3321
g74
(dp3322
g101
g102
ssg83
g3311
sg76
(lp3323
S':'
asbag69
(g90
g71
NtRp3324
(dp3325
g74
(dp3326
sg83
g3311
sg76
(lp3327
g69
(g70
g71
NtRp3328
(dp3329
g74
(dp3330
g82
I3
ssg83
g3324
sg76
(lp3331
g1967
asbasbasbag69
(g85
g71
NtRp3332
(dp3333
g74
(dp3334
sg83
g2821
sg76
(lp3335
g69
(g90
g71
NtRp3336
(dp3337
g74
(dp3338
g94
g95
ssg83
g3332
sg76
(lp3339
S'wsgi.run_once'
p3340
asbag69
(g90
g71
NtRp3341
(dp3342
g74
(dp3343
g101
g102
ssg83
g3332
sg76
(lp3344
S':'
asbag69
(g90
g71
NtRp3345
(dp3346
g74
(dp3347
sg83
g3332
sg76
(lp3348
g69
(g70
g71
NtRp3349
(dp3350
g74
(dp3351
g82
I3
ssg83
g3345
sg76
(lp3352
g112
asbasbasbag69
(g85
g71
NtRp3353
(dp3354
g74
(dp3355
sg83
g2821
sg76
(lp3356
g69
(g90
g71
NtRp3357
(dp3358
g74
(dp3359
g94
g95
ssg83
g3353
sg76
(lp3360
S'wsgi.url_scheme'
p3361
asbag69
(g90
g71
NtRp3362
(dp3363
g74
(dp3364
g101
g102
ssg83
g3353
sg76
(lp3365
S':'
asbag69
(g90
g71
NtRp3366
(dp3367
g74
(dp3368
sg83
g3353
sg76
(lp3369
g69
(g70
g71
NtRp3370
(dp3371
g74
(dp3372
g82
I3
ssg83
g3366
sg76
(lp3373
g2010
asbasbasbag69
(g85
g71
NtRp3374
(dp3375
g74
(dp3376
sg83
g2821
sg76
(lp3377
g69
(g90
g71
NtRp3378
(dp3379
g74
(dp3380
g94
g95
ssg83
g3374
sg76
(lp3381
S'wsgi.version'
p3382
asbag69
(g90
g71
NtRp3383
(dp3384
g74
(dp3385
g101
g102
ssg83
g3374
sg76
(lp3386
S':'
asbag69
(g90
g71
NtRp3387
(dp3388
g74
(dp3389
sg83
g3374
sg76
(lp3390
g69
(g70
g71
NtRp3391
(dp3392
g74
(dp3393
g82
I3
ssg83
g3387
sg76
(lp3394
S'1'
asbasbasbasbasbasbasbasbasbasbasbasbasbsS'frames'
p3395
(lp3396
(dp3397
S'file'
p3398
S'/home/pankaj/web2py/gluon/restricted.py'
p3399
sS'dump'
p3400
(dp3401
S'code'
p3402
S"'# -*- coding: utf-8 -*-\\n# this file is released ...=crud())\\n\\nresponse._vars=response._caller(index)\\n'"
p3403
sS'layer'
p3404
S"'/home/pankaj/web2py/applications/reddit/controllers/default.py'"
p3405
sS'global compile2'
p3406
S'<function compile2>'
p3407
sS'ccode'
p3408
S'undefined'
p3409
ssS'lnum'
p3410
I211
sS'lines'
p3411
(dp3412
I206
S"    environment['__name__'] = '__restricted__'"
p3413
sI207
S'    try:'
p3414
sI208
S'        if isinstance(code, types.CodeType):'
p3415
sI209
S'            ccode = code'
p3416
sI210
S'        else:'
p3417
sI211
S'            ccode = compile2(code, layer)'
p3418
sI212
S'        exec ccode in environment'
p3419
sI213
S'    except HTTP:'
p3420
sI214
S'        raise'
p3421
sI215
S'    except RestrictedError:'
p3422
ssS'call'
p3423
S"(code='# -*- coding: utf-8 -*-\\n# this file is released ...=crud())\\n\\nresponse._vars=response._caller(index)\\n', environment={'A': <class 'gluon.html.A'>, 'Auth': <class 'gluon.tools.Auth'>, 'B': <class 'gluon.html.B'>, 'BEAUTIFY': <class 'gluon.html.BEAUTIFY'>, 'BODY': <class 'gluon.html.BODY'>, 'BR': <class 'gluon.html.BR'>, 'BUTTON': <class 'gluon.html.BUTTON'>, 'CAT': <class 'gluon.html.CAT'>, 'CENTER': <class 'gluon.html.CENTER'>, 'CLEANUP': <class 'gluon.validators.CLEANUP'>, ...}, layer='/home/pankaj/web2py/applications/reddit/controllers/default.py')"
p3424
sS'func'
p3425
S'restricted'
p3426
sa(dp3427
g3398
S'/home/pankaj/web2py/gluon/restricted.py'
p3428
sg3400
(dp3429
S'builtincompile'
p3430
S'<built-in function compile>'
p3431
sS'code'
p3432
S"'# -*- coding: utf-8 -*-\\n# this file is released ...=crud())\\n\\nresponse._vars=response._caller(index)\\n'"
p3433
sS'code.rstrip'
p3434
S'<built-in method rstrip of str object>'
p3435
sS').replace'
p3436
g3409
sS'layer'
p3437
S"'/home/pankaj/web2py/applications/reddit/controllers/default.py'"
p3438
ssg3410
I194
sg3411
(dp3439
I192
S"    The +'\\n' is necessary else compile fails when code ends in a comment."
p3440
sI193
S'    """'
p3441
sI194
S"    return compile(code.rstrip().replace('\\r\\n', '\\n') + '\\n', layer, 'exec')"
p3442
sI195
S''
sI196
S''
sI197
S"def restricted(code, environment=None, layer='Unknown'):"
p3443
sI198
S'    """'
p3444
sI189
S''
sI190
S'def compile2(code, layer):'
p3445
sI191
S'    """'
p3446
ssg3423
S"(code='# -*- coding: utf-8 -*-\\n# this file is released ...=crud())\\n\\nresponse._vars=response._caller(index)\\n', layer='/home/pankaj/web2py/applications/reddit/controllers/default.py')"
p3447
sg3425
S'compile2'
p3448
sasS'pyver'
p3449
S'Python 2.7.3: /usr/bin/python'
p3450
sS'session'
p3451
g69
(g70
g71
NtRp3452
(dp3453
g74
(dp3454
sg76
(lp3455
g69
(g78
g71
NtRp3456
(dp3457
g74
(dp3458
g82
I5
ssg83
Nsg76
(lp3459
g69
(g85
g71
NtRp3460
(dp3461
g74
(dp3462
sg83
g3456
sg76
(lp3463
g69
(g90
g71
NtRp3464
(dp3465
g74
(dp3466
g94
g95
ssg83
g3460
sg76
(lp3467
S'auth'
p3468
asbag69
(g90
g71
NtRp3469
(dp3470
g74
(dp3471
g101
g102
ssg83
g3460
sg76
(lp3472
S':'
asbag69
(g90
g71
NtRp3473
(dp3474
g74
(dp3475
sg83
g3460
sg76
(lp3476
g69
(g70
g71
NtRp3477
(dp3478
g74
(dp3479
g82
I5
ssg83
g3473
sg76
(lp3480
g69
(g78
g71
NtRp3481
(dp3482
g74
(dp3483
g82
I4
ssg83
Nsg76
(lp3484
g69
(g85
g71
NtRp3485
(dp3486
g74
(dp3487
sg83
g3481
sg76
(lp3488
g69
(g90
g71
NtRp3489
(dp3490
g74
(dp3491
g94
g95
ssg83
g3485
sg76
(lp3492
S'expiration'
p3493
asbag69
(g90
g71
NtRp3494
(dp3495
g74
(dp3496
g101
g102
ssg83
g3485
sg76
(lp3497
S':'
asbag69
(g90
g71
NtRp3498
(dp3499
g74
(dp3500
sg83
g3485
sg76
(lp3501
g69
(g70
g71
NtRp3502
(dp3503
g74
(dp3504
g82
I4
ssg83
g3498
sg76
(lp3505
S'2592000'
p3506
asbasbasbag69
(g85
g71
NtRp3507
(dp3508
g74
(dp3509
sg83
g3481
sg76
(lp3510
g69
(g90
g71
NtRp3511
(dp3512
g74
(dp3513
g94
g95
ssg83
g3507
sg76
(lp3514
S'hmac_key'
p3515
asbag69
(g90
g71
NtRp3516
(dp3517
g74
(dp3518
g101
g102
ssg83
g3507
sg76
(lp3519
S':'
asbag69
(g90
g71
NtRp3520
(dp3521
g74
(dp3522
sg83
g3507
sg76
(lp3523
g69
(g70
g71
NtRp3524
(dp3525
g74
(dp3526
g82
I4
ssg83
g3520
sg76
(lp3527
S'79797afd-14d9-4740-afa2-510ffa539618'
p3528
asbasbasbag69
(g85
g71
NtRp3529
(dp3530
g74
(dp3531
sg83
g3481
sg76
(lp3532
g69
(g90
g71
NtRp3533
(dp3534
g74
(dp3535
g94
g95
ssg83
g3529
sg76
(lp3536
S'last_visit'
p3537
asbag69
(g90
g71
NtRp3538
(dp3539
g74
(dp3540
g101
g102
ssg83
g3529
sg76
(lp3541
S':'
asbag69
(g90
g71
NtRp3542
(dp3543
g74
(dp3544
sg83
g3529
sg76
(lp3545
g69
(g70
g71
NtRp3546
(dp3547
g74
(dp3548
g82
I4
ssg83
g3542
sg76
(lp3549
S'datetime.datetime(2013, 9, 1, 10, 49, 15, 448827)'
p3550
asbasbasbag69
(g85
g71
NtRp3551
(dp3552
g74
(dp3553
sg83
g3481
sg76
(lp3554
g69
(g90
g71
NtRp3555
(dp3556
g74
(dp3557
g94
g95
ssg83
g3551
sg76
(lp3558
S'remember'
p3559
asbag69
(g90
g71
NtRp3560
(dp3561
g74
(dp3562
g101
g102
ssg83
g3551
sg76
(lp3563
S':'
asbag69
(g90
g71
NtRp3564
(dp3565
g74
(dp3566
sg83
g3551
sg76
(lp3567
g69
(g70
g71
NtRp3568
(dp3569
g74
(dp3570
g82
I4
ssg83
g3564
sg76
(lp3571
g1967
asbasbasbag69
(g85
g71
NtRp3572
(dp3573
g74
(dp3574
sg83
g3481
sg76
(lp3575
g69
(g90
g71
NtRp3576
(dp3577
g74
(dp3578
g94
g95
ssg83
g3572
sg76
(lp3579
S'user'
p3580
asbag69
(g90
g71
NtRp3581
(dp3582
g74
(dp3583
g101
g102
ssg83
g3572
sg76
(lp3584
S':'
asbag69
(g90
g71
NtRp3585
(dp3586
g74
(dp3587
sg83
g3572
sg76
(lp3588
g69
(g70
g71
NtRp3589
(dp3590
g74
(dp3591
g82
I4
ssg83
g3585
sg76
(lp3592
g69
(g78
g71
NtRp3593
(dp3594
g74
(dp3595
g82
I3
ssg83
Nsg76
(lp3596
g69
(g85
g71
NtRp3597
(dp3598
g74
(dp3599
sg83
g3593
sg76
(lp3600
g69
(g90
g71
NtRp3601
(dp3602
g74
(dp3603
g94
g95
ssg83
g3597
sg76
(lp3604
S'email'
p3605
asbag69
(g90
g71
NtRp3606
(dp3607
g74
(dp3608
g101
g102
ssg83
g3597
sg76
(lp3609
S':'
asbag69
(g90
g71
NtRp3610
(dp3611
g74
(dp3612
sg83
g3597
sg76
(lp3613
g69
(g70
g71
NtRp3614
(dp3615
g74
(dp3616
g82
I3
ssg83
g3610
sg76
(lp3617
S'pankaj@gmail.com'
p3618
asbasbasbag69
(g85
g71
NtRp3619
(dp3620
g74
(dp3621
sg83
g3593
sg76
(lp3622
g69
(g90
g71
NtRp3623
(dp3624
g74
(dp3625
g94
g95
ssg83
g3619
sg76
(lp3626
S'first_name'
p3627
asbag69
(g90
g71
NtRp3628
(dp3629
g74
(dp3630
g101
g102
ssg83
g3619
sg76
(lp3631
S':'
asbag69
(g90
g71
NtRp3632
(dp3633
g74
(dp3634
sg83
g3619
sg76
(lp3635
g69
(g70
g71
NtRp3636
(dp3637
g74
(dp3638
g82
I3
ssg83
g3632
sg76
(lp3639
S'pankaj'
p3640
asbasbasbag69
(g85
g71
NtRp3641
(dp3642
g74
(dp3643
sg83
g3593
sg76
(lp3644
g69
(g90
g71
NtRp3645
(dp3646
g74
(dp3647
g94
g95
ssg83
g3641
sg76
(lp3648
S'id'
p3649
asbag69
(g90
g71
NtRp3650
(dp3651
g74
(dp3652
g101
g102
ssg83
g3641
sg76
(lp3653
S':'
asbag69
(g90
g71
NtRp3654
(dp3655
g74
(dp3656
sg83
g3641
sg76
(lp3657
g69
(g70
g71
NtRp3658
(dp3659
g74
(dp3660
g82
I3
ssg83
g3654
sg76
(lp3661
S'1'
asbasbasbag69
(g85
g71
NtRp3662
(dp3663
g74
(dp3664
sg83
g3593
sg76
(lp3665
g69
(g90
g71
NtRp3666
(dp3667
g74
(dp3668
g94
g95
ssg83
g3662
sg76
(lp3669
S'last_name'
p3670
asbag69
(g90
g71
NtRp3671
(dp3672
g74
(dp3673
g101
g102
ssg83
g3662
sg76
(lp3674
S':'
asbag69
(g90
g71
NtRp3675
(dp3676
g74
(dp3677
sg83
g3662
sg76
(lp3678
g69
(g70
g71
NtRp3679
(dp3680
g74
(dp3681
g82
I3
ssg83
g3675
sg76
(lp3682
S'malhotra'
p3683
asbasbasbag69
(g85
g71
NtRp3684
(dp3685
g74
(dp3686
sg83
g3593
sg76
(lp3687
g69
(g90
g71
NtRp3688
(dp3689
g74
(dp3690
g94
g95
ssg83
g3684
sg76
(lp3691
S'registration_id'
p3692
asbag69
(g90
g71
NtRp3693
(dp3694
g74
(dp3695
g101
g102
ssg83
g3684
sg76
(lp3696
S':'
asbag69
(g90
g71
NtRp3697
(dp3698
g74
(dp3699
sg83
g3684
sg76
(lp3700
g69
(g70
g71
NtRp3701
(dp3702
g74
(dp3703
g82
I3
ssg83
g3697
sg76
(lp3704
S''
asbasbasbag69
(g85
g71
NtRp3705
(dp3706
g74
(dp3707
sg83
g3593
sg76
(lp3708
g69
(g90
g71
NtRp3709
(dp3710
g74
(dp3711
g94
g95
ssg83
g3705
sg76
(lp3712
S'registration_key'
p3713
asbag69
(g90
g71
NtRp3714
(dp3715
g74
(dp3716
g101
g102
ssg83
g3705
sg76
(lp3717
S':'
asbag69
(g90
g71
NtRp3718
(dp3719
g74
(dp3720
sg83
g3705
sg76
(lp3721
g69
(g70
g71
NtRp3722
(dp3723
g74
(dp3724
g82
I3
ssg83
g3718
sg76
(lp3725
S''
asbasbasbag69
(g85
g71
NtRp3726
(dp3727
g74
(dp3728
sg83
g3593
sg76
(lp3729
g69
(g90
g71
NtRp3730
(dp3731
g74
(dp3732
g94
g95
ssg83
g3726
sg76
(lp3733
S'reset_password_key'
p3734
asbag69
(g90
g71
NtRp3735
(dp3736
g74
(dp3737
g101
g102
ssg83
g3726
sg76
(lp3738
S':'
asbag69
(g90
g71
NtRp3739
(dp3740
g74
(dp3741
sg83
g3726
sg76
(lp3742
g69
(g70
g71
NtRp3743
(dp3744
g74
(dp3745
g82
I3
ssg83
g3739
sg76
(lp3746
S''
asbasbasbasbasbasbasbag69
(g85
g71
NtRp3747
(dp3748
g74
(dp3749
sg83
g3481
sg76
(lp3750
g69
(g90
g71
NtRp3751
(dp3752
g74
(dp3753
g94
g95
ssg83
g3747
sg76
(lp3754
S'user_groups'
p3755
asbag69
(g90
g71
NtRp3756
(dp3757
g74
(dp3758
g101
g102
ssg83
g3747
sg76
(lp3759
S':'
asbag69
(g90
g71
NtRp3760
(dp3761
g74
(dp3762
sg83
g3747
sg76
(lp3763
g69
(g70
g71
NtRp3764
(dp3765
g74
(dp3766
g82
I4
ssg83
g3760
sg76
(lp3767
g69
(g78
g71
NtRp3768
(dp3769
g74
(dp3770
g82
I3
ssg83
Nsg76
(lp3771
g69
(g85
g71
NtRp3772
(dp3773
g74
(dp3774
sg83
g3768
sg76
(lp3775
g69
(g90
g71
NtRp3776
(dp3777
g74
(dp3778
g94
g95
ssg83
g3772
sg76
(lp3779
S'1'
asbag69
(g90
g71
NtRp3780
(dp3781
g74
(dp3782
g101
g102
ssg83
g3772
sg76
(lp3783
S':'
asbag69
(g90
g71
NtRp3784
(dp3785
g74
(dp3786
sg83
g3772
sg76
(lp3787
g69
(g70
g71
NtRp3788
(dp3789
g74
(dp3790
g82
I3
ssg83
g3784
sg76
(lp3791
S'user_1'
p3792
asbasbasbasbasbasbasbasbasbasbasbag69
(g85
g71
NtRp3793
(dp3794
g74
(dp3795
sg83
g3456
sg76
(lp3796
g69
(g90
g71
NtRp3797
(dp3798
g74
(dp3799
g94
g95
ssg83
g3793
sg76
(lp3800
S'flash'
p3801
asbag69
(g90
g71
NtRp3802
(dp3803
g74
(dp3804
g101
g102
ssg83
g3793
sg76
(lp3805
S':'
asbag69
(g90
g71
NtRp3806
(dp3807
g74
(dp3808
sg83
g3793
sg76
(lp3809
g69
(g70
g71
NtRp3810
(dp3811
g74
(dp3812
g82
I5
ssg83
g3806
sg76
(lp3813
S'None'
p3814
asbasbasbag69
(g85
g71
NtRp3815
(dp3816
g74
(dp3817
sg83
g3456
sg76
(lp3818
g69
(g90
g71
NtRp3819
(dp3820
g74
(dp3821
g94
g95
ssg83
g3815
sg76
(lp3822
S'last_orderby'
p3823
asbag69
(g90
g71
NtRp3824
(dp3825
g74
(dp3826
g101
g102
ssg83
g3815
sg76
(lp3827
S':'
asbag69
(g90
g71
NtRp3828
(dp3829
g74
(dp3830
sg83
g3815
sg76
(lp3831
g69
(g70
g71
NtRp3832
(dp3833
g74
(dp3834
g82
I5
ssg83
g3828
sg76
(lp3835
S'None'
p3836
asbasbasbag69
(g85
g71
NtRp3837
(dp3838
g74
(dp3839
sg83
g3456
sg76
(lp3840
g69
(g90
g71
NtRp3841
(dp3842
g74
(dp3843
g94
g95
ssg83
g3837
sg76
(lp3844
S'last_query'
p3845
asbag69
(g90
g71
NtRp3846
(dp3847
g74
(dp3848
g101
g102
ssg83
g3837
sg76
(lp3849
S':'
asbag69
(g90
g71
NtRp3850
(dp3851
g74
(dp3852
sg83
g3837
sg76
(lp3853
g69
(g70
g71
NtRp3854
(dp3855
g74
(dp3856
g82
I5
ssg83
g3850
sg76
(lp3857
S'db.news.id>0'
p3858
asbasbasbag69
(g85
g71
NtRp3859
(dp3860
g74
(dp3861
sg83
g3456
sg76
(lp3862
g69
(g90
g71
NtRp3863
(dp3864
g74
(dp3865
g94
g95
ssg83
g3859
sg76
(lp3866
S'newid'
p3867
asbag69
(g90
g71
NtRp3868
(dp3869
g74
(dp3870
g101
g102
ssg83
g3859
sg76
(lp3871
S':'
asbag69
(g90
g71
NtRp3872
(dp3873
g74
(dp3874
sg83
g3859
sg76
(lp3875
g69
(g70
g71
NtRp3876
(dp3877
g74
(dp3878
g82
I5
ssg83
g3872
sg76
(lp3879
S'6'
asbasbasbag69
(g85
g71
NtRp3880
(dp3881
g74
(dp3882
sg83
g3456
sg76
(lp3883
g69
(g90
g71
NtRp3884
(dp3885
g74
(dp3886
g94
g95
ssg83
g3880
sg76
(lp3887
S'newsid'
p3888
asbag69
(g90
g71
NtRp3889
(dp3890
g74
(dp3891
g101
g102
ssg83
g3880
sg76
(lp3892
S':'
asbag69
(g90
g71
NtRp3893
(dp3894
g74
(dp3895
sg83
g3880
sg76
(lp3896
g69
(g70
g71
NtRp3897
(dp3898
g74
(dp3899
g82
I5
ssg83
g3893
sg76
(lp3900
S'6'
asbasbasbasbasbsS'etype'
p3901
S"<type 'exceptions.SyntaxError'>"
p3902
sS'date'
p3903
S'Sun Sep  1 10:55:22 2013'
p3904
sS'response'
p3905
g69
(g70
g71
NtRp3906
(dp3907
g74
(dp3908
sg76
(lp3909
g69
(g78
g71
NtRp3910
(dp3911
g74
(dp3912
g82
I5
ssg83
Nsg76
(lp3913
g69
(g85
g71
NtRp3914
(dp3915
g74
(dp3916
sg83
g3910
sg76
(lp3917
g69
(g90
g71
NtRp3918
(dp3919
g74
(dp3920
g94
g95
ssg83
g3914
sg76
(lp3921
g167
asbag69
(g90
g71
NtRp3922
(dp3923
g74
(dp3924
g101
g102
ssg83
g3914
sg76
(lp3925
S':'
asbag69
(g90
g71
NtRp3926
(dp3927
g74
(dp3928
sg83
g3914
sg76
(lp3929
g69
(g70
g71
NtRp3930
(dp3931
g74
(dp3932
g82
I5
ssg83
g3926
sg76
(lp3933
S'<cStringIO.StringO object at 0xadf75420>'
p3934
asbasbasbag69
(g85
g71
NtRp3935
(dp3936
g74
(dp3937
sg83
g3910
sg76
(lp3938
g69
(g90
g71
NtRp3939
(dp3940
g74
(dp3941
g94
g95
ssg83
g3935
sg76
(lp3942
g255
asbag69
(g90
g71
NtRp3943
(dp3944
g74
(dp3945
g101
g102
ssg83
g3935
sg76
(lp3946
S':'
asbag69
(g90
g71
NtRp3947
(dp3948
g74
(dp3949
sg83
g3935
sg76
(lp3950
g69
(g70
g71
NtRp3951
(dp3952
g74
(dp3953
g82
I5
ssg83
g3947
sg76
(lp3954
g69
(g78
g71
NtRp3955
(dp3956
g74
(dp3957
g82
I4
ssg83
Nsg76
(lp3958
g69
(g85
g71
NtRp3959
(dp3960
g74
(dp3961
sg83
g3955
sg76
(lp3962
g69
(g90
g71
NtRp3963
(dp3964
g74
(dp3965
g94
g95
ssg83
g3959
sg76
(lp3966
S'session_id_reddit'
p3967
asbag69
(g90
g71
NtRp3968
(dp3969
g74
(dp3970
g101
g102
ssg83
g3959
sg76
(lp3971
S':'
asbag69
(g90
g71
NtRp3972
(dp3973
g74
(dp3974
sg83
g3959
sg76
(lp3975
g69
(g70
g71
NtRp3976
(dp3977
g74
(dp3978
g82
I4
ssg83
g3972
sg76
(lp3979
g673
ag69
(g78
g71
NtRp3980
(dp3981
g74
(dp3982
g82
I3
ssg83
Nsg76
(lp3983
g69
(g85
g71
NtRp3984
(dp3985
g74
(dp3986
sg83
g3980
sg76
(lp3987
g69
(g90
g71
NtRp3988
(dp3989
g74
(dp3990
g94
g95
ssg83
g3984
sg76
(lp3991
g306
asbag69
(g90
g71
NtRp3992
(dp3993
g74
(dp3994
g101
g102
ssg83
g3984
sg76
(lp3995
S':'
asbag69
(g90
g71
NtRp3996
(dp3997
g74
(dp3998
sg83
g3984
sg76
(lp3999
g69
(g70
g71
NtRp4000
(dp4001
g74
(dp4002
g82
I3
ssg83
g3996
sg76
(lp4003
S''
asbasbasbag69
(g85
g71
NtRp4004
(dp4005
g74
(dp4006
sg83
g3980
sg76
(lp4007
g69
(g90
g71
NtRp4008
(dp4009
g74
(dp4010
g94
g95
ssg83
g4004
sg76
(lp4011
g327
asbag69
(g90
g71
NtRp4012
(dp4013
g74
(dp4014
g101
g102
ssg83
g4004
sg76
(lp4015
S':'
asbag69
(g90
g71
NtRp4016
(dp4017
g74
(dp4018
sg83
g4004
sg76
(lp4019
g69
(g70
g71
NtRp4020
(dp4021
g74
(dp4022
g82
I3
ssg83
g4016
sg76
(lp4023
S''
asbasbasbag69
(g85
g71
NtRp4024
(dp4025
g74
(dp4026
sg83
g3980
sg76
(lp4027
g69
(g90
g71
NtRp4028
(dp4029
g74
(dp4030
g94
g95
ssg83
g4024
sg76
(lp4031
g348
asbag69
(g90
g71
NtRp4032
(dp4033
g74
(dp4034
g101
g102
ssg83
g4024
sg76
(lp4035
S':'
asbag69
(g90
g71
NtRp4036
(dp4037
g74
(dp4038
sg83
g4024
sg76
(lp4039
g69
(g70
g71
NtRp4040
(dp4041
g74
(dp4042
g82
I3
ssg83
g4036
sg76
(lp4043
S'2592000'
p4044
asbasbasbag69
(g85
g71
NtRp4045
(dp4046
g74
(dp4047
sg83
g3980
sg76
(lp4048
g69
(g90
g71
NtRp4049
(dp4050
g74
(dp4051
g94
g95
ssg83
g4045
sg76
(lp4052
g369
asbag69
(g90
g71
NtRp4053
(dp4054
g74
(dp4055
g101
g102
ssg83
g4045
sg76
(lp4056
S':'
asbag69
(g90
g71
NtRp4057
(dp4058
g74
(dp4059
sg83
g4045
sg76
(lp4060
g69
(g70
g71
NtRp4061
(dp4062
g74
(dp4063
g82
I3
ssg83
g4057
sg76
(lp4064
S''
asbasbasbag69
(g85
g71
NtRp4065
(dp4066
g74
(dp4067
sg83
g3980
sg76
(lp4068
g69
(g90
g71
NtRp4069
(dp4070
g74
(dp4071
g94
g95
ssg83
g4065
sg76
(lp4072
g390
asbag69
(g90
g71
NtRp4073
(dp4074
g74
(dp4075
g101
g102
ssg83
g4065
sg76
(lp4076
S':'
asbag69
(g90
g71
NtRp4077
(dp4078
g74
(dp4079
sg83
g4065
sg76
(lp4080
g69
(g70
g71
NtRp4081
(dp4082
g74
(dp4083
g82
I3
ssg83
g4077
sg76
(lp4084
S''
asbasbasbag69
(g85
g71
NtRp4085
(dp4086
g74
(dp4087
sg83
g3980
sg76
(lp4088
g69
(g90
g71
NtRp4089
(dp4090
g74
(dp4091
g94
g95
ssg83
g4085
sg76
(lp4092
g411
asbag69
(g90
g71
NtRp4093
(dp4094
g74
(dp4095
g101
g102
ssg83
g4085
sg76
(lp4096
S':'
asbag69
(g90
g71
NtRp4097
(dp4098
g74
(dp4099
sg83
g4085
sg76
(lp4100
g69
(g70
g71
NtRp4101
(dp4102
g74
(dp4103
g82
I3
ssg83
g4097
sg76
(lp4104
S'/'
asbasbasbag69
(g85
g71
NtRp4105
(dp4106
g74
(dp4107
sg83
g3980
sg76
(lp4108
g69
(g90
g71
NtRp4109
(dp4110
g74
(dp4111
g94
g95
ssg83
g4105
sg76
(lp4112
g432
asbag69
(g90
g71
NtRp4113
(dp4114
g74
(dp4115
g101
g102
ssg83
g4105
sg76
(lp4116
S':'
asbag69
(g90
g71
NtRp4117
(dp4118
g74
(dp4119
sg83
g4105
sg76
(lp4120
g69
(g70
g71
NtRp4121
(dp4122
g74
(dp4123
g82
I3
ssg83
g4117
sg76
(lp4124
S''
asbasbasbag69
(g85
g71
NtRp4125
(dp4126
g74
(dp4127
sg83
g3980
sg76
(lp4128
g69
(g90
g71
NtRp4129
(dp4130
g74
(dp4131
g94
g95
ssg83
g4125
sg76
(lp4132
g453
asbag69
(g90
g71
NtRp4133
(dp4134
g74
(dp4135
g101
g102
ssg83
g4125
sg76
(lp4136
S':'
asbag69
(g90
g71
NtRp4137
(dp4138
g74
(dp4139
sg83
g4125
sg76
(lp4140
g69
(g70
g71
NtRp4141
(dp4142
g74
(dp4143
g82
I3
ssg83
g4137
sg76
(lp4144
S''
asbasbasbasbasbasbasbasbasbasbasbag69
(g85
g71
NtRp4145
(dp4146
g74
(dp4147
sg83
g3910
sg76
(lp4148
g69
(g90
g71
NtRp4149
(dp4150
g74
(dp4151
g94
g95
ssg83
g4145
sg76
(lp4152
S'delimiters'
p4153
asbag69
(g90
g71
NtRp4154
(dp4155
g74
(dp4156
g101
g102
ssg83
g4145
sg76
(lp4157
S':'
asbag69
(g90
g71
NtRp4158
(dp4159
g74
(dp4160
sg83
g4145
sg76
(lp4161
g69
(g70
g71
NtRp4162
(dp4163
g74
(dp4164
g82
I5
ssg83
g4158
sg76
(lp4165
g69
(g78
g71
NtRp4166
(dp4167
g74
(dp4168
g82
I4
ssg83
Nsg76
(lp4169
g69
(g85
g71
NtRp4170
(dp4171
g74
(dp4172
sg83
g4166
sg76
(lp4173
g69
(g90
g71
NtRp4174
(dp4175
g74
(dp4176
sg83
g4170
sg76
(lp4177
g69
(g70
g71
NtRp4178
(dp4179
g74
(dp4180
g82
I4
ssg83
g4174
sg76
(lp4181
S'{{'
p4182
asbasbasbag69
(g85
g71
NtRp4183
(dp4184
g74
(dp4185
sg83
g4166
sg76
(lp4186
g69
(g90
g71
NtRp4187
(dp4188
g74
(dp4189
sg83
g4183
sg76
(lp4190
g69
(g70
g71
NtRp4191
(dp4192
g74
(dp4193
g82
I4
ssg83
g4187
sg76
(lp4194
S'}}'
p4195
asbasbasbasbasbasbasbag69
(g85
g71
NtRp4196
(dp4197
g74
(dp4198
sg83
g3910
sg76
(lp4199
g69
(g90
g71
NtRp4200
(dp4201
g74
(dp4202
g94
g95
ssg83
g4196
sg76
(lp4203
S'files'
p4204
asbag69
(g90
g71
NtRp4205
(dp4206
g74
(dp4207
g101
g102
ssg83
g4196
sg76
(lp4208
S':'
asbag69
(g90
g71
NtRp4209
(dp4210
g74
(dp4211
sg83
g4196
sg76
(lp4212
g69
(g70
g71
NtRp4213
(dp4214
g74
(dp4215
g82
I5
ssg83
g4209
sg76
(lp4216
g69
(g78
g71
NtRp4217
(dp4218
g74
(dp4219
g82
I4
ssg83
Nsg76
(lp4220
sbasbasbasbag69
(g85
g71
NtRp4221
(dp4222
g74
(dp4223
sg83
g3910
sg76
(lp4224
g69
(g90
g71
NtRp4225
(dp4226
g74
(dp4227
g94
g95
ssg83
g4221
sg76
(lp4228
S'flash'
p4229
asbag69
(g90
g71
NtRp4230
(dp4231
g74
(dp4232
g101
g102
ssg83
g4221
sg76
(lp4233
S':'
asbag69
(g90
g71
NtRp4234
(dp4235
g74
(dp4236
sg83
g4221
sg76
(lp4237
g69
(g70
g71
NtRp4238
(dp4239
g74
(dp4240
g82
I5
ssg83
g4234
sg76
(lp4241
S''
asbasbasbag69
(g85
g71
NtRp4242
(dp4243
g74
(dp4244
sg83
g3910
sg76
(lp4245
g69
(g90
g71
NtRp4246
(dp4247
g74
(dp4248
g94
g95
ssg83
g4242
sg76
(lp4249
S'generic_patterns'
p4250
asbag69
(g90
g71
NtRp4251
(dp4252
g74
(dp4253
g101
g102
ssg83
g4242
sg76
(lp4254
S':'
asbag69
(g90
g71
NtRp4255
(dp4256
g74
(dp4257
sg83
g4242
sg76
(lp4258
g69
(g70
g71
NtRp4259
(dp4260
g74
(dp4261
g82
I5
ssg83
g4255
sg76
(lp4262
g69
(g78
g71
NtRp4263
(dp4264
g74
(dp4265
g82
I4
ssg83
Nsg76
(lp4266
g69
(g85
g71
NtRp4267
(dp4268
g74
(dp4269
sg83
g4263
sg76
(lp4270
g69
(g90
g71
NtRp4271
(dp4272
g74
(dp4273
sg83
g4267
sg76
(lp4274
g69
(g70
g71
NtRp4275
(dp4276
g74
(dp4277
g82
I4
ssg83
g4271
sg76
(lp4278
S'*'
asbasbasbasbasbasbasbag69
(g85
g71
NtRp4279
(dp4280
g74
(dp4281
sg83
g3910
sg76
(lp4282
g69
(g90
g71
NtRp4283
(dp4284
g74
(dp4285
g94
g95
ssg83
g4279
sg76
(lp4286
S'google_analytics_id'
p4287
asbag69
(g90
g71
NtRp4288
(dp4289
g74
(dp4290
g101
g102
ssg83
g4279
sg76
(lp4291
S':'
asbag69
(g90
g71
NtRp4292
(dp4293
g74
(dp4294
sg83
g4279
sg76
(lp4295
g69
(g70
g71
NtRp4296
(dp4297
g74
(dp4298
g82
I5
ssg83
g4292
sg76
(lp4299
S'None'
p4300
asbasbasbag69
(g85
g71
NtRp4301
(dp4302
g74
(dp4303
sg83
g3910
sg76
(lp4304
g69
(g90
g71
NtRp4305
(dp4306
g74
(dp4307
g94
g95
ssg83
g4301
sg76
(lp4308
S'headers'
p4309
asbag69
(g90
g71
NtRp4310
(dp4311
g74
(dp4312
g101
g102
ssg83
g4301
sg76
(lp4313
S':'
asbag69
(g90
g71
NtRp4314
(dp4315
g74
(dp4316
sg83
g4301
sg76
(lp4317
g69
(g70
g71
NtRp4318
(dp4319
g74
(dp4320
g82
I5
ssg83
g4314
sg76
(lp4321
g69
(g78
g71
NtRp4322
(dp4323
g74
(dp4324
g82
I4
ssg83
Nsg76
(lp4325
g69
(g85
g71
NtRp4326
(dp4327
g74
(dp4328
sg83
g4322
sg76
(lp4329
g69
(g90
g71
NtRp4330
(dp4331
g74
(dp4332
g94
g95
ssg83
g4326
sg76
(lp4333
S'X-Powered-By'
p4334
asbag69
(g90
g71
NtRp4335
(dp4336
g74
(dp4337
g101
g102
ssg83
g4326
sg76
(lp4338
S':'
asbag69
(g90
g71
NtRp4339
(dp4340
g74
(dp4341
sg83
g4326
sg76
(lp4342
g69
(g70
g71
NtRp4343
(dp4344
g74
(dp4345
g82
I4
ssg83
g4339
sg76
(lp4346
S'web2py'
p4347
asbasbasbasbasbasbasbag69
(g85
g71
NtRp4348
(dp4349
g74
(dp4350
sg83
g3910
sg76
(lp4351
g69
(g90
g71
NtRp4352
(dp4353
g74
(dp4354
g94
g95
ssg83
g4348
sg76
(lp4355
S'logo'
p4356
asbag69
(g90
g71
NtRp4357
(dp4358
g74
(dp4359
g101
g102
ssg83
g4348
sg76
(lp4360
S':'
asbag69
(g90
g71
NtRp4361
(dp4362
g74
(dp4363
sg83
g4348
sg76
(lp4364
g69
(g70
g71
NtRp4365
(dp4366
g74
(dp4367
g82
I5
ssg83
g4361
sg76
(lp4368
g69
(cgluon.html
A
p4369
g71
NtRp4370
(dp4371
g74
(dp4372
S'_class'
p4373
S'brand'
p4374
sS'_href'
p4375
S'http://www.web2py.com/'
p4376
ssg83
Nsg76
(lp4377
g69
(cgluon.html
B
p4378
g71
NtRp4379
(dp4380
g74
(dp4381
sg83
g4370
sg76
(lp4382
S'web'
p4383
ag69
(cgluon.html
SPAN
p4384
g71
NtRp4385
(dp4386
g74
(dp4387
sg83
g4379
sg76
(lp4388
I2
asbaS'py'
p4389
asbacgluon.html
XML_unpickle
p4390
(S's\r\x00\x00\x00&trade;&nbsp;'
tRp4391
asbasbasbasbag69
(g85
g71
NtRp4392
(dp4393
g74
(dp4394
sg83
g3910
sg76
(lp4395
g69
(g90
g71
NtRp4396
(dp4397
g74
(dp4398
g94
g95
ssg83
g4392
sg76
(lp4399
S'menu'
p4400
asbag69
(g90
g71
NtRp4401
(dp4402
g74
(dp4403
g101
g102
ssg83
g4392
sg76
(lp4404
S':'
asbag69
(g90
g71
NtRp4405
(dp4406
g74
(dp4407
sg83
g4392
sg76
(lp4408
g69
(g70
g71
NtRp4409
(dp4410
g74
(dp4411
g82
I5
ssg83
g4405
sg76
(lp4412
g69
(g78
g71
NtRp4413
(dp4414
g74
(dp4415
g82
I4
ssg83
Nsg76
(lp4416
g69
(g85
g71
NtRp4417
(dp4418
g74
(dp4419
sg83
g4413
sg76
(lp4420
g69
(g90
g71
NtRp4421
(dp4422
g74
(dp4423
sg83
g4417
sg76
(lp4424
g69
(g70
g71
NtRp4425
(dp4426
g74
(dp4427
g82
I4
ssg83
g4421
sg76
(lp4428
g69
(g78
g71
NtRp4429
(dp4430
g74
(dp4431
g82
I3
ssg83
Nsg76
(lp4432
g69
(g85
g71
NtRp4433
(dp4434
g74
(dp4435
sg83
g4429
sg76
(lp4436
g69
(g90
g71
NtRp4437
(dp4438
g74
(dp4439
sg83
g4433
sg76
(lp4440
g69
(g70
g71
NtRp4441
(dp4442
g74
(dp4443
g82
I3
ssg83
g4437
sg76
(lp4444
cgluon.languages
lazyT_unpickle
p4445
(S's\x04\x00\x00\x00Home'
tRp4446
asbasbasbag69
(g85
g71
NtRp4447
(dp4448
g74
(dp4449
sg83
g4429
sg76
(lp4450
g69
(g90
g71
NtRp4451
(dp4452
g74
(dp4453
sg83
g4447
sg76
(lp4454
g69
(g70
g71
NtRp4455
(dp4456
g74
(dp4457
g82
I3
ssg83
g4451
sg76
(lp4458
g112
asbasbasbag69
(g85
g71
NtRp4459
(dp4460
g74
(dp4461
sg83
g4429
sg76
(lp4462
g69
(g90
g71
NtRp4463
(dp4464
g74
(dp4465
sg83
g4459
sg76
(lp4466
g69
(g70
g71
NtRp4467
(dp4468
g74
(dp4469
g82
I3
ssg83
g4463
sg76
(lp4470
S'/reddit/default/index'
p4471
asbasbasbag69
(g85
g71
NtRp4472
(dp4473
g74
(dp4474
sg83
g4429
sg76
(lp4475
g69
(g90
g71
NtRp4476
(dp4477
g74
(dp4478
sg83
g4472
sg76
(lp4479
g69
(g70
g71
NtRp4480
(dp4481
g74
(dp4482
g82
I3
ssg83
g4476
sg76
(lp4483
g69
(g78
g71
NtRp4484
(dp4485
g74
(dp4486
g82
I2
ssg83
Nsg76
(lp4487
sbasbasbasbasbasbasbasbag69
(g85
g71
NtRp4488
(dp4489
g74
(dp4490
sg83
g4413
sg76
(lp4491
g69
(g90
g71
NtRp4492
(dp4493
g74
(dp4494
sg83
g4488
sg76
(lp4495
g69
(g70
g71
NtRp4496
(dp4497
g74
(dp4498
g82
I4
ssg83
g4492
sg76
(lp4499
g69
(g78
g71
NtRp4500
(dp4501
g74
(dp4502
g82
I3
ssg83
Nsg76
(lp4503
g69
(g85
g71
NtRp4504
(dp4505
g74
(dp4506
sg83
g4500
sg76
(lp4507
g69
(g90
g71
NtRp4508
(dp4509
g74
(dp4510
sg83
g4504
sg76
(lp4511
g69
(g70
g71
NtRp4512
(dp4513
g74
(dp4514
g82
I3
ssg83
g4508
sg76
(lp4515
g69
(g4384
g71
NtRp4516
(dp4517
g74
(dp4518
g4373
S'highlighted'
p4519
ssg83
Nsg76
(lp4520
g4347
asbasbasbasbag69
(g85
g71
NtRp4521
(dp4522
g74
(dp4523
sg83
g4500
sg76
(lp4524
g69
(g90
g71
NtRp4525
(dp4526
g74
(dp4527
sg83
g4521
sg76
(lp4528
g69
(g70
g71
NtRp4529
(dp4530
g74
(dp4531
g82
I3
ssg83
g4525
sg76
(lp4532
g112
asbasbasbag69
(g85
g71
NtRp4533
(dp4534
g74
(dp4535
sg83
g4500
sg76
(lp4536
g69
(g90
g71
NtRp4537
(dp4538
g74
(dp4539
sg83
g4533
sg76
(lp4540
g69
(g70
g71
NtRp4541
(dp4542
g74
(dp4543
g82
I3
ssg83
g4537
sg76
(lp4544
S'http://web2py.com'
p4545
asbasbasbag69
(g85
g71
NtRp4546
(dp4547
g74
(dp4548
sg83
g4500
sg76
(lp4549
g69
(g90
g71
NtRp4550
(dp4551
g74
(dp4552
sg83
g4546
sg76
(lp4553
g69
(g70
g71
NtRp4554
(dp4555
g74
(dp4556
g82
I3
ssg83
g4550
sg76
(lp4557
g69
(g78
g71
NtRp4558
(dp4559
g74
(dp4560
g82
I2
ssg83
Nsg76
(lp4561
g69
(g85
g71
NtRp4562
(dp4563
g74
(dp4564
sg83
g4558
sg76
(lp4565
g69
(g90
g71
NtRp4566
(dp4567
g74
(dp4568
sg83
g4562
sg76
(lp4569
g69
(g70
g71
NtRp4570
(dp4571
g74
(dp4572
g82
I2
ssg83
g4566
sg76
(lp4573
g69
(g78
g71
NtRp4574
(dp4575
g74
(dp4576
g82
I1
ssg83
Nsg76
(lp4577
g69
(g85
g71
NtRp4578
(dp4579
g74
(dp4580
sg83
g4574
sg76
(lp4581
g69
(g90
g71
NtRp4582
(dp4583
g74
(dp4584
sg83
g4578
sg76
(lp4585
g69
(g70
g71
NtRp4586
(dp4587
g74
(dp4588
g82
I1
ssg83
g4582
sg76
(lp4589
g4445
(S's\x08\x00\x00\x00My Sites'
tRp4590
asbasbasbag69
(g85
g71
NtRp4591
(dp4592
g74
(dp4593
sg83
g4574
sg76
(lp4594
g69
(g90
g71
NtRp4595
(dp4596
g74
(dp4597
sg83
g4591
sg76
(lp4598
g69
(g70
g71
NtRp4599
(dp4600
g74
(dp4601
g82
I1
ssg83
g4595
sg76
(lp4602
I00
asbasbasbag69
(g85
g71
NtRp4603
(dp4604
g74
(dp4605
sg83
g4574
sg76
(lp4606
g69
(g90
g71
NtRp4607
(dp4608
g74
(dp4609
sg83
g4603
sg76
(lp4610
g69
(g70
g71
NtRp4611
(dp4612
g74
(dp4613
g82
I1
ssg83
g4607
sg76
(lp4614
S'/admin/default/site'
p4615
asbasbasbasbasbasbasbag69
(g85
g71
NtRp4616
(dp4617
g74
(dp4618
sg83
g4558
sg76
(lp4619
g69
(g90
g71
NtRp4620
(dp4621
g74
(dp4622
sg83
g4616
sg76
(lp4623
g69
(g70
g71
NtRp4624
(dp4625
g74
(dp4626
g82
I2
ssg83
g4620
sg76
(lp4627
g69
(g78
g71
NtRp4628
(dp4629
g74
(dp4630
g82
I1
ssg83
Nsg76
(lp4631
g69
(g85
g71
NtRp4632
(dp4633
g74
(dp4634
sg83
g4628
sg76
(lp4635
g69
(g90
g71
NtRp4636
(dp4637
g74
(dp4638
sg83
g4632
sg76
(lp4639
g69
(g70
g71
NtRp4640
(dp4641
g74
(dp4642
g82
I1
ssg83
g4636
sg76
(lp4643
g4445
(S's\x08\x00\x00\x00This App'
tRp4644
asbasbasbag69
(g85
g71
NtRp4645
(dp4646
g74
(dp4647
sg83
g4628
sg76
(lp4648
g69
(g90
g71
NtRp4649
(dp4650
g74
(dp4651
sg83
g4645
sg76
(lp4652
g69
(g70
g71
NtRp4653
(dp4654
g74
(dp4655
g82
I1
ssg83
g4649
sg76
(lp4656
I00
asbasbasbag69
(g85
g71
NtRp4657
(dp4658
g74
(dp4659
sg83
g4628
sg76
(lp4660
g69
(g90
g71
NtRp4661
(dp4662
g74
(dp4663
sg83
g4657
sg76
(lp4664
g69
(g70
g71
NtRp4665
(dp4666
g74
(dp4667
g82
I1
ssg83
g4661
sg76
(lp4668
S'/admin/default/design/reddit'
p4669
asbasbasbag69
(g85
g71
NtRp4670
(dp4671
g74
(dp4672
sg83
g4628
sg76
(lp4673
g69
(g90
g71
NtRp4674
(dp4675
g74
(dp4676
sg83
g4670
sg76
(lp4677
g69
(g70
g71
NtRp4678
(dp4679
g74
(dp4680
g82
I1
ssg83
g4674
sg76
(lp4681
(lp4682
(g4445
(S's\n\x00\x00\x00Controller'
tRp4683
I00
S'/admin/default/edit/reddit/controllers/default.py'
tp4684
a(g4445
(S's\x04\x00\x00\x00View'
tRp4685
I00
S'/admin/default/edit/reddit/views/default/index.html'
tp4686
a(g4445
(S's\x06\x00\x00\x00Layout'
tRp4687
I00
S'/admin/default/edit/reddit/views/layout.html'
tp4688
a(g4445
(S's\n\x00\x00\x00Stylesheet'
tRp4689
I00
S'/admin/default/edit/reddit/static/css/web2py.css'
tp4690
a(g4445
(S's\x08\x00\x00\x00DB Model'
tRp4691
I00
S'/admin/default/edit/reddit/models/db.py'
tp4692
a(g4445
(S's\n\x00\x00\x00Menu Model'
tRp4693
I00
S'/admin/default/edit/reddit/models/menu.py'
tp4694
a(g4445
(S's\x08\x00\x00\x00Database'
tRp4695
I00
S'/reddit/appadmin/index'
tp4696
a(g4445
(S's\x06\x00\x00\x00Errors'
tRp4697
I00
S'/admin/default/errors/reddit'
tp4698
a(g4445
(S's\x05\x00\x00\x00About'
tRp4699
I00
S'/admin/default/about/reddit'
tp4700
aasbasbasbasbasbasbasbag69
(g85
g71
NtRp4701
(dp4702
g74
(dp4703
sg83
g4558
sg76
(lp4704
g69
(g90
g71
NtRp4705
(dp4706
g74
(dp4707
sg83
g4701
sg76
(lp4708
g69
(g70
g71
NtRp4709
(dp4710
g74
(dp4711
g82
I2
ssg83
g4705
sg76
(lp4712
g69
(g78
g71
NtRp4713
(dp4714
g74
(dp4715
g82
I1
ssg83
Nsg76
(lp4716
g69
(g85
g71
NtRp4717
(dp4718
g74
(dp4719
sg83
g4713
sg76
(lp4720
g69
(g90
g71
NtRp4721
(dp4722
g74
(dp4723
sg83
g4717
sg76
(lp4724
g69
(g70
g71
NtRp4725
(dp4726
g74
(dp4727
g82
I1
ssg83
g4721
sg76
(lp4728
S'web2py.com'
p4729
asbasbasbag69
(g85
g71
NtRp4730
(dp4731
g74
(dp4732
sg83
g4713
sg76
(lp4733
g69
(g90
g71
NtRp4734
(dp4735
g74
(dp4736
sg83
g4730
sg76
(lp4737
g69
(g70
g71
NtRp4738
(dp4739
g74
(dp4740
g82
I1
ssg83
g4734
sg76
(lp4741
I00
asbasbasbag69
(g85
g71
NtRp4742
(dp4743
g74
(dp4744
sg83
g4713
sg76
(lp4745
g69
(g90
g71
NtRp4746
(dp4747
g74
(dp4748
sg83
g4742
sg76
(lp4749
g69
(g70
g71
NtRp4750
(dp4751
g74
(dp4752
g82
I1
ssg83
g4746
sg76
(lp4753
S'http://www.web2py.com'
p4754
asbasbasbag69
(g85
g71
NtRp4755
(dp4756
g74
(dp4757
sg83
g4713
sg76
(lp4758
g69
(g90
g71
NtRp4759
(dp4760
g74
(dp4761
sg83
g4755
sg76
(lp4762
g69
(g70
g71
NtRp4763
(dp4764
g74
(dp4765
g82
I1
ssg83
g4759
sg76
(lp4766
(lp4767
(g4445
(S's\x08\x00\x00\x00Download'
tRp4768
I00
S'http://www.web2py.com/examples/default/download'
p4769
tp4770
a(g4445
(S's\x07\x00\x00\x00Support'
tRp4771
I00
S'http://www.web2py.com/examples/default/support'
p4772
tp4773
a(g4445
(S's\x04\x00\x00\x00Demo'
tRp4774
I00
S'http://web2py.com/demo_admin'
p4775
tp4776
a(g4445
(S's\x0e\x00\x00\x00Quick Examples'
tRp4777
I00
S'http://web2py.com/examples/default/examples'
p4778
tp4779
a(g4445
(S's\x03\x00\x00\x00FAQ'
tRp4780
I00
S'http://web2py.com/AlterEgo'
p4781
tp4782
a(g4445
(S's\x06\x00\x00\x00Videos'
tRp4783
I00
S'http://www.web2py.com/examples/default/videos/'
p4784
tp4785
a(g4445
(S's\x11\x00\x00\x00Free Applications'
tRp4786
I00
S'http://web2py.com/appliances'
p4787
tp4788
a(g4445
(S's\x07\x00\x00\x00Plugins'
tRp4789
I00
S'http://web2py.com/plugins'
p4790
tp4791
a(g4445
(S's\x07\x00\x00\x00Layouts'
tRp4792
I00
S'http://web2py.com/layouts'
p4793
tp4794
a(g4445
(S's\x07\x00\x00\x00Recipes'
tRp4795
I00
S'http://web2pyslices.com/'
p4796
tp4797
a(g4445
(S's\x08\x00\x00\x00Semantic'
tRp4798
I00
S'http://web2py.com/semantic'
p4799
tp4800
aasbasbasbasbasbasbasbag69
(g85
g71
NtRp4801
(dp4802
g74
(dp4803
sg83
g4558
sg76
(lp4804
g69
(g90
g71
NtRp4805
(dp4806
g74
(dp4807
sg83
g4801
sg76
(lp4808
g69
(g70
g71
NtRp4809
(dp4810
g74
(dp4811
g82
I2
ssg83
g4805
sg76
(lp4812
g69
(g78
g71
NtRp4813
(dp4814
g74
(dp4815
g82
I1
ssg83
Nsg76
(lp4816
g69
(g85
g71
NtRp4817
(dp4818
g74
(dp4819
sg83
g4813
sg76
(lp4820
g69
(g90
g71
NtRp4821
(dp4822
g74
(dp4823
sg83
g4817
sg76
(lp4824
g69
(g70
g71
NtRp4825
(dp4826
g74
(dp4827
g82
I1
ssg83
g4821
sg76
(lp4828
g4445
(S's\r\x00\x00\x00Documentation'
tRp4829
asbasbasbag69
(g85
g71
NtRp4830
(dp4831
g74
(dp4832
sg83
g4813
sg76
(lp4833
g69
(g90
g71
NtRp4834
(dp4835
g74
(dp4836
sg83
g4830
sg76
(lp4837
g69
(g70
g71
NtRp4838
(dp4839
g74
(dp4840
g82
I1
ssg83
g4834
sg76
(lp4841
I00
asbasbasbag69
(g85
g71
NtRp4842
(dp4843
g74
(dp4844
sg83
g4813
sg76
(lp4845
g69
(g90
g71
NtRp4846
(dp4847
g74
(dp4848
sg83
g4842
sg76
(lp4849
g69
(g70
g71
NtRp4850
(dp4851
g74
(dp4852
g82
I1
ssg83
g4846
sg76
(lp4853
S'http://www.web2py.com/book'
p4854
asbasbasbag69
(g85
g71
NtRp4855
(dp4856
g74
(dp4857
sg83
g4813
sg76
(lp4858
g69
(g90
g71
NtRp4859
(dp4860
g74
(dp4861
sg83
g4855
sg76
(lp4862
g69
(g70
g71
NtRp4863
(dp4864
g74
(dp4865
g82
I1
ssg83
g4859
sg76
(lp4866
(lp4867
(g4445
(S's\x07\x00\x00\x00Preface'
tRp4868
I00
S'http://www.web2py.com/book/default/chapter/00'
p4869
tp4870
a(g4445
(S's\x0c\x00\x00\x00Introduction'
tRp4871
I00
S'http://www.web2py.com/book/default/chapter/01'
p4872
tp4873
a(g4445
(S's\x06\x00\x00\x00Python'
tRp4874
I00
S'http://www.web2py.com/book/default/chapter/02'
p4875
tp4876
a(g4445
(S's\x08\x00\x00\x00Overview'
tRp4877
I00
S'http://www.web2py.com/book/default/chapter/03'
p4878
tp4879
a(g4445
(S's\x08\x00\x00\x00The Core'
tRp4880
I00
S'http://www.web2py.com/book/default/chapter/04'
p4881
tp4882
a(g4445
(S's\t\x00\x00\x00The Views'
tRp4883
I00
S'http://www.web2py.com/book/default/chapter/05'
p4884
tp4885
a(g4445
(S's\x08\x00\x00\x00Database'
tRp4886
I00
S'http://www.web2py.com/book/default/chapter/06'
p4887
tp4888
a(g4445
(S's\x14\x00\x00\x00Forms and Validators'
tRp4889
I00
S'http://www.web2py.com/book/default/chapter/07'
p4890
tp4891
a(g4445
(S's\r\x00\x00\x00Email and SMS'
tRp4892
I00
S'http://www.web2py.com/book/default/chapter/08'
p4893
tp4894
a(g4445
(S's\x0e\x00\x00\x00Access Control'
tRp4895
I00
S'http://www.web2py.com/book/default/chapter/09'
p4896
tp4897
a(g4445
(S's\x08\x00\x00\x00Services'
tRp4898
I00
S'http://www.web2py.com/book/default/chapter/10'
p4899
tp4900
a(g4445
(S's\x0c\x00\x00\x00Ajax Recipes'
tRp4901
I00
S'http://www.web2py.com/book/default/chapter/11'
p4902
tp4903
a(g4445
(S's\x16\x00\x00\x00Components and Plugins'
tRp4904
I00
S'http://www.web2py.com/book/default/chapter/12'
p4905
tp4906
a(g4445
(S's\x12\x00\x00\x00Deployment Recipes'
tRp4907
I00
S'http://www.web2py.com/book/default/chapter/13'
p4908
tp4909
a(g4445
(S's\r\x00\x00\x00Other Recipes'
tRp4910
I00
S'http://www.web2py.com/book/default/chapter/14'
p4911
tp4912
a(g4445
(S's\r\x00\x00\x00Buy this book'
tRp4913
I00
S'http://stores.lulu.com/web2py'
p4914
tp4915
aasbasbasbasbasbasbasbag69
(g85
g71
NtRp4916
(dp4917
g74
(dp4918
sg83
g4558
sg76
(lp4919
g69
(g90
g71
NtRp4920
(dp4921
g74
(dp4922
sg83
g4916
sg76
(lp4923
g69
(g70
g71
NtRp4924
(dp4925
g74
(dp4926
g82
I2
ssg83
g4920
sg76
(lp4927
g69
(g78
g71
NtRp4928
(dp4929
g74
(dp4930
g82
I1
ssg83
Nsg76
(lp4931
g69
(g85
g71
NtRp4932
(dp4933
g74
(dp4934
sg83
g4928
sg76
(lp4935
g69
(g90
g71
NtRp4936
(dp4937
g74
(dp4938
sg83
g4932
sg76
(lp4939
g69
(g70
g71
NtRp4940
(dp4941
g74
(dp4942
g82
I1
ssg83
g4936
sg76
(lp4943
g4445
(S's\t\x00\x00\x00Community'
tRp4944
asbasbasbag69
(g85
g71
NtRp4945
(dp4946
g74
(dp4947
sg83
g4928
sg76
(lp4948
g69
(g90
g71
NtRp4949
(dp4950
g74
(dp4951
sg83
g4945
sg76
(lp4952
g69
(g70
g71
NtRp4953
(dp4954
g74
(dp4955
g82
I1
ssg83
g4949
sg76
(lp4956
I00
asbasbasbag69
(g85
g71
NtRp4957
(dp4958
g74
(dp4959
sg83
g4928
sg76
(lp4960
g69
(g90
g71
NtRp4961
(dp4962
g74
(dp4963
sg83
g4957
sg76
(lp4964
g69
(g70
g71
NtRp4965
(dp4966
g74
(dp4967
g82
I1
ssg83
g4961
sg76
(lp4968
Nasbasbasbag69
(g85
g71
NtRp4969
(dp4970
g74
(dp4971
sg83
g4928
sg76
(lp4972
g69
(g90
g71
NtRp4973
(dp4974
g74
(dp4975
sg83
g4969
sg76
(lp4976
g69
(g70
g71
NtRp4977
(dp4978
g74
(dp4979
g82
I1
ssg83
g4973
sg76
(lp4980
(lp4981
(g4445
(S's\x06\x00\x00\x00Groups'
tRp4982
I00
S'http://www.web2py.com/examples/default/usergroups'
p4983
tp4984
a(g4445
(S's\x07\x00\x00\x00Twitter'
tRp4985
I00
S'http://twitter.com/web2py'
p4986
tp4987
a(g4445
(S's\t\x00\x00\x00Live Chat'
tRp4988
I00
S'http://webchat.freenode.net/?channels=web2py'
p4989
tp4990
aasbasbasbasbasbasbasbag69
(g85
g71
NtRp4991
(dp4992
g74
(dp4993
sg83
g4558
sg76
(lp4994
g69
(g90
g71
NtRp4995
(dp4996
g74
(dp4997
sg83
g4991
sg76
(lp4998
g69
(g70
g71
NtRp4999
(dp5000
g74
(dp5001
g82
I2
ssg83
g4995
sg76
(lp5002
g69
(g78
g71
NtRp5003
(dp5004
g74
(dp5005
g82
I1
ssg83
Nsg76
(lp5006
g69
(g85
g71
NtRp5007
(dp5008
g74
(dp5009
sg83
g5003
sg76
(lp5010
g69
(g90
g71
NtRp5011
(dp5012
g74
(dp5013
sg83
g5007
sg76
(lp5014
g69
(g70
g71
NtRp5015
(dp5016
g74
(dp5017
g82
I1
ssg83
g5011
sg76
(lp5018
g4445
(S's\x07\x00\x00\x00Plugins'
tRp5019
asbasbasbag69
(g85
g71
NtRp5020
(dp5021
g74
(dp5022
sg83
g5003
sg76
(lp5023
g69
(g90
g71
NtRp5024
(dp5025
g74
(dp5026
sg83
g5020
sg76
(lp5027
g69
(g70
g71
NtRp5028
(dp5029
g74
(dp5030
g82
I1
ssg83
g5024
sg76
(lp5031
I00
asbasbasbag69
(g85
g71
NtRp5032
(dp5033
g74
(dp5034
sg83
g5003
sg76
(lp5035
g69
(g90
g71
NtRp5036
(dp5037
g74
(dp5038
sg83
g5032
sg76
(lp5039
g69
(g70
g71
NtRp5040
(dp5041
g74
(dp5042
g82
I1
ssg83
g5036
sg76
(lp5043
Nasbasbasbag69
(g85
g71
NtRp5044
(dp5045
g74
(dp5046
sg83
g5003
sg76
(lp5047
g69
(g90
g71
NtRp5048
(dp5049
g74
(dp5050
sg83
g5044
sg76
(lp5051
g69
(g70
g71
NtRp5052
(dp5053
g74
(dp5054
g82
I1
ssg83
g5048
sg76
(lp5055
(lp5056
(S'plugin_wiki'
p5057
I00
S'http://web2py.com/examples/default/download'
p5058
tp5059
a(g4445
(S's\r\x00\x00\x00Other Plugins'
tRp5060
I00
g4790
tp5061
a(g4445
(S's\x0e\x00\x00\x00Layout Plugins'
tRp5062
I00
g4793
tp5063
aasbasbasbasbasbasbasbasbasbasbasbasbasbasbasbasbasbasbasbag69
(g85
g71
NtRp5064
(dp5065
g74
(dp5066
sg83
g3910
sg76
(lp5067
g69
(g90
g71
NtRp5068
(dp5069
g74
(dp5070
g94
g95
ssg83
g5064
sg76
(lp5071
S'meta'
p5072
asbag69
(g90
g71
NtRp5073
(dp5074
g74
(dp5075
g101
g102
ssg83
g5064
sg76
(lp5076
S':'
asbag69
(g90
g71
NtRp5077
(dp5078
g74
(dp5079
sg83
g5064
sg76
(lp5080
g69
(g70
g71
NtRp5081
(dp5082
g74
(dp5083
g82
I5
ssg83
g5077
sg76
(lp5084
g69
(g78
g71
NtRp5085
(dp5086
g74
(dp5087
g82
I4
ssg83
Nsg76
(lp5088
g69
(g85
g71
NtRp5089
(dp5090
g74
(dp5091
sg83
g5085
sg76
(lp5092
g69
(g90
g71
NtRp5093
(dp5094
g74
(dp5095
g94
g95
ssg83
g5089
sg76
(lp5096
S'author'
p5097
asbag69
(g90
g71
NtRp5098
(dp5099
g74
(dp5100
g101
g102
ssg83
g5089
sg76
(lp5101
S':'
asbag69
(g90
g71
NtRp5102
(dp5103
g74
(dp5104
sg83
g5089
sg76
(lp5105
g69
(g70
g71
NtRp5106
(dp5107
g74
(dp5108
g82
I4
ssg83
g5102
sg76
(lp5109
S'Your Name <you@example.com>'
p5110
asbasbasbag69
(g85
g71
NtRp5111
(dp5112
g74
(dp5113
sg83
g5085
sg76
(lp5114
g69
(g90
g71
NtRp5115
(dp5116
g74
(dp5117
g94
g95
ssg83
g5111
sg76
(lp5118
S'description'
p5119
asbag69
(g90
g71
NtRp5120
(dp5121
g74
(dp5122
g101
g102
ssg83
g5111
sg76
(lp5123
S':'
asbag69
(g90
g71
NtRp5124
(dp5125
g74
(dp5126
sg83
g5111
sg76
(lp5127
g69
(g70
g71
NtRp5128
(dp5129
g74
(dp5130
g82
I4
ssg83
g5124
sg76
(lp5131
S'a cool new app'
p5132
asbasbasbag69
(g85
g71
NtRp5133
(dp5134
g74
(dp5135
sg83
g5085
sg76
(lp5136
g69
(g90
g71
NtRp5137
(dp5138
g74
(dp5139
g94
g95
ssg83
g5133
sg76
(lp5140
S'generator'
p5141
asbag69
(g90
g71
NtRp5142
(dp5143
g74
(dp5144
g101
g102
ssg83
g5133
sg76
(lp5145
S':'
asbag69
(g90
g71
NtRp5146
(dp5147
g74
(dp5148
sg83
g5133
sg76
(lp5149
g69
(g70
g71
NtRp5150
(dp5151
g74
(dp5152
g82
I4
ssg83
g5146
sg76
(lp5153
S'Web2py Web Framework'
p5154
asbasbasbag69
(g85
g71
NtRp5155
(dp5156
g74
(dp5157
sg83
g5085
sg76
(lp5158
g69
(g90
g71
NtRp5159
(dp5160
g74
(dp5161
g94
g95
ssg83
g5155
sg76
(lp5162
S'keywords'
p5163
asbag69
(g90
g71
NtRp5164
(dp5165
g74
(dp5166
g101
g102
ssg83
g5155
sg76
(lp5167
S':'
asbag69
(g90
g71
NtRp5168
(dp5169
g74
(dp5170
sg83
g5155
sg76
(lp5171
g69
(g70
g71
NtRp5172
(dp5173
g74
(dp5174
g82
I4
ssg83
g5168
sg76
(lp5175
S'web2py, python, framework'
p5176
asbasbasbasbasbasbasbag69
(g85
g71
NtRp5177
(dp5178
g74
(dp5179
sg83
g3910
sg76
(lp5180
g69
(g90
g71
NtRp5181
(dp5182
g74
(dp5183
g94
g95
ssg83
g5177
sg76
(lp5184
S'models_to_run'
p5185
asbag69
(g90
g71
NtRp5186
(dp5187
g74
(dp5188
g101
g102
ssg83
g5177
sg76
(lp5189
S':'
asbag69
(g90
g71
NtRp5190
(dp5191
g74
(dp5192
sg83
g5177
sg76
(lp5193
g69
(g70
g71
NtRp5194
(dp5195
g74
(dp5196
g82
I5
ssg83
g5190
sg76
(lp5197
g69
(g78
g71
NtRp5198
(dp5199
g74
(dp5200
g82
I4
ssg83
Nsg76
(lp5201
g69
(g85
g71
NtRp5202
(dp5203
g74
(dp5204
sg83
g5198
sg76
(lp5205
g69
(g90
g71
NtRp5206
(dp5207
g74
(dp5208
sg83
g5202
sg76
(lp5209
g69
(g70
g71
NtRp5210
(dp5211
g74
(dp5212
g82
I4
ssg83
g5206
sg76
(lp5213
S'^\\w+\\.py$'
p5214
asbasbasbag69
(g85
g71
NtRp5215
(dp5216
g74
(dp5217
sg83
g5198
sg76
(lp5218
g69
(g90
g71
NtRp5219
(dp5220
g74
(dp5221
sg83
g5215
sg76
(lp5222
g69
(g70
g71
NtRp5223
(dp5224
g74
(dp5225
g82
I4
ssg83
g5219
sg76
(lp5226
S'^default/\\w+\\.py$'
p5227
asbasbasbag69
(g85
g71
NtRp5228
(dp5229
g74
(dp5230
sg83
g5198
sg76
(lp5231
g69
(g90
g71
NtRp5232
(dp5233
g74
(dp5234
sg83
g5228
sg76
(lp5235
g69
(g70
g71
NtRp5236
(dp5237
g74
(dp5238
g82
I4
ssg83
g5232
sg76
(lp5239
S'^default/index/\\w+\\.py$'
p5240
asbasbasbasbasbasbasbag69
(g85
g71
NtRp5241
(dp5242
g74
(dp5243
sg83
g3910
sg76
(lp5244
g69
(g90
g71
NtRp5245
(dp5246
g74
(dp5247
g94
g95
ssg83
g5241
sg76
(lp5248
S'postprocessing'
p5249
asbag69
(g90
g71
NtRp5250
(dp5251
g74
(dp5252
g101
g102
ssg83
g5241
sg76
(lp5253
S':'
asbag69
(g90
g71
NtRp5254
(dp5255
g74
(dp5256
sg83
g5241
sg76
(lp5257
g69
(g70
g71
NtRp5258
(dp5259
g74
(dp5260
g82
I5
ssg83
g5254
sg76
(lp5261
g69
(g78
g71
NtRp5262
(dp5263
g74
(dp5264
g82
I4
ssg83
Nsg76
(lp5265
sbasbasbasbag69
(g85
g71
NtRp5266
(dp5267
g74
(dp5268
sg83
g3910
sg76
(lp5269
g69
(g90
g71
NtRp5270
(dp5271
g74
(dp5272
g94
g95
ssg83
g5266
sg76
(lp5273
S'session_cookie_expires'
p5274
asbag69
(g90
g71
NtRp5275
(dp5276
g74
(dp5277
g101
g102
ssg83
g5266
sg76
(lp5278
S':'
asbag69
(g90
g71
NtRp5279
(dp5280
g74
(dp5281
sg83
g5266
sg76
(lp5282
g69
(g70
g71
NtRp5283
(dp5284
g74
(dp5285
g82
I5
ssg83
g5279
sg76
(lp5286
S'None'
p5287
asbasbasbag69
(g85
g71
NtRp5288
(dp5289
g74
(dp5290
sg83
g3910
sg76
(lp5291
g69
(g90
g71
NtRp5292
(dp5293
g74
(dp5294
g94
g95
ssg83
g5288
sg76
(lp5295
S'session_data_name'
p5296
asbag69
(g90
g71
NtRp5297
(dp5298
g74
(dp5299
g101
g102
ssg83
g5288
sg76
(lp5300
S':'
asbag69
(g90
g71
NtRp5301
(dp5302
g74
(dp5303
sg83
g5288
sg76
(lp5304
g69
(g70
g71
NtRp5305
(dp5306
g74
(dp5307
g82
I5
ssg83
g5301
sg76
(lp5308
S'session_data_reddit'
p5309
asbasbasbag69
(g85
g71
NtRp5310
(dp5311
g74
(dp5312
sg83
g3910
sg76
(lp5313
g69
(g90
g71
NtRp5314
(dp5315
g74
(dp5316
g94
g95
ssg83
g5310
sg76
(lp5317
S'session_file'
p5318
asbag69
(g90
g71
NtRp5319
(dp5320
g74
(dp5321
g101
g102
ssg83
g5310
sg76
(lp5322
S':'
asbag69
(g90
g71
NtRp5323
(dp5324
g74
(dp5325
sg83
g5310
sg76
(lp5326
g69
(g70
g71
NtRp5327
(dp5328
g74
(dp5329
g82
I5
ssg83
g5323
sg76
(lp5330
S"<open file '/home/pankaj/web2py/applications/reddit/sessions/127.0.0.1-24289f39-32a1-48fb-a367-22792fb8b813', mode 'rb+' at 0xadd0c758>"
p5331
asbasbasbag69
(g85
g71
NtRp5332
(dp5333
g74
(dp5334
sg83
g3910
sg76
(lp5335
g69
(g90
g71
NtRp5336
(dp5337
g74
(dp5338
g94
g95
ssg83
g5332
sg76
(lp5339
S'session_filename'
p5340
asbag69
(g90
g71
NtRp5341
(dp5342
g74
(dp5343
g101
g102
ssg83
g5332
sg76
(lp5344
S':'
asbag69
(g90
g71
NtRp5345
(dp5346
g74
(dp5347
sg83
g5332
sg76
(lp5348
g69
(g70
g71
NtRp5349
(dp5350
g74
(dp5351
g82
I5
ssg83
g5345
sg76
(lp5352
S'/home/pankaj/web2py/applications/reddit/sessions/127.0.0.1-24289f39-32a1-48fb-a367-22792fb8b813'
p5353
asbasbasbag69
(g85
g71
NtRp5354
(dp5355
g74
(dp5356
sg83
g3910
sg76
(lp5357
g69
(g90
g71
NtRp5358
(dp5359
g74
(dp5360
g94
g95
ssg83
g5354
sg76
(lp5361
S'session_id'
p5362
asbag69
(g90
g71
NtRp5363
(dp5364
g74
(dp5365
g101
g102
ssg83
g5354
sg76
(lp5366
S':'
asbag69
(g90
g71
NtRp5367
(dp5368
g74
(dp5369
sg83
g5354
sg76
(lp5370
g69
(g70
g71
NtRp5371
(dp5372
g74
(dp5373
g82
I5
ssg83
g5367
sg76
(lp5374
g673
asbasbasbag69
(g85
g71
NtRp5375
(dp5376
g74
(dp5377
sg83
g3910
sg76
(lp5378
g69
(g90
g71
NtRp5379
(dp5380
g74
(dp5381
g94
g95
ssg83
g5375
sg76
(lp5382
S'session_id_name'
p5383
asbag69
(g90
g71
NtRp5384
(dp5385
g74
(dp5386
g101
g102
ssg83
g5375
sg76
(lp5387
S':'
asbag69
(g90
g71
NtRp5388
(dp5389
g74
(dp5390
sg83
g5375
sg76
(lp5391
g69
(g70
g71
NtRp5392
(dp5393
g74
(dp5394
g82
I5
ssg83
g5388
sg76
(lp5395
g3967
asbasbasbag69
(g85
g71
NtRp5396
(dp5397
g74
(dp5398
sg83
g3910
sg76
(lp5399
g69
(g90
g71
NtRp5400
(dp5401
g74
(dp5402
g94
g95
ssg83
g5396
sg76
(lp5403
S'session_locked'
p5404
asbag69
(g90
g71
NtRp5405
(dp5406
g74
(dp5407
g101
g102
ssg83
g5396
sg76
(lp5408
S':'
asbag69
(g90
g71
NtRp5409
(dp5410
g74
(dp5411
sg83
g5396
sg76
(lp5412
g69
(g70
g71
NtRp5413
(dp5414
g74
(dp5415
g82
I5
ssg83
g5409
sg76
(lp5416
g1967
asbasbasbag69
(g85
g71
NtRp5417
(dp5418
g74
(dp5419
sg83
g3910
sg76
(lp5420
g69
(g90
g71
NtRp5421
(dp5422
g74
(dp5423
g94
g95
ssg83
g5417
sg76
(lp5424
S'session_new'
p5425
asbag69
(g90
g71
NtRp5426
(dp5427
g74
(dp5428
g101
g102
ssg83
g5417
sg76
(lp5429
S':'
asbag69
(g90
g71
NtRp5430
(dp5431
g74
(dp5432
sg83
g5417
sg76
(lp5433
g69
(g70
g71
NtRp5434
(dp5435
g74
(dp5436
g82
I5
ssg83
g5430
sg76
(lp5437
g112
asbasbasbag69
(g85
g71
NtRp5438
(dp5439
g74
(dp5440
sg83
g3910
sg76
(lp5441
g69
(g90
g71
NtRp5442
(dp5443
g74
(dp5444
g94
g95
ssg83
g5438
sg76
(lp5445
S'session_storage_type'
p5446
asbag69
(g90
g71
NtRp5447
(dp5448
g74
(dp5449
g101
g102
ssg83
g5438
sg76
(lp5450
S':'
asbag69
(g90
g71
NtRp5451
(dp5452
g74
(dp5453
sg83
g5438
sg76
(lp5454
g69
(g70
g71
NtRp5455
(dp5456
g74
(dp5457
g82
I5
ssg83
g5451
sg76
(lp5458
g3398
asbasbasbag69
(g85
g71
NtRp5459
(dp5460
g74
(dp5461
sg83
g3910
sg76
(lp5462
g69
(g90
g71
NtRp5463
(dp5464
g74
(dp5465
g94
g95
ssg83
g5459
sg76
(lp5466
S'status'
p5467
asbag69
(g90
g71
NtRp5468
(dp5469
g74
(dp5470
g101
g102
ssg83
g5459
sg76
(lp5471
S':'
asbag69
(g90
g71
NtRp5472
(dp5473
g74
(dp5474
sg83
g5459
sg76
(lp5475
g69
(g70
g71
NtRp5476
(dp5477
g74
(dp5478
g82
I5
ssg83
g5472
sg76
(lp5479
S'200'
p5480
asbasbasbag69
(g85
g71
NtRp5481
(dp5482
g74
(dp5483
sg83
g3910
sg76
(lp5484
g69
(g90
g71
NtRp5485
(dp5486
g74
(dp5487
g94
g95
ssg83
g5481
sg76
(lp5488
S'subtitle'
p5489
asbag69
(g90
g71
NtRp5490
(dp5491
g74
(dp5492
g101
g102
ssg83
g5481
sg76
(lp5493
S':'
asbag69
(g90
g71
NtRp5494
(dp5495
g74
(dp5496
sg83
g5481
sg76
(lp5497
g69
(g70
g71
NtRp5498
(dp5499
g74
(dp5500
g82
I5
ssg83
g5494
sg76
(lp5501
g4445
(S's\r\x00\x00\x00customize me!'
tRp5502
asbasbasbag69
(g85
g71
NtRp5503
(dp5504
g74
(dp5505
sg83
g3910
sg76
(lp5506
g69
(g90
g71
NtRp5507
(dp5508
g74
(dp5509
g94
g95
ssg83
g5503
sg76
(lp5510
S'title'
p5511
asbag69
(g90
g71
NtRp5512
(dp5513
g74
(dp5514
g101
g102
ssg83
g5503
sg76
(lp5515
S':'
asbag69
(g90
g71
NtRp5516
(dp5517
g74
(dp5518
sg83
g5503
sg76
(lp5519
g69
(g70
g71
NtRp5520
(dp5521
g74
(dp5522
g82
I5
ssg83
g5516
sg76
(lp5523
S'Reddit'
p5524
asbasbasbag69
(g85
g71
NtRp5525
(dp5526
g74
(dp5527
sg83
g3910
sg76
(lp5528
g69
(g90
g71
NtRp5529
(dp5530
g74
(dp5531
g94
g95
ssg83
g5525
sg76
(lp5532
S'view'
p5533
asbag69
(g90
g71
NtRp5534
(dp5535
g74
(dp5536
g101
g102
ssg83
g5525
sg76
(lp5537
S':'
asbag69
(g90
g71
NtRp5538
(dp5539
g74
(dp5540
sg83
g5525
sg76
(lp5541
g69
(g70
g71
NtRp5542
(dp5543
g74
(dp5544
g82
I5
ssg83
g5538
sg76
(lp5545
S'default/index.html'
p5546
asbasbasbasbasbsS'locals'
p5547
(dp5548
g4
S"'/home/pankaj/web2py/applications/reddit/controllers/default.py'"
p5549
sg6
S"'# -*- coding: utf-8 -*-\\n# this file is released ...=crud())\\n\\nresponse._vars=response._caller(index)\\n'"
p5550
sssS'traceback'
p5551
S'Traceback (most recent call last):\n  File "/home/pankaj/web2py/gluon/restricted.py", line 211, in restricted\n    ccode = compile2(code, layer)\n  File "/home/pankaj/web2py/gluon/restricted.py", line 194, in compile2\n    return compile(code.rstrip().replace(\'\\r\\n\', \'\\n\') + \'\\n\', layer, \'exec\')\n  File "/home/pankaj/web2py/applications/reddit/controllers/default.py", line 96\n    temp=request.vars[\'nid\'])\n                            ^\nSyntaxError: invalid syntax\n'
p5552
s.