(dp1
S'output'
p2
S"<type 'exceptions.TypeError'> int() argument must be a string or a number, not 'NoneType'"
p3
sS'layer'
p4
S'/home/pankaj/web2py/applications/reddit/controllers/default.py'
p5
sS'code'
p6
S'# -*- coding: utf-8 -*-\n# this file is released under public domain and you can use without limitations\n\n#########################################################################\n## This is a samples controller\n## - index is the default action of any application\n## - user is required for authentication and authorization\n## - download is for downloading files uploaded in the db (does streaming)\n## - call exposes all registered services (none by default)\n#########################################################################\n\nimport operator\n@auth.requires_login()\ndef index():\n\n    #   response.flash = T("Welcome to Reddit.com!")\n    nstore=db(db.news.id > 0).select()\n    cstore=db(db.comments.id > 0).select()\n    catg=db(db.category.id>0).select()\n    news = sorted(nstore, key=lambda k: k[\'rating\'])\n    comments = sorted(cstore, key=lambda k: k[\'rating\'])\n    news.reverse()\n    comments.reverse()\n    return dict(nstore=news,cstore=comments,catg=catg)\n\ndef displaycat():\n\tcatid=int(request.post_vars[\'catid\'])\n\tnstore=db((db.news.cat==db.category.name)&(db.category.id==catid)).select()\n\tnstore=db((db.category.id == catid)&(db.category.name == db.news.cat)).select(db.news.ALL)\n\t\'\'\' selecting all comments no matter what the category is \'\'\'\n\tcstore=db(db.comments.id > 0).select()\n\tcatg=db(db.category.id>0).select()\n\tnews = sorted(nstore, key=lambda k: k[\'rating\'])\n\tcomments = sorted(cstore, key=lambda k: k[\'rating\'])\n\tnews.reverse()\n\tcomments.reverse()\n\treturn dict(nstore=news,cstore=comments,catg=catg)\n\ndef myposts():\n    nstore=db(db.news.usrid == auth.user.id).select()\n    cstore=db(db.comments.id > 0).select()\n    catg=db(db.category.id>0).select()\n    news = sorted(nstore, key=lambda k: k[\'rating\'])\n    comments = sorted(cstore, key=lambda k: k[\'rating\'])\n    news.reverse()\n    comments.reverse()\n    return dict(nstore=news,cstore=comments,catg=catg)\n\ndef uplike():\n\tcheck=int(request.post_vars[\'check\'])\n\tnid=int(request.post_vars[\'nid\'])\n\tuid=int(request.post_vars[\'uid\'])\n\tnval=db(db.news.id==nid).select()\n\tprint nval\n\tval=int(nval[0][\'rating\'])\n\tif check==1:\n\t\tval=val+5\n\t\tdb.lstate.insert(newsid=nid,usrid=uid,cflag=1)\n\telif check==2:\n\t\tval=val-3\n\t\tdb.lstate.insert(newsid=nid,usrid=uid,cflag=0)\n\telif check==3:\n\t\tval=val+3\n\t\tdb((db.lstate.newsid==nid)&(db.lstate.usrid==uid)).update(cflag=-1)\n\telif check==4:\n\t\tval=val-5\n\t\tdb((db.lstate.newsid==nid)&(db.lstate.usrid==uid)).update(cflag=-1)\n\tdb(db.news.id==nid).update(rating=val)\n\tredirect(URL(\'index\'))\n\treturn dict()\ndef addpost():\n\tform = SQLFORM(db.news)\n\tif form.process().accepted:\n\t\tsession.flash=\'form accepted\'\n\t\tredirect(URL(\'index\'))\n\telif form.errors:\n\t\tresponse.flash = \'form has errors\'\n\treturn dict(form=form)\n\ndef addc():\n\tcval=request.post_vars[\'cval\']\n\tnid=int(request.post_vars[\'nid\'])\n\tusri=int(request.post_vars[\'usri\'])\n\tdb.comments.insert(val=cval,newsid=nid,usrid=usri)\n\tredirect(URL(\'index\'))\n\treturn dict()\n\ndef editn():\n\tnid=int(request.post_vars[\'nid\'])\n\tusri=int(request.post_vars[\'usri\'])\n\tform = SQLFORM(db.news, nid,deletable=True)\n\tif form.process().accepted:\n\t\tresponse.flash = \'form accepted\'\n\telif form.errors:\n\t\tresponse.flash = \'form has errors\'\n\treturn dict(form=form)\n\n\ndef user():\n   return dict(form=auth())\n"""\n    exposes:\n    http://..../[app]/default/user/login\n    http://..../[app]/default/user/logout\n    http://..../[app]/default/user/register\n    http://..../[app]/default/user/profile\n    http://..../[app]/default/user/retrieve_password\n    http://..../[app]/default/user/change_password\n    use @auth.requires_login()\n\t@auth.requires_membership(\'group name\')\n\t@auth.requires_permission(\'read\',\'table name\',record_id)\n    to decorate functions that need access control\n"""\n\ndef download():\n    """\n    allows downloading of uploaded files\n    http://..../[app]/default/download/[filename]\n    """\n    return response.download(request, db)\n\n\ndef call():\n    """\n    exposes services. for example:\n    http://..../[app]/default/call/jsonrpc\n    decorate with @services.jsonrpc the functions to expose\n    supports xml, json, xmlrpc, jsonrpc, amfrpc, rss, csv\n    """\n    return service()\n\n\n@auth.requires_signature()\ndef data():\n    """\n    http://..../[app]/default/data/tables\n    http://..../[app]/default/data/create/[table]\n    http://..../[app]/default/data/read/[table]/[id]\n    http://..../[app]/default/data/update/[table]/[id]\n    http://..../[app]/default/data/delete/[table]/[id]\n    http://..../[app]/default/data/select/[table]\n    http://..../[app]/default/data/search/[table]\n    but URLs must be signed, i.e. linked with\n      A(\'table\',_href=URL(\'data/tables\',user_signature=True))\n    or with the signed load operator\n      LOAD(\'default\',\'data.load\',args=\'tables\',ajax=True,user_signature=True)\n    """\n    return dict(form=crud())\n\nresponse._vars=response._caller(editn)\n'
p7
sS'snapshot'
p8
(dp9
S'exception'
p10
(dp11
S'__hash__'
p12
S"<method-wrapper '__hash__' of exceptions.TypeError object>"
p13
sS'__setattr__'
p14
S"<method-wrapper '__setattr__' of exceptions.TypeError object>"
p15
sS'__reduce_ex__'
p16
S'<built-in method __reduce_ex__ of exceptions.TypeError object>'
p17
sS'__getslice__'
p18
S"<method-wrapper '__getslice__' of exceptions.TypeError object>"
p19
sS'__getitem__'
p20
S"<method-wrapper '__getitem__' of exceptions.TypeError object>"
p21
sS'__setstate__'
p22
S'<built-in method __setstate__ of exceptions.TypeError object>'
p23
sS'__reduce__'
p24
S'<built-in method __reduce__ of exceptions.TypeError object>'
p25
sS'__str__'
p26
S"<method-wrapper '__str__' of exceptions.TypeError object>"
p27
sS'__format__'
p28
S'<built-in method __format__ of exceptions.TypeError object>'
p29
sS'__getattribute__'
p30
S"<method-wrapper '__getattribute__' of exceptions.TypeError object>"
p31
sS'__class__'
p32
S"<type 'exceptions.TypeError'>"
p33
sS'__unicode__'
p34
S'<built-in method __unicode__ of exceptions.TypeError object>'
p35
sS'__delattr__'
p36
S"<method-wrapper '__delattr__' of exceptions.TypeError object>"
p37
sS'__subclasshook__'
p38
S'<built-in method __subclasshook__ of type object>'
p39
sS'__repr__'
p40
S"<method-wrapper '__repr__' of exceptions.TypeError object>"
p41
sS'args'
p42
S'("int() argument must be a string or a number, not \'NoneType\'",)'
p43
sS'__dict__'
p44
S'{}'
p45
sS'__sizeof__'
p46
S'<built-in method __sizeof__ of exceptions.TypeError object>'
p47
sS'__doc__'
p48
S"'Inappropriate argument type.'"
p49
sS'__init__'
p50
S"<method-wrapper '__init__' of exceptions.TypeError object>"
p51
sS'__new__'
p52
S'<built-in method __new__ of type object>'
p53
ssS'evalue'
p54
S"int() argument must be a string or a number, not 'NoneType'"
p55
sS'request'
p56
ccopy_reg
_reconstructor
p57
(cgluon.html
BEAUTIFY
p58
c__builtin__
object
p59
NtRp60
(dp61
S'attributes'
p62
(dp63
sS'components'
p64
(lp65
g57
(cgluon.html
TABLE
p66
g59
NtRp67
(dp68
g62
(dp69
S'level'
p70
I5
ssS'parent'
p71
Nsg64
(lp72
g57
(cgluon.html
TR
p73
g59
NtRp74
(dp75
g62
(dp76
sg71
g67
sg64
(lp77
g57
(cgluon.html
TD
p78
g59
NtRp79
(dp80
g62
(dp81
S'_style'
p82
S'font-weight:bold;vertical-align:top'
p83
ssg71
g74
sg64
(lp84
S'ajax'
p85
asbag57
(g78
g59
NtRp86
(dp87
g62
(dp88
S'_valign'
p89
S'top'
p90
ssg71
g74
sg64
(lp91
S':'
asbag57
(g78
g59
NtRp92
(dp93
g62
(dp94
sg71
g74
sg64
(lp95
g57
(g58
g59
NtRp96
(dp97
g62
(dp98
g70
I5
ssg71
g92
sg64
(lp99
S'False'
p100
asbasbasbag57
(g73
g59
NtRp101
(dp102
g62
(dp103
sg71
g67
sg64
(lp104
g57
(g78
g59
NtRp105
(dp106
g62
(dp107
g82
g83
ssg71
g101
sg64
(lp108
S'application'
p109
asbag57
(g78
g59
NtRp110
(dp111
g62
(dp112
g89
g90
ssg71
g101
sg64
(lp113
S':'
asbag57
(g78
g59
NtRp114
(dp115
g62
(dp116
sg71
g101
sg64
(lp117
g57
(g58
g59
NtRp118
(dp119
g62
(dp120
g70
I5
ssg71
g114
sg64
(lp121
S'reddit'
p122
asbasbasbag57
(g73
g59
NtRp123
(dp124
g62
(dp125
sg71
g67
sg64
(lp126
g57
(g78
g59
NtRp127
(dp128
g62
(dp129
g82
g83
ssg71
g123
sg64
(lp130
g42
asbag57
(g78
g59
NtRp131
(dp132
g62
(dp133
g89
g90
ssg71
g123
sg64
(lp134
S':'
asbag57
(g78
g59
NtRp135
(dp136
g62
(dp137
sg71
g123
sg64
(lp138
g57
(g58
g59
NtRp139
(dp140
g62
(dp141
g70
I5
ssg71
g135
sg64
(lp142
g57
(g66
g59
NtRp143
(dp144
g62
(dp145
g70
I4
ssg71
Nsg64
(lp146
sbasbasbasbag57
(g73
g59
NtRp147
(dp148
g62
(dp149
sg71
g67
sg64
(lp150
g57
(g78
g59
NtRp151
(dp152
g62
(dp153
g82
g83
ssg71
g147
sg64
(lp154
S'body'
p155
asbag57
(g78
g59
NtRp156
(dp157
g62
(dp158
g89
g90
ssg71
g147
sg64
(lp159
S':'
asbag57
(g78
g59
NtRp160
(dp161
g62
(dp162
sg71
g147
sg64
(lp163
g57
(g58
g59
NtRp164
(dp165
g62
(dp166
g70
I5
ssg71
g160
sg64
(lp167
S"<open file '<fdopen>', mode 'w+b' at 0xae355b78>"
p168
asbasbasbag57
(g73
g59
NtRp169
(dp170
g62
(dp171
sg71
g67
sg64
(lp172
g57
(g78
g59
NtRp173
(dp174
g62
(dp175
g82
g83
ssg71
g169
sg64
(lp176
S'cid'
p177
asbag57
(g78
g59
NtRp178
(dp179
g62
(dp180
g89
g90
ssg71
g169
sg64
(lp181
S':'
asbag57
(g78
g59
NtRp182
(dp183
g62
(dp184
sg71
g169
sg64
(lp185
g57
(g58
g59
NtRp186
(dp187
g62
(dp188
g70
I5
ssg71
g182
sg64
(lp189
S'None'
p190
asbasbasbag57
(g73
g59
NtRp191
(dp192
g62
(dp193
sg71
g67
sg64
(lp194
g57
(g78
g59
NtRp195
(dp196
g62
(dp197
g82
g83
ssg71
g191
sg64
(lp198
S'client'
p199
asbag57
(g78
g59
NtRp200
(dp201
g62
(dp202
g89
g90
ssg71
g191
sg64
(lp203
S':'
asbag57
(g78
g59
NtRp204
(dp205
g62
(dp206
sg71
g191
sg64
(lp207
g57
(g58
g59
NtRp208
(dp209
g62
(dp210
g70
I5
ssg71
g204
sg64
(lp211
S'127.0.0.1'
p212
asbasbasbag57
(g73
g59
NtRp213
(dp214
g62
(dp215
sg71
g67
sg64
(lp216
g57
(g78
g59
NtRp217
(dp218
g62
(dp219
g82
g83
ssg71
g213
sg64
(lp220
S'controller'
p221
asbag57
(g78
g59
NtRp222
(dp223
g62
(dp224
g89
g90
ssg71
g213
sg64
(lp225
S':'
asbag57
(g78
g59
NtRp226
(dp227
g62
(dp228
sg71
g213
sg64
(lp229
g57
(g58
g59
NtRp230
(dp231
g62
(dp232
g70
I5
ssg71
g226
sg64
(lp233
S'default'
p234
asbasbasbag57
(g73
g59
NtRp235
(dp236
g62
(dp237
sg71
g67
sg64
(lp238
g57
(g78
g59
NtRp239
(dp240
g62
(dp241
g82
g83
ssg71
g235
sg64
(lp242
S'cookies'
p243
asbag57
(g78
g59
NtRp244
(dp245
g62
(dp246
g89
g90
ssg71
g235
sg64
(lp247
S':'
asbag57
(g78
g59
NtRp248
(dp249
g62
(dp250
sg71
g235
sg64
(lp251
g57
(g58
g59
NtRp252
(dp253
g62
(dp254
g70
I5
ssg71
g248
sg64
(lp255
g57
(g66
g59
NtRp256
(dp257
g62
(dp258
g70
I4
ssg71
Nsg64
(lp259
g57
(g73
g59
NtRp260
(dp261
g62
(dp262
sg71
g256
sg64
(lp263
g57
(g78
g59
NtRp264
(dp265
g62
(dp266
g82
g83
ssg71
g260
sg64
(lp267
S'session_id_admin'
p268
asbag57
(g78
g59
NtRp269
(dp270
g62
(dp271
g89
g90
ssg71
g260
sg64
(lp272
S':'
asbag57
(g78
g59
NtRp273
(dp274
g62
(dp275
sg71
g260
sg64
(lp276
g57
(g58
g59
NtRp277
(dp278
g62
(dp279
g70
I4
ssg71
g273
sg64
(lp280
S'127.0.0.1-b12d36e5-38f3-46ab-bf33-377848bfeca4'
p281
ag57
(g66
g59
NtRp282
(dp283
g62
(dp284
g70
I3
ssg71
Nsg64
(lp285
g57
(g73
g59
NtRp286
(dp287
g62
(dp288
sg71
g282
sg64
(lp289
g57
(g78
g59
NtRp290
(dp291
g62
(dp292
g82
g83
ssg71
g286
sg64
(lp293
S'comment'
p294
asbag57
(g78
g59
NtRp295
(dp296
g62
(dp297
g89
g90
ssg71
g286
sg64
(lp298
S':'
asbag57
(g78
g59
NtRp299
(dp300
g62
(dp301
sg71
g286
sg64
(lp302
g57
(g58
g59
NtRp303
(dp304
g62
(dp305
g70
I3
ssg71
g299
sg64
(lp306
S''
asbasbasbag57
(g73
g59
NtRp307
(dp308
g62
(dp309
sg71
g282
sg64
(lp310
g57
(g78
g59
NtRp311
(dp312
g62
(dp313
g82
g83
ssg71
g307
sg64
(lp314
S'domain'
p315
asbag57
(g78
g59
NtRp316
(dp317
g62
(dp318
g89
g90
ssg71
g307
sg64
(lp319
S':'
asbag57
(g78
g59
NtRp320
(dp321
g62
(dp322
sg71
g307
sg64
(lp323
g57
(g58
g59
NtRp324
(dp325
g62
(dp326
g70
I3
ssg71
g320
sg64
(lp327
S''
asbasbasbag57
(g73
g59
NtRp328
(dp329
g62
(dp330
sg71
g282
sg64
(lp331
g57
(g78
g59
NtRp332
(dp333
g62
(dp334
g82
g83
ssg71
g328
sg64
(lp335
S'expires'
p336
asbag57
(g78
g59
NtRp337
(dp338
g62
(dp339
g89
g90
ssg71
g328
sg64
(lp340
S':'
asbag57
(g78
g59
NtRp341
(dp342
g62
(dp343
sg71
g328
sg64
(lp344
g57
(g58
g59
NtRp345
(dp346
g62
(dp347
g70
I3
ssg71
g341
sg64
(lp348
S''
asbasbasbag57
(g73
g59
NtRp349
(dp350
g62
(dp351
sg71
g282
sg64
(lp352
g57
(g78
g59
NtRp353
(dp354
g62
(dp355
g82
g83
ssg71
g349
sg64
(lp356
S'httponly'
p357
asbag57
(g78
g59
NtRp358
(dp359
g62
(dp360
g89
g90
ssg71
g349
sg64
(lp361
S':'
asbag57
(g78
g59
NtRp362
(dp363
g62
(dp364
sg71
g349
sg64
(lp365
g57
(g58
g59
NtRp366
(dp367
g62
(dp368
g70
I3
ssg71
g362
sg64
(lp369
S''
asbasbasbag57
(g73
g59
NtRp370
(dp371
g62
(dp372
sg71
g282
sg64
(lp373
g57
(g78
g59
NtRp374
(dp375
g62
(dp376
g82
g83
ssg71
g370
sg64
(lp377
S'max-age'
p378
asbag57
(g78
g59
NtRp379
(dp380
g62
(dp381
g89
g90
ssg71
g370
sg64
(lp382
S':'
asbag57
(g78
g59
NtRp383
(dp384
g62
(dp385
sg71
g370
sg64
(lp386
g57
(g58
g59
NtRp387
(dp388
g62
(dp389
g70
I3
ssg71
g383
sg64
(lp390
S''
asbasbasbag57
(g73
g59
NtRp391
(dp392
g62
(dp393
sg71
g282
sg64
(lp394
g57
(g78
g59
NtRp395
(dp396
g62
(dp397
g82
g83
ssg71
g391
sg64
(lp398
S'path'
p399
asbag57
(g78
g59
NtRp400
(dp401
g62
(dp402
g89
g90
ssg71
g391
sg64
(lp403
S':'
asbag57
(g78
g59
NtRp404
(dp405
g62
(dp406
sg71
g391
sg64
(lp407
g57
(g58
g59
NtRp408
(dp409
g62
(dp410
g70
I3
ssg71
g404
sg64
(lp411
S''
asbasbasbag57
(g73
g59
NtRp412
(dp413
g62
(dp414
sg71
g282
sg64
(lp415
g57
(g78
g59
NtRp416
(dp417
g62
(dp418
g82
g83
ssg71
g412
sg64
(lp419
S'secure'
p420
asbag57
(g78
g59
NtRp421
(dp422
g62
(dp423
g89
g90
ssg71
g412
sg64
(lp424
S':'
asbag57
(g78
g59
NtRp425
(dp426
g62
(dp427
sg71
g412
sg64
(lp428
g57
(g58
g59
NtRp429
(dp430
g62
(dp431
g70
I3
ssg71
g425
sg64
(lp432
S''
asbasbasbag57
(g73
g59
NtRp433
(dp434
g62
(dp435
sg71
g282
sg64
(lp436
g57
(g78
g59
NtRp437
(dp438
g62
(dp439
g82
g83
ssg71
g433
sg64
(lp440
S'version'
p441
asbag57
(g78
g59
NtRp442
(dp443
g62
(dp444
g89
g90
ssg71
g433
sg64
(lp445
S':'
asbag57
(g78
g59
NtRp446
(dp447
g62
(dp448
sg71
g433
sg64
(lp449
g57
(g58
g59
NtRp450
(dp451
g62
(dp452
g70
I3
ssg71
g446
sg64
(lp453
S''
asbasbasbasbasbasbasbag57
(g73
g59
NtRp454
(dp455
g62
(dp456
sg71
g256
sg64
(lp457
g57
(g78
g59
NtRp458
(dp459
g62
(dp460
g82
g83
ssg71
g454
sg64
(lp461
S'session_id_reddit'
p462
asbag57
(g78
g59
NtRp463
(dp464
g62
(dp465
g89
g90
ssg71
g454
sg64
(lp466
S':'
asbag57
(g78
g59
NtRp467
(dp468
g62
(dp469
sg71
g454
sg64
(lp470
g57
(g58
g59
NtRp471
(dp472
g62
(dp473
g70
I4
ssg71
g467
sg64
(lp474
S'127.0.0.1-24289f39-32a1-48fb-a367-22792fb8b813'
p475
ag57
(g66
g59
NtRp476
(dp477
g62
(dp478
g70
I3
ssg71
Nsg64
(lp479
g57
(g73
g59
NtRp480
(dp481
g62
(dp482
sg71
g476
sg64
(lp483
g57
(g78
g59
NtRp484
(dp485
g62
(dp486
g82
g83
ssg71
g480
sg64
(lp487
g294
asbag57
(g78
g59
NtRp488
(dp489
g62
(dp490
g89
g90
ssg71
g480
sg64
(lp491
S':'
asbag57
(g78
g59
NtRp492
(dp493
g62
(dp494
sg71
g480
sg64
(lp495
g57
(g58
g59
NtRp496
(dp497
g62
(dp498
g70
I3
ssg71
g492
sg64
(lp499
S''
asbasbasbag57
(g73
g59
NtRp500
(dp501
g62
(dp502
sg71
g476
sg64
(lp503
g57
(g78
g59
NtRp504
(dp505
g62
(dp506
g82
g83
ssg71
g500
sg64
(lp507
g315
asbag57
(g78
g59
NtRp508
(dp509
g62
(dp510
g89
g90
ssg71
g500
sg64
(lp511
S':'
asbag57
(g78
g59
NtRp512
(dp513
g62
(dp514
sg71
g500
sg64
(lp515
g57
(g58
g59
NtRp516
(dp517
g62
(dp518
g70
I3
ssg71
g512
sg64
(lp519
S''
asbasbasbag57
(g73
g59
NtRp520
(dp521
g62
(dp522
sg71
g476
sg64
(lp523
g57
(g78
g59
NtRp524
(dp525
g62
(dp526
g82
g83
ssg71
g520
sg64
(lp527
g336
asbag57
(g78
g59
NtRp528
(dp529
g62
(dp530
g89
g90
ssg71
g520
sg64
(lp531
S':'
asbag57
(g78
g59
NtRp532
(dp533
g62
(dp534
sg71
g520
sg64
(lp535
g57
(g58
g59
NtRp536
(dp537
g62
(dp538
g70
I3
ssg71
g532
sg64
(lp539
S''
asbasbasbag57
(g73
g59
NtRp540
(dp541
g62
(dp542
sg71
g476
sg64
(lp543
g57
(g78
g59
NtRp544
(dp545
g62
(dp546
g82
g83
ssg71
g540
sg64
(lp547
g357
asbag57
(g78
g59
NtRp548
(dp549
g62
(dp550
g89
g90
ssg71
g540
sg64
(lp551
S':'
asbag57
(g78
g59
NtRp552
(dp553
g62
(dp554
sg71
g540
sg64
(lp555
g57
(g58
g59
NtRp556
(dp557
g62
(dp558
g70
I3
ssg71
g552
sg64
(lp559
S''
asbasbasbag57
(g73
g59
NtRp560
(dp561
g62
(dp562
sg71
g476
sg64
(lp563
g57
(g78
g59
NtRp564
(dp565
g62
(dp566
g82
g83
ssg71
g560
sg64
(lp567
g378
asbag57
(g78
g59
NtRp568
(dp569
g62
(dp570
g89
g90
ssg71
g560
sg64
(lp571
S':'
asbag57
(g78
g59
NtRp572
(dp573
g62
(dp574
sg71
g560
sg64
(lp575
g57
(g58
g59
NtRp576
(dp577
g62
(dp578
g70
I3
ssg71
g572
sg64
(lp579
S''
asbasbasbag57
(g73
g59
NtRp580
(dp581
g62
(dp582
sg71
g476
sg64
(lp583
g57
(g78
g59
NtRp584
(dp585
g62
(dp586
g82
g83
ssg71
g580
sg64
(lp587
g399
asbag57
(g78
g59
NtRp588
(dp589
g62
(dp590
g89
g90
ssg71
g580
sg64
(lp591
S':'
asbag57
(g78
g59
NtRp592
(dp593
g62
(dp594
sg71
g580
sg64
(lp595
g57
(g58
g59
NtRp596
(dp597
g62
(dp598
g70
I3
ssg71
g592
sg64
(lp599
S''
asbasbasbag57
(g73
g59
NtRp600
(dp601
g62
(dp602
sg71
g476
sg64
(lp603
g57
(g78
g59
NtRp604
(dp605
g62
(dp606
g82
g83
ssg71
g600
sg64
(lp607
g420
asbag57
(g78
g59
NtRp608
(dp609
g62
(dp610
g89
g90
ssg71
g600
sg64
(lp611
S':'
asbag57
(g78
g59
NtRp612
(dp613
g62
(dp614
sg71
g600
sg64
(lp615
g57
(g58
g59
NtRp616
(dp617
g62
(dp618
g70
I3
ssg71
g612
sg64
(lp619
S''
asbasbasbag57
(g73
g59
NtRp620
(dp621
g62
(dp622
sg71
g476
sg64
(lp623
g57
(g78
g59
NtRp624
(dp625
g62
(dp626
g82
g83
ssg71
g620
sg64
(lp627
g441
asbag57
(g78
g59
NtRp628
(dp629
g62
(dp630
g89
g90
ssg71
g620
sg64
(lp631
S':'
asbag57
(g78
g59
NtRp632
(dp633
g62
(dp634
sg71
g620
sg64
(lp635
g57
(g58
g59
NtRp636
(dp637
g62
(dp638
g70
I3
ssg71
g632
sg64
(lp639
S''
asbasbasbasbasbasbasbag57
(g73
g59
NtRp640
(dp641
g62
(dp642
sg71
g256
sg64
(lp643
g57
(g78
g59
NtRp644
(dp645
g62
(dp646
g82
g83
ssg71
g640
sg64
(lp647
S'session_id_welcome'
p648
asbag57
(g78
g59
NtRp649
(dp650
g62
(dp651
g89
g90
ssg71
g640
sg64
(lp652
S':'
asbag57
(g78
g59
NtRp653
(dp654
g62
(dp655
sg71
g640
sg64
(lp656
g57
(g58
g59
NtRp657
(dp658
g62
(dp659
g70
I4
ssg71
g653
sg64
(lp660
S'127.0.0.1-6c6acb01-dab7-498a-a6cb-f847f2ae3337'
p661
ag57
(g66
g59
NtRp662
(dp663
g62
(dp664
g70
I3
ssg71
Nsg64
(lp665
g57
(g73
g59
NtRp666
(dp667
g62
(dp668
sg71
g662
sg64
(lp669
g57
(g78
g59
NtRp670
(dp671
g62
(dp672
g82
g83
ssg71
g666
sg64
(lp673
g294
asbag57
(g78
g59
NtRp674
(dp675
g62
(dp676
g89
g90
ssg71
g666
sg64
(lp677
S':'
asbag57
(g78
g59
NtRp678
(dp679
g62
(dp680
sg71
g666
sg64
(lp681
g57
(g58
g59
NtRp682
(dp683
g62
(dp684
g70
I3
ssg71
g678
sg64
(lp685
S''
asbasbasbag57
(g73
g59
NtRp686
(dp687
g62
(dp688
sg71
g662
sg64
(lp689
g57
(g78
g59
NtRp690
(dp691
g62
(dp692
g82
g83
ssg71
g686
sg64
(lp693
g315
asbag57
(g78
g59
NtRp694
(dp695
g62
(dp696
g89
g90
ssg71
g686
sg64
(lp697
S':'
asbag57
(g78
g59
NtRp698
(dp699
g62
(dp700
sg71
g686
sg64
(lp701
g57
(g58
g59
NtRp702
(dp703
g62
(dp704
g70
I3
ssg71
g698
sg64
(lp705
S''
asbasbasbag57
(g73
g59
NtRp706
(dp707
g62
(dp708
sg71
g662
sg64
(lp709
g57
(g78
g59
NtRp710
(dp711
g62
(dp712
g82
g83
ssg71
g706
sg64
(lp713
g336
asbag57
(g78
g59
NtRp714
(dp715
g62
(dp716
g89
g90
ssg71
g706
sg64
(lp717
S':'
asbag57
(g78
g59
NtRp718
(dp719
g62
(dp720
sg71
g706
sg64
(lp721
g57
(g58
g59
NtRp722
(dp723
g62
(dp724
g70
I3
ssg71
g718
sg64
(lp725
S''
asbasbasbag57
(g73
g59
NtRp726
(dp727
g62
(dp728
sg71
g662
sg64
(lp729
g57
(g78
g59
NtRp730
(dp731
g62
(dp732
g82
g83
ssg71
g726
sg64
(lp733
g357
asbag57
(g78
g59
NtRp734
(dp735
g62
(dp736
g89
g90
ssg71
g726
sg64
(lp737
S':'
asbag57
(g78
g59
NtRp738
(dp739
g62
(dp740
sg71
g726
sg64
(lp741
g57
(g58
g59
NtRp742
(dp743
g62
(dp744
g70
I3
ssg71
g738
sg64
(lp745
S''
asbasbasbag57
(g73
g59
NtRp746
(dp747
g62
(dp748
sg71
g662
sg64
(lp749
g57
(g78
g59
NtRp750
(dp751
g62
(dp752
g82
g83
ssg71
g746
sg64
(lp753
g378
asbag57
(g78
g59
NtRp754
(dp755
g62
(dp756
g89
g90
ssg71
g746
sg64
(lp757
S':'
asbag57
(g78
g59
NtRp758
(dp759
g62
(dp760
sg71
g746
sg64
(lp761
g57
(g58
g59
NtRp762
(dp763
g62
(dp764
g70
I3
ssg71
g758
sg64
(lp765
S''
asbasbasbag57
(g73
g59
NtRp766
(dp767
g62
(dp768
sg71
g662
sg64
(lp769
g57
(g78
g59
NtRp770
(dp771
g62
(dp772
g82
g83
ssg71
g766
sg64
(lp773
g399
asbag57
(g78
g59
NtRp774
(dp775
g62
(dp776
g89
g90
ssg71
g766
sg64
(lp777
S':'
asbag57
(g78
g59
NtRp778
(dp779
g62
(dp780
sg71
g766
sg64
(lp781
g57
(g58
g59
NtRp782
(dp783
g62
(dp784
g70
I3
ssg71
g778
sg64
(lp785
S''
asbasbasbag57
(g73
g59
NtRp786
(dp787
g62
(dp788
sg71
g662
sg64
(lp789
g57
(g78
g59
NtRp790
(dp791
g62
(dp792
g82
g83
ssg71
g786
sg64
(lp793
g420
asbag57
(g78
g59
NtRp794
(dp795
g62
(dp796
g89
g90
ssg71
g786
sg64
(lp797
S':'
asbag57
(g78
g59
NtRp798
(dp799
g62
(dp800
sg71
g786
sg64
(lp801
g57
(g58
g59
NtRp802
(dp803
g62
(dp804
g70
I3
ssg71
g798
sg64
(lp805
S''
asbasbasbag57
(g73
g59
NtRp806
(dp807
g62
(dp808
sg71
g662
sg64
(lp809
g57
(g78
g59
NtRp810
(dp811
g62
(dp812
g82
g83
ssg71
g806
sg64
(lp813
g441
asbag57
(g78
g59
NtRp814
(dp815
g62
(dp816
g89
g90
ssg71
g806
sg64
(lp817
S':'
asbag57
(g78
g59
NtRp818
(dp819
g62
(dp820
sg71
g806
sg64
(lp821
g57
(g58
g59
NtRp822
(dp823
g62
(dp824
g70
I3
ssg71
g818
sg64
(lp825
S''
asbasbasbasbasbasbasbasbasbasbasbag57
(g73
g59
NtRp826
(dp827
g62
(dp828
sg71
g67
sg64
(lp829
g57
(g78
g59
NtRp830
(dp831
g62
(dp832
g82
g83
ssg71
g826
sg64
(lp833
S'env'
p834
asbag57
(g78
g59
NtRp835
(dp836
g62
(dp837
g89
g90
ssg71
g826
sg64
(lp838
S':'
asbag57
(g78
g59
NtRp839
(dp840
g62
(dp841
sg71
g826
sg64
(lp842
g57
(g58
g59
NtRp843
(dp844
g62
(dp845
g70
I5
ssg71
g839
sg64
(lp846
g57
(g66
g59
NtRp847
(dp848
g62
(dp849
g70
I4
ssg71
Nsg64
(lp850
g57
(g73
g59
NtRp851
(dp852
g62
(dp853
sg71
g847
sg64
(lp854
g57
(g78
g59
NtRp855
(dp856
g62
(dp857
g82
g83
ssg71
g851
sg64
(lp858
S'app_folders'
p859
asbag57
(g78
g59
NtRp860
(dp861
g62
(dp862
g89
g90
ssg71
g851
sg64
(lp863
S':'
asbag57
(g78
g59
NtRp864
(dp865
g62
(dp866
sg71
g851
sg64
(lp867
g57
(g58
g59
NtRp868
(dp869
g62
(dp870
g70
I4
ssg71
g864
sg64
(lp871
S"set(['/home/pankaj/web2py/applications/admin/', '/home/pankaj/web2py/applications/welcome/', '/home/pankaj/web2py/applications/reddit/'])"
p872
asbasbasbag57
(g73
g59
NtRp873
(dp874
g62
(dp875
sg71
g847
sg64
(lp876
g57
(g78
g59
NtRp877
(dp878
g62
(dp879
g82
g83
ssg71
g873
sg64
(lp880
S'applications_parent'
p881
asbag57
(g78
g59
NtRp882
(dp883
g62
(dp884
g89
g90
ssg71
g873
sg64
(lp885
S':'
asbag57
(g78
g59
NtRp886
(dp887
g62
(dp888
sg71
g873
sg64
(lp889
g57
(g58
g59
NtRp890
(dp891
g62
(dp892
g70
I4
ssg71
g886
sg64
(lp893
S'/home/pankaj/web2py'
p894
asbasbasbag57
(g73
g59
NtRp895
(dp896
g62
(dp897
sg71
g847
sg64
(lp898
g57
(g78
g59
NtRp899
(dp900
g62
(dp901
g82
g83
ssg71
g895
sg64
(lp902
S'cmd_args'
p903
asbag57
(g78
g59
NtRp904
(dp905
g62
(dp906
g89
g90
ssg71
g895
sg64
(lp907
S':'
asbag57
(g78
g59
NtRp908
(dp909
g62
(dp910
sg71
g895
sg64
(lp911
g57
(g58
g59
NtRp912
(dp913
g62
(dp914
g70
I4
ssg71
g908
sg64
(lp915
g57
(g66
g59
NtRp916
(dp917
g62
(dp918
g70
I3
ssg71
Nsg64
(lp919
sbasbasbasbag57
(g73
g59
NtRp920
(dp921
g62
(dp922
sg71
g847
sg64
(lp923
g57
(g78
g59
NtRp924
(dp925
g62
(dp926
g82
g83
ssg71
g920
sg64
(lp927
S'cmd_options'
p928
asbag57
(g78
g59
NtRp929
(dp930
g62
(dp931
g89
g90
ssg71
g920
sg64
(lp932
S':'
asbag57
(g78
g59
NtRp933
(dp934
g62
(dp935
sg71
g920
sg64
(lp936
g57
(g58
g59
NtRp937
(dp938
g62
(dp939
g70
I4
ssg71
g933
sg64
(lp940
S"<Values at 0x96dbdcc: {'verbose': False, 'ip': '127.0.0.1', 'with_scheduler': False, 'ips': [], 'shutdown_timeout': 5, 'taskbar': False, 'port': 8000, 'maxthreads': None, 'softcron': False, 'server_name': 'pankaj-HP-Pavilion-dv4-Notebook-PC', 'bpython': False, 'nogui': False, 'pid_filename': 'httpserver.pid', 'extcron': False, 'runcron': False, 'run_system_tests': False, 'test': None, 'folder': '/home/pankaj/web2py', 'config': '', 'import_models': False, 'winservice': '', 'shell': None, 'run': '', 'log_filename': 'httpserver.log', 'debuglevel': 30, 'args': [''], 'socket_timeout': 5, 'ssl_ca_certificate': None, 'scheduler': None, 'profiler_filename': None, 'ssl_private_key': '', 'scheduler_groups': None, 'password': '<ask>', 'request_queue_size': 5, 'ssl_certificate': '', 'cronjob': False, 'numthreads': None, 'quiet': False, 'interfaces': None, 'minthreads': None, 'timeout': 10, 'plain': False, 'nobanner': False}>"
p941
asbasbasbag57
(g73
g59
NtRp942
(dp943
g62
(dp944
sg71
g847
sg64
(lp945
g57
(g78
g59
NtRp946
(dp947
g62
(dp948
g82
g83
ssg71
g942
sg64
(lp949
S'content_length'
p950
asbag57
(g78
g59
NtRp951
(dp952
g62
(dp953
g89
g90
ssg71
g942
sg64
(lp954
S':'
asbag57
(g78
g59
NtRp955
(dp956
g62
(dp957
sg71
g942
sg64
(lp958
g57
(g58
g59
NtRp959
(dp960
g62
(dp961
g70
I4
ssg71
g955
sg64
(lp962
S'1043'
p963
asbasbasbag57
(g73
g59
NtRp964
(dp965
g62
(dp966
sg71
g847
sg64
(lp967
g57
(g78
g59
NtRp968
(dp969
g62
(dp970
g82
g83
ssg71
g964
sg64
(lp971
S'content_type'
p972
asbag57
(g78
g59
NtRp973
(dp974
g62
(dp975
g89
g90
ssg71
g964
sg64
(lp976
S':'
asbag57
(g78
g59
NtRp977
(dp978
g62
(dp979
sg71
g964
sg64
(lp980
g57
(g58
g59
NtRp981
(dp982
g62
(dp983
g70
I4
ssg71
g977
sg64
(lp984
S'multipart/form-data; boundary=---------------------------4147305864906533821254722987'
p985
asbasbasbag57
(g73
g59
NtRp986
(dp987
g62
(dp988
sg71
g847
sg64
(lp989
g57
(g78
g59
NtRp990
(dp991
g62
(dp992
g82
g83
ssg71
g986
sg64
(lp993
S'db_sessions'
p994
asbag57
(g78
g59
NtRp995
(dp996
g62
(dp997
g89
g90
ssg71
g986
sg64
(lp998
S':'
asbag57
(g78
g59
NtRp999
(dp1000
g62
(dp1001
sg71
g986
sg64
(lp1002
g57
(g58
g59
NtRp1003
(dp1004
g62
(dp1005
g70
I4
ssg71
g999
sg64
(lp1006
S'set([])'
p1007
asbasbasbag57
(g73
g59
NtRp1008
(dp1009
g62
(dp1010
sg71
g847
sg64
(lp1011
g57
(g78
g59
NtRp1012
(dp1013
g62
(dp1014
g82
g83
ssg71
g1008
sg64
(lp1015
S'debugging'
p1016
asbag57
(g78
g59
NtRp1017
(dp1018
g62
(dp1019
g89
g90
ssg71
g1008
sg64
(lp1020
S':'
asbag57
(g78
g59
NtRp1021
(dp1022
g62
(dp1023
sg71
g1008
sg64
(lp1024
g57
(g58
g59
NtRp1025
(dp1026
g62
(dp1027
g70
I4
ssg71
g1021
sg64
(lp1028
g100
asbasbasbag57
(g73
g59
NtRp1029
(dp1030
g62
(dp1031
sg71
g847
sg64
(lp1032
g57
(g78
g59
NtRp1033
(dp1034
g62
(dp1035
g82
g83
ssg71
g1029
sg64
(lp1036
S'gluon_parent'
p1037
asbag57
(g78
g59
NtRp1038
(dp1039
g62
(dp1040
g89
g90
ssg71
g1029
sg64
(lp1041
S':'
asbag57
(g78
g59
NtRp1042
(dp1043
g62
(dp1044
sg71
g1029
sg64
(lp1045
g57
(g58
g59
NtRp1046
(dp1047
g62
(dp1048
g70
I4
ssg71
g1042
sg64
(lp1049
S'/home/pankaj/web2py'
p1050
asbasbasbag57
(g73
g59
NtRp1051
(dp1052
g62
(dp1053
sg71
g847
sg64
(lp1054
g57
(g78
g59
NtRp1055
(dp1056
g62
(dp1057
g82
g83
ssg71
g1051
sg64
(lp1058
S'http_accept'
p1059
asbag57
(g78
g59
NtRp1060
(dp1061
g62
(dp1062
g89
g90
ssg71
g1051
sg64
(lp1063
S':'
asbag57
(g78
g59
NtRp1064
(dp1065
g62
(dp1066
sg71
g1051
sg64
(lp1067
g57
(g58
g59
NtRp1068
(dp1069
g62
(dp1070
g70
I4
ssg71
g1064
sg64
(lp1071
S'text/html,application/xhtml+xml,application/xml;q=0.9,*/*;q=0.8'
p1072
asbasbasbag57
(g73
g59
NtRp1073
(dp1074
g62
(dp1075
sg71
g847
sg64
(lp1076
g57
(g78
g59
NtRp1077
(dp1078
g62
(dp1079
g82
g83
ssg71
g1073
sg64
(lp1080
S'http_accept_encoding'
p1081
asbag57
(g78
g59
NtRp1082
(dp1083
g62
(dp1084
g89
g90
ssg71
g1073
sg64
(lp1085
S':'
asbag57
(g78
g59
NtRp1086
(dp1087
g62
(dp1088
sg71
g1073
sg64
(lp1089
g57
(g58
g59
NtRp1090
(dp1091
g62
(dp1092
g70
I4
ssg71
g1086
sg64
(lp1093
S'gzip, deflate'
p1094
asbasbasbag57
(g73
g59
NtRp1095
(dp1096
g62
(dp1097
sg71
g847
sg64
(lp1098
g57
(g78
g59
NtRp1099
(dp1100
g62
(dp1101
g82
g83
ssg71
g1095
sg64
(lp1102
S'http_accept_language'
p1103
asbag57
(g78
g59
NtRp1104
(dp1105
g62
(dp1106
g89
g90
ssg71
g1095
sg64
(lp1107
S':'
asbag57
(g78
g59
NtRp1108
(dp1109
g62
(dp1110
sg71
g1095
sg64
(lp1111
g57
(g58
g59
NtRp1112
(dp1113
g62
(dp1114
g70
I4
ssg71
g1108
sg64
(lp1115
S'en-US,en;q=0.5'
p1116
asbasbasbag57
(g73
g59
NtRp1117
(dp1118
g62
(dp1119
sg71
g847
sg64
(lp1120
g57
(g78
g59
NtRp1121
(dp1122
g62
(dp1123
g82
g83
ssg71
g1117
sg64
(lp1124
S'http_connection'
p1125
asbag57
(g78
g59
NtRp1126
(dp1127
g62
(dp1128
g89
g90
ssg71
g1117
sg64
(lp1129
S':'
asbag57
(g78
g59
NtRp1130
(dp1131
g62
(dp1132
sg71
g1117
sg64
(lp1133
g57
(g58
g59
NtRp1134
(dp1135
g62
(dp1136
g70
I4
ssg71
g1130
sg64
(lp1137
S'keep-alive'
p1138
asbasbasbag57
(g73
g59
NtRp1139
(dp1140
g62
(dp1141
sg71
g847
sg64
(lp1142
g57
(g78
g59
NtRp1143
(dp1144
g62
(dp1145
g82
g83
ssg71
g1139
sg64
(lp1146
S'http_content_length'
p1147
asbag57
(g78
g59
NtRp1148
(dp1149
g62
(dp1150
g89
g90
ssg71
g1139
sg64
(lp1151
S':'
asbag57
(g78
g59
NtRp1152
(dp1153
g62
(dp1154
sg71
g1139
sg64
(lp1155
g57
(g58
g59
NtRp1156
(dp1157
g62
(dp1158
g70
I4
ssg71
g1152
sg64
(lp1159
g963
asbasbasbag57
(g73
g59
NtRp1160
(dp1161
g62
(dp1162
sg71
g847
sg64
(lp1163
g57
(g78
g59
NtRp1164
(dp1165
g62
(dp1166
g82
g83
ssg71
g1160
sg64
(lp1167
S'http_content_type'
p1168
asbag57
(g78
g59
NtRp1169
(dp1170
g62
(dp1171
g89
g90
ssg71
g1160
sg64
(lp1172
S':'
asbag57
(g78
g59
NtRp1173
(dp1174
g62
(dp1175
sg71
g1160
sg64
(lp1176
g57
(g58
g59
NtRp1177
(dp1178
g62
(dp1179
g70
I4
ssg71
g1173
sg64
(lp1180
g985
asbasbasbag57
(g73
g59
NtRp1181
(dp1182
g62
(dp1183
sg71
g847
sg64
(lp1184
g57
(g78
g59
NtRp1185
(dp1186
g62
(dp1187
g82
g83
ssg71
g1181
sg64
(lp1188
S'http_cookie'
p1189
asbag57
(g78
g59
NtRp1190
(dp1191
g62
(dp1192
g89
g90
ssg71
g1181
sg64
(lp1193
S':'
asbag57
(g78
g59
NtRp1194
(dp1195
g62
(dp1196
sg71
g1181
sg64
(lp1197
g57
(g58
g59
NtRp1198
(dp1199
g62
(dp1200
g70
I4
ssg71
g1194
sg64
(lp1201
S'session_id_reddit=127.0.0.1-24289f39-32a1-48fb-a367-22792fb8b813; session_id_welcome=127.0.0.1-6c6acb01-dab7-498a-a6cb-f847f2ae3337; session_id_admin=127.0.0.1-b12d36e5-38f3-46ab-bf33-377848bfeca4'
p1202
asbasbasbag57
(g73
g59
NtRp1203
(dp1204
g62
(dp1205
sg71
g847
sg64
(lp1206
g57
(g78
g59
NtRp1207
(dp1208
g62
(dp1209
g82
g83
ssg71
g1203
sg64
(lp1210
S'http_host'
p1211
asbag57
(g78
g59
NtRp1212
(dp1213
g62
(dp1214
g89
g90
ssg71
g1203
sg64
(lp1215
S':'
asbag57
(g78
g59
NtRp1216
(dp1217
g62
(dp1218
sg71
g1203
sg64
(lp1219
g57
(g58
g59
NtRp1220
(dp1221
g62
(dp1222
g70
I4
ssg71
g1216
sg64
(lp1223
S'127.0.0.1:8000'
p1224
asbasbasbag57
(g73
g59
NtRp1225
(dp1226
g62
(dp1227
sg71
g847
sg64
(lp1228
g57
(g78
g59
NtRp1229
(dp1230
g62
(dp1231
g82
g83
ssg71
g1225
sg64
(lp1232
S'http_referer'
p1233
asbag57
(g78
g59
NtRp1234
(dp1235
g62
(dp1236
g89
g90
ssg71
g1225
sg64
(lp1237
S':'
asbag57
(g78
g59
NtRp1238
(dp1239
g62
(dp1240
sg71
g1225
sg64
(lp1241
g57
(g58
g59
NtRp1242
(dp1243
g62
(dp1244
g70
I4
ssg71
g1238
sg64
(lp1245
S'http://127.0.0.1:8000/reddit/default/editn'
p1246
asbasbasbag57
(g73
g59
NtRp1247
(dp1248
g62
(dp1249
sg71
g847
sg64
(lp1250
g57
(g78
g59
NtRp1251
(dp1252
g62
(dp1253
g82
g83
ssg71
g1247
sg64
(lp1254
S'http_user_agent'
p1255
asbag57
(g78
g59
NtRp1256
(dp1257
g62
(dp1258
g89
g90
ssg71
g1247
sg64
(lp1259
S':'
asbag57
(g78
g59
NtRp1260
(dp1261
g62
(dp1262
sg71
g1247
sg64
(lp1263
g57
(g58
g59
NtRp1264
(dp1265
g62
(dp1266
g70
I4
ssg71
g1260
sg64
(lp1267
S'Mozilla/5.0 (X11; Ubuntu; Linux i686; rv:23.0) Gecko/20100101 Firefox/23.0'
p1268
asbasbasbag57
(g73
g59
NtRp1269
(dp1270
g62
(dp1271
sg71
g847
sg64
(lp1272
g57
(g78
g59
NtRp1273
(dp1274
g62
(dp1275
g82
g83
ssg71
g1269
sg64
(lp1276
S'is_jython'
p1277
asbag57
(g78
g59
NtRp1278
(dp1279
g62
(dp1280
g89
g90
ssg71
g1269
sg64
(lp1281
S':'
asbag57
(g78
g59
NtRp1282
(dp1283
g62
(dp1284
sg71
g1269
sg64
(lp1285
g57
(g58
g59
NtRp1286
(dp1287
g62
(dp1288
g70
I4
ssg71
g1282
sg64
(lp1289
g100
asbasbasbag57
(g73
g59
NtRp1290
(dp1291
g62
(dp1292
sg71
g847
sg64
(lp1293
g57
(g78
g59
NtRp1294
(dp1295
g62
(dp1296
g82
g83
ssg71
g1290
sg64
(lp1297
S'is_pypy'
p1298
asbag57
(g78
g59
NtRp1299
(dp1300
g62
(dp1301
g89
g90
ssg71
g1290
sg64
(lp1302
S':'
asbag57
(g78
g59
NtRp1303
(dp1304
g62
(dp1305
sg71
g1290
sg64
(lp1306
g57
(g58
g59
NtRp1307
(dp1308
g62
(dp1309
g70
I4
ssg71
g1303
sg64
(lp1310
g100
asbasbasbag57
(g73
g59
NtRp1311
(dp1312
g62
(dp1313
sg71
g847
sg64
(lp1314
g57
(g78
g59
NtRp1315
(dp1316
g62
(dp1317
g82
g83
ssg71
g1311
sg64
(lp1318
S'local_hosts'
p1319
asbag57
(g78
g59
NtRp1320
(dp1321
g62
(dp1322
g89
g90
ssg71
g1311
sg64
(lp1323
S':'
asbag57
(g78
g59
NtRp1324
(dp1325
g62
(dp1326
sg71
g1311
sg64
(lp1327
g57
(g58
g59
NtRp1328
(dp1329
g62
(dp1330
g70
I4
ssg71
g1324
sg64
(lp1331
g57
(g66
g59
NtRp1332
(dp1333
g62
(dp1334
g70
I3
ssg71
Nsg64
(lp1335
g57
(g73
g59
NtRp1336
(dp1337
g62
(dp1338
sg71
g1332
sg64
(lp1339
g57
(g78
g59
NtRp1340
(dp1341
g62
(dp1342
sg71
g1336
sg64
(lp1343
g57
(g58
g59
NtRp1344
(dp1345
g62
(dp1346
g70
I3
ssg71
g1340
sg64
(lp1347
S'pankaj-HP-Pavilion-dv4-Notebook-PC'
p1348
asbasbasbag57
(g73
g59
NtRp1349
(dp1350
g62
(dp1351
sg71
g1332
sg64
(lp1352
g57
(g78
g59
NtRp1353
(dp1354
g62
(dp1355
sg71
g1349
sg64
(lp1356
g57
(g58
g59
NtRp1357
(dp1358
g62
(dp1359
g70
I3
ssg71
g1353
sg64
(lp1360
S'::1'
p1361
asbasbasbag57
(g73
g59
NtRp1362
(dp1363
g62
(dp1364
sg71
g1332
sg64
(lp1365
g57
(g78
g59
NtRp1366
(dp1367
g62
(dp1368
sg71
g1362
sg64
(lp1369
g57
(g58
g59
NtRp1370
(dp1371
g62
(dp1372
g70
I3
ssg71
g1366
sg64
(lp1373
S'127.0.1.1'
p1374
asbasbasbag57
(g73
g59
NtRp1375
(dp1376
g62
(dp1377
sg71
g1332
sg64
(lp1378
g57
(g78
g59
NtRp1379
(dp1380
g62
(dp1381
sg71
g1375
sg64
(lp1382
g57
(g58
g59
NtRp1383
(dp1384
g62
(dp1385
g70
I3
ssg71
g1379
sg64
(lp1386
S'::ffff:127.0.0.1'
p1387
asbasbasbag57
(g73
g59
NtRp1388
(dp1389
g62
(dp1390
sg71
g1332
sg64
(lp1391
g57
(g78
g59
NtRp1392
(dp1393
g62
(dp1394
sg71
g1388
sg64
(lp1395
g57
(g58
g59
NtRp1396
(dp1397
g62
(dp1398
g70
I3
ssg71
g1392
sg64
(lp1399
S'127.0.0.1'
p1400
asbasbasbasbasbasbasbag57
(g73
g59
NtRp1401
(dp1402
g62
(dp1403
sg71
g847
sg64
(lp1404
g57
(g78
g59
NtRp1405
(dp1406
g62
(dp1407
g82
g83
ssg71
g1401
sg64
(lp1408
S'path_info'
p1409
asbag57
(g78
g59
NtRp1410
(dp1411
g62
(dp1412
g89
g90
ssg71
g1401
sg64
(lp1413
S':'
asbag57
(g78
g59
NtRp1414
(dp1415
g62
(dp1416
sg71
g1401
sg64
(lp1417
g57
(g58
g59
NtRp1418
(dp1419
g62
(dp1420
g70
I4
ssg71
g1414
sg64
(lp1421
S'/reddit/default/editn'
p1422
asbasbasbag57
(g73
g59
NtRp1423
(dp1424
g62
(dp1425
sg71
g847
sg64
(lp1426
g57
(g78
g59
NtRp1427
(dp1428
g62
(dp1429
g82
g83
ssg71
g1423
sg64
(lp1430
S'query_string'
p1431
asbag57
(g78
g59
NtRp1432
(dp1433
g62
(dp1434
g89
g90
ssg71
g1423
sg64
(lp1435
S':'
asbag57
(g78
g59
NtRp1436
(dp1437
g62
(dp1438
sg71
g1423
sg64
(lp1439
g57
(g58
g59
NtRp1440
(dp1441
g62
(dp1442
g70
I4
ssg71
g1436
sg64
(lp1443
S''
asbasbasbag57
(g73
g59
NtRp1444
(dp1445
g62
(dp1446
sg71
g847
sg64
(lp1447
g57
(g78
g59
NtRp1448
(dp1449
g62
(dp1450
g82
g83
ssg71
g1444
sg64
(lp1451
S'remote_addr'
p1452
asbag57
(g78
g59
NtRp1453
(dp1454
g62
(dp1455
g89
g90
ssg71
g1444
sg64
(lp1456
S':'
asbag57
(g78
g59
NtRp1457
(dp1458
g62
(dp1459
sg71
g1444
sg64
(lp1460
g57
(g58
g59
NtRp1461
(dp1462
g62
(dp1463
g70
I4
ssg71
g1457
sg64
(lp1464
g212
asbasbasbag57
(g73
g59
NtRp1465
(dp1466
g62
(dp1467
sg71
g847
sg64
(lp1468
g57
(g78
g59
NtRp1469
(dp1470
g62
(dp1471
g82
g83
ssg71
g1465
sg64
(lp1472
S'remote_port'
p1473
asbag57
(g78
g59
NtRp1474
(dp1475
g62
(dp1476
g89
g90
ssg71
g1465
sg64
(lp1477
S':'
asbag57
(g78
g59
NtRp1478
(dp1479
g62
(dp1480
sg71
g1465
sg64
(lp1481
g57
(g58
g59
NtRp1482
(dp1483
g62
(dp1484
g70
I4
ssg71
g1478
sg64
(lp1485
S'42667'
p1486
asbasbasbag57
(g73
g59
NtRp1487
(dp1488
g62
(dp1489
sg71
g847
sg64
(lp1490
g57
(g78
g59
NtRp1491
(dp1492
g62
(dp1493
g82
g83
ssg71
g1487
sg64
(lp1494
S'request_method'
p1495
asbag57
(g78
g59
NtRp1496
(dp1497
g62
(dp1498
g89
g90
ssg71
g1487
sg64
(lp1499
S':'
asbag57
(g78
g59
NtRp1500
(dp1501
g62
(dp1502
sg71
g1487
sg64
(lp1503
g57
(g58
g59
NtRp1504
(dp1505
g62
(dp1506
g70
I4
ssg71
g1500
sg64
(lp1507
S'POST'
p1508
asbasbasbag57
(g73
g59
NtRp1509
(dp1510
g62
(dp1511
sg71
g847
sg64
(lp1512
g57
(g78
g59
NtRp1513
(dp1514
g62
(dp1515
g82
g83
ssg71
g1509
sg64
(lp1516
S'request_uri'
p1517
asbag57
(g78
g59
NtRp1518
(dp1519
g62
(dp1520
g89
g90
ssg71
g1509
sg64
(lp1521
S':'
asbag57
(g78
g59
NtRp1522
(dp1523
g62
(dp1524
sg71
g1509
sg64
(lp1525
g57
(g58
g59
NtRp1526
(dp1527
g62
(dp1528
g70
I4
ssg71
g1522
sg64
(lp1529
g1422
asbasbasbag57
(g73
g59
NtRp1530
(dp1531
g62
(dp1532
sg71
g847
sg64
(lp1533
g57
(g78
g59
NtRp1534
(dp1535
g62
(dp1536
g82
g83
ssg71
g1530
sg64
(lp1537
S'script_name'
p1538
asbag57
(g78
g59
NtRp1539
(dp1540
g62
(dp1541
g89
g90
ssg71
g1530
sg64
(lp1542
S':'
asbag57
(g78
g59
NtRp1543
(dp1544
g62
(dp1545
sg71
g1530
sg64
(lp1546
g57
(g58
g59
NtRp1547
(dp1548
g62
(dp1549
g70
I4
ssg71
g1543
sg64
(lp1550
S''
asbasbasbag57
(g73
g59
NtRp1551
(dp1552
g62
(dp1553
sg71
g847
sg64
(lp1554
g57
(g78
g59
NtRp1555
(dp1556
g62
(dp1557
g82
g83
ssg71
g1551
sg64
(lp1558
S'server_name'
p1559
asbag57
(g78
g59
NtRp1560
(dp1561
g62
(dp1562
g89
g90
ssg71
g1551
sg64
(lp1563
S':'
asbag57
(g78
g59
NtRp1564
(dp1565
g62
(dp1566
sg71
g1551
sg64
(lp1567
g57
(g58
g59
NtRp1568
(dp1569
g62
(dp1570
g70
I4
ssg71
g1564
sg64
(lp1571
S'pankaj-HP-Pavilion-dv4-Notebook-PC'
p1572
asbasbasbag57
(g73
g59
NtRp1573
(dp1574
g62
(dp1575
sg71
g847
sg64
(lp1576
g57
(g78
g59
NtRp1577
(dp1578
g62
(dp1579
g82
g83
ssg71
g1573
sg64
(lp1580
S'server_port'
p1581
asbag57
(g78
g59
NtRp1582
(dp1583
g62
(dp1584
g89
g90
ssg71
g1573
sg64
(lp1585
S':'
asbag57
(g78
g59
NtRp1586
(dp1587
g62
(dp1588
sg71
g1573
sg64
(lp1589
g57
(g58
g59
NtRp1590
(dp1591
g62
(dp1592
g70
I4
ssg71
g1586
sg64
(lp1593
S'8000'
p1594
asbasbasbag57
(g73
g59
NtRp1595
(dp1596
g62
(dp1597
sg71
g847
sg64
(lp1598
g57
(g78
g59
NtRp1599
(dp1600
g62
(dp1601
g82
g83
ssg71
g1595
sg64
(lp1602
S'server_protocol'
p1603
asbag57
(g78
g59
NtRp1604
(dp1605
g62
(dp1606
g89
g90
ssg71
g1595
sg64
(lp1607
S':'
asbag57
(g78
g59
NtRp1608
(dp1609
g62
(dp1610
sg71
g1595
sg64
(lp1611
g57
(g58
g59
NtRp1612
(dp1613
g62
(dp1614
g70
I4
ssg71
g1608
sg64
(lp1615
S'HTTP/1.1'
p1616
asbasbasbag57
(g73
g59
NtRp1617
(dp1618
g62
(dp1619
sg71
g847
sg64
(lp1620
g57
(g78
g59
NtRp1621
(dp1622
g62
(dp1623
g82
g83
ssg71
g1617
sg64
(lp1624
S'server_software'
p1625
asbag57
(g78
g59
NtRp1626
(dp1627
g62
(dp1628
g89
g90
ssg71
g1617
sg64
(lp1629
S':'
asbag57
(g78
g59
NtRp1630
(dp1631
g62
(dp1632
sg71
g1617
sg64
(lp1633
g57
(g58
g59
NtRp1634
(dp1635
g62
(dp1636
g70
I4
ssg71
g1630
sg64
(lp1637
S'Rocket 1.2.6'
p1638
asbasbasbag57
(g73
g59
NtRp1639
(dp1640
g62
(dp1641
sg71
g847
sg64
(lp1642
g57
(g78
g59
NtRp1643
(dp1644
g62
(dp1645
g82
g83
ssg71
g1639
sg64
(lp1646
S'web2py_path'
p1647
asbag57
(g78
g59
NtRp1648
(dp1649
g62
(dp1650
g89
g90
ssg71
g1639
sg64
(lp1651
S':'
asbag57
(g78
g59
NtRp1652
(dp1653
g62
(dp1654
sg71
g1639
sg64
(lp1655
g57
(g58
g59
NtRp1656
(dp1657
g62
(dp1658
g70
I4
ssg71
g1652
sg64
(lp1659
g894
asbasbasbag57
(g73
g59
NtRp1660
(dp1661
g62
(dp1662
sg71
g847
sg64
(lp1663
g57
(g78
g59
NtRp1664
(dp1665
g62
(dp1666
g82
g83
ssg71
g1660
sg64
(lp1667
S'web2py_version'
p1668
asbag57
(g78
g59
NtRp1669
(dp1670
g62
(dp1671
g89
g90
ssg71
g1660
sg64
(lp1672
S':'
asbag57
(g78
g59
NtRp1673
(dp1674
g62
(dp1675
sg71
g1660
sg64
(lp1676
g57
(g58
g59
NtRp1677
(dp1678
g62
(dp1679
g70
I4
ssg71
g1673
sg64
(lp1680
g57
(g66
g59
NtRp1681
(dp1682
g62
(dp1683
g70
I3
ssg71
Nsg64
(lp1684
g57
(g73
g59
NtRp1685
(dp1686
g62
(dp1687
sg71
g1681
sg64
(lp1688
g57
(g78
g59
NtRp1689
(dp1690
g62
(dp1691
sg71
g1685
sg64
(lp1692
g57
(g58
g59
NtRp1693
(dp1694
g62
(dp1695
g70
I3
ssg71
g1689
sg64
(lp1696
S'2'
asbasbasbag57
(g73
g59
NtRp1697
(dp1698
g62
(dp1699
sg71
g1681
sg64
(lp1700
g57
(g78
g59
NtRp1701
(dp1702
g62
(dp1703
sg71
g1697
sg64
(lp1704
g57
(g58
g59
NtRp1705
(dp1706
g62
(dp1707
g70
I3
ssg71
g1701
sg64
(lp1708
S'3'
asbasbasbag57
(g73
g59
NtRp1709
(dp1710
g62
(dp1711
sg71
g1681
sg64
(lp1712
g57
(g78
g59
NtRp1713
(dp1714
g62
(dp1715
sg71
g1709
sg64
(lp1716
g57
(g58
g59
NtRp1717
(dp1718
g62
(dp1719
g70
I3
ssg71
g1713
sg64
(lp1720
S'2'
asbasbasbag57
(g73
g59
NtRp1721
(dp1722
g62
(dp1723
sg71
g1681
sg64
(lp1724
g57
(g78
g59
NtRp1725
(dp1726
g62
(dp1727
sg71
g1721
sg64
(lp1728
g57
(g58
g59
NtRp1729
(dp1730
g62
(dp1731
g70
I3
ssg71
g1725
sg64
(lp1732
S'datetime.datetime(2012, 12, 17, 15, 3, 30)'
p1733
asbasbasbag57
(g73
g59
NtRp1734
(dp1735
g62
(dp1736
sg71
g1681
sg64
(lp1737
g57
(g78
g59
NtRp1738
(dp1739
g62
(dp1740
sg71
g1734
sg64
(lp1741
g57
(g58
g59
NtRp1742
(dp1743
g62
(dp1744
g70
I3
ssg71
g1738
sg64
(lp1745
S'stable'
p1746
asbasbasbasbasbasbasbag57
(g73
g59
NtRp1747
(dp1748
g62
(dp1749
sg71
g847
sg64
(lp1750
g57
(g78
g59
NtRp1751
(dp1752
g62
(dp1753
g82
g83
ssg71
g1747
sg64
(lp1754
S'wsgi_errors'
p1755
asbag57
(g78
g59
NtRp1756
(dp1757
g62
(dp1758
g89
g90
ssg71
g1747
sg64
(lp1759
S':'
asbag57
(g78
g59
NtRp1760
(dp1761
g62
(dp1762
sg71
g1747
sg64
(lp1763
g57
(g58
g59
NtRp1764
(dp1765
g62
(dp1766
g70
I4
ssg71
g1760
sg64
(lp1767
S"<open file '<stderr>', mode 'w' at 0xb735e0d0>"
p1768
asbasbasbag57
(g73
g59
NtRp1769
(dp1770
g62
(dp1771
sg71
g847
sg64
(lp1772
g57
(g78
g59
NtRp1773
(dp1774
g62
(dp1775
g82
g83
ssg71
g1769
sg64
(lp1776
S'wsgi_file_wrapper'
p1777
asbag57
(g78
g59
NtRp1778
(dp1779
g62
(dp1780
g89
g90
ssg71
g1769
sg64
(lp1781
S':'
asbag57
(g78
g59
NtRp1782
(dp1783
g62
(dp1784
sg71
g1769
sg64
(lp1785
g57
(g58
g59
NtRp1786
(dp1787
g62
(dp1788
g70
I4
ssg71
g1782
sg64
(lp1789
S'<class wsgiref.util.FileWrapper at 0x96a105c>'
p1790
asbasbasbag57
(g73
g59
NtRp1791
(dp1792
g62
(dp1793
sg71
g847
sg64
(lp1794
g57
(g78
g59
NtRp1795
(dp1796
g62
(dp1797
g82
g83
ssg71
g1791
sg64
(lp1798
S'wsgi_input'
p1799
asbag57
(g78
g59
NtRp1800
(dp1801
g62
(dp1802
g89
g90
ssg71
g1791
sg64
(lp1803
S':'
asbag57
(g78
g59
NtRp1804
(dp1805
g62
(dp1806
sg71
g1791
sg64
(lp1807
g57
(g58
g59
NtRp1808
(dp1809
g62
(dp1810
g70
I4
ssg71
g1804
sg64
(lp1811
S'<socket._fileobject object at 0xae5643ec>'
p1812
asbasbasbag57
(g73
g59
NtRp1813
(dp1814
g62
(dp1815
sg71
g847
sg64
(lp1816
g57
(g78
g59
NtRp1817
(dp1818
g62
(dp1819
g82
g83
ssg71
g1813
sg64
(lp1820
S'wsgi_multiprocess'
p1821
asbag57
(g78
g59
NtRp1822
(dp1823
g62
(dp1824
g89
g90
ssg71
g1813
sg64
(lp1825
S':'
asbag57
(g78
g59
NtRp1826
(dp1827
g62
(dp1828
sg71
g1813
sg64
(lp1829
g57
(g58
g59
NtRp1830
(dp1831
g62
(dp1832
g70
I4
ssg71
g1826
sg64
(lp1833
g100
asbasbasbag57
(g73
g59
NtRp1834
(dp1835
g62
(dp1836
sg71
g847
sg64
(lp1837
g57
(g78
g59
NtRp1838
(dp1839
g62
(dp1840
g82
g83
ssg71
g1834
sg64
(lp1841
S'wsgi_multithread'
p1842
asbag57
(g78
g59
NtRp1843
(dp1844
g62
(dp1845
g89
g90
ssg71
g1834
sg64
(lp1846
S':'
asbag57
(g78
g59
NtRp1847
(dp1848
g62
(dp1849
sg71
g1834
sg64
(lp1850
g57
(g58
g59
NtRp1851
(dp1852
g62
(dp1853
g70
I4
ssg71
g1847
sg64
(lp1854
S'True'
p1855
asbasbasbag57
(g73
g59
NtRp1856
(dp1857
g62
(dp1858
sg71
g847
sg64
(lp1859
g57
(g78
g59
NtRp1860
(dp1861
g62
(dp1862
g82
g83
ssg71
g1856
sg64
(lp1863
S'wsgi_run_once'
p1864
asbag57
(g78
g59
NtRp1865
(dp1866
g62
(dp1867
g89
g90
ssg71
g1856
sg64
(lp1868
S':'
asbag57
(g78
g59
NtRp1869
(dp1870
g62
(dp1871
sg71
g1856
sg64
(lp1872
g57
(g58
g59
NtRp1873
(dp1874
g62
(dp1875
g70
I4
ssg71
g1869
sg64
(lp1876
g100
asbasbasbag57
(g73
g59
NtRp1877
(dp1878
g62
(dp1879
sg71
g847
sg64
(lp1880
g57
(g78
g59
NtRp1881
(dp1882
g62
(dp1883
g82
g83
ssg71
g1877
sg64
(lp1884
S'wsgi_url_scheme'
p1885
asbag57
(g78
g59
NtRp1886
(dp1887
g62
(dp1888
g89
g90
ssg71
g1877
sg64
(lp1889
S':'
asbag57
(g78
g59
NtRp1890
(dp1891
g62
(dp1892
sg71
g1877
sg64
(lp1893
g57
(g58
g59
NtRp1894
(dp1895
g62
(dp1896
g70
I4
ssg71
g1890
sg64
(lp1897
S'http'
p1898
asbasbasbag57
(g73
g59
NtRp1899
(dp1900
g62
(dp1901
sg71
g847
sg64
(lp1902
g57
(g78
g59
NtRp1903
(dp1904
g62
(dp1905
g82
g83
ssg71
g1899
sg64
(lp1906
S'wsgi_version'
p1907
asbag57
(g78
g59
NtRp1908
(dp1909
g62
(dp1910
g89
g90
ssg71
g1899
sg64
(lp1911
S':'
asbag57
(g78
g59
NtRp1912
(dp1913
g62
(dp1914
sg71
g1899
sg64
(lp1915
g57
(g58
g59
NtRp1916
(dp1917
g62
(dp1918
g70
I4
ssg71
g1912
sg64
(lp1919
g57
(g66
g59
NtRp1920
(dp1921
g62
(dp1922
g70
I3
ssg71
Nsg64
(lp1923
g57
(g73
g59
NtRp1924
(dp1925
g62
(dp1926
sg71
g1920
sg64
(lp1927
g57
(g78
g59
NtRp1928
(dp1929
g62
(dp1930
sg71
g1924
sg64
(lp1931
g57
(g58
g59
NtRp1932
(dp1933
g62
(dp1934
g70
I3
ssg71
g1928
sg64
(lp1935
S'1'
asbasbasbag57
(g73
g59
NtRp1936
(dp1937
g62
(dp1938
sg71
g1920
sg64
(lp1939
g57
(g78
g59
NtRp1940
(dp1941
g62
(dp1942
sg71
g1936
sg64
(lp1943
g57
(g58
g59
NtRp1944
(dp1945
g62
(dp1946
g70
I3
ssg71
g1940
sg64
(lp1947
S'0'
asbasbasbasbasbasbasbasbasbasbasbag57
(g73
g59
NtRp1948
(dp1949
g62
(dp1950
sg71
g67
sg64
(lp1951
g57
(g78
g59
NtRp1952
(dp1953
g62
(dp1954
g82
g83
ssg71
g1948
sg64
(lp1955
S'extension'
p1956
asbag57
(g78
g59
NtRp1957
(dp1958
g62
(dp1959
g89
g90
ssg71
g1948
sg64
(lp1960
S':'
asbag57
(g78
g59
NtRp1961
(dp1962
g62
(dp1963
sg71
g1948
sg64
(lp1964
g57
(g58
g59
NtRp1965
(dp1966
g62
(dp1967
g70
I5
ssg71
g1961
sg64
(lp1968
S'html'
p1969
asbasbasbag57
(g73
g59
NtRp1970
(dp1971
g62
(dp1972
sg71
g67
sg64
(lp1973
g57
(g78
g59
NtRp1974
(dp1975
g62
(dp1976
g82
g83
ssg71
g1970
sg64
(lp1977
S'folder'
p1978
asbag57
(g78
g59
NtRp1979
(dp1980
g62
(dp1981
g89
g90
ssg71
g1970
sg64
(lp1982
S':'
asbag57
(g78
g59
NtRp1983
(dp1984
g62
(dp1985
sg71
g1970
sg64
(lp1986
g57
(g58
g59
NtRp1987
(dp1988
g62
(dp1989
g70
I5
ssg71
g1983
sg64
(lp1990
S'/home/pankaj/web2py/applications/reddit/'
p1991
asbasbasbag57
(g73
g59
NtRp1992
(dp1993
g62
(dp1994
sg71
g67
sg64
(lp1995
g57
(g78
g59
NtRp1996
(dp1997
g62
(dp1998
g82
g83
ssg71
g1992
sg64
(lp1999
S'function'
p2000
asbag57
(g78
g59
NtRp2001
(dp2002
g62
(dp2003
g89
g90
ssg71
g1992
sg64
(lp2004
S':'
asbag57
(g78
g59
NtRp2005
(dp2006
g62
(dp2007
sg71
g1992
sg64
(lp2008
g57
(g58
g59
NtRp2009
(dp2010
g62
(dp2011
g70
I5
ssg71
g2005
sg64
(lp2012
S'editn'
p2013
asbasbasbag57
(g73
g59
NtRp2014
(dp2015
g62
(dp2016
sg71
g67
sg64
(lp2017
g57
(g78
g59
NtRp2018
(dp2019
g62
(dp2020
g82
g83
ssg71
g2014
sg64
(lp2021
S'get_vars'
p2022
asbag57
(g78
g59
NtRp2023
(dp2024
g62
(dp2025
g89
g90
ssg71
g2014
sg64
(lp2026
S':'
asbag57
(g78
g59
NtRp2027
(dp2028
g62
(dp2029
sg71
g2014
sg64
(lp2030
g57
(g58
g59
NtRp2031
(dp2032
g62
(dp2033
g70
I5
ssg71
g2027
sg64
(lp2034
g57
(g66
g59
NtRp2035
(dp2036
g62
(dp2037
g70
I4
ssg71
Nsg64
(lp2038
sbasbasbasbag57
(g73
g59
NtRp2039
(dp2040
g62
(dp2041
sg71
g67
sg64
(lp2042
g57
(g78
g59
NtRp2043
(dp2044
g62
(dp2045
g82
g83
ssg71
g2039
sg64
(lp2046
S'global_settings'
p2047
asbag57
(g78
g59
NtRp2048
(dp2049
g62
(dp2050
g89
g90
ssg71
g2039
sg64
(lp2051
S':'
asbag57
(g78
g59
NtRp2052
(dp2053
g62
(dp2054
sg71
g2039
sg64
(lp2055
g57
(g58
g59
NtRp2056
(dp2057
g62
(dp2058
g70
I5
ssg71
g2052
sg64
(lp2059
g57
(g66
g59
NtRp2060
(dp2061
g62
(dp2062
g70
I4
ssg71
Nsg64
(lp2063
g57
(g73
g59
NtRp2064
(dp2065
g62
(dp2066
sg71
g2060
sg64
(lp2067
g57
(g78
g59
NtRp2068
(dp2069
g62
(dp2070
g82
g83
ssg71
g2064
sg64
(lp2071
g859
asbag57
(g78
g59
NtRp2072
(dp2073
g62
(dp2074
g89
g90
ssg71
g2064
sg64
(lp2075
S':'
asbag57
(g78
g59
NtRp2076
(dp2077
g62
(dp2078
sg71
g2064
sg64
(lp2079
g57
(g58
g59
NtRp2080
(dp2081
g62
(dp2082
g70
I4
ssg71
g2076
sg64
(lp2083
S"set(['/home/pankaj/web2py/applications/admin/', '/home/pankaj/web2py/applications/welcome/', '/home/pankaj/web2py/applications/reddit/'])"
p2084
asbasbasbag57
(g73
g59
NtRp2085
(dp2086
g62
(dp2087
sg71
g2060
sg64
(lp2088
g57
(g78
g59
NtRp2089
(dp2090
g62
(dp2091
g82
g83
ssg71
g2085
sg64
(lp2092
g881
asbag57
(g78
g59
NtRp2093
(dp2094
g62
(dp2095
g89
g90
ssg71
g2085
sg64
(lp2096
S':'
asbag57
(g78
g59
NtRp2097
(dp2098
g62
(dp2099
sg71
g2085
sg64
(lp2100
g57
(g58
g59
NtRp2101
(dp2102
g62
(dp2103
g70
I4
ssg71
g2097
sg64
(lp2104
g894
asbasbasbag57
(g73
g59
NtRp2105
(dp2106
g62
(dp2107
sg71
g2060
sg64
(lp2108
g57
(g78
g59
NtRp2109
(dp2110
g62
(dp2111
g82
g83
ssg71
g2105
sg64
(lp2112
g903
asbag57
(g78
g59
NtRp2113
(dp2114
g62
(dp2115
g89
g90
ssg71
g2105
sg64
(lp2116
S':'
asbag57
(g78
g59
NtRp2117
(dp2118
g62
(dp2119
sg71
g2105
sg64
(lp2120
g57
(g58
g59
NtRp2121
(dp2122
g62
(dp2123
g70
I4
ssg71
g2117
sg64
(lp2124
g57
(g66
g59
NtRp2125
(dp2126
g62
(dp2127
g70
I3
ssg71
Nsg64
(lp2128
sbasbasbasbag57
(g73
g59
NtRp2129
(dp2130
g62
(dp2131
sg71
g2060
sg64
(lp2132
g57
(g78
g59
NtRp2133
(dp2134
g62
(dp2135
g82
g83
ssg71
g2129
sg64
(lp2136
g928
asbag57
(g78
g59
NtRp2137
(dp2138
g62
(dp2139
g89
g90
ssg71
g2129
sg64
(lp2140
S':'
asbag57
(g78
g59
NtRp2141
(dp2142
g62
(dp2143
sg71
g2129
sg64
(lp2144
g57
(g58
g59
NtRp2145
(dp2146
g62
(dp2147
g70
I4
ssg71
g2141
sg64
(lp2148
S"<Values at 0x96dbdcc: {'verbose': False, 'ip': '127.0.0.1', 'with_scheduler': False, 'ips': [], 'shutdown_timeout': 5, 'taskbar': False, 'port': 8000, 'maxthreads': None, 'softcron': False, 'server_name': 'pankaj-HP-Pavilion-dv4-Notebook-PC', 'bpython': False, 'nogui': False, 'pid_filename': 'httpserver.pid', 'extcron': False, 'runcron': False, 'run_system_tests': False, 'test': None, 'folder': '/home/pankaj/web2py', 'config': '', 'import_models': False, 'winservice': '', 'shell': None, 'run': '', 'log_filename': 'httpserver.log', 'debuglevel': 30, 'args': [''], 'socket_timeout': 5, 'ssl_ca_certificate': None, 'scheduler': None, 'profiler_filename': None, 'ssl_private_key': '', 'scheduler_groups': None, 'password': '<ask>', 'request_queue_size': 5, 'ssl_certificate': '', 'cronjob': False, 'numthreads': None, 'quiet': False, 'interfaces': None, 'minthreads': None, 'timeout': 10, 'plain': False, 'nobanner': False}>"
p2149
asbasbasbag57
(g73
g59
NtRp2150
(dp2151
g62
(dp2152
sg71
g2060
sg64
(lp2153
g57
(g78
g59
NtRp2154
(dp2155
g62
(dp2156
g82
g83
ssg71
g2150
sg64
(lp2157
g994
asbag57
(g78
g59
NtRp2158
(dp2159
g62
(dp2160
g89
g90
ssg71
g2150
sg64
(lp2161
S':'
asbag57
(g78
g59
NtRp2162
(dp2163
g62
(dp2164
sg71
g2150
sg64
(lp2165
g57
(g58
g59
NtRp2166
(dp2167
g62
(dp2168
g70
I4
ssg71
g2162
sg64
(lp2169
S'set([])'
p2170
asbasbasbag57
(g73
g59
NtRp2171
(dp2172
g62
(dp2173
sg71
g2060
sg64
(lp2174
g57
(g78
g59
NtRp2175
(dp2176
g62
(dp2177
g82
g83
ssg71
g2171
sg64
(lp2178
g1016
asbag57
(g78
g59
NtRp2179
(dp2180
g62
(dp2181
g89
g90
ssg71
g2171
sg64
(lp2182
S':'
asbag57
(g78
g59
NtRp2183
(dp2184
g62
(dp2185
sg71
g2171
sg64
(lp2186
g57
(g58
g59
NtRp2187
(dp2188
g62
(dp2189
g70
I4
ssg71
g2183
sg64
(lp2190
g100
asbasbasbag57
(g73
g59
NtRp2191
(dp2192
g62
(dp2193
sg71
g2060
sg64
(lp2194
g57
(g78
g59
NtRp2195
(dp2196
g62
(dp2197
g82
g83
ssg71
g2191
sg64
(lp2198
g1037
asbag57
(g78
g59
NtRp2199
(dp2200
g62
(dp2201
g89
g90
ssg71
g2191
sg64
(lp2202
S':'
asbag57
(g78
g59
NtRp2203
(dp2204
g62
(dp2205
sg71
g2191
sg64
(lp2206
g57
(g58
g59
NtRp2207
(dp2208
g62
(dp2209
g70
I4
ssg71
g2203
sg64
(lp2210
g1050
asbasbasbag57
(g73
g59
NtRp2211
(dp2212
g62
(dp2213
sg71
g2060
sg64
(lp2214
g57
(g78
g59
NtRp2215
(dp2216
g62
(dp2217
g82
g83
ssg71
g2211
sg64
(lp2218
g1277
asbag57
(g78
g59
NtRp2219
(dp2220
g62
(dp2221
g89
g90
ssg71
g2211
sg64
(lp2222
S':'
asbag57
(g78
g59
NtRp2223
(dp2224
g62
(dp2225
sg71
g2211
sg64
(lp2226
g57
(g58
g59
NtRp2227
(dp2228
g62
(dp2229
g70
I4
ssg71
g2223
sg64
(lp2230
g100
asbasbasbag57
(g73
g59
NtRp2231
(dp2232
g62
(dp2233
sg71
g2060
sg64
(lp2234
g57
(g78
g59
NtRp2235
(dp2236
g62
(dp2237
g82
g83
ssg71
g2231
sg64
(lp2238
g1298
asbag57
(g78
g59
NtRp2239
(dp2240
g62
(dp2241
g89
g90
ssg71
g2231
sg64
(lp2242
S':'
asbag57
(g78
g59
NtRp2243
(dp2244
g62
(dp2245
sg71
g2231
sg64
(lp2246
g57
(g58
g59
NtRp2247
(dp2248
g62
(dp2249
g70
I4
ssg71
g2243
sg64
(lp2250
g100
asbasbasbag57
(g73
g59
NtRp2251
(dp2252
g62
(dp2253
sg71
g2060
sg64
(lp2254
g57
(g78
g59
NtRp2255
(dp2256
g62
(dp2257
g82
g83
ssg71
g2251
sg64
(lp2258
g1319
asbag57
(g78
g59
NtRp2259
(dp2260
g62
(dp2261
g89
g90
ssg71
g2251
sg64
(lp2262
S':'
asbag57
(g78
g59
NtRp2263
(dp2264
g62
(dp2265
sg71
g2251
sg64
(lp2266
g57
(g58
g59
NtRp2267
(dp2268
g62
(dp2269
g70
I4
ssg71
g2263
sg64
(lp2270
g57
(g66
g59
NtRp2271
(dp2272
g62
(dp2273
g70
I3
ssg71
Nsg64
(lp2274
g57
(g73
g59
NtRp2275
(dp2276
g62
(dp2277
sg71
g2271
sg64
(lp2278
g57
(g78
g59
NtRp2279
(dp2280
g62
(dp2281
sg71
g2275
sg64
(lp2282
g57
(g58
g59
NtRp2283
(dp2284
g62
(dp2285
g70
I3
ssg71
g2279
sg64
(lp2286
g1348
asbasbasbag57
(g73
g59
NtRp2287
(dp2288
g62
(dp2289
sg71
g2271
sg64
(lp2290
g57
(g78
g59
NtRp2291
(dp2292
g62
(dp2293
sg71
g2287
sg64
(lp2294
g57
(g58
g59
NtRp2295
(dp2296
g62
(dp2297
g70
I3
ssg71
g2291
sg64
(lp2298
g1361
asbasbasbag57
(g73
g59
NtRp2299
(dp2300
g62
(dp2301
sg71
g2271
sg64
(lp2302
g57
(g78
g59
NtRp2303
(dp2304
g62
(dp2305
sg71
g2299
sg64
(lp2306
g57
(g58
g59
NtRp2307
(dp2308
g62
(dp2309
g70
I3
ssg71
g2303
sg64
(lp2310
g1374
asbasbasbag57
(g73
g59
NtRp2311
(dp2312
g62
(dp2313
sg71
g2271
sg64
(lp2314
g57
(g78
g59
NtRp2315
(dp2316
g62
(dp2317
sg71
g2311
sg64
(lp2318
g57
(g58
g59
NtRp2319
(dp2320
g62
(dp2321
g70
I3
ssg71
g2315
sg64
(lp2322
g1387
asbasbasbag57
(g73
g59
NtRp2323
(dp2324
g62
(dp2325
sg71
g2271
sg64
(lp2326
g57
(g78
g59
NtRp2327
(dp2328
g62
(dp2329
sg71
g2323
sg64
(lp2330
g57
(g58
g59
NtRp2331
(dp2332
g62
(dp2333
g70
I3
ssg71
g2327
sg64
(lp2334
g1400
asbasbasbasbasbasbasbag57
(g73
g59
NtRp2335
(dp2336
g62
(dp2337
sg71
g2060
sg64
(lp2338
g57
(g78
g59
NtRp2339
(dp2340
g62
(dp2341
g82
g83
ssg71
g2335
sg64
(lp2342
g1668
asbag57
(g78
g59
NtRp2343
(dp2344
g62
(dp2345
g89
g90
ssg71
g2335
sg64
(lp2346
S':'
asbag57
(g78
g59
NtRp2347
(dp2348
g62
(dp2349
sg71
g2335
sg64
(lp2350
g57
(g58
g59
NtRp2351
(dp2352
g62
(dp2353
g70
I4
ssg71
g2347
sg64
(lp2354
g57
(g66
g59
NtRp2355
(dp2356
g62
(dp2357
g70
I3
ssg71
Nsg64
(lp2358
g57
(g73
g59
NtRp2359
(dp2360
g62
(dp2361
sg71
g2355
sg64
(lp2362
g57
(g78
g59
NtRp2363
(dp2364
g62
(dp2365
sg71
g2359
sg64
(lp2366
g57
(g58
g59
NtRp2367
(dp2368
g62
(dp2369
g70
I3
ssg71
g2363
sg64
(lp2370
S'2'
asbasbasbag57
(g73
g59
NtRp2371
(dp2372
g62
(dp2373
sg71
g2355
sg64
(lp2374
g57
(g78
g59
NtRp2375
(dp2376
g62
(dp2377
sg71
g2371
sg64
(lp2378
g57
(g58
g59
NtRp2379
(dp2380
g62
(dp2381
g70
I3
ssg71
g2375
sg64
(lp2382
S'3'
asbasbasbag57
(g73
g59
NtRp2383
(dp2384
g62
(dp2385
sg71
g2355
sg64
(lp2386
g57
(g78
g59
NtRp2387
(dp2388
g62
(dp2389
sg71
g2383
sg64
(lp2390
g57
(g58
g59
NtRp2391
(dp2392
g62
(dp2393
g70
I3
ssg71
g2387
sg64
(lp2394
S'2'
asbasbasbag57
(g73
g59
NtRp2395
(dp2396
g62
(dp2397
sg71
g2355
sg64
(lp2398
g57
(g78
g59
NtRp2399
(dp2400
g62
(dp2401
sg71
g2395
sg64
(lp2402
g57
(g58
g59
NtRp2403
(dp2404
g62
(dp2405
g70
I3
ssg71
g2399
sg64
(lp2406
S'datetime.datetime(2012, 12, 17, 15, 3, 30)'
p2407
asbasbasbag57
(g73
g59
NtRp2408
(dp2409
g62
(dp2410
sg71
g2355
sg64
(lp2411
g57
(g78
g59
NtRp2412
(dp2413
g62
(dp2414
sg71
g2408
sg64
(lp2415
g57
(g58
g59
NtRp2416
(dp2417
g62
(dp2418
g70
I3
ssg71
g2412
sg64
(lp2419
g1746
asbasbasbasbasbasbasbasbasbasbasbag57
(g73
g59
NtRp2420
(dp2421
g62
(dp2422
sg71
g67
sg64
(lp2423
g57
(g78
g59
NtRp2424
(dp2425
g62
(dp2426
g82
g83
ssg71
g2420
sg64
(lp2427
S'is_https'
p2428
asbag57
(g78
g59
NtRp2429
(dp2430
g62
(dp2431
g89
g90
ssg71
g2420
sg64
(lp2432
S':'
asbag57
(g78
g59
NtRp2433
(dp2434
g62
(dp2435
sg71
g2420
sg64
(lp2436
g57
(g58
g59
NtRp2437
(dp2438
g62
(dp2439
g70
I5
ssg71
g2433
sg64
(lp2440
g100
asbasbasbag57
(g73
g59
NtRp2441
(dp2442
g62
(dp2443
sg71
g67
sg64
(lp2444
g57
(g78
g59
NtRp2445
(dp2446
g62
(dp2447
g82
g83
ssg71
g2441
sg64
(lp2448
S'is_local'
p2449
asbag57
(g78
g59
NtRp2450
(dp2451
g62
(dp2452
g89
g90
ssg71
g2441
sg64
(lp2453
S':'
asbag57
(g78
g59
NtRp2454
(dp2455
g62
(dp2456
sg71
g2441
sg64
(lp2457
g57
(g58
g59
NtRp2458
(dp2459
g62
(dp2460
g70
I5
ssg71
g2454
sg64
(lp2461
g1855
asbasbasbag57
(g73
g59
NtRp2462
(dp2463
g62
(dp2464
sg71
g67
sg64
(lp2465
g57
(g78
g59
NtRp2466
(dp2467
g62
(dp2468
g82
g83
ssg71
g2462
sg64
(lp2469
S'is_restful'
p2470
asbag57
(g78
g59
NtRp2471
(dp2472
g62
(dp2473
g89
g90
ssg71
g2462
sg64
(lp2474
S':'
asbag57
(g78
g59
NtRp2475
(dp2476
g62
(dp2477
sg71
g2462
sg64
(lp2478
g57
(g58
g59
NtRp2479
(dp2480
g62
(dp2481
g70
I5
ssg71
g2475
sg64
(lp2482
g100
asbasbasbag57
(g73
g59
NtRp2483
(dp2484
g62
(dp2485
sg71
g67
sg64
(lp2486
g57
(g78
g59
NtRp2487
(dp2488
g62
(dp2489
g82
g83
ssg71
g2483
sg64
(lp2490
S'now'
p2491
asbag57
(g78
g59
NtRp2492
(dp2493
g62
(dp2494
g89
g90
ssg71
g2483
sg64
(lp2495
S':'
asbag57
(g78
g59
NtRp2496
(dp2497
g62
(dp2498
sg71
g2483
sg64
(lp2499
g57
(g58
g59
NtRp2500
(dp2501
g62
(dp2502
g70
I5
ssg71
g2496
sg64
(lp2503
S'datetime.datetime(2013, 9, 1, 10, 22, 9, 70771)'
p2504
asbasbasbag57
(g73
g59
NtRp2505
(dp2506
g62
(dp2507
sg71
g67
sg64
(lp2508
g57
(g78
g59
NtRp2509
(dp2510
g62
(dp2511
g82
g83
ssg71
g2505
sg64
(lp2512
S'post_vars'
p2513
asbag57
(g78
g59
NtRp2514
(dp2515
g62
(dp2516
g89
g90
ssg71
g2505
sg64
(lp2517
S':'
asbag57
(g78
g59
NtRp2518
(dp2519
g62
(dp2520
sg71
g2505
sg64
(lp2521
g57
(g58
g59
NtRp2522
(dp2523
g62
(dp2524
g70
I5
ssg71
g2518
sg64
(lp2525
g57
(g66
g59
NtRp2526
(dp2527
g62
(dp2528
g70
I4
ssg71
Nsg64
(lp2529
g57
(g73
g59
NtRp2530
(dp2531
g62
(dp2532
sg71
g2526
sg64
(lp2533
g57
(g78
g59
NtRp2534
(dp2535
g62
(dp2536
g82
g83
ssg71
g2530
sg64
(lp2537
S'cat'
p2538
asbag57
(g78
g59
NtRp2539
(dp2540
g62
(dp2541
g89
g90
ssg71
g2530
sg64
(lp2542
S':'
asbag57
(g78
g59
NtRp2543
(dp2544
g62
(dp2545
sg71
g2530
sg64
(lp2546
g57
(g58
g59
NtRp2547
(dp2548
g62
(dp2549
g70
I4
ssg71
g2543
sg64
(lp2550
S'education'
p2551
asbasbasbag57
(g73
g59
NtRp2552
(dp2553
g62
(dp2554
sg71
g2526
sg64
(lp2555
g57
(g78
g59
NtRp2556
(dp2557
g62
(dp2558
g82
g83
ssg71
g2552
sg64
(lp2559
S'delete_this_record'
p2560
asbag57
(g78
g59
NtRp2561
(dp2562
g62
(dp2563
g89
g90
ssg71
g2552
sg64
(lp2564
S':'
asbag57
(g78
g59
NtRp2565
(dp2566
g62
(dp2567
sg71
g2552
sg64
(lp2568
g57
(g58
g59
NtRp2569
(dp2570
g62
(dp2571
g70
I4
ssg71
g2565
sg64
(lp2572
S'on'
p2573
asbasbasbag57
(g73
g59
NtRp2574
(dp2575
g62
(dp2576
sg71
g2526
sg64
(lp2577
g57
(g78
g59
NtRp2578
(dp2579
g62
(dp2580
g82
g83
ssg71
g2574
sg64
(lp2581
S'head'
p2582
asbag57
(g78
g59
NtRp2583
(dp2584
g62
(dp2585
g89
g90
ssg71
g2574
sg64
(lp2586
S':'
asbag57
(g78
g59
NtRp2587
(dp2588
g62
(dp2589
sg71
g2574
sg64
(lp2590
g57
(g58
g59
NtRp2591
(dp2592
g62
(dp2593
g70
I4
ssg71
g2587
sg64
(lp2594
S'mid sems coming'
p2595
asbasbasbag57
(g73
g59
NtRp2596
(dp2597
g62
(dp2598
sg71
g2526
sg64
(lp2599
g57
(g78
g59
NtRp2600
(dp2601
g62
(dp2602
g82
g83
ssg71
g2596
sg64
(lp2603
S'id'
p2604
asbag57
(g78
g59
NtRp2605
(dp2606
g62
(dp2607
g89
g90
ssg71
g2596
sg64
(lp2608
S':'
asbag57
(g78
g59
NtRp2609
(dp2610
g62
(dp2611
sg71
g2596
sg64
(lp2612
g57
(g58
g59
NtRp2613
(dp2614
g62
(dp2615
g70
I4
ssg71
g2609
sg64
(lp2616
S'7'
asbasbasbag57
(g73
g59
NtRp2617
(dp2618
g62
(dp2619
sg71
g2526
sg64
(lp2620
g57
(g78
g59
NtRp2621
(dp2622
g62
(dp2623
g82
g83
ssg71
g2617
sg64
(lp2624
S'nurl'
p2625
asbag57
(g78
g59
NtRp2626
(dp2627
g62
(dp2628
g89
g90
ssg71
g2617
sg64
(lp2629
S':'
asbag57
(g78
g59
NtRp2630
(dp2631
g62
(dp2632
sg71
g2617
sg64
(lp2633
g57
(g58
g59
NtRp2634
(dp2635
g62
(dp2636
g70
I4
ssg71
g2630
sg64
(lp2637
S'https://www.google.co.in/'
p2638
asbasbasbag57
(g73
g59
NtRp2639
(dp2640
g62
(dp2641
sg71
g2526
sg64
(lp2642
g57
(g78
g59
NtRp2643
(dp2644
g62
(dp2645
g82
g83
ssg71
g2639
sg64
(lp2646
S'rating'
p2647
asbag57
(g78
g59
NtRp2648
(dp2649
g62
(dp2650
g89
g90
ssg71
g2639
sg64
(lp2651
S':'
asbag57
(g78
g59
NtRp2652
(dp2653
g62
(dp2654
sg71
g2639
sg64
(lp2655
g57
(g58
g59
NtRp2656
(dp2657
g62
(dp2658
g70
I4
ssg71
g2652
sg64
(lp2659
S'97'
p2660
asbasbasbasbasbasbasbag57
(g73
g59
NtRp2661
(dp2662
g62
(dp2663
sg71
g67
sg64
(lp2664
g57
(g78
g59
NtRp2665
(dp2666
g62
(dp2667
g82
g83
ssg71
g2661
sg64
(lp2668
S'raw_args'
p2669
asbag57
(g78
g59
NtRp2670
(dp2671
g62
(dp2672
g89
g90
ssg71
g2661
sg64
(lp2673
S':'
asbag57
(g78
g59
NtRp2674
(dp2675
g62
(dp2676
sg71
g2661
sg64
(lp2677
g57
(g58
g59
NtRp2678
(dp2679
g62
(dp2680
g70
I5
ssg71
g2674
sg64
(lp2681
S''
asbasbasbag57
(g73
g59
NtRp2682
(dp2683
g62
(dp2684
sg71
g67
sg64
(lp2685
g57
(g78
g59
NtRp2686
(dp2687
g62
(dp2688
g82
g83
ssg71
g2682
sg64
(lp2689
S'raw_extension'
p2690
asbag57
(g78
g59
NtRp2691
(dp2692
g62
(dp2693
g89
g90
ssg71
g2682
sg64
(lp2694
S':'
asbag57
(g78
g59
NtRp2695
(dp2696
g62
(dp2697
sg71
g2682
sg64
(lp2698
g57
(g58
g59
NtRp2699
(dp2700
g62
(dp2701
g70
I5
ssg71
g2695
sg64
(lp2702
S'None'
p2703
asbasbasbag57
(g73
g59
NtRp2704
(dp2705
g62
(dp2706
sg71
g67
sg64
(lp2707
g57
(g78
g59
NtRp2708
(dp2709
g62
(dp2710
g82
g83
ssg71
g2704
sg64
(lp2711
S'url'
p2712
asbag57
(g78
g59
NtRp2713
(dp2714
g62
(dp2715
g89
g90
ssg71
g2704
sg64
(lp2716
S':'
asbag57
(g78
g59
NtRp2717
(dp2718
g62
(dp2719
sg71
g2704
sg64
(lp2720
g57
(g58
g59
NtRp2721
(dp2722
g62
(dp2723
g70
I5
ssg71
g2717
sg64
(lp2724
g1422
asbasbasbag57
(g73
g59
NtRp2725
(dp2726
g62
(dp2727
sg71
g67
sg64
(lp2728
g57
(g78
g59
NtRp2729
(dp2730
g62
(dp2731
g82
g83
ssg71
g2725
sg64
(lp2732
S'utcnow'
p2733
asbag57
(g78
g59
NtRp2734
(dp2735
g62
(dp2736
g89
g90
ssg71
g2725
sg64
(lp2737
S':'
asbag57
(g78
g59
NtRp2738
(dp2739
g62
(dp2740
sg71
g2725
sg64
(lp2741
g57
(g58
g59
NtRp2742
(dp2743
g62
(dp2744
g70
I5
ssg71
g2738
sg64
(lp2745
S'datetime.datetime(2013, 9, 1, 4, 52, 9, 70816)'
p2746
asbasbasbag57
(g73
g59
NtRp2747
(dp2748
g62
(dp2749
sg71
g67
sg64
(lp2750
g57
(g78
g59
NtRp2751
(dp2752
g62
(dp2753
g82
g83
ssg71
g2747
sg64
(lp2754
S'uuid'
p2755
asbag57
(g78
g59
NtRp2756
(dp2757
g62
(dp2758
g89
g90
ssg71
g2747
sg64
(lp2759
S':'
asbag57
(g78
g59
NtRp2760
(dp2761
g62
(dp2762
sg71
g2747
sg64
(lp2763
g57
(g58
g59
NtRp2764
(dp2765
g62
(dp2766
g70
I5
ssg71
g2760
sg64
(lp2767
S'reddit/127.0.0.1.2013-09-01.10-22-09.fd382286-2b71-4662-bf39-77dd83e94627'
p2768
asbasbasbag57
(g73
g59
NtRp2769
(dp2770
g62
(dp2771
sg71
g67
sg64
(lp2772
g57
(g78
g59
NtRp2773
(dp2774
g62
(dp2775
g82
g83
ssg71
g2769
sg64
(lp2776
S'vars'
p2777
asbag57
(g78
g59
NtRp2778
(dp2779
g62
(dp2780
g89
g90
ssg71
g2769
sg64
(lp2781
S':'
asbag57
(g78
g59
NtRp2782
(dp2783
g62
(dp2784
sg71
g2769
sg64
(lp2785
g57
(g58
g59
NtRp2786
(dp2787
g62
(dp2788
g70
I5
ssg71
g2782
sg64
(lp2789
g57
(g66
g59
NtRp2790
(dp2791
g62
(dp2792
g70
I4
ssg71
Nsg64
(lp2793
g57
(g73
g59
NtRp2794
(dp2795
g62
(dp2796
sg71
g2790
sg64
(lp2797
g57
(g78
g59
NtRp2798
(dp2799
g62
(dp2800
g82
g83
ssg71
g2794
sg64
(lp2801
g2538
asbag57
(g78
g59
NtRp2802
(dp2803
g62
(dp2804
g89
g90
ssg71
g2794
sg64
(lp2805
S':'
asbag57
(g78
g59
NtRp2806
(dp2807
g62
(dp2808
sg71
g2794
sg64
(lp2809
g57
(g58
g59
NtRp2810
(dp2811
g62
(dp2812
g70
I4
ssg71
g2806
sg64
(lp2813
g2551
asbasbasbag57
(g73
g59
NtRp2814
(dp2815
g62
(dp2816
sg71
g2790
sg64
(lp2817
g57
(g78
g59
NtRp2818
(dp2819
g62
(dp2820
g82
g83
ssg71
g2814
sg64
(lp2821
g2560
asbag57
(g78
g59
NtRp2822
(dp2823
g62
(dp2824
g89
g90
ssg71
g2814
sg64
(lp2825
S':'
asbag57
(g78
g59
NtRp2826
(dp2827
g62
(dp2828
sg71
g2814
sg64
(lp2829
g57
(g58
g59
NtRp2830
(dp2831
g62
(dp2832
g70
I4
ssg71
g2826
sg64
(lp2833
g2573
asbasbasbag57
(g73
g59
NtRp2834
(dp2835
g62
(dp2836
sg71
g2790
sg64
(lp2837
g57
(g78
g59
NtRp2838
(dp2839
g62
(dp2840
g82
g83
ssg71
g2834
sg64
(lp2841
g2582
asbag57
(g78
g59
NtRp2842
(dp2843
g62
(dp2844
g89
g90
ssg71
g2834
sg64
(lp2845
S':'
asbag57
(g78
g59
NtRp2846
(dp2847
g62
(dp2848
sg71
g2834
sg64
(lp2849
g57
(g58
g59
NtRp2850
(dp2851
g62
(dp2852
g70
I4
ssg71
g2846
sg64
(lp2853
g2595
asbasbasbag57
(g73
g59
NtRp2854
(dp2855
g62
(dp2856
sg71
g2790
sg64
(lp2857
g57
(g78
g59
NtRp2858
(dp2859
g62
(dp2860
g82
g83
ssg71
g2854
sg64
(lp2861
g2604
asbag57
(g78
g59
NtRp2862
(dp2863
g62
(dp2864
g89
g90
ssg71
g2854
sg64
(lp2865
S':'
asbag57
(g78
g59
NtRp2866
(dp2867
g62
(dp2868
sg71
g2854
sg64
(lp2869
g57
(g58
g59
NtRp2870
(dp2871
g62
(dp2872
g70
I4
ssg71
g2866
sg64
(lp2873
S'7'
asbasbasbag57
(g73
g59
NtRp2874
(dp2875
g62
(dp2876
sg71
g2790
sg64
(lp2877
g57
(g78
g59
NtRp2878
(dp2879
g62
(dp2880
g82
g83
ssg71
g2874
sg64
(lp2881
g2625
asbag57
(g78
g59
NtRp2882
(dp2883
g62
(dp2884
g89
g90
ssg71
g2874
sg64
(lp2885
S':'
asbag57
(g78
g59
NtRp2886
(dp2887
g62
(dp2888
sg71
g2874
sg64
(lp2889
g57
(g58
g59
NtRp2890
(dp2891
g62
(dp2892
g70
I4
ssg71
g2886
sg64
(lp2893
g2638
asbasbasbag57
(g73
g59
NtRp2894
(dp2895
g62
(dp2896
sg71
g2790
sg64
(lp2897
g57
(g78
g59
NtRp2898
(dp2899
g62
(dp2900
g82
g83
ssg71
g2894
sg64
(lp2901
g2647
asbag57
(g78
g59
NtRp2902
(dp2903
g62
(dp2904
g89
g90
ssg71
g2894
sg64
(lp2905
S':'
asbag57
(g78
g59
NtRp2906
(dp2907
g62
(dp2908
sg71
g2894
sg64
(lp2909
g57
(g58
g59
NtRp2910
(dp2911
g62
(dp2912
g70
I4
ssg71
g2906
sg64
(lp2913
g2660
asbasbasbasbasbasbasbag57
(g73
g59
NtRp2914
(dp2915
g62
(dp2916
sg71
g67
sg64
(lp2917
g57
(g78
g59
NtRp2918
(dp2919
g62
(dp2920
g82
g83
ssg71
g2914
sg64
(lp2921
S'wsgi'
p2922
asbag57
(g78
g59
NtRp2923
(dp2924
g62
(dp2925
g89
g90
ssg71
g2914
sg64
(lp2926
S':'
asbag57
(g78
g59
NtRp2927
(dp2928
g62
(dp2929
sg71
g2914
sg64
(lp2930
g57
(g58
g59
NtRp2931
(dp2932
g62
(dp2933
g70
I5
ssg71
g2927
sg64
(lp2934
g57
(g66
g59
NtRp2935
(dp2936
g62
(dp2937
g70
I4
ssg71
Nsg64
(lp2938
g57
(g73
g59
NtRp2939
(dp2940
g62
(dp2941
sg71
g2935
sg64
(lp2942
g57
(g78
g59
NtRp2943
(dp2944
g62
(dp2945
g82
g83
ssg71
g2939
sg64
(lp2946
S'environ'
p2947
asbag57
(g78
g59
NtRp2948
(dp2949
g62
(dp2950
g89
g90
ssg71
g2939
sg64
(lp2951
S':'
asbag57
(g78
g59
NtRp2952
(dp2953
g62
(dp2954
sg71
g2939
sg64
(lp2955
g57
(g58
g59
NtRp2956
(dp2957
g62
(dp2958
g70
I4
ssg71
g2952
sg64
(lp2959
g57
(g66
g59
NtRp2960
(dp2961
g62
(dp2962
g70
I3
ssg71
Nsg64
(lp2963
g57
(g73
g59
NtRp2964
(dp2965
g62
(dp2966
sg71
g2960
sg64
(lp2967
g57
(g78
g59
NtRp2968
(dp2969
g62
(dp2970
g82
g83
ssg71
g2964
sg64
(lp2971
S'CONTENT_LENGTH'
p2972
asbag57
(g78
g59
NtRp2973
(dp2974
g62
(dp2975
g89
g90
ssg71
g2964
sg64
(lp2976
S':'
asbag57
(g78
g59
NtRp2977
(dp2978
g62
(dp2979
sg71
g2964
sg64
(lp2980
g57
(g58
g59
NtRp2981
(dp2982
g62
(dp2983
g70
I3
ssg71
g2977
sg64
(lp2984
g963
asbasbasbag57
(g73
g59
NtRp2985
(dp2986
g62
(dp2987
sg71
g2960
sg64
(lp2988
g57
(g78
g59
NtRp2989
(dp2990
g62
(dp2991
g82
g83
ssg71
g2985
sg64
(lp2992
S'CONTENT_TYPE'
p2993
asbag57
(g78
g59
NtRp2994
(dp2995
g62
(dp2996
g89
g90
ssg71
g2985
sg64
(lp2997
S':'
asbag57
(g78
g59
NtRp2998
(dp2999
g62
(dp3000
sg71
g2985
sg64
(lp3001
g57
(g58
g59
NtRp3002
(dp3003
g62
(dp3004
g70
I3
ssg71
g2998
sg64
(lp3005
g985
asbasbasbag57
(g73
g59
NtRp3006
(dp3007
g62
(dp3008
sg71
g2960
sg64
(lp3009
g57
(g78
g59
NtRp3010
(dp3011
g62
(dp3012
g82
g83
ssg71
g3006
sg64
(lp3013
S'HTTP_ACCEPT'
p3014
asbag57
(g78
g59
NtRp3015
(dp3016
g62
(dp3017
g89
g90
ssg71
g3006
sg64
(lp3018
S':'
asbag57
(g78
g59
NtRp3019
(dp3020
g62
(dp3021
sg71
g3006
sg64
(lp3022
g57
(g58
g59
NtRp3023
(dp3024
g62
(dp3025
g70
I3
ssg71
g3019
sg64
(lp3026
g1072
asbasbasbag57
(g73
g59
NtRp3027
(dp3028
g62
(dp3029
sg71
g2960
sg64
(lp3030
g57
(g78
g59
NtRp3031
(dp3032
g62
(dp3033
g82
g83
ssg71
g3027
sg64
(lp3034
S'HTTP_ACCEPT_ENCODING'
p3035
asbag57
(g78
g59
NtRp3036
(dp3037
g62
(dp3038
g89
g90
ssg71
g3027
sg64
(lp3039
S':'
asbag57
(g78
g59
NtRp3040
(dp3041
g62
(dp3042
sg71
g3027
sg64
(lp3043
g57
(g58
g59
NtRp3044
(dp3045
g62
(dp3046
g70
I3
ssg71
g3040
sg64
(lp3047
g1094
asbasbasbag57
(g73
g59
NtRp3048
(dp3049
g62
(dp3050
sg71
g2960
sg64
(lp3051
g57
(g78
g59
NtRp3052
(dp3053
g62
(dp3054
g82
g83
ssg71
g3048
sg64
(lp3055
S'HTTP_ACCEPT_LANGUAGE'
p3056
asbag57
(g78
g59
NtRp3057
(dp3058
g62
(dp3059
g89
g90
ssg71
g3048
sg64
(lp3060
S':'
asbag57
(g78
g59
NtRp3061
(dp3062
g62
(dp3063
sg71
g3048
sg64
(lp3064
g57
(g58
g59
NtRp3065
(dp3066
g62
(dp3067
g70
I3
ssg71
g3061
sg64
(lp3068
g1116
asbasbasbag57
(g73
g59
NtRp3069
(dp3070
g62
(dp3071
sg71
g2960
sg64
(lp3072
g57
(g78
g59
NtRp3073
(dp3074
g62
(dp3075
g82
g83
ssg71
g3069
sg64
(lp3076
S'HTTP_CONNECTION'
p3077
asbag57
(g78
g59
NtRp3078
(dp3079
g62
(dp3080
g89
g90
ssg71
g3069
sg64
(lp3081
S':'
asbag57
(g78
g59
NtRp3082
(dp3083
g62
(dp3084
sg71
g3069
sg64
(lp3085
g57
(g58
g59
NtRp3086
(dp3087
g62
(dp3088
g70
I3
ssg71
g3082
sg64
(lp3089
g1138
asbasbasbag57
(g73
g59
NtRp3090
(dp3091
g62
(dp3092
sg71
g2960
sg64
(lp3093
g57
(g78
g59
NtRp3094
(dp3095
g62
(dp3096
g82
g83
ssg71
g3090
sg64
(lp3097
S'HTTP_CONTENT_LENGTH'
p3098
asbag57
(g78
g59
NtRp3099
(dp3100
g62
(dp3101
g89
g90
ssg71
g3090
sg64
(lp3102
S':'
asbag57
(g78
g59
NtRp3103
(dp3104
g62
(dp3105
sg71
g3090
sg64
(lp3106
g57
(g58
g59
NtRp3107
(dp3108
g62
(dp3109
g70
I3
ssg71
g3103
sg64
(lp3110
g963
asbasbasbag57
(g73
g59
NtRp3111
(dp3112
g62
(dp3113
sg71
g2960
sg64
(lp3114
g57
(g78
g59
NtRp3115
(dp3116
g62
(dp3117
g82
g83
ssg71
g3111
sg64
(lp3118
S'HTTP_CONTENT_TYPE'
p3119
asbag57
(g78
g59
NtRp3120
(dp3121
g62
(dp3122
g89
g90
ssg71
g3111
sg64
(lp3123
S':'
asbag57
(g78
g59
NtRp3124
(dp3125
g62
(dp3126
sg71
g3111
sg64
(lp3127
g57
(g58
g59
NtRp3128
(dp3129
g62
(dp3130
g70
I3
ssg71
g3124
sg64
(lp3131
g985
asbasbasbag57
(g73
g59
NtRp3132
(dp3133
g62
(dp3134
sg71
g2960
sg64
(lp3135
g57
(g78
g59
NtRp3136
(dp3137
g62
(dp3138
g82
g83
ssg71
g3132
sg64
(lp3139
S'HTTP_COOKIE'
p3140
asbag57
(g78
g59
NtRp3141
(dp3142
g62
(dp3143
g89
g90
ssg71
g3132
sg64
(lp3144
S':'
asbag57
(g78
g59
NtRp3145
(dp3146
g62
(dp3147
sg71
g3132
sg64
(lp3148
g57
(g58
g59
NtRp3149
(dp3150
g62
(dp3151
g70
I3
ssg71
g3145
sg64
(lp3152
g1202
asbasbasbag57
(g73
g59
NtRp3153
(dp3154
g62
(dp3155
sg71
g2960
sg64
(lp3156
g57
(g78
g59
NtRp3157
(dp3158
g62
(dp3159
g82
g83
ssg71
g3153
sg64
(lp3160
S'HTTP_HOST'
p3161
asbag57
(g78
g59
NtRp3162
(dp3163
g62
(dp3164
g89
g90
ssg71
g3153
sg64
(lp3165
S':'
asbag57
(g78
g59
NtRp3166
(dp3167
g62
(dp3168
sg71
g3153
sg64
(lp3169
g57
(g58
g59
NtRp3170
(dp3171
g62
(dp3172
g70
I3
ssg71
g3166
sg64
(lp3173
g1224
asbasbasbag57
(g73
g59
NtRp3174
(dp3175
g62
(dp3176
sg71
g2960
sg64
(lp3177
g57
(g78
g59
NtRp3178
(dp3179
g62
(dp3180
g82
g83
ssg71
g3174
sg64
(lp3181
S'HTTP_REFERER'
p3182
asbag57
(g78
g59
NtRp3183
(dp3184
g62
(dp3185
g89
g90
ssg71
g3174
sg64
(lp3186
S':'
asbag57
(g78
g59
NtRp3187
(dp3188
g62
(dp3189
sg71
g3174
sg64
(lp3190
g57
(g58
g59
NtRp3191
(dp3192
g62
(dp3193
g70
I3
ssg71
g3187
sg64
(lp3194
g1246
asbasbasbag57
(g73
g59
NtRp3195
(dp3196
g62
(dp3197
sg71
g2960
sg64
(lp3198
g57
(g78
g59
NtRp3199
(dp3200
g62
(dp3201
g82
g83
ssg71
g3195
sg64
(lp3202
S'HTTP_USER_AGENT'
p3203
asbag57
(g78
g59
NtRp3204
(dp3205
g62
(dp3206
g89
g90
ssg71
g3195
sg64
(lp3207
S':'
asbag57
(g78
g59
NtRp3208
(dp3209
g62
(dp3210
sg71
g3195
sg64
(lp3211
g57
(g58
g59
NtRp3212
(dp3213
g62
(dp3214
g70
I3
ssg71
g3208
sg64
(lp3215
g1268
asbasbasbag57
(g73
g59
NtRp3216
(dp3217
g62
(dp3218
sg71
g2960
sg64
(lp3219
g57
(g78
g59
NtRp3220
(dp3221
g62
(dp3222
g82
g83
ssg71
g3216
sg64
(lp3223
S'PATH_INFO'
p3224
asbag57
(g78
g59
NtRp3225
(dp3226
g62
(dp3227
g89
g90
ssg71
g3216
sg64
(lp3228
S':'
asbag57
(g78
g59
NtRp3229
(dp3230
g62
(dp3231
sg71
g3216
sg64
(lp3232
g57
(g58
g59
NtRp3233
(dp3234
g62
(dp3235
g70
I3
ssg71
g3229
sg64
(lp3236
g1422
asbasbasbag57
(g73
g59
NtRp3237
(dp3238
g62
(dp3239
sg71
g2960
sg64
(lp3240
g57
(g78
g59
NtRp3241
(dp3242
g62
(dp3243
g82
g83
ssg71
g3237
sg64
(lp3244
S'QUERY_STRING'
p3245
asbag57
(g78
g59
NtRp3246
(dp3247
g62
(dp3248
g89
g90
ssg71
g3237
sg64
(lp3249
S':'
asbag57
(g78
g59
NtRp3250
(dp3251
g62
(dp3252
sg71
g3237
sg64
(lp3253
g57
(g58
g59
NtRp3254
(dp3255
g62
(dp3256
g70
I3
ssg71
g3250
sg64
(lp3257
S''
asbasbasbag57
(g73
g59
NtRp3258
(dp3259
g62
(dp3260
sg71
g2960
sg64
(lp3261
g57
(g78
g59
NtRp3262
(dp3263
g62
(dp3264
g82
g83
ssg71
g3258
sg64
(lp3265
S'REMOTE_ADDR'
p3266
asbag57
(g78
g59
NtRp3267
(dp3268
g62
(dp3269
g89
g90
ssg71
g3258
sg64
(lp3270
S':'
asbag57
(g78
g59
NtRp3271
(dp3272
g62
(dp3273
sg71
g3258
sg64
(lp3274
g57
(g58
g59
NtRp3275
(dp3276
g62
(dp3277
g70
I3
ssg71
g3271
sg64
(lp3278
g212
asbasbasbag57
(g73
g59
NtRp3279
(dp3280
g62
(dp3281
sg71
g2960
sg64
(lp3282
g57
(g78
g59
NtRp3283
(dp3284
g62
(dp3285
g82
g83
ssg71
g3279
sg64
(lp3286
S'REMOTE_PORT'
p3287
asbag57
(g78
g59
NtRp3288
(dp3289
g62
(dp3290
g89
g90
ssg71
g3279
sg64
(lp3291
S':'
asbag57
(g78
g59
NtRp3292
(dp3293
g62
(dp3294
sg71
g3279
sg64
(lp3295
g57
(g58
g59
NtRp3296
(dp3297
g62
(dp3298
g70
I3
ssg71
g3292
sg64
(lp3299
g1486
asbasbasbag57
(g73
g59
NtRp3300
(dp3301
g62
(dp3302
sg71
g2960
sg64
(lp3303
g57
(g78
g59
NtRp3304
(dp3305
g62
(dp3306
g82
g83
ssg71
g3300
sg64
(lp3307
S'REQUEST_METHOD'
p3308
asbag57
(g78
g59
NtRp3309
(dp3310
g62
(dp3311
g89
g90
ssg71
g3300
sg64
(lp3312
S':'
asbag57
(g78
g59
NtRp3313
(dp3314
g62
(dp3315
sg71
g3300
sg64
(lp3316
g57
(g58
g59
NtRp3317
(dp3318
g62
(dp3319
g70
I3
ssg71
g3313
sg64
(lp3320
g1508
asbasbasbag57
(g73
g59
NtRp3321
(dp3322
g62
(dp3323
sg71
g2960
sg64
(lp3324
g57
(g78
g59
NtRp3325
(dp3326
g62
(dp3327
g82
g83
ssg71
g3321
sg64
(lp3328
S'REQUEST_URI'
p3329
asbag57
(g78
g59
NtRp3330
(dp3331
g62
(dp3332
g89
g90
ssg71
g3321
sg64
(lp3333
S':'
asbag57
(g78
g59
NtRp3334
(dp3335
g62
(dp3336
sg71
g3321
sg64
(lp3337
g57
(g58
g59
NtRp3338
(dp3339
g62
(dp3340
g70
I3
ssg71
g3334
sg64
(lp3341
g1422
asbasbasbag57
(g73
g59
NtRp3342
(dp3343
g62
(dp3344
sg71
g2960
sg64
(lp3345
g57
(g78
g59
NtRp3346
(dp3347
g62
(dp3348
g82
g83
ssg71
g3342
sg64
(lp3349
S'SCRIPT_NAME'
p3350
asbag57
(g78
g59
NtRp3351
(dp3352
g62
(dp3353
g89
g90
ssg71
g3342
sg64
(lp3354
S':'
asbag57
(g78
g59
NtRp3355
(dp3356
g62
(dp3357
sg71
g3342
sg64
(lp3358
g57
(g58
g59
NtRp3359
(dp3360
g62
(dp3361
g70
I3
ssg71
g3355
sg64
(lp3362
S''
asbasbasbag57
(g73
g59
NtRp3363
(dp3364
g62
(dp3365
sg71
g2960
sg64
(lp3366
g57
(g78
g59
NtRp3367
(dp3368
g62
(dp3369
g82
g83
ssg71
g3363
sg64
(lp3370
S'SERVER_NAME'
p3371
asbag57
(g78
g59
NtRp3372
(dp3373
g62
(dp3374
g89
g90
ssg71
g3363
sg64
(lp3375
S':'
asbag57
(g78
g59
NtRp3376
(dp3377
g62
(dp3378
sg71
g3363
sg64
(lp3379
g57
(g58
g59
NtRp3380
(dp3381
g62
(dp3382
g70
I3
ssg71
g3376
sg64
(lp3383
g1572
asbasbasbag57
(g73
g59
NtRp3384
(dp3385
g62
(dp3386
sg71
g2960
sg64
(lp3387
g57
(g78
g59
NtRp3388
(dp3389
g62
(dp3390
g82
g83
ssg71
g3384
sg64
(lp3391
S'SERVER_PORT'
p3392
asbag57
(g78
g59
NtRp3393
(dp3394
g62
(dp3395
g89
g90
ssg71
g3384
sg64
(lp3396
S':'
asbag57
(g78
g59
NtRp3397
(dp3398
g62
(dp3399
sg71
g3384
sg64
(lp3400
g57
(g58
g59
NtRp3401
(dp3402
g62
(dp3403
g70
I3
ssg71
g3397
sg64
(lp3404
g1594
asbasbasbag57
(g73
g59
NtRp3405
(dp3406
g62
(dp3407
sg71
g2960
sg64
(lp3408
g57
(g78
g59
NtRp3409
(dp3410
g62
(dp3411
g82
g83
ssg71
g3405
sg64
(lp3412
S'SERVER_PROTOCOL'
p3413
asbag57
(g78
g59
NtRp3414
(dp3415
g62
(dp3416
g89
g90
ssg71
g3405
sg64
(lp3417
S':'
asbag57
(g78
g59
NtRp3418
(dp3419
g62
(dp3420
sg71
g3405
sg64
(lp3421
g57
(g58
g59
NtRp3422
(dp3423
g62
(dp3424
g70
I3
ssg71
g3418
sg64
(lp3425
g1616
asbasbasbag57
(g73
g59
NtRp3426
(dp3427
g62
(dp3428
sg71
g2960
sg64
(lp3429
g57
(g78
g59
NtRp3430
(dp3431
g62
(dp3432
g82
g83
ssg71
g3426
sg64
(lp3433
S'SERVER_SOFTWARE'
p3434
asbag57
(g78
g59
NtRp3435
(dp3436
g62
(dp3437
g89
g90
ssg71
g3426
sg64
(lp3438
S':'
asbag57
(g78
g59
NtRp3439
(dp3440
g62
(dp3441
sg71
g3426
sg64
(lp3442
g57
(g58
g59
NtRp3443
(dp3444
g62
(dp3445
g70
I3
ssg71
g3439
sg64
(lp3446
g1638
asbasbasbag57
(g73
g59
NtRp3447
(dp3448
g62
(dp3449
sg71
g2960
sg64
(lp3450
g57
(g78
g59
NtRp3451
(dp3452
g62
(dp3453
g82
g83
ssg71
g3447
sg64
(lp3454
S'wsgi.errors'
p3455
asbag57
(g78
g59
NtRp3456
(dp3457
g62
(dp3458
g89
g90
ssg71
g3447
sg64
(lp3459
S':'
asbag57
(g78
g59
NtRp3460
(dp3461
g62
(dp3462
sg71
g3447
sg64
(lp3463
g57
(g58
g59
NtRp3464
(dp3465
g62
(dp3466
g70
I3
ssg71
g3460
sg64
(lp3467
S"<open file '<stderr>', mode 'w' at 0xb735e0d0>"
p3468
asbasbasbag57
(g73
g59
NtRp3469
(dp3470
g62
(dp3471
sg71
g2960
sg64
(lp3472
g57
(g78
g59
NtRp3473
(dp3474
g62
(dp3475
g82
g83
ssg71
g3469
sg64
(lp3476
S'wsgi.file_wrapper'
p3477
asbag57
(g78
g59
NtRp3478
(dp3479
g62
(dp3480
g89
g90
ssg71
g3469
sg64
(lp3481
S':'
asbag57
(g78
g59
NtRp3482
(dp3483
g62
(dp3484
sg71
g3469
sg64
(lp3485
g57
(g58
g59
NtRp3486
(dp3487
g62
(dp3488
g70
I3
ssg71
g3482
sg64
(lp3489
S'<class wsgiref.util.FileWrapper at 0x96a105c>'
p3490
asbasbasbag57
(g73
g59
NtRp3491
(dp3492
g62
(dp3493
sg71
g2960
sg64
(lp3494
g57
(g78
g59
NtRp3495
(dp3496
g62
(dp3497
g82
g83
ssg71
g3491
sg64
(lp3498
S'wsgi.input'
p3499
asbag57
(g78
g59
NtRp3500
(dp3501
g62
(dp3502
g89
g90
ssg71
g3491
sg64
(lp3503
S':'
asbag57
(g78
g59
NtRp3504
(dp3505
g62
(dp3506
sg71
g3491
sg64
(lp3507
g57
(g58
g59
NtRp3508
(dp3509
g62
(dp3510
g70
I3
ssg71
g3504
sg64
(lp3511
S"<open file '<fdopen>', mode 'w+b' at 0xae355b78>"
p3512
asbasbasbag57
(g73
g59
NtRp3513
(dp3514
g62
(dp3515
sg71
g2960
sg64
(lp3516
g57
(g78
g59
NtRp3517
(dp3518
g62
(dp3519
g82
g83
ssg71
g3513
sg64
(lp3520
S'wsgi.multiprocess'
p3521
asbag57
(g78
g59
NtRp3522
(dp3523
g62
(dp3524
g89
g90
ssg71
g3513
sg64
(lp3525
S':'
asbag57
(g78
g59
NtRp3526
(dp3527
g62
(dp3528
sg71
g3513
sg64
(lp3529
g57
(g58
g59
NtRp3530
(dp3531
g62
(dp3532
g70
I3
ssg71
g3526
sg64
(lp3533
g100
asbasbasbag57
(g73
g59
NtRp3534
(dp3535
g62
(dp3536
sg71
g2960
sg64
(lp3537
g57
(g78
g59
NtRp3538
(dp3539
g62
(dp3540
g82
g83
ssg71
g3534
sg64
(lp3541
S'wsgi.multithread'
p3542
asbag57
(g78
g59
NtRp3543
(dp3544
g62
(dp3545
g89
g90
ssg71
g3534
sg64
(lp3546
S':'
asbag57
(g78
g59
NtRp3547
(dp3548
g62
(dp3549
sg71
g3534
sg64
(lp3550
g57
(g58
g59
NtRp3551
(dp3552
g62
(dp3553
g70
I3
ssg71
g3547
sg64
(lp3554
g1855
asbasbasbag57
(g73
g59
NtRp3555
(dp3556
g62
(dp3557
sg71
g2960
sg64
(lp3558
g57
(g78
g59
NtRp3559
(dp3560
g62
(dp3561
g82
g83
ssg71
g3555
sg64
(lp3562
S'wsgi.run_once'
p3563
asbag57
(g78
g59
NtRp3564
(dp3565
g62
(dp3566
g89
g90
ssg71
g3555
sg64
(lp3567
S':'
asbag57
(g78
g59
NtRp3568
(dp3569
g62
(dp3570
sg71
g3555
sg64
(lp3571
g57
(g58
g59
NtRp3572
(dp3573
g62
(dp3574
g70
I3
ssg71
g3568
sg64
(lp3575
g100
asbasbasbag57
(g73
g59
NtRp3576
(dp3577
g62
(dp3578
sg71
g2960
sg64
(lp3579
g57
(g78
g59
NtRp3580
(dp3581
g62
(dp3582
g82
g83
ssg71
g3576
sg64
(lp3583
S'wsgi.url_scheme'
p3584
asbag57
(g78
g59
NtRp3585
(dp3586
g62
(dp3587
g89
g90
ssg71
g3576
sg64
(lp3588
S':'
asbag57
(g78
g59
NtRp3589
(dp3590
g62
(dp3591
sg71
g3576
sg64
(lp3592
g57
(g58
g59
NtRp3593
(dp3594
g62
(dp3595
g70
I3
ssg71
g3589
sg64
(lp3596
g1898
asbasbasbag57
(g73
g59
NtRp3597
(dp3598
g62
(dp3599
sg71
g2960
sg64
(lp3600
g57
(g78
g59
NtRp3601
(dp3602
g62
(dp3603
g82
g83
ssg71
g3597
sg64
(lp3604
S'wsgi.version'
p3605
asbag57
(g78
g59
NtRp3606
(dp3607
g62
(dp3608
g89
g90
ssg71
g3597
sg64
(lp3609
S':'
asbag57
(g78
g59
NtRp3610
(dp3611
g62
(dp3612
sg71
g3597
sg64
(lp3613
g57
(g58
g59
NtRp3614
(dp3615
g62
(dp3616
g70
I3
ssg71
g3610
sg64
(lp3617
S'1'
asbasbasbasbasbasbasbasbasbasbasbasbasbsS'frames'
p3618
(lp3619
(dp3620
S'file'
p3621
S'/home/pankaj/web2py/gluon/restricted.py'
p3622
sS'dump'
p3623
(dp3624
S'environment'
p3625
S"{'A': <class 'gluon.html.A'>, 'Auth': <class 'gluon.tools.Auth'>, 'B': <class 'gluon.html.B'>, 'BEAUTIFY': <class 'gluon.html.BEAUTIFY'>, 'BODY': <class 'gluon.html.BODY'>, 'BR': <class 'gluon.html.BR'>, 'BUTTON': <class 'gluon.html.BUTTON'>, 'CAT': <class 'gluon.html.CAT'>, 'CENTER': <class 'gluon.html.CENTER'>, 'CLEANUP': <class 'gluon.validators.CLEANUP'>, ...}"
p3626
sS'ccode'
p3627
S'<code object <module> at 0xae3594e8, file "/home...ications/reddit/controllers/default.py", line 12>'
p3628
ssS'lnum'
p3629
I212
sS'lines'
p3630
(dp3631
I207
S'    try:'
p3632
sI208
S'        if isinstance(code, types.CodeType):'
p3633
sI209
S'            ccode = code'
p3634
sI210
S'        else:'
p3635
sI211
S'            ccode = compile2(code, layer)'
p3636
sI212
S'        exec ccode in environment'
p3637
sI213
S'    except HTTP:'
p3638
sI214
S'        raise'
p3639
sI215
S'    except RestrictedError:'
p3640
sI216
S'        # do not encapsulate (obfuscate) the original RestrictedError'
p3641
ssS'call'
p3642
S"(code='# -*- coding: utf-8 -*-\\n# this file is released ...=crud())\\n\\nresponse._vars=response._caller(editn)\\n', environment={'A': <class 'gluon.html.A'>, 'Auth': <class 'gluon.tools.Auth'>, 'B': <class 'gluon.html.B'>, 'BEAUTIFY': <class 'gluon.html.BEAUTIFY'>, 'BODY': <class 'gluon.html.BODY'>, 'BR': <class 'gluon.html.BR'>, 'BUTTON': <class 'gluon.html.BUTTON'>, 'CAT': <class 'gluon.html.CAT'>, 'CENTER': <class 'gluon.html.CENTER'>, 'CLEANUP': <class 'gluon.validators.CLEANUP'>, ...}, layer='/home/pankaj/web2py/applications/reddit/controllers/default.py')"
p3643
sS'func'
p3644
S'restricted'
p3645
sa(dp3646
g3621
S'/home/pankaj/web2py/applications/reddit/controllers/default.py'
p3647
sg3623
(dp3648
sg3629
I150
sg3630
(dp3649
I139
S'    http://..../[app]/default/data/update/[table]/[id]'
p3650
sI140
S'    http://..../[app]/default/data/delete/[table]/[id]'
p3651
sI141
S'    http://..../[app]/default/data/select/[table]'
p3652
sI142
S'    http://..../[app]/default/data/search/[table]'
p3653
sI143
S'    but URLs must be signed, i.e. linked with'
p3654
sI144
S"      A('table',_href=URL('data/tables',user_signature=True))"
p3655
sI145
S'    or with the signed load operator'
p3656
sI146
S"      LOAD('default','data.load',args='tables',ajax=True,user_signature=True)"
p3657
sI147
S'    """'
p3658
sI148
S'    return dict(form=crud())'
p3659
ssg3642
S'()'
p3660
sg3644
S'<module>'
p3661
sa(dp3662
g3621
S'/home/pankaj/web2py/gluon/globals.py'
p3663
sg3623
(dp3664
S'self'
p3665
S'undefined'
p3666
sS'f'
S'<function editn>'
p3667
ssg3629
I193
sg3630
(dp3668
I192
S'        self._vars = None'
p3669
sI193
S'        self._caller = lambda f: f()'
p3670
sI194
S'        self._view_environment = None'
p3671
sI195
S'        self._custom_commit = None'
p3672
sI196
S'        self._custom_rollback = None'
p3673
sI197
S''
sI188
S'        self.menu = []             # used by the default view layout'
p3674
sI189
S'        self.files = []            # used by web2py_ajax.html'
p3675
sI190
S'        self.generic_patterns = []  # patterns to allow generic views'
p3676
sI191
S"        self.delimiters = ('{{', '}}')"
p3677
ssg3642
S'(f=<function editn>)'
p3678
sg3644
S'<lambda>'
p3679
sa(dp3680
g3621
S'/home/pankaj/web2py/applications/reddit/controllers/default.py'
p3681
sg3623
(dp3682
S'global request'
p3683
S"<Storage {'function': 'editn', 'body': <open fil...-b5e5e70192dc', 'cat': 'education', 'id': '7'}>}>"
p3684
sS'builtinint'
p3685
S"<type 'int'>"
p3686
sS'request.post_vars'
p3687
S"<Storage {'rating': '97', 'head': 'mid sems comi...d2-b5e5e70192dc', 'cat': 'education', 'id': '7'}>"
p3688
sS'nid'
p3689
g3666
ssg3629
I89
sg3630
(dp3690
I84
S'\tdb.comments.insert(val=cval,newsid=nid,usrid=usri)'
p3691
sI85
S"\tredirect(URL('index'))"
p3692
sI86
S'\treturn dict()'
p3693
sI87
S''
sI88
S'def editn():'
p3694
sI89
S"\tnid=int(request.post_vars['nid'])"
p3695
sI90
S"\tusri=int(request.post_vars['usri'])"
p3696
sI91
S'\tform = SQLFORM(db.news, nid,deletable=True)'
p3697
sI92
S'\tif form.process().accepted:'
p3698
sI93
S"\t\tresponse.flash = 'form accepted'"
p3699
ssg3642
S'()'
p3700
sg3644
S'editn'
p3701
sasS'pyver'
p3702
S'Python 2.7.3: /usr/bin/python'
p3703
sS'session'
p3704
g57
(g58
g59
NtRp3705
(dp3706
g62
(dp3707
sg64
(lp3708
g57
(g66
g59
NtRp3709
(dp3710
g62
(dp3711
g70
I5
ssg71
Nsg64
(lp3712
g57
(g73
g59
NtRp3713
(dp3714
g62
(dp3715
sg71
g3709
sg64
(lp3716
g57
(g78
g59
NtRp3717
(dp3718
g62
(dp3719
g82
g83
ssg71
g3713
sg64
(lp3720
S'auth'
p3721
asbag57
(g78
g59
NtRp3722
(dp3723
g62
(dp3724
g89
g90
ssg71
g3713
sg64
(lp3725
S':'
asbag57
(g78
g59
NtRp3726
(dp3727
g62
(dp3728
sg71
g3713
sg64
(lp3729
g57
(g58
g59
NtRp3730
(dp3731
g62
(dp3732
g70
I5
ssg71
g3726
sg64
(lp3733
g57
(g66
g59
NtRp3734
(dp3735
g62
(dp3736
g70
I4
ssg71
Nsg64
(lp3737
g57
(g73
g59
NtRp3738
(dp3739
g62
(dp3740
sg71
g3734
sg64
(lp3741
g57
(g78
g59
NtRp3742
(dp3743
g62
(dp3744
g82
g83
ssg71
g3738
sg64
(lp3745
S'expiration'
p3746
asbag57
(g78
g59
NtRp3747
(dp3748
g62
(dp3749
g89
g90
ssg71
g3738
sg64
(lp3750
S':'
asbag57
(g78
g59
NtRp3751
(dp3752
g62
(dp3753
sg71
g3738
sg64
(lp3754
g57
(g58
g59
NtRp3755
(dp3756
g62
(dp3757
g70
I4
ssg71
g3751
sg64
(lp3758
S'2592000'
p3759
asbasbasbag57
(g73
g59
NtRp3760
(dp3761
g62
(dp3762
sg71
g3734
sg64
(lp3763
g57
(g78
g59
NtRp3764
(dp3765
g62
(dp3766
g82
g83
ssg71
g3760
sg64
(lp3767
S'hmac_key'
p3768
asbag57
(g78
g59
NtRp3769
(dp3770
g62
(dp3771
g89
g90
ssg71
g3760
sg64
(lp3772
S':'
asbag57
(g78
g59
NtRp3773
(dp3774
g62
(dp3775
sg71
g3760
sg64
(lp3776
g57
(g58
g59
NtRp3777
(dp3778
g62
(dp3779
g70
I4
ssg71
g3773
sg64
(lp3780
S'f8ac37ec-2036-4076-bffe-8306279ac35a'
p3781
asbasbasbag57
(g73
g59
NtRp3782
(dp3783
g62
(dp3784
sg71
g3734
sg64
(lp3785
g57
(g78
g59
NtRp3786
(dp3787
g62
(dp3788
g82
g83
ssg71
g3782
sg64
(lp3789
S'last_visit'
p3790
asbag57
(g78
g59
NtRp3791
(dp3792
g62
(dp3793
g89
g90
ssg71
g3782
sg64
(lp3794
S':'
asbag57
(g78
g59
NtRp3795
(dp3796
g62
(dp3797
sg71
g3782
sg64
(lp3798
g57
(g58
g59
NtRp3799
(dp3800
g62
(dp3801
g70
I4
ssg71
g3795
sg64
(lp3802
S'datetime.datetime(2013, 8, 30, 1, 8, 1, 584665)'
p3803
asbasbasbag57
(g73
g59
NtRp3804
(dp3805
g62
(dp3806
sg71
g3734
sg64
(lp3807
g57
(g78
g59
NtRp3808
(dp3809
g62
(dp3810
g82
g83
ssg71
g3804
sg64
(lp3811
S'remember'
p3812
asbag57
(g78
g59
NtRp3813
(dp3814
g62
(dp3815
g89
g90
ssg71
g3804
sg64
(lp3816
S':'
asbag57
(g78
g59
NtRp3817
(dp3818
g62
(dp3819
sg71
g3804
sg64
(lp3820
g57
(g58
g59
NtRp3821
(dp3822
g62
(dp3823
g70
I4
ssg71
g3817
sg64
(lp3824
g1855
asbasbasbag57
(g73
g59
NtRp3825
(dp3826
g62
(dp3827
sg71
g3734
sg64
(lp3828
g57
(g78
g59
NtRp3829
(dp3830
g62
(dp3831
g82
g83
ssg71
g3825
sg64
(lp3832
S'user'
p3833
asbag57
(g78
g59
NtRp3834
(dp3835
g62
(dp3836
g89
g90
ssg71
g3825
sg64
(lp3837
S':'
asbag57
(g78
g59
NtRp3838
(dp3839
g62
(dp3840
sg71
g3825
sg64
(lp3841
g57
(g58
g59
NtRp3842
(dp3843
g62
(dp3844
g70
I4
ssg71
g3838
sg64
(lp3845
g57
(g66
g59
NtRp3846
(dp3847
g62
(dp3848
g70
I3
ssg71
Nsg64
(lp3849
g57
(g73
g59
NtRp3850
(dp3851
g62
(dp3852
sg71
g3846
sg64
(lp3853
g57
(g78
g59
NtRp3854
(dp3855
g62
(dp3856
g82
g83
ssg71
g3850
sg64
(lp3857
S'email'
p3858
asbag57
(g78
g59
NtRp3859
(dp3860
g62
(dp3861
g89
g90
ssg71
g3850
sg64
(lp3862
S':'
asbag57
(g78
g59
NtRp3863
(dp3864
g62
(dp3865
sg71
g3850
sg64
(lp3866
g57
(g58
g59
NtRp3867
(dp3868
g62
(dp3869
g70
I3
ssg71
g3863
sg64
(lp3870
S'pankaj@gmail.com'
p3871
asbasbasbag57
(g73
g59
NtRp3872
(dp3873
g62
(dp3874
sg71
g3846
sg64
(lp3875
g57
(g78
g59
NtRp3876
(dp3877
g62
(dp3878
g82
g83
ssg71
g3872
sg64
(lp3879
S'first_name'
p3880
asbag57
(g78
g59
NtRp3881
(dp3882
g62
(dp3883
g89
g90
ssg71
g3872
sg64
(lp3884
S':'
asbag57
(g78
g59
NtRp3885
(dp3886
g62
(dp3887
sg71
g3872
sg64
(lp3888
g57
(g58
g59
NtRp3889
(dp3890
g62
(dp3891
g70
I3
ssg71
g3885
sg64
(lp3892
S'pankaj'
p3893
asbasbasbag57
(g73
g59
NtRp3894
(dp3895
g62
(dp3896
sg71
g3846
sg64
(lp3897
g57
(g78
g59
NtRp3898
(dp3899
g62
(dp3900
g82
g83
ssg71
g3894
sg64
(lp3901
S'id'
p3902
asbag57
(g78
g59
NtRp3903
(dp3904
g62
(dp3905
g89
g90
ssg71
g3894
sg64
(lp3906
S':'
asbag57
(g78
g59
NtRp3907
(dp3908
g62
(dp3909
sg71
g3894
sg64
(lp3910
g57
(g58
g59
NtRp3911
(dp3912
g62
(dp3913
g70
I3
ssg71
g3907
sg64
(lp3914
S'1'
asbasbasbag57
(g73
g59
NtRp3915
(dp3916
g62
(dp3917
sg71
g3846
sg64
(lp3918
g57
(g78
g59
NtRp3919
(dp3920
g62
(dp3921
g82
g83
ssg71
g3915
sg64
(lp3922
S'last_name'
p3923
asbag57
(g78
g59
NtRp3924
(dp3925
g62
(dp3926
g89
g90
ssg71
g3915
sg64
(lp3927
S':'
asbag57
(g78
g59
NtRp3928
(dp3929
g62
(dp3930
sg71
g3915
sg64
(lp3931
g57
(g58
g59
NtRp3932
(dp3933
g62
(dp3934
g70
I3
ssg71
g3928
sg64
(lp3935
S'malhotra'
p3936
asbasbasbag57
(g73
g59
NtRp3937
(dp3938
g62
(dp3939
sg71
g3846
sg64
(lp3940
g57
(g78
g59
NtRp3941
(dp3942
g62
(dp3943
g82
g83
ssg71
g3937
sg64
(lp3944
S'registration_id'
p3945
asbag57
(g78
g59
NtRp3946
(dp3947
g62
(dp3948
g89
g90
ssg71
g3937
sg64
(lp3949
S':'
asbag57
(g78
g59
NtRp3950
(dp3951
g62
(dp3952
sg71
g3937
sg64
(lp3953
g57
(g58
g59
NtRp3954
(dp3955
g62
(dp3956
g70
I3
ssg71
g3950
sg64
(lp3957
S''
asbasbasbag57
(g73
g59
NtRp3958
(dp3959
g62
(dp3960
sg71
g3846
sg64
(lp3961
g57
(g78
g59
NtRp3962
(dp3963
g62
(dp3964
g82
g83
ssg71
g3958
sg64
(lp3965
S'registration_key'
p3966
asbag57
(g78
g59
NtRp3967
(dp3968
g62
(dp3969
g89
g90
ssg71
g3958
sg64
(lp3970
S':'
asbag57
(g78
g59
NtRp3971
(dp3972
g62
(dp3973
sg71
g3958
sg64
(lp3974
g57
(g58
g59
NtRp3975
(dp3976
g62
(dp3977
g70
I3
ssg71
g3971
sg64
(lp3978
S''
asbasbasbag57
(g73
g59
NtRp3979
(dp3980
g62
(dp3981
sg71
g3846
sg64
(lp3982
g57
(g78
g59
NtRp3983
(dp3984
g62
(dp3985
g82
g83
ssg71
g3979
sg64
(lp3986
S'reset_password_key'
p3987
asbag57
(g78
g59
NtRp3988
(dp3989
g62
(dp3990
g89
g90
ssg71
g3979
sg64
(lp3991
S':'
asbag57
(g78
g59
NtRp3992
(dp3993
g62
(dp3994
sg71
g3979
sg64
(lp3995
g57
(g58
g59
NtRp3996
(dp3997
g62
(dp3998
g70
I3
ssg71
g3992
sg64
(lp3999
S''
asbasbasbasbasbasbasbag57
(g73
g59
NtRp4000
(dp4001
g62
(dp4002
sg71
g3734
sg64
(lp4003
g57
(g78
g59
NtRp4004
(dp4005
g62
(dp4006
g82
g83
ssg71
g4000
sg64
(lp4007
S'user_groups'
p4008
asbag57
(g78
g59
NtRp4009
(dp4010
g62
(dp4011
g89
g90
ssg71
g4000
sg64
(lp4012
S':'
asbag57
(g78
g59
NtRp4013
(dp4014
g62
(dp4015
sg71
g4000
sg64
(lp4016
g57
(g58
g59
NtRp4017
(dp4018
g62
(dp4019
g70
I4
ssg71
g4013
sg64
(lp4020
g57
(g66
g59
NtRp4021
(dp4022
g62
(dp4023
g70
I3
ssg71
Nsg64
(lp4024
g57
(g73
g59
NtRp4025
(dp4026
g62
(dp4027
sg71
g4021
sg64
(lp4028
g57
(g78
g59
NtRp4029
(dp4030
g62
(dp4031
g82
g83
ssg71
g4025
sg64
(lp4032
S'1'
asbag57
(g78
g59
NtRp4033
(dp4034
g62
(dp4035
g89
g90
ssg71
g4025
sg64
(lp4036
S':'
asbag57
(g78
g59
NtRp4037
(dp4038
g62
(dp4039
sg71
g4025
sg64
(lp4040
g57
(g58
g59
NtRp4041
(dp4042
g62
(dp4043
g70
I3
ssg71
g4037
sg64
(lp4044
S'user_1'
p4045
asbasbasbasbasbasbasbasbasbasbasbag57
(g73
g59
NtRp4046
(dp4047
g62
(dp4048
sg71
g3709
sg64
(lp4049
g57
(g78
g59
NtRp4050
(dp4051
g62
(dp4052
g82
g83
ssg71
g4046
sg64
(lp4053
S'flash'
p4054
asbag57
(g78
g59
NtRp4055
(dp4056
g62
(dp4057
g89
g90
ssg71
g4046
sg64
(lp4058
S':'
asbag57
(g78
g59
NtRp4059
(dp4060
g62
(dp4061
sg71
g4046
sg64
(lp4062
g57
(g58
g59
NtRp4063
(dp4064
g62
(dp4065
g70
I5
ssg71
g4059
sg64
(lp4066
S'None'
p4067
asbasbasbag57
(g73
g59
NtRp4068
(dp4069
g62
(dp4070
sg71
g3709
sg64
(lp4071
g57
(g78
g59
NtRp4072
(dp4073
g62
(dp4074
g82
g83
ssg71
g4068
sg64
(lp4075
S'last_orderby'
p4076
asbag57
(g78
g59
NtRp4077
(dp4078
g62
(dp4079
g89
g90
ssg71
g4068
sg64
(lp4080
S':'
asbag57
(g78
g59
NtRp4081
(dp4082
g62
(dp4083
sg71
g4068
sg64
(lp4084
g57
(g58
g59
NtRp4085
(dp4086
g62
(dp4087
g70
I5
ssg71
g4081
sg64
(lp4088
S'None'
p4089
asbasbasbag57
(g73
g59
NtRp4090
(dp4091
g62
(dp4092
sg71
g3709
sg64
(lp4093
g57
(g78
g59
NtRp4094
(dp4095
g62
(dp4096
g82
g83
ssg71
g4090
sg64
(lp4097
S'last_query'
p4098
asbag57
(g78
g59
NtRp4099
(dp4100
g62
(dp4101
g89
g90
ssg71
g4090
sg64
(lp4102
S':'
asbag57
(g78
g59
NtRp4103
(dp4104
g62
(dp4105
sg71
g4090
sg64
(lp4106
g57
(g58
g59
NtRp4107
(dp4108
g62
(dp4109
g70
I5
ssg71
g4103
sg64
(lp4110
S'db.news.id>0'
p4111
asbasbasbasbasbsS'etype'
p4112
S"<type 'exceptions.TypeError'>"
p4113
sS'date'
p4114
S'Sun Sep  1 10:22:09 2013'
p4115
sS'response'
p4116
g57
(g58
g59
NtRp4117
(dp4118
g62
(dp4119
sg64
(lp4120
g57
(g66
g59
NtRp4121
(dp4122
g62
(dp4123
g70
I5
ssg71
Nsg64
(lp4124
g57
(g73
g59
NtRp4125
(dp4126
g62
(dp4127
sg71
g4121
sg64
(lp4128
g57
(g78
g59
NtRp4129
(dp4130
g62
(dp4131
g82
g83
ssg71
g4125
sg64
(lp4132
g155
asbag57
(g78
g59
NtRp4133
(dp4134
g62
(dp4135
g89
g90
ssg71
g4125
sg64
(lp4136
S':'
asbag57
(g78
g59
NtRp4137
(dp4138
g62
(dp4139
sg71
g4125
sg64
(lp4140
g57
(g58
g59
NtRp4141
(dp4142
g62
(dp4143
g70
I5
ssg71
g4137
sg64
(lp4144
S'<cStringIO.StringO object at 0xae01b760>'
p4145
asbasbasbag57
(g73
g59
NtRp4146
(dp4147
g62
(dp4148
sg71
g4121
sg64
(lp4149
g57
(g78
g59
NtRp4150
(dp4151
g62
(dp4152
g82
g83
ssg71
g4146
sg64
(lp4153
g243
asbag57
(g78
g59
NtRp4154
(dp4155
g62
(dp4156
g89
g90
ssg71
g4146
sg64
(lp4157
S':'
asbag57
(g78
g59
NtRp4158
(dp4159
g62
(dp4160
sg71
g4146
sg64
(lp4161
g57
(g58
g59
NtRp4162
(dp4163
g62
(dp4164
g70
I5
ssg71
g4158
sg64
(lp4165
g57
(g66
g59
NtRp4166
(dp4167
g62
(dp4168
g70
I4
ssg71
Nsg64
(lp4169
g57
(g73
g59
NtRp4170
(dp4171
g62
(dp4172
sg71
g4166
sg64
(lp4173
g57
(g78
g59
NtRp4174
(dp4175
g62
(dp4176
g82
g83
ssg71
g4170
sg64
(lp4177
S'session_id_reddit'
p4178
asbag57
(g78
g59
NtRp4179
(dp4180
g62
(dp4181
g89
g90
ssg71
g4170
sg64
(lp4182
S':'
asbag57
(g78
g59
NtRp4183
(dp4184
g62
(dp4185
sg71
g4170
sg64
(lp4186
g57
(g58
g59
NtRp4187
(dp4188
g62
(dp4189
g70
I4
ssg71
g4183
sg64
(lp4190
g475
ag57
(g66
g59
NtRp4191
(dp4192
g62
(dp4193
g70
I3
ssg71
Nsg64
(lp4194
g57
(g73
g59
NtRp4195
(dp4196
g62
(dp4197
sg71
g4191
sg64
(lp4198
g57
(g78
g59
NtRp4199
(dp4200
g62
(dp4201
g82
g83
ssg71
g4195
sg64
(lp4202
g294
asbag57
(g78
g59
NtRp4203
(dp4204
g62
(dp4205
g89
g90
ssg71
g4195
sg64
(lp4206
S':'
asbag57
(g78
g59
NtRp4207
(dp4208
g62
(dp4209
sg71
g4195
sg64
(lp4210
g57
(g58
g59
NtRp4211
(dp4212
g62
(dp4213
g70
I3
ssg71
g4207
sg64
(lp4214
S''
asbasbasbag57
(g73
g59
NtRp4215
(dp4216
g62
(dp4217
sg71
g4191
sg64
(lp4218
g57
(g78
g59
NtRp4219
(dp4220
g62
(dp4221
g82
g83
ssg71
g4215
sg64
(lp4222
g315
asbag57
(g78
g59
NtRp4223
(dp4224
g62
(dp4225
g89
g90
ssg71
g4215
sg64
(lp4226
S':'
asbag57
(g78
g59
NtRp4227
(dp4228
g62
(dp4229
sg71
g4215
sg64
(lp4230
g57
(g58
g59
NtRp4231
(dp4232
g62
(dp4233
g70
I3
ssg71
g4227
sg64
(lp4234
S''
asbasbasbag57
(g73
g59
NtRp4235
(dp4236
g62
(dp4237
sg71
g4191
sg64
(lp4238
g57
(g78
g59
NtRp4239
(dp4240
g62
(dp4241
g82
g83
ssg71
g4235
sg64
(lp4242
g336
asbag57
(g78
g59
NtRp4243
(dp4244
g62
(dp4245
g89
g90
ssg71
g4235
sg64
(lp4246
S':'
asbag57
(g78
g59
NtRp4247
(dp4248
g62
(dp4249
sg71
g4235
sg64
(lp4250
g57
(g58
g59
NtRp4251
(dp4252
g62
(dp4253
g70
I3
ssg71
g4247
sg64
(lp4254
S'2592000'
p4255
asbasbasbag57
(g73
g59
NtRp4256
(dp4257
g62
(dp4258
sg71
g4191
sg64
(lp4259
g57
(g78
g59
NtRp4260
(dp4261
g62
(dp4262
g82
g83
ssg71
g4256
sg64
(lp4263
g357
asbag57
(g78
g59
NtRp4264
(dp4265
g62
(dp4266
g89
g90
ssg71
g4256
sg64
(lp4267
S':'
asbag57
(g78
g59
NtRp4268
(dp4269
g62
(dp4270
sg71
g4256
sg64
(lp4271
g57
(g58
g59
NtRp4272
(dp4273
g62
(dp4274
g70
I3
ssg71
g4268
sg64
(lp4275
S''
asbasbasbag57
(g73
g59
NtRp4276
(dp4277
g62
(dp4278
sg71
g4191
sg64
(lp4279
g57
(g78
g59
NtRp4280
(dp4281
g62
(dp4282
g82
g83
ssg71
g4276
sg64
(lp4283
g378
asbag57
(g78
g59
NtRp4284
(dp4285
g62
(dp4286
g89
g90
ssg71
g4276
sg64
(lp4287
S':'
asbag57
(g78
g59
NtRp4288
(dp4289
g62
(dp4290
sg71
g4276
sg64
(lp4291
g57
(g58
g59
NtRp4292
(dp4293
g62
(dp4294
g70
I3
ssg71
g4288
sg64
(lp4295
S''
asbasbasbag57
(g73
g59
NtRp4296
(dp4297
g62
(dp4298
sg71
g4191
sg64
(lp4299
g57
(g78
g59
NtRp4300
(dp4301
g62
(dp4302
g82
g83
ssg71
g4296
sg64
(lp4303
g399
asbag57
(g78
g59
NtRp4304
(dp4305
g62
(dp4306
g89
g90
ssg71
g4296
sg64
(lp4307
S':'
asbag57
(g78
g59
NtRp4308
(dp4309
g62
(dp4310
sg71
g4296
sg64
(lp4311
g57
(g58
g59
NtRp4312
(dp4313
g62
(dp4314
g70
I3
ssg71
g4308
sg64
(lp4315
S'/'
asbasbasbag57
(g73
g59
NtRp4316
(dp4317
g62
(dp4318
sg71
g4191
sg64
(lp4319
g57
(g78
g59
NtRp4320
(dp4321
g62
(dp4322
g82
g83
ssg71
g4316
sg64
(lp4323
g420
asbag57
(g78
g59
NtRp4324
(dp4325
g62
(dp4326
g89
g90
ssg71
g4316
sg64
(lp4327
S':'
asbag57
(g78
g59
NtRp4328
(dp4329
g62
(dp4330
sg71
g4316
sg64
(lp4331
g57
(g58
g59
NtRp4332
(dp4333
g62
(dp4334
g70
I3
ssg71
g4328
sg64
(lp4335
S''
asbasbasbag57
(g73
g59
NtRp4336
(dp4337
g62
(dp4338
sg71
g4191
sg64
(lp4339
g57
(g78
g59
NtRp4340
(dp4341
g62
(dp4342
g82
g83
ssg71
g4336
sg64
(lp4343
g441
asbag57
(g78
g59
NtRp4344
(dp4345
g62
(dp4346
g89
g90
ssg71
g4336
sg64
(lp4347
S':'
asbag57
(g78
g59
NtRp4348
(dp4349
g62
(dp4350
sg71
g4336
sg64
(lp4351
g57
(g58
g59
NtRp4352
(dp4353
g62
(dp4354
g70
I3
ssg71
g4348
sg64
(lp4355
S''
asbasbasbasbasbasbasbasbasbasbasbag57
(g73
g59
NtRp4356
(dp4357
g62
(dp4358
sg71
g4121
sg64
(lp4359
g57
(g78
g59
NtRp4360
(dp4361
g62
(dp4362
g82
g83
ssg71
g4356
sg64
(lp4363
S'delimiters'
p4364
asbag57
(g78
g59
NtRp4365
(dp4366
g62
(dp4367
g89
g90
ssg71
g4356
sg64
(lp4368
S':'
asbag57
(g78
g59
NtRp4369
(dp4370
g62
(dp4371
sg71
g4356
sg64
(lp4372
g57
(g58
g59
NtRp4373
(dp4374
g62
(dp4375
g70
I5
ssg71
g4369
sg64
(lp4376
g57
(g66
g59
NtRp4377
(dp4378
g62
(dp4379
g70
I4
ssg71
Nsg64
(lp4380
g57
(g73
g59
NtRp4381
(dp4382
g62
(dp4383
sg71
g4377
sg64
(lp4384
g57
(g78
g59
NtRp4385
(dp4386
g62
(dp4387
sg71
g4381
sg64
(lp4388
g57
(g58
g59
NtRp4389
(dp4390
g62
(dp4391
g70
I4
ssg71
g4385
sg64
(lp4392
S'{{'
p4393
asbasbasbag57
(g73
g59
NtRp4394
(dp4395
g62
(dp4396
sg71
g4377
sg64
(lp4397
g57
(g78
g59
NtRp4398
(dp4399
g62
(dp4400
sg71
g4394
sg64
(lp4401
g57
(g58
g59
NtRp4402
(dp4403
g62
(dp4404
g70
I4
ssg71
g4398
sg64
(lp4405
S'}}'
p4406
asbasbasbasbasbasbasbag57
(g73
g59
NtRp4407
(dp4408
g62
(dp4409
sg71
g4121
sg64
(lp4410
g57
(g78
g59
NtRp4411
(dp4412
g62
(dp4413
g82
g83
ssg71
g4407
sg64
(lp4414
S'files'
p4415
asbag57
(g78
g59
NtRp4416
(dp4417
g62
(dp4418
g89
g90
ssg71
g4407
sg64
(lp4419
S':'
asbag57
(g78
g59
NtRp4420
(dp4421
g62
(dp4422
sg71
g4407
sg64
(lp4423
g57
(g58
g59
NtRp4424
(dp4425
g62
(dp4426
g70
I5
ssg71
g4420
sg64
(lp4427
g57
(g66
g59
NtRp4428
(dp4429
g62
(dp4430
g70
I4
ssg71
Nsg64
(lp4431
sbasbasbasbag57
(g73
g59
NtRp4432
(dp4433
g62
(dp4434
sg71
g4121
sg64
(lp4435
g57
(g78
g59
NtRp4436
(dp4437
g62
(dp4438
g82
g83
ssg71
g4432
sg64
(lp4439
S'flash'
p4440
asbag57
(g78
g59
NtRp4441
(dp4442
g62
(dp4443
g89
g90
ssg71
g4432
sg64
(lp4444
S':'
asbag57
(g78
g59
NtRp4445
(dp4446
g62
(dp4447
sg71
g4432
sg64
(lp4448
g57
(g58
g59
NtRp4449
(dp4450
g62
(dp4451
g70
I5
ssg71
g4445
sg64
(lp4452
S''
asbasbasbag57
(g73
g59
NtRp4453
(dp4454
g62
(dp4455
sg71
g4121
sg64
(lp4456
g57
(g78
g59
NtRp4457
(dp4458
g62
(dp4459
g82
g83
ssg71
g4453
sg64
(lp4460
S'generic_patterns'
p4461
asbag57
(g78
g59
NtRp4462
(dp4463
g62
(dp4464
g89
g90
ssg71
g4453
sg64
(lp4465
S':'
asbag57
(g78
g59
NtRp4466
(dp4467
g62
(dp4468
sg71
g4453
sg64
(lp4469
g57
(g58
g59
NtRp4470
(dp4471
g62
(dp4472
g70
I5
ssg71
g4466
sg64
(lp4473
g57
(g66
g59
NtRp4474
(dp4475
g62
(dp4476
g70
I4
ssg71
Nsg64
(lp4477
g57
(g73
g59
NtRp4478
(dp4479
g62
(dp4480
sg71
g4474
sg64
(lp4481
g57
(g78
g59
NtRp4482
(dp4483
g62
(dp4484
sg71
g4478
sg64
(lp4485
g57
(g58
g59
NtRp4486
(dp4487
g62
(dp4488
g70
I4
ssg71
g4482
sg64
(lp4489
S'*'
asbasbasbasbasbasbasbag57
(g73
g59
NtRp4490
(dp4491
g62
(dp4492
sg71
g4121
sg64
(lp4493
g57
(g78
g59
NtRp4494
(dp4495
g62
(dp4496
g82
g83
ssg71
g4490
sg64
(lp4497
S'google_analytics_id'
p4498
asbag57
(g78
g59
NtRp4499
(dp4500
g62
(dp4501
g89
g90
ssg71
g4490
sg64
(lp4502
S':'
asbag57
(g78
g59
NtRp4503
(dp4504
g62
(dp4505
sg71
g4490
sg64
(lp4506
g57
(g58
g59
NtRp4507
(dp4508
g62
(dp4509
g70
I5
ssg71
g4503
sg64
(lp4510
S'None'
p4511
asbasbasbag57
(g73
g59
NtRp4512
(dp4513
g62
(dp4514
sg71
g4121
sg64
(lp4515
g57
(g78
g59
NtRp4516
(dp4517
g62
(dp4518
g82
g83
ssg71
g4512
sg64
(lp4519
S'headers'
p4520
asbag57
(g78
g59
NtRp4521
(dp4522
g62
(dp4523
g89
g90
ssg71
g4512
sg64
(lp4524
S':'
asbag57
(g78
g59
NtRp4525
(dp4526
g62
(dp4527
sg71
g4512
sg64
(lp4528
g57
(g58
g59
NtRp4529
(dp4530
g62
(dp4531
g70
I5
ssg71
g4525
sg64
(lp4532
g57
(g66
g59
NtRp4533
(dp4534
g62
(dp4535
g70
I4
ssg71
Nsg64
(lp4536
g57
(g73
g59
NtRp4537
(dp4538
g62
(dp4539
sg71
g4533
sg64
(lp4540
g57
(g78
g59
NtRp4541
(dp4542
g62
(dp4543
g82
g83
ssg71
g4537
sg64
(lp4544
S'X-Powered-By'
p4545
asbag57
(g78
g59
NtRp4546
(dp4547
g62
(dp4548
g89
g90
ssg71
g4537
sg64
(lp4549
S':'
asbag57
(g78
g59
NtRp4550
(dp4551
g62
(dp4552
sg71
g4537
sg64
(lp4553
g57
(g58
g59
NtRp4554
(dp4555
g62
(dp4556
g70
I4
ssg71
g4550
sg64
(lp4557
S'web2py'
p4558
asbasbasbasbasbasbasbag57
(g73
g59
NtRp4559
(dp4560
g62
(dp4561
sg71
g4121
sg64
(lp4562
g57
(g78
g59
NtRp4563
(dp4564
g62
(dp4565
g82
g83
ssg71
g4559
sg64
(lp4566
S'logo'
p4567
asbag57
(g78
g59
NtRp4568
(dp4569
g62
(dp4570
g89
g90
ssg71
g4559
sg64
(lp4571
S':'
asbag57
(g78
g59
NtRp4572
(dp4573
g62
(dp4574
sg71
g4559
sg64
(lp4575
g57
(g58
g59
NtRp4576
(dp4577
g62
(dp4578
g70
I5
ssg71
g4572
sg64
(lp4579
g57
(cgluon.html
A
p4580
g59
NtRp4581
(dp4582
g62
(dp4583
S'_class'
p4584
S'brand'
p4585
sS'_href'
p4586
S'http://www.web2py.com/'
p4587
ssg71
Nsg64
(lp4588
g57
(cgluon.html
B
p4589
g59
NtRp4590
(dp4591
g62
(dp4592
sg71
g4581
sg64
(lp4593
S'web'
p4594
ag57
(cgluon.html
SPAN
p4595
g59
NtRp4596
(dp4597
g62
(dp4598
sg71
g4590
sg64
(lp4599
I2
asbaS'py'
p4600
asbacgluon.html
XML_unpickle
p4601
(S's\r\x00\x00\x00&trade;&nbsp;'
tRp4602
asbasbasbasbag57
(g73
g59
NtRp4603
(dp4604
g62
(dp4605
sg71
g4121
sg64
(lp4606
g57
(g78
g59
NtRp4607
(dp4608
g62
(dp4609
g82
g83
ssg71
g4603
sg64
(lp4610
S'menu'
p4611
asbag57
(g78
g59
NtRp4612
(dp4613
g62
(dp4614
g89
g90
ssg71
g4603
sg64
(lp4615
S':'
asbag57
(g78
g59
NtRp4616
(dp4617
g62
(dp4618
sg71
g4603
sg64
(lp4619
g57
(g58
g59
NtRp4620
(dp4621
g62
(dp4622
g70
I5
ssg71
g4616
sg64
(lp4623
g57
(g66
g59
NtRp4624
(dp4625
g62
(dp4626
g70
I4
ssg71
Nsg64
(lp4627
g57
(g73
g59
NtRp4628
(dp4629
g62
(dp4630
sg71
g4624
sg64
(lp4631
g57
(g78
g59
NtRp4632
(dp4633
g62
(dp4634
sg71
g4628
sg64
(lp4635
g57
(g58
g59
NtRp4636
(dp4637
g62
(dp4638
g70
I4
ssg71
g4632
sg64
(lp4639
g57
(g66
g59
NtRp4640
(dp4641
g62
(dp4642
g70
I3
ssg71
Nsg64
(lp4643
g57
(g73
g59
NtRp4644
(dp4645
g62
(dp4646
sg71
g4640
sg64
(lp4647
g57
(g78
g59
NtRp4648
(dp4649
g62
(dp4650
sg71
g4644
sg64
(lp4651
g57
(g58
g59
NtRp4652
(dp4653
g62
(dp4654
g70
I3
ssg71
g4648
sg64
(lp4655
cgluon.languages
lazyT_unpickle
p4656
(S's\x04\x00\x00\x00Home'
tRp4657
asbasbasbag57
(g73
g59
NtRp4658
(dp4659
g62
(dp4660
sg71
g4640
sg64
(lp4661
g57
(g78
g59
NtRp4662
(dp4663
g62
(dp4664
sg71
g4658
sg64
(lp4665
g57
(g58
g59
NtRp4666
(dp4667
g62
(dp4668
g70
I3
ssg71
g4662
sg64
(lp4669
g100
asbasbasbag57
(g73
g59
NtRp4670
(dp4671
g62
(dp4672
sg71
g4640
sg64
(lp4673
g57
(g78
g59
NtRp4674
(dp4675
g62
(dp4676
sg71
g4670
sg64
(lp4677
g57
(g58
g59
NtRp4678
(dp4679
g62
(dp4680
g70
I3
ssg71
g4674
sg64
(lp4681
S'/reddit/default/index'
p4682
asbasbasbag57
(g73
g59
NtRp4683
(dp4684
g62
(dp4685
sg71
g4640
sg64
(lp4686
g57
(g78
g59
NtRp4687
(dp4688
g62
(dp4689
sg71
g4683
sg64
(lp4690
g57
(g58
g59
NtRp4691
(dp4692
g62
(dp4693
g70
I3
ssg71
g4687
sg64
(lp4694
g57
(g66
g59
NtRp4695
(dp4696
g62
(dp4697
g70
I2
ssg71
Nsg64
(lp4698
sbasbasbasbasbasbasbasbag57
(g73
g59
NtRp4699
(dp4700
g62
(dp4701
sg71
g4624
sg64
(lp4702
g57
(g78
g59
NtRp4703
(dp4704
g62
(dp4705
sg71
g4699
sg64
(lp4706
g57
(g58
g59
NtRp4707
(dp4708
g62
(dp4709
g70
I4
ssg71
g4703
sg64
(lp4710
g57
(g66
g59
NtRp4711
(dp4712
g62
(dp4713
g70
I3
ssg71
Nsg64
(lp4714
g57
(g73
g59
NtRp4715
(dp4716
g62
(dp4717
sg71
g4711
sg64
(lp4718
g57
(g78
g59
NtRp4719
(dp4720
g62
(dp4721
sg71
g4715
sg64
(lp4722
g57
(g58
g59
NtRp4723
(dp4724
g62
(dp4725
g70
I3
ssg71
g4719
sg64
(lp4726
g57
(g4595
g59
NtRp4727
(dp4728
g62
(dp4729
g4584
S'highlighted'
p4730
ssg71
Nsg64
(lp4731
g4558
asbasbasbasbag57
(g73
g59
NtRp4732
(dp4733
g62
(dp4734
sg71
g4711
sg64
(lp4735
g57
(g78
g59
NtRp4736
(dp4737
g62
(dp4738
sg71
g4732
sg64
(lp4739
g57
(g58
g59
NtRp4740
(dp4741
g62
(dp4742
g70
I3
ssg71
g4736
sg64
(lp4743
g100
asbasbasbag57
(g73
g59
NtRp4744
(dp4745
g62
(dp4746
sg71
g4711
sg64
(lp4747
g57
(g78
g59
NtRp4748
(dp4749
g62
(dp4750
sg71
g4744
sg64
(lp4751
g57
(g58
g59
NtRp4752
(dp4753
g62
(dp4754
g70
I3
ssg71
g4748
sg64
(lp4755
S'http://web2py.com'
p4756
asbasbasbag57
(g73
g59
NtRp4757
(dp4758
g62
(dp4759
sg71
g4711
sg64
(lp4760
g57
(g78
g59
NtRp4761
(dp4762
g62
(dp4763
sg71
g4757
sg64
(lp4764
g57
(g58
g59
NtRp4765
(dp4766
g62
(dp4767
g70
I3
ssg71
g4761
sg64
(lp4768
g57
(g66
g59
NtRp4769
(dp4770
g62
(dp4771
g70
I2
ssg71
Nsg64
(lp4772
g57
(g73
g59
NtRp4773
(dp4774
g62
(dp4775
sg71
g4769
sg64
(lp4776
g57
(g78
g59
NtRp4777
(dp4778
g62
(dp4779
sg71
g4773
sg64
(lp4780
g57
(g58
g59
NtRp4781
(dp4782
g62
(dp4783
g70
I2
ssg71
g4777
sg64
(lp4784
g57
(g66
g59
NtRp4785
(dp4786
g62
(dp4787
g70
I1
ssg71
Nsg64
(lp4788
g57
(g73
g59
NtRp4789
(dp4790
g62
(dp4791
sg71
g4785
sg64
(lp4792
g57
(g78
g59
NtRp4793
(dp4794
g62
(dp4795
sg71
g4789
sg64
(lp4796
g57
(g58
g59
NtRp4797
(dp4798
g62
(dp4799
g70
I1
ssg71
g4793
sg64
(lp4800
g4656
(S's\x08\x00\x00\x00My Sites'
tRp4801
asbasbasbag57
(g73
g59
NtRp4802
(dp4803
g62
(dp4804
sg71
g4785
sg64
(lp4805
g57
(g78
g59
NtRp4806
(dp4807
g62
(dp4808
sg71
g4802
sg64
(lp4809
g57
(g58
g59
NtRp4810
(dp4811
g62
(dp4812
g70
I1
ssg71
g4806
sg64
(lp4813
I00
asbasbasbag57
(g73
g59
NtRp4814
(dp4815
g62
(dp4816
sg71
g4785
sg64
(lp4817
g57
(g78
g59
NtRp4818
(dp4819
g62
(dp4820
sg71
g4814
sg64
(lp4821
g57
(g58
g59
NtRp4822
(dp4823
g62
(dp4824
g70
I1
ssg71
g4818
sg64
(lp4825
S'/admin/default/site'
p4826
asbasbasbasbasbasbasbag57
(g73
g59
NtRp4827
(dp4828
g62
(dp4829
sg71
g4769
sg64
(lp4830
g57
(g78
g59
NtRp4831
(dp4832
g62
(dp4833
sg71
g4827
sg64
(lp4834
g57
(g58
g59
NtRp4835
(dp4836
g62
(dp4837
g70
I2
ssg71
g4831
sg64
(lp4838
g57
(g66
g59
NtRp4839
(dp4840
g62
(dp4841
g70
I1
ssg71
Nsg64
(lp4842
g57
(g73
g59
NtRp4843
(dp4844
g62
(dp4845
sg71
g4839
sg64
(lp4846
g57
(g78
g59
NtRp4847
(dp4848
g62
(dp4849
sg71
g4843
sg64
(lp4850
g57
(g58
g59
NtRp4851
(dp4852
g62
(dp4853
g70
I1
ssg71
g4847
sg64
(lp4854
g4656
(S's\x08\x00\x00\x00This App'
tRp4855
asbasbasbag57
(g73
g59
NtRp4856
(dp4857
g62
(dp4858
sg71
g4839
sg64
(lp4859
g57
(g78
g59
NtRp4860
(dp4861
g62
(dp4862
sg71
g4856
sg64
(lp4863
g57
(g58
g59
NtRp4864
(dp4865
g62
(dp4866
g70
I1
ssg71
g4860
sg64
(lp4867
I00
asbasbasbag57
(g73
g59
NtRp4868
(dp4869
g62
(dp4870
sg71
g4839
sg64
(lp4871
g57
(g78
g59
NtRp4872
(dp4873
g62
(dp4874
sg71
g4868
sg64
(lp4875
g57
(g58
g59
NtRp4876
(dp4877
g62
(dp4878
g70
I1
ssg71
g4872
sg64
(lp4879
S'/admin/default/design/reddit'
p4880
asbasbasbag57
(g73
g59
NtRp4881
(dp4882
g62
(dp4883
sg71
g4839
sg64
(lp4884
g57
(g78
g59
NtRp4885
(dp4886
g62
(dp4887
sg71
g4881
sg64
(lp4888
g57
(g58
g59
NtRp4889
(dp4890
g62
(dp4891
g70
I1
ssg71
g4885
sg64
(lp4892
(lp4893
(g4656
(S's\n\x00\x00\x00Controller'
tRp4894
I00
S'/admin/default/edit/reddit/controllers/default.py'
tp4895
a(g4656
(S's\x04\x00\x00\x00View'
tRp4896
I00
S'/admin/default/edit/reddit/views/default/editn.html'
tp4897
a(g4656
(S's\x06\x00\x00\x00Layout'
tRp4898
I00
S'/admin/default/edit/reddit/views/layout.html'
tp4899
a(g4656
(S's\n\x00\x00\x00Stylesheet'
tRp4900
I00
S'/admin/default/edit/reddit/static/css/web2py.css'
tp4901
a(g4656
(S's\x08\x00\x00\x00DB Model'
tRp4902
I00
S'/admin/default/edit/reddit/models/db.py'
tp4903
a(g4656
(S's\n\x00\x00\x00Menu Model'
tRp4904
I00
S'/admin/default/edit/reddit/models/menu.py'
tp4905
a(g4656
(S's\x08\x00\x00\x00Database'
tRp4906
I00
S'/reddit/appadmin/index'
tp4907
a(g4656
(S's\x06\x00\x00\x00Errors'
tRp4908
I00
S'/admin/default/errors/reddit'
tp4909
a(g4656
(S's\x05\x00\x00\x00About'
tRp4910
I00
S'/admin/default/about/reddit'
tp4911
aasbasbasbasbasbasbasbag57
(g73
g59
NtRp4912
(dp4913
g62
(dp4914
sg71
g4769
sg64
(lp4915
g57
(g78
g59
NtRp4916
(dp4917
g62
(dp4918
sg71
g4912
sg64
(lp4919
g57
(g58
g59
NtRp4920
(dp4921
g62
(dp4922
g70
I2
ssg71
g4916
sg64
(lp4923
g57
(g66
g59
NtRp4924
(dp4925
g62
(dp4926
g70
I1
ssg71
Nsg64
(lp4927
g57
(g73
g59
NtRp4928
(dp4929
g62
(dp4930
sg71
g4924
sg64
(lp4931
g57
(g78
g59
NtRp4932
(dp4933
g62
(dp4934
sg71
g4928
sg64
(lp4935
g57
(g58
g59
NtRp4936
(dp4937
g62
(dp4938
g70
I1
ssg71
g4932
sg64
(lp4939
S'web2py.com'
p4940
asbasbasbag57
(g73
g59
NtRp4941
(dp4942
g62
(dp4943
sg71
g4924
sg64
(lp4944
g57
(g78
g59
NtRp4945
(dp4946
g62
(dp4947
sg71
g4941
sg64
(lp4948
g57
(g58
g59
NtRp4949
(dp4950
g62
(dp4951
g70
I1
ssg71
g4945
sg64
(lp4952
I00
asbasbasbag57
(g73
g59
NtRp4953
(dp4954
g62
(dp4955
sg71
g4924
sg64
(lp4956
g57
(g78
g59
NtRp4957
(dp4958
g62
(dp4959
sg71
g4953
sg64
(lp4960
g57
(g58
g59
NtRp4961
(dp4962
g62
(dp4963
g70
I1
ssg71
g4957
sg64
(lp4964
S'http://www.web2py.com'
p4965
asbasbasbag57
(g73
g59
NtRp4966
(dp4967
g62
(dp4968
sg71
g4924
sg64
(lp4969
g57
(g78
g59
NtRp4970
(dp4971
g62
(dp4972
sg71
g4966
sg64
(lp4973
g57
(g58
g59
NtRp4974
(dp4975
g62
(dp4976
g70
I1
ssg71
g4970
sg64
(lp4977
(lp4978
(g4656
(S's\x08\x00\x00\x00Download'
tRp4979
I00
S'http://www.web2py.com/examples/default/download'
p4980
tp4981
a(g4656
(S's\x07\x00\x00\x00Support'
tRp4982
I00
S'http://www.web2py.com/examples/default/support'
p4983
tp4984
a(g4656
(S's\x04\x00\x00\x00Demo'
tRp4985
I00
S'http://web2py.com/demo_admin'
p4986
tp4987
a(g4656
(S's\x0e\x00\x00\x00Quick Examples'
tRp4988
I00
S'http://web2py.com/examples/default/examples'
p4989
tp4990
a(g4656
(S's\x03\x00\x00\x00FAQ'
tRp4991
I00
S'http://web2py.com/AlterEgo'
p4992
tp4993
a(g4656
(S's\x06\x00\x00\x00Videos'
tRp4994
I00
S'http://www.web2py.com/examples/default/videos/'
p4995
tp4996
a(g4656
(S's\x11\x00\x00\x00Free Applications'
tRp4997
I00
S'http://web2py.com/appliances'
p4998
tp4999
a(g4656
(S's\x07\x00\x00\x00Plugins'
tRp5000
I00
S'http://web2py.com/plugins'
p5001
tp5002
a(g4656
(S's\x07\x00\x00\x00Layouts'
tRp5003
I00
S'http://web2py.com/layouts'
p5004
tp5005
a(g4656
(S's\x07\x00\x00\x00Recipes'
tRp5006
I00
S'http://web2pyslices.com/'
p5007
tp5008
a(g4656
(S's\x08\x00\x00\x00Semantic'
tRp5009
I00
S'http://web2py.com/semantic'
p5010
tp5011
aasbasbasbasbasbasbasbag57
(g73
g59
NtRp5012
(dp5013
g62
(dp5014
sg71
g4769
sg64
(lp5015
g57
(g78
g59
NtRp5016
(dp5017
g62
(dp5018
sg71
g5012
sg64
(lp5019
g57
(g58
g59
NtRp5020
(dp5021
g62
(dp5022
g70
I2
ssg71
g5016
sg64
(lp5023
g57
(g66
g59
NtRp5024
(dp5025
g62
(dp5026
g70
I1
ssg71
Nsg64
(lp5027
g57
(g73
g59
NtRp5028
(dp5029
g62
(dp5030
sg71
g5024
sg64
(lp5031
g57
(g78
g59
NtRp5032
(dp5033
g62
(dp5034
sg71
g5028
sg64
(lp5035
g57
(g58
g59
NtRp5036
(dp5037
g62
(dp5038
g70
I1
ssg71
g5032
sg64
(lp5039
g4656
(S's\r\x00\x00\x00Documentation'
tRp5040
asbasbasbag57
(g73
g59
NtRp5041
(dp5042
g62
(dp5043
sg71
g5024
sg64
(lp5044
g57
(g78
g59
NtRp5045
(dp5046
g62
(dp5047
sg71
g5041
sg64
(lp5048
g57
(g58
g59
NtRp5049
(dp5050
g62
(dp5051
g70
I1
ssg71
g5045
sg64
(lp5052
I00
asbasbasbag57
(g73
g59
NtRp5053
(dp5054
g62
(dp5055
sg71
g5024
sg64
(lp5056
g57
(g78
g59
NtRp5057
(dp5058
g62
(dp5059
sg71
g5053
sg64
(lp5060
g57
(g58
g59
NtRp5061
(dp5062
g62
(dp5063
g70
I1
ssg71
g5057
sg64
(lp5064
S'http://www.web2py.com/book'
p5065
asbasbasbag57
(g73
g59
NtRp5066
(dp5067
g62
(dp5068
sg71
g5024
sg64
(lp5069
g57
(g78
g59
NtRp5070
(dp5071
g62
(dp5072
sg71
g5066
sg64
(lp5073
g57
(g58
g59
NtRp5074
(dp5075
g62
(dp5076
g70
I1
ssg71
g5070
sg64
(lp5077
(lp5078
(g4656
(S's\x07\x00\x00\x00Preface'
tRp5079
I00
S'http://www.web2py.com/book/default/chapter/00'
p5080
tp5081
a(g4656
(S's\x0c\x00\x00\x00Introduction'
tRp5082
I00
S'http://www.web2py.com/book/default/chapter/01'
p5083
tp5084
a(g4656
(S's\x06\x00\x00\x00Python'
tRp5085
I00
S'http://www.web2py.com/book/default/chapter/02'
p5086
tp5087
a(g4656
(S's\x08\x00\x00\x00Overview'
tRp5088
I00
S'http://www.web2py.com/book/default/chapter/03'
p5089
tp5090
a(g4656
(S's\x08\x00\x00\x00The Core'
tRp5091
I00
S'http://www.web2py.com/book/default/chapter/04'
p5092
tp5093
a(g4656
(S's\t\x00\x00\x00The Views'
tRp5094
I00
S'http://www.web2py.com/book/default/chapter/05'
p5095
tp5096
a(g4656
(S's\x08\x00\x00\x00Database'
tRp5097
I00
S'http://www.web2py.com/book/default/chapter/06'
p5098
tp5099
a(g4656
(S's\x14\x00\x00\x00Forms and Validators'
tRp5100
I00
S'http://www.web2py.com/book/default/chapter/07'
p5101
tp5102
a(g4656
(S's\r\x00\x00\x00Email and SMS'
tRp5103
I00
S'http://www.web2py.com/book/default/chapter/08'
p5104
tp5105
a(g4656
(S's\x0e\x00\x00\x00Access Control'
tRp5106
I00
S'http://www.web2py.com/book/default/chapter/09'
p5107
tp5108
a(g4656
(S's\x08\x00\x00\x00Services'
tRp5109
I00
S'http://www.web2py.com/book/default/chapter/10'
p5110
tp5111
a(g4656
(S's\x0c\x00\x00\x00Ajax Recipes'
tRp5112
I00
S'http://www.web2py.com/book/default/chapter/11'
p5113
tp5114
a(g4656
(S's\x16\x00\x00\x00Components and Plugins'
tRp5115
I00
S'http://www.web2py.com/book/default/chapter/12'
p5116
tp5117
a(g4656
(S's\x12\x00\x00\x00Deployment Recipes'
tRp5118
I00
S'http://www.web2py.com/book/default/chapter/13'
p5119
tp5120
a(g4656
(S's\r\x00\x00\x00Other Recipes'
tRp5121
I00
S'http://www.web2py.com/book/default/chapter/14'
p5122
tp5123
a(g4656
(S's\r\x00\x00\x00Buy this book'
tRp5124
I00
S'http://stores.lulu.com/web2py'
p5125
tp5126
aasbasbasbasbasbasbasbag57
(g73
g59
NtRp5127
(dp5128
g62
(dp5129
sg71
g4769
sg64
(lp5130
g57
(g78
g59
NtRp5131
(dp5132
g62
(dp5133
sg71
g5127
sg64
(lp5134
g57
(g58
g59
NtRp5135
(dp5136
g62
(dp5137
g70
I2
ssg71
g5131
sg64
(lp5138
g57
(g66
g59
NtRp5139
(dp5140
g62
(dp5141
g70
I1
ssg71
Nsg64
(lp5142
g57
(g73
g59
NtRp5143
(dp5144
g62
(dp5145
sg71
g5139
sg64
(lp5146
g57
(g78
g59
NtRp5147
(dp5148
g62
(dp5149
sg71
g5143
sg64
(lp5150
g57
(g58
g59
NtRp5151
(dp5152
g62
(dp5153
g70
I1
ssg71
g5147
sg64
(lp5154
g4656
(S's\t\x00\x00\x00Community'
tRp5155
asbasbasbag57
(g73
g59
NtRp5156
(dp5157
g62
(dp5158
sg71
g5139
sg64
(lp5159
g57
(g78
g59
NtRp5160
(dp5161
g62
(dp5162
sg71
g5156
sg64
(lp5163
g57
(g58
g59
NtRp5164
(dp5165
g62
(dp5166
g70
I1
ssg71
g5160
sg64
(lp5167
I00
asbasbasbag57
(g73
g59
NtRp5168
(dp5169
g62
(dp5170
sg71
g5139
sg64
(lp5171
g57
(g78
g59
NtRp5172
(dp5173
g62
(dp5174
sg71
g5168
sg64
(lp5175
g57
(g58
g59
NtRp5176
(dp5177
g62
(dp5178
g70
I1
ssg71
g5172
sg64
(lp5179
Nasbasbasbag57
(g73
g59
NtRp5180
(dp5181
g62
(dp5182
sg71
g5139
sg64
(lp5183
g57
(g78
g59
NtRp5184
(dp5185
g62
(dp5186
sg71
g5180
sg64
(lp5187
g57
(g58
g59
NtRp5188
(dp5189
g62
(dp5190
g70
I1
ssg71
g5184
sg64
(lp5191
(lp5192
(g4656
(S's\x06\x00\x00\x00Groups'
tRp5193
I00
S'http://www.web2py.com/examples/default/usergroups'
p5194
tp5195
a(g4656
(S's\x07\x00\x00\x00Twitter'
tRp5196
I00
S'http://twitter.com/web2py'
p5197
tp5198
a(g4656
(S's\t\x00\x00\x00Live Chat'
tRp5199
I00
S'http://webchat.freenode.net/?channels=web2py'
p5200
tp5201
aasbasbasbasbasbasbasbag57
(g73
g59
NtRp5202
(dp5203
g62
(dp5204
sg71
g4769
sg64
(lp5205
g57
(g78
g59
NtRp5206
(dp5207
g62
(dp5208
sg71
g5202
sg64
(lp5209
g57
(g58
g59
NtRp5210
(dp5211
g62
(dp5212
g70
I2
ssg71
g5206
sg64
(lp5213
g57
(g66
g59
NtRp5214
(dp5215
g62
(dp5216
g70
I1
ssg71
Nsg64
(lp5217
g57
(g73
g59
NtRp5218
(dp5219
g62
(dp5220
sg71
g5214
sg64
(lp5221
g57
(g78
g59
NtRp5222
(dp5223
g62
(dp5224
sg71
g5218
sg64
(lp5225
g57
(g58
g59
NtRp5226
(dp5227
g62
(dp5228
g70
I1
ssg71
g5222
sg64
(lp5229
g4656
(S's\x07\x00\x00\x00Plugins'
tRp5230
asbasbasbag57
(g73
g59
NtRp5231
(dp5232
g62
(dp5233
sg71
g5214
sg64
(lp5234
g57
(g78
g59
NtRp5235
(dp5236
g62
(dp5237
sg71
g5231
sg64
(lp5238
g57
(g58
g59
NtRp5239
(dp5240
g62
(dp5241
g70
I1
ssg71
g5235
sg64
(lp5242
I00
asbasbasbag57
(g73
g59
NtRp5243
(dp5244
g62
(dp5245
sg71
g5214
sg64
(lp5246
g57
(g78
g59
NtRp5247
(dp5248
g62
(dp5249
sg71
g5243
sg64
(lp5250
g57
(g58
g59
NtRp5251
(dp5252
g62
(dp5253
g70
I1
ssg71
g5247
sg64
(lp5254
Nasbasbasbag57
(g73
g59
NtRp5255
(dp5256
g62
(dp5257
sg71
g5214
sg64
(lp5258
g57
(g78
g59
NtRp5259
(dp5260
g62
(dp5261
sg71
g5255
sg64
(lp5262
g57
(g58
g59
NtRp5263
(dp5264
g62
(dp5265
g70
I1
ssg71
g5259
sg64
(lp5266
(lp5267
(S'plugin_wiki'
p5268
I00
S'http://web2py.com/examples/default/download'
p5269
tp5270
a(g4656
(S's\r\x00\x00\x00Other Plugins'
tRp5271
I00
g5001
tp5272
a(g4656
(S's\x0e\x00\x00\x00Layout Plugins'
tRp5273
I00
g5004
tp5274
aasbasbasbasbasbasbasbasbasbasbasbasbasbasbasbasbasbasbasbag57
(g73
g59
NtRp5275
(dp5276
g62
(dp5277
sg71
g4121
sg64
(lp5278
g57
(g78
g59
NtRp5279
(dp5280
g62
(dp5281
g82
g83
ssg71
g5275
sg64
(lp5282
S'meta'
p5283
asbag57
(g78
g59
NtRp5284
(dp5285
g62
(dp5286
g89
g90
ssg71
g5275
sg64
(lp5287
S':'
asbag57
(g78
g59
NtRp5288
(dp5289
g62
(dp5290
sg71
g5275
sg64
(lp5291
g57
(g58
g59
NtRp5292
(dp5293
g62
(dp5294
g70
I5
ssg71
g5288
sg64
(lp5295
g57
(g66
g59
NtRp5296
(dp5297
g62
(dp5298
g70
I4
ssg71
Nsg64
(lp5299
g57
(g73
g59
NtRp5300
(dp5301
g62
(dp5302
sg71
g5296
sg64
(lp5303
g57
(g78
g59
NtRp5304
(dp5305
g62
(dp5306
g82
g83
ssg71
g5300
sg64
(lp5307
S'author'
p5308
asbag57
(g78
g59
NtRp5309
(dp5310
g62
(dp5311
g89
g90
ssg71
g5300
sg64
(lp5312
S':'
asbag57
(g78
g59
NtRp5313
(dp5314
g62
(dp5315
sg71
g5300
sg64
(lp5316
g57
(g58
g59
NtRp5317
(dp5318
g62
(dp5319
g70
I4
ssg71
g5313
sg64
(lp5320
S'Your Name <you@example.com>'
p5321
asbasbasbag57
(g73
g59
NtRp5322
(dp5323
g62
(dp5324
sg71
g5296
sg64
(lp5325
g57
(g78
g59
NtRp5326
(dp5327
g62
(dp5328
g82
g83
ssg71
g5322
sg64
(lp5329
S'description'
p5330
asbag57
(g78
g59
NtRp5331
(dp5332
g62
(dp5333
g89
g90
ssg71
g5322
sg64
(lp5334
S':'
asbag57
(g78
g59
NtRp5335
(dp5336
g62
(dp5337
sg71
g5322
sg64
(lp5338
g57
(g58
g59
NtRp5339
(dp5340
g62
(dp5341
g70
I4
ssg71
g5335
sg64
(lp5342
S'a cool new app'
p5343
asbasbasbag57
(g73
g59
NtRp5344
(dp5345
g62
(dp5346
sg71
g5296
sg64
(lp5347
g57
(g78
g59
NtRp5348
(dp5349
g62
(dp5350
g82
g83
ssg71
g5344
sg64
(lp5351
S'generator'
p5352
asbag57
(g78
g59
NtRp5353
(dp5354
g62
(dp5355
g89
g90
ssg71
g5344
sg64
(lp5356
S':'
asbag57
(g78
g59
NtRp5357
(dp5358
g62
(dp5359
sg71
g5344
sg64
(lp5360
g57
(g58
g59
NtRp5361
(dp5362
g62
(dp5363
g70
I4
ssg71
g5357
sg64
(lp5364
S'Web2py Web Framework'
p5365
asbasbasbag57
(g73
g59
NtRp5366
(dp5367
g62
(dp5368
sg71
g5296
sg64
(lp5369
g57
(g78
g59
NtRp5370
(dp5371
g62
(dp5372
g82
g83
ssg71
g5366
sg64
(lp5373
S'keywords'
p5374
asbag57
(g78
g59
NtRp5375
(dp5376
g62
(dp5377
g89
g90
ssg71
g5366
sg64
(lp5378
S':'
asbag57
(g78
g59
NtRp5379
(dp5380
g62
(dp5381
sg71
g5366
sg64
(lp5382
g57
(g58
g59
NtRp5383
(dp5384
g62
(dp5385
g70
I4
ssg71
g5379
sg64
(lp5386
S'web2py, python, framework'
p5387
asbasbasbasbasbasbasbag57
(g73
g59
NtRp5388
(dp5389
g62
(dp5390
sg71
g4121
sg64
(lp5391
g57
(g78
g59
NtRp5392
(dp5393
g62
(dp5394
g82
g83
ssg71
g5388
sg64
(lp5395
S'models_to_run'
p5396
asbag57
(g78
g59
NtRp5397
(dp5398
g62
(dp5399
g89
g90
ssg71
g5388
sg64
(lp5400
S':'
asbag57
(g78
g59
NtRp5401
(dp5402
g62
(dp5403
sg71
g5388
sg64
(lp5404
g57
(g58
g59
NtRp5405
(dp5406
g62
(dp5407
g70
I5
ssg71
g5401
sg64
(lp5408
g57
(g66
g59
NtRp5409
(dp5410
g62
(dp5411
g70
I4
ssg71
Nsg64
(lp5412
g57
(g73
g59
NtRp5413
(dp5414
g62
(dp5415
sg71
g5409
sg64
(lp5416
g57
(g78
g59
NtRp5417
(dp5418
g62
(dp5419
sg71
g5413
sg64
(lp5420
g57
(g58
g59
NtRp5421
(dp5422
g62
(dp5423
g70
I4
ssg71
g5417
sg64
(lp5424
S'^\\w+\\.py$'
p5425
asbasbasbag57
(g73
g59
NtRp5426
(dp5427
g62
(dp5428
sg71
g5409
sg64
(lp5429
g57
(g78
g59
NtRp5430
(dp5431
g62
(dp5432
sg71
g5426
sg64
(lp5433
g57
(g58
g59
NtRp5434
(dp5435
g62
(dp5436
g70
I4
ssg71
g5430
sg64
(lp5437
S'^default/\\w+\\.py$'
p5438
asbasbasbag57
(g73
g59
NtRp5439
(dp5440
g62
(dp5441
sg71
g5409
sg64
(lp5442
g57
(g78
g59
NtRp5443
(dp5444
g62
(dp5445
sg71
g5439
sg64
(lp5446
g57
(g58
g59
NtRp5447
(dp5448
g62
(dp5449
g70
I4
ssg71
g5443
sg64
(lp5450
S'^default/editn/\\w+\\.py$'
p5451
asbasbasbasbasbasbasbag57
(g73
g59
NtRp5452
(dp5453
g62
(dp5454
sg71
g4121
sg64
(lp5455
g57
(g78
g59
NtRp5456
(dp5457
g62
(dp5458
g82
g83
ssg71
g5452
sg64
(lp5459
S'postprocessing'
p5460
asbag57
(g78
g59
NtRp5461
(dp5462
g62
(dp5463
g89
g90
ssg71
g5452
sg64
(lp5464
S':'
asbag57
(g78
g59
NtRp5465
(dp5466
g62
(dp5467
sg71
g5452
sg64
(lp5468
g57
(g58
g59
NtRp5469
(dp5470
g62
(dp5471
g70
I5
ssg71
g5465
sg64
(lp5472
g57
(g66
g59
NtRp5473
(dp5474
g62
(dp5475
g70
I4
ssg71
Nsg64
(lp5476
sbasbasbasbag57
(g73
g59
NtRp5477
(dp5478
g62
(dp5479
sg71
g4121
sg64
(lp5480
g57
(g78
g59
NtRp5481
(dp5482
g62
(dp5483
g82
g83
ssg71
g5477
sg64
(lp5484
S'session_cookie_expires'
p5485
asbag57
(g78
g59
NtRp5486
(dp5487
g62
(dp5488
g89
g90
ssg71
g5477
sg64
(lp5489
S':'
asbag57
(g78
g59
NtRp5490
(dp5491
g62
(dp5492
sg71
g5477
sg64
(lp5493
g57
(g58
g59
NtRp5494
(dp5495
g62
(dp5496
g70
I5
ssg71
g5490
sg64
(lp5497
S'None'
p5498
asbasbasbag57
(g73
g59
NtRp5499
(dp5500
g62
(dp5501
sg71
g4121
sg64
(lp5502
g57
(g78
g59
NtRp5503
(dp5504
g62
(dp5505
g82
g83
ssg71
g5499
sg64
(lp5506
S'session_data_name'
p5507
asbag57
(g78
g59
NtRp5508
(dp5509
g62
(dp5510
g89
g90
ssg71
g5499
sg64
(lp5511
S':'
asbag57
(g78
g59
NtRp5512
(dp5513
g62
(dp5514
sg71
g5499
sg64
(lp5515
g57
(g58
g59
NtRp5516
(dp5517
g62
(dp5518
g70
I5
ssg71
g5512
sg64
(lp5519
S'session_data_reddit'
p5520
asbasbasbag57
(g73
g59
NtRp5521
(dp5522
g62
(dp5523
sg71
g4121
sg64
(lp5524
g57
(g78
g59
NtRp5525
(dp5526
g62
(dp5527
g82
g83
ssg71
g5521
sg64
(lp5528
S'session_file'
p5529
asbag57
(g78
g59
NtRp5530
(dp5531
g62
(dp5532
g89
g90
ssg71
g5521
sg64
(lp5533
S':'
asbag57
(g78
g59
NtRp5534
(dp5535
g62
(dp5536
sg71
g5521
sg64
(lp5537
g57
(g58
g59
NtRp5538
(dp5539
g62
(dp5540
g70
I5
ssg71
g5534
sg64
(lp5541
S"<open file '/home/pankaj/web2py/applications/reddit/sessions/127.0.0.1-24289f39-32a1-48fb-a367-22792fb8b813', mode 'rb+' at 0x9c556a8>"
p5542
asbasbasbag57
(g73
g59
NtRp5543
(dp5544
g62
(dp5545
sg71
g4121
sg64
(lp5546
g57
(g78
g59
NtRp5547
(dp5548
g62
(dp5549
g82
g83
ssg71
g5543
sg64
(lp5550
S'session_filename'
p5551
asbag57
(g78
g59
NtRp5552
(dp5553
g62
(dp5554
g89
g90
ssg71
g5543
sg64
(lp5555
S':'
asbag57
(g78
g59
NtRp5556
(dp5557
g62
(dp5558
sg71
g5543
sg64
(lp5559
g57
(g58
g59
NtRp5560
(dp5561
g62
(dp5562
g70
I5
ssg71
g5556
sg64
(lp5563
S'/home/pankaj/web2py/applications/reddit/sessions/127.0.0.1-24289f39-32a1-48fb-a367-22792fb8b813'
p5564
asbasbasbag57
(g73
g59
NtRp5565
(dp5566
g62
(dp5567
sg71
g4121
sg64
(lp5568
g57
(g78
g59
NtRp5569
(dp5570
g62
(dp5571
g82
g83
ssg71
g5565
sg64
(lp5572
S'session_id'
p5573
asbag57
(g78
g59
NtRp5574
(dp5575
g62
(dp5576
g89
g90
ssg71
g5565
sg64
(lp5577
S':'
asbag57
(g78
g59
NtRp5578
(dp5579
g62
(dp5580
sg71
g5565
sg64
(lp5581
g57
(g58
g59
NtRp5582
(dp5583
g62
(dp5584
g70
I5
ssg71
g5578
sg64
(lp5585
g475
asbasbasbag57
(g73
g59
NtRp5586
(dp5587
g62
(dp5588
sg71
g4121
sg64
(lp5589
g57
(g78
g59
NtRp5590
(dp5591
g62
(dp5592
g82
g83
ssg71
g5586
sg64
(lp5593
S'session_id_name'
p5594
asbag57
(g78
g59
NtRp5595
(dp5596
g62
(dp5597
g89
g90
ssg71
g5586
sg64
(lp5598
S':'
asbag57
(g78
g59
NtRp5599
(dp5600
g62
(dp5601
sg71
g5586
sg64
(lp5602
g57
(g58
g59
NtRp5603
(dp5604
g62
(dp5605
g70
I5
ssg71
g5599
sg64
(lp5606
g4178
asbasbasbag57
(g73
g59
NtRp5607
(dp5608
g62
(dp5609
sg71
g4121
sg64
(lp5610
g57
(g78
g59
NtRp5611
(dp5612
g62
(dp5613
g82
g83
ssg71
g5607
sg64
(lp5614
S'session_locked'
p5615
asbag57
(g78
g59
NtRp5616
(dp5617
g62
(dp5618
g89
g90
ssg71
g5607
sg64
(lp5619
S':'
asbag57
(g78
g59
NtRp5620
(dp5621
g62
(dp5622
sg71
g5607
sg64
(lp5623
g57
(g58
g59
NtRp5624
(dp5625
g62
(dp5626
g70
I5
ssg71
g5620
sg64
(lp5627
g1855
asbasbasbag57
(g73
g59
NtRp5628
(dp5629
g62
(dp5630
sg71
g4121
sg64
(lp5631
g57
(g78
g59
NtRp5632
(dp5633
g62
(dp5634
g82
g83
ssg71
g5628
sg64
(lp5635
S'session_new'
p5636
asbag57
(g78
g59
NtRp5637
(dp5638
g62
(dp5639
g89
g90
ssg71
g5628
sg64
(lp5640
S':'
asbag57
(g78
g59
NtRp5641
(dp5642
g62
(dp5643
sg71
g5628
sg64
(lp5644
g57
(g58
g59
NtRp5645
(dp5646
g62
(dp5647
g70
I5
ssg71
g5641
sg64
(lp5648
g100
asbasbasbag57
(g73
g59
NtRp5649
(dp5650
g62
(dp5651
sg71
g4121
sg64
(lp5652
g57
(g78
g59
NtRp5653
(dp5654
g62
(dp5655
g82
g83
ssg71
g5649
sg64
(lp5656
S'session_storage_type'
p5657
asbag57
(g78
g59
NtRp5658
(dp5659
g62
(dp5660
g89
g90
ssg71
g5649
sg64
(lp5661
S':'
asbag57
(g78
g59
NtRp5662
(dp5663
g62
(dp5664
sg71
g5649
sg64
(lp5665
g57
(g58
g59
NtRp5666
(dp5667
g62
(dp5668
g70
I5
ssg71
g5662
sg64
(lp5669
g3621
asbasbasbag57
(g73
g59
NtRp5670
(dp5671
g62
(dp5672
sg71
g4121
sg64
(lp5673
g57
(g78
g59
NtRp5674
(dp5675
g62
(dp5676
g82
g83
ssg71
g5670
sg64
(lp5677
S'status'
p5678
asbag57
(g78
g59
NtRp5679
(dp5680
g62
(dp5681
g89
g90
ssg71
g5670
sg64
(lp5682
S':'
asbag57
(g78
g59
NtRp5683
(dp5684
g62
(dp5685
sg71
g5670
sg64
(lp5686
g57
(g58
g59
NtRp5687
(dp5688
g62
(dp5689
g70
I5
ssg71
g5683
sg64
(lp5690
S'200'
p5691
asbasbasbag57
(g73
g59
NtRp5692
(dp5693
g62
(dp5694
sg71
g4121
sg64
(lp5695
g57
(g78
g59
NtRp5696
(dp5697
g62
(dp5698
g82
g83
ssg71
g5692
sg64
(lp5699
S'subtitle'
p5700
asbag57
(g78
g59
NtRp5701
(dp5702
g62
(dp5703
g89
g90
ssg71
g5692
sg64
(lp5704
S':'
asbag57
(g78
g59
NtRp5705
(dp5706
g62
(dp5707
sg71
g5692
sg64
(lp5708
g57
(g58
g59
NtRp5709
(dp5710
g62
(dp5711
g70
I5
ssg71
g5705
sg64
(lp5712
g4656
(S's\r\x00\x00\x00customize me!'
tRp5713
asbasbasbag57
(g73
g59
NtRp5714
(dp5715
g62
(dp5716
sg71
g4121
sg64
(lp5717
g57
(g78
g59
NtRp5718
(dp5719
g62
(dp5720
g82
g83
ssg71
g5714
sg64
(lp5721
S'title'
p5722
asbag57
(g78
g59
NtRp5723
(dp5724
g62
(dp5725
g89
g90
ssg71
g5714
sg64
(lp5726
S':'
asbag57
(g78
g59
NtRp5727
(dp5728
g62
(dp5729
sg71
g5714
sg64
(lp5730
g57
(g58
g59
NtRp5731
(dp5732
g62
(dp5733
g70
I5
ssg71
g5727
sg64
(lp5734
S'Reddit'
p5735
asbasbasbag57
(g73
g59
NtRp5736
(dp5737
g62
(dp5738
sg71
g4121
sg64
(lp5739
g57
(g78
g59
NtRp5740
(dp5741
g62
(dp5742
g82
g83
ssg71
g5736
sg64
(lp5743
S'view'
p5744
asbag57
(g78
g59
NtRp5745
(dp5746
g62
(dp5747
g89
g90
ssg71
g5736
sg64
(lp5748
S':'
asbag57
(g78
g59
NtRp5749
(dp5750
g62
(dp5751
sg71
g5736
sg64
(lp5752
g57
(g58
g59
NtRp5753
(dp5754
g62
(dp5755
g70
I5
ssg71
g5749
sg64
(lp5756
S'default/editn.html'
p5757
asbasbasbasbasbsS'locals'
p5758
(dp5759
ssS'traceback'
p5760
S'Traceback (most recent call last):\n  File "/home/pankaj/web2py/gluon/restricted.py", line 212, in restricted\n    exec ccode in environment\n  File "/home/pankaj/web2py/applications/reddit/controllers/default.py", line 150, in <module>\n  File "/home/pankaj/web2py/gluon/globals.py", line 193, in <lambda>\n    self._caller = lambda f: f()\n  File "/home/pankaj/web2py/applications/reddit/controllers/default.py", line 89, in editn\n    nid=int(request.post_vars[\'nid\'])\nTypeError: int() argument must be a string or a number, not \'NoneType\'\n'
p5761
s.