(dp1
S'output'
p2
S"<type 'exceptions.NameError'> name 'k' is not defined"
p3
sS'layer'
p4
S'/home/pankaj/web2py/applications/reddit/views/default/displaycat.html'
p5
sS'code'
p6
S'response.write(\'<!DOCTYPE html>\\n<!-- paulirish.com/2008/conditional-stylesheets-vs-css-hacks-answer-neither/ -->\\n<!--[if lt IE 7]><html class="ie ie6 ie-lte9 ie-lte8 ie-lte7 no-js" lang="\', escape=False)\nresponse.write(T.accepted_language or \'en\')\nresponse.write(\'"> <![endif]-->\\n<!--[if IE 7]><html class="ie ie7 ie-lte9 ie-lte8 ie-lte7 no-js" lang="\', escape=False)\nresponse.write(T.accepted_language or \'en\')\nresponse.write(\'"> <![endif]-->\\n<!--[if IE 8]><html class="ie ie8 ie-lte9 ie-lte8 no-js" lang="\', escape=False)\nresponse.write(T.accepted_language or \'en\')\nresponse.write(\'"> <![endif]-->\\n<!--[if IE 9]><html class="ie9 ie-lte9 no-js" lang="\', escape=False)\nresponse.write(T.accepted_language or \'en\')\nresponse.write(\'"> <![endif]-->\\n<!--[if (gt IE 9)|!(IE)]><!--> <html class="no-js" lang="\', escape=False)\nresponse.write(T.accepted_language or \'en\')\nresponse.write(\'"> <!--<![endif]-->\\n<head>\\n  <meta charset="utf-8" />\\n  <!-- www.phpied.com/conditional-comments-block-downloads/ -->\\n  <!-- Always force latest IE rendering engine\\n       (even in intranet) & Chrome Frame\\n       Remove this if you use the .htaccess -->\\n  <!--[if IE]>\\n      <meta http-equiv="X-UA-Compatible" content="IE=edge\', escape=False)\nresponse.write(not request.is_local and \',chrome=1\' or \'\')\nresponse.write(\'">\\n      <![endif]-->\\n\\n  <title>\', escape=False)\nresponse.write(response.title or request.application)\nresponse.write(\'</title>\\n\\n  <!-- http://dev.w3.org/html5/markup/meta.name.html -->\\n  <meta name="application-name" content="\', escape=False)\nresponse.write(request.application)\nresponse.write(\'" />\\n\\n  <!-- Speaking of Google, don\\\'t forget to set your site up:\\n       http://google.com/webmasters -->\\n  <meta name="google-site-verification" content="" />\\n\\n  <!--  Mobile Viewport Fix\\n        j.mp/mobileviewport & davidbcalhoun.com/2010/viewport-metatag\\n        device-width: Occupy full width of the screen in its current orientation\\n        initial-scale = 1.0 retains dimensions instead of zooming out if page height > device height\\n        user-scalable = yes allows the user to zoom in -->\\n  <meta name="viewport" content="width=device-width, initial-scale=1.0" />\\n\\n  <link rel="shortcut icon" href="\', escape=False)\nresponse.write(URL(\'static\',\'images/favicon.ico\'))\nresponse.write(\'" type="image/x-icon">\\n  <link rel="apple-touch-icon" href="\', escape=False)\nresponse.write(URL(\'static\',\'images/favicon.png\'))\nresponse.write(\'">\\n\\n  <!-- All JavaScript at the bottom, except for Modernizr which enables\\n       HTML5 elements & feature detects -->\\n  <script src="\', escape=False)\nresponse.write(URL(\'static\',\'js/modernizr.custom.js\'))\nresponse.write(\'"></script>\\n\\n  <!-- include stylesheets -->\\n  \', escape=False)\nresponse.files.append(URL(\'static\',\'css/web2py.css\'))\nresponse.files.append(URL(\'static\',\'css/bootstrap.min.css\'))\nresponse.files.append(URL(\'static\',\'css/bootstrap-responsive.min.css\'))\nresponse.files.append(URL(\'static\',\'css/web2py_bootstrap.css\'))\nresponse.write(\'\\n\\n  \', escape=False)\nresponse.write(\'<script type="text/javascript"><!--\\n    // These variables are used by the web2py_ajax_init function in web2py_ajax.js (which is loaded below).\\n    var w2p_ajax_confirm_message = "\', escape=False)\nresponse.write(T(\'Are you sure you want to delete this object?\'))\nresponse.write(\'";\\n    var w2p_ajax_date_format = "\', escape=False)\nresponse.write(T(\'%Y-%m-%d\'))\nresponse.write(\'";\\n    var w2p_ajax_datetime_format = "\', escape=False)\nresponse.write(T(\'%Y-%m-%d %H:%M:%S\'))\nresponse.write(\'";\\n    //--></script>\\n\', escape=False)\nresponse.files.insert(0,URL(\'static\',\'js/jquery.js\'))\nresponse.files.insert(1,URL(\'static\',\'css/calendar.css\'))\nresponse.files.insert(2,URL(\'static\',\'js/calendar.js\'))\nresponse.files.insert(3,URL(\'static\',\'js/web2py.js\'))\nresponse.include_meta()\nresponse.include_files()\nresponse.write(\'\\n\', escape=False)\nresponse.write(\'\\n\\n  \', escape=False)\n# using sidebars need to know what sidebar you want to use\nleft_sidebar_enabled = globals().get(\'left_sidebar_enabled\',False)\nright_sidebar_enabled = globals().get(\'right_sidebar_enabled\',False)\nmiddle_columns = {0:\'span12\',1:\'span9\',2:\'span6\'}[\n(left_sidebar_enabled and 1 or 0)+(right_sidebar_enabled and 1 or 0)]\nresponse.write(\'\\n\\n  <!-- uncomment here to load jquery-ui\\n       <link rel="stylesheet" href="http://ajax.googleapis.com/ajax/libs/jqueryui/1.8.16/themes/base/jquery-ui.css" type="text/css" media="all" />\\n       <script src="http://ajax.googleapis.com/ajax/libs/jqueryui/1.8.16/jquery-ui.min.js" type="text/javascript"></script>\\n       uncomment to load jquery-ui //-->\\n  <noscript><link href="\', escape=False)\nresponse.write(URL(\'static\', \'css/web2py_bootstrap_nojs.css\'))\nresponse.write(\'" rel="stylesheet" type="text/css" /></noscript>\\n  \', escape=False)\nresponse.write(\'\\n</head>\\n\\n<body>\\n  <!-- Navbar ================================================== -->\\n  <div class="navbar navbar-inverse navbar-fixed-top">\\n    <div class="flash">\', escape=False)\nresponse.write(response.flash or \'\')\nresponse.write(\'</div>\\n    <div class="navbar-inner">\\n      <div class="container">\\n        <!-- the next tag is necessary for bootstrap menus, do not remove -->\\n        <button type="button" class="btn btn-navbar" data-toggle="collapse" data-target=".nav-collapse">\\n          <span class="icon-bar"></span>\\n          <span class="icon-bar"></span>\\n          <span class="icon-bar"></span>\\n        </button>\\n\\t\', escape=False)\nresponse.write(response.logo or \'\')\nresponse.write(\'\\n        <ul id="navbar" class="nav pull-right">\', escape=False)\nresponse.write(\'auth\' in globals() and auth.navbar(mode="dropdown") or \'\')\nresponse.write(\'</ul>\\n        <div class="nav-collapse">\\n          \', escape=False)\nis_mobile=request.user_agent().is_mobile\nresponse.write(\'\\n          \', escape=False)\nif response.menu:\n    response.write(\'\\n          \', escape=False)\n    response.write(MENU(response.menu, _class=\'mobile-menu nav\' if is_mobile else \'nav\',mobile=is_mobile,li_class=\'dropdown\',ul_class=\'dropdown-menu\'))\n    response.write(\'\\n          \', escape=False)\n    pass\nresponse.write(\'\\n        </div><!--/.nav-collapse -->\\n      </div>\\n    </div>\\n  </div><!--/top navbar -->\\n\\n  <div class="container">\\n    <!-- Masthead ================================================== -->\\n    <header class="mastheader row" id="header">\\n        <div class="span12">\\n            <div class="page-header">\\n                <h1>\\n                    \', escape=False)\nresponse.write(response.title or request.application)\nresponse.write(\'\\n                    <small>\', escape=False)\nresponse.write(response.subtitle or \'\')\nresponse.write(\'</small>\\n                </h1>\\n            </div>\\n        </div>\\n    </header>\\n\\n    <section id="main" class="main row">\\n        \', escape=False)\nif left_sidebar_enabled:\n    response.write(\'\\n        <div class="span3 left-sidebar">\\n            \', escape=False)\n    response.write(\'\\n            <h3>Left Sidebar</h3>\\n            <p></p>\\n            \', escape=False)\n    response.write(\'\\n        </div>\\n        \', escape=False)\n    pass\nresponse.write(\'\\n\\n        <div class="\', escape=False)\nresponse.write(middle_columns)\nresponse.write(\'">\\n            \', escape=False)\nresponse.write(\'\\n            \', escape=False)\nresponse.write(\'\\n<form action="index" method="post">\\n\\t<button type="submit" name="catid" value="\', escape=False)\nresponse.write(k[\'id\'])\nresponse.write(\'">ALL</button>\\n</form>\\n\', escape=False)\nfor k in catg:\n    response.write(\'\\n<form action="displaycat" method="post">\\n\\t<button type="submit" name="catid" value="\', escape=False)\n    response.write(k[\'id\'])\n    response.write(\'">\', escape=False)\n    response.write(k[\'name\'])\n    response.write(\'</button>\\n</form>\\n\', escape=False)\n    pass\nresponse.write(\'\\n\', escape=False)\nfor l in nstore:\n    response.write("\\n<a href=\'", escape=False)\n    response.write(l[\'nurl\'])\n    response.write(\'\\\' target="_blank">\', escape=False)\n    response.write(l[\'head\'])\n    response.write(\'</a>\\n<br/>\\nCommments:\\n<br/>\\n\', escape=False)\n    for m in cstore:\n        response.write(\'\\n\', escape=False)\n        if m[\'newsid\']==l[\'id\']:\n            response.write(\'\\n\', escape=False)\n            response.write(m[\'val\'])\n            response.write(\'\\n\', escape=False)\n            if m[\'usrid\']==auth.user.id:\n                response.write(\'\\n<button>edit</button>\\n\', escape=False)\n                pass\n            response.write(\'\\n<br/>\\n\', escape=False)\n            pass\n        response.write(\'\\n\', escape=False)\n        pass\n    response.write(\'\\n<form action="addc" method="post">\\n\\t<input type="text" name="cval" id="cval" placeholder="comment here" />\\n\\n\\t<input type="hidden" name="nid" id="nid" value="\', escape=False)\n    response.write(l[\'id\'])\n    response.write(\'"/>\\n\\t<input type="hidden" name="usri" id="usri" value=\', escape=False)\n    response.write(auth.user.id)\n    response.write(\' />\\n\\t<input type="submit" value="Post"/>\\n</form>\\n\\n<br/>\\n\', escape=False)\n    pass\nresponse.write(\'\\n\', escape=False)\nresponse.write(\'\\n            \', escape=False)\nresponse.write(\'\\n        </div>\\n\\n        \', escape=False)\nif right_sidebar_enabled:\n    response.write(\'\\n        <div class="span3">\\n            \', escape=False)\n    response.write(\'\\n            <h3>Right Sidebar</h3>\\n            <p></p>\\n            \', escape=False)\n    response.write(\'\\n        </div>\\n        \', escape=False)\n    pass\nresponse.write(\'\\n    </section><!--/main-->\\n\\n    <!-- Footer ================================================== -->\\n    <div class="row">\\n        <footer class="footer span12" id="footer">\\n            <div class="footer-content">\\n                \', escape=False)\nresponse.write(\' <!-- this is default footer -->\\n                <div class="copyright pull-left">\', escape=False)\nresponse.write(T(\'Copyright\'))\nresponse.write(\' &#169; \', escape=False)\nresponse.write(request.now.year)\nresponse.write(\'</div>\\n                <div id="poweredBy" class="pull-right">\\n                    \', escape=False)\nresponse.write(T(\'Powered by\'))\nresponse.write(\'\\n                    <a href="http://www.web2py.com/">web2py</a>\\n                </div>\\n                \', escape=False)\nresponse.write(\'\\n            </div>\\n        </footer>\\n    </div>\\n\\n  </div> <!-- /container -->\\n\\n  <!-- The javascript =============================================\\n       (Placed at the end of the document so the pages load faster) -->\\n  <script src="\', escape=False)\nresponse.write(URL(\'static\',\'js/bootstrap.min.js\'))\nresponse.write(\'"></script>\\n  <script src="\', escape=False)\nresponse.write(URL(\'static\',\'js/web2py_bootstrap.js\'))\nresponse.write(\'"></script>\\n  <!--[if lt IE 7 ]>\\n      <script src="\', escape=False)\nresponse.write(URL(\'static\',\'js/dd_belatedpng.js\'))\nresponse.write(\'"></script>\\n      <script> DD_belatedPNG.fix(\\\'img, .png_bg\\\'); //fix any <img> or .png_bg background-images </script>\\n      <![endif]-->\\n  \\n  \', escape=False)\nif response.google_analytics_id:\n    response.write(\'\\n  <script src="\', escape=False)\n    response.write(URL(\'static\',\'js/analytics.js\'))\n    response.write(\'"></script>\\n  <script type="text/javascript">\\n  analytics.initialize({\\n    \\\'Google Analytics\\\':{trackingId:\\\'\', escape=False)\n    response.write(response.google_analytics_id)\n    response.write("\'} \\n  });</script>\\n  ", escape=False)\n    pass\nresponse.write(\'\\n  <script src="\', escape=False)\nresponse.write(URL(\'static\',\'js/share.js\',vars=dict(static=URL(\'static\',\'images\'))))\nresponse.write(\'"></script>\\n</body>\\n</html>\\n\\n\', escape=False)'
p7
sS'snapshot'
p8
(dp9
S'exception'
p10
(dp11
S'__hash__'
p12
S"<method-wrapper '__hash__' of exceptions.NameError object>"
p13
sS'__setattr__'
p14
S"<method-wrapper '__setattr__' of exceptions.NameError object>"
p15
sS'__reduce_ex__'
p16
S'<built-in method __reduce_ex__ of exceptions.NameError object>'
p17
sS'__getslice__'
p18
S"<method-wrapper '__getslice__' of exceptions.NameError object>"
p19
sS'__getitem__'
p20
S"<method-wrapper '__getitem__' of exceptions.NameError object>"
p21
sS'__setstate__'
p22
S'<built-in method __setstate__ of exceptions.NameError object>'
p23
sS'__reduce__'
p24
S'<built-in method __reduce__ of exceptions.NameError object>'
p25
sS'__str__'
p26
S"<method-wrapper '__str__' of exceptions.NameError object>"
p27
sS'__format__'
p28
S'<built-in method __format__ of exceptions.NameError object>'
p29
sS'__getattribute__'
p30
S"<method-wrapper '__getattribute__' of exceptions.NameError object>"
p31
sS'__class__'
p32
S"<type 'exceptions.NameError'>"
p33
sS'__unicode__'
p34
S'<built-in method __unicode__ of exceptions.NameError object>'
p35
sS'__delattr__'
p36
S"<method-wrapper '__delattr__' of exceptions.NameError object>"
p37
sS'__subclasshook__'
p38
S'<built-in method __subclasshook__ of type object>'
p39
sS'__repr__'
p40
S"<method-wrapper '__repr__' of exceptions.NameError object>"
p41
sS'args'
p42
S'("name \'k\' is not defined",)'
p43
sS'__dict__'
p44
S'{}'
p45
sS'__sizeof__'
p46
S'<built-in method __sizeof__ of exceptions.NameError object>'
p47
sS'__doc__'
p48
S"'Name not found globally.'"
p49
sS'__init__'
p50
S"<method-wrapper '__init__' of exceptions.NameError object>"
p51
sS'__new__'
p52
S'<built-in method __new__ of type object>'
p53
ssS'evalue'
p54
S"name 'k' is not defined"
p55
sS'request'
p56
ccopy_reg
_reconstructor
p57
(cgluon.html
BEAUTIFY
p58
c__builtin__
object
p59
NtRp60
(dp61
S'attributes'
p62
(dp63
sS'components'
p64
(lp65
g57
(cgluon.html
TABLE
p66
g59
NtRp67
(dp68
g62
(dp69
S'level'
p70
I5
ssS'parent'
p71
Nsg64
(lp72
g57
(cgluon.html
TR
p73
g59
NtRp74
(dp75
g62
(dp76
sg71
g67
sg64
(lp77
g57
(cgluon.html
TD
p78
g59
NtRp79
(dp80
g62
(dp81
S'_style'
p82
S'font-weight:bold;vertical-align:top'
p83
ssg71
g74
sg64
(lp84
S'ajax'
p85
asbag57
(g78
g59
NtRp86
(dp87
g62
(dp88
S'_valign'
p89
S'top'
p90
ssg71
g74
sg64
(lp91
S':'
asbag57
(g78
g59
NtRp92
(dp93
g62
(dp94
sg71
g74
sg64
(lp95
g57
(g58
g59
NtRp96
(dp97
g62
(dp98
g70
I5
ssg71
g92
sg64
(lp99
S'False'
p100
asbasbasbag57
(g73
g59
NtRp101
(dp102
g62
(dp103
sg71
g67
sg64
(lp104
g57
(g78
g59
NtRp105
(dp106
g62
(dp107
g82
g83
ssg71
g101
sg64
(lp108
S'application'
p109
asbag57
(g78
g59
NtRp110
(dp111
g62
(dp112
g89
g90
ssg71
g101
sg64
(lp113
S':'
asbag57
(g78
g59
NtRp114
(dp115
g62
(dp116
sg71
g101
sg64
(lp117
g57
(g58
g59
NtRp118
(dp119
g62
(dp120
g70
I5
ssg71
g114
sg64
(lp121
S'reddit'
p122
asbasbasbag57
(g73
g59
NtRp123
(dp124
g62
(dp125
sg71
g67
sg64
(lp126
g57
(g78
g59
NtRp127
(dp128
g62
(dp129
g82
g83
ssg71
g123
sg64
(lp130
g42
asbag57
(g78
g59
NtRp131
(dp132
g62
(dp133
g89
g90
ssg71
g123
sg64
(lp134
S':'
asbag57
(g78
g59
NtRp135
(dp136
g62
(dp137
sg71
g123
sg64
(lp138
g57
(g58
g59
NtRp139
(dp140
g62
(dp141
g70
I5
ssg71
g135
sg64
(lp142
g57
(g66
g59
NtRp143
(dp144
g62
(dp145
g70
I4
ssg71
Nsg64
(lp146
sbasbasbasbag57
(g73
g59
NtRp147
(dp148
g62
(dp149
sg71
g67
sg64
(lp150
g57
(g78
g59
NtRp151
(dp152
g62
(dp153
g82
g83
ssg71
g147
sg64
(lp154
S'body'
p155
asbag57
(g78
g59
NtRp156
(dp157
g62
(dp158
g89
g90
ssg71
g147
sg64
(lp159
S':'
asbag57
(g78
g59
NtRp160
(dp161
g62
(dp162
sg71
g147
sg64
(lp163
g57
(g58
g59
NtRp164
(dp165
g62
(dp166
g70
I5
ssg71
g160
sg64
(lp167
S"<open file '<fdopen>', mode 'w+b' at 0xae221390>"
p168
asbasbasbag57
(g73
g59
NtRp169
(dp170
g62
(dp171
sg71
g67
sg64
(lp172
g57
(g78
g59
NtRp173
(dp174
g62
(dp175
g82
g83
ssg71
g169
sg64
(lp176
S'cid'
p177
asbag57
(g78
g59
NtRp178
(dp179
g62
(dp180
g89
g90
ssg71
g169
sg64
(lp181
S':'
asbag57
(g78
g59
NtRp182
(dp183
g62
(dp184
sg71
g169
sg64
(lp185
g57
(g58
g59
NtRp186
(dp187
g62
(dp188
g70
I5
ssg71
g182
sg64
(lp189
S'None'
p190
asbasbasbag57
(g73
g59
NtRp191
(dp192
g62
(dp193
sg71
g67
sg64
(lp194
g57
(g78
g59
NtRp195
(dp196
g62
(dp197
g82
g83
ssg71
g191
sg64
(lp198
S'client'
p199
asbag57
(g78
g59
NtRp200
(dp201
g62
(dp202
g89
g90
ssg71
g191
sg64
(lp203
S':'
asbag57
(g78
g59
NtRp204
(dp205
g62
(dp206
sg71
g191
sg64
(lp207
g57
(g58
g59
NtRp208
(dp209
g62
(dp210
g70
I5
ssg71
g204
sg64
(lp211
S'127.0.0.1'
p212
asbasbasbag57
(g73
g59
NtRp213
(dp214
g62
(dp215
sg71
g67
sg64
(lp216
g57
(g78
g59
NtRp217
(dp218
g62
(dp219
g82
g83
ssg71
g213
sg64
(lp220
S'controller'
p221
asbag57
(g78
g59
NtRp222
(dp223
g62
(dp224
g89
g90
ssg71
g213
sg64
(lp225
S':'
asbag57
(g78
g59
NtRp226
(dp227
g62
(dp228
sg71
g213
sg64
(lp229
g57
(g58
g59
NtRp230
(dp231
g62
(dp232
g70
I5
ssg71
g226
sg64
(lp233
S'default'
p234
asbasbasbag57
(g73
g59
NtRp235
(dp236
g62
(dp237
sg71
g67
sg64
(lp238
g57
(g78
g59
NtRp239
(dp240
g62
(dp241
g82
g83
ssg71
g235
sg64
(lp242
S'cookies'
p243
asbag57
(g78
g59
NtRp244
(dp245
g62
(dp246
g89
g90
ssg71
g235
sg64
(lp247
S':'
asbag57
(g78
g59
NtRp248
(dp249
g62
(dp250
sg71
g235
sg64
(lp251
g57
(g58
g59
NtRp252
(dp253
g62
(dp254
g70
I5
ssg71
g248
sg64
(lp255
g57
(g66
g59
NtRp256
(dp257
g62
(dp258
g70
I4
ssg71
Nsg64
(lp259
g57
(g73
g59
NtRp260
(dp261
g62
(dp262
sg71
g256
sg64
(lp263
g57
(g78
g59
NtRp264
(dp265
g62
(dp266
g82
g83
ssg71
g260
sg64
(lp267
S'session_id_20120156_assignment_1'
p268
asbag57
(g78
g59
NtRp269
(dp270
g62
(dp271
g89
g90
ssg71
g260
sg64
(lp272
S':'
asbag57
(g78
g59
NtRp273
(dp274
g62
(dp275
sg71
g260
sg64
(lp276
g57
(g58
g59
NtRp277
(dp278
g62
(dp279
g70
I4
ssg71
g273
sg64
(lp280
S'127.0.0.1-6cad324c-0572-4be8-8f41-6fcaca863c93'
p281
ag57
(g66
g59
NtRp282
(dp283
g62
(dp284
g70
I3
ssg71
Nsg64
(lp285
g57
(g73
g59
NtRp286
(dp287
g62
(dp288
sg71
g282
sg64
(lp289
g57
(g78
g59
NtRp290
(dp291
g62
(dp292
g82
g83
ssg71
g286
sg64
(lp293
S'comment'
p294
asbag57
(g78
g59
NtRp295
(dp296
g62
(dp297
g89
g90
ssg71
g286
sg64
(lp298
S':'
asbag57
(g78
g59
NtRp299
(dp300
g62
(dp301
sg71
g286
sg64
(lp302
g57
(g58
g59
NtRp303
(dp304
g62
(dp305
g70
I3
ssg71
g299
sg64
(lp306
S''
asbasbasbag57
(g73
g59
NtRp307
(dp308
g62
(dp309
sg71
g282
sg64
(lp310
g57
(g78
g59
NtRp311
(dp312
g62
(dp313
g82
g83
ssg71
g307
sg64
(lp314
S'domain'
p315
asbag57
(g78
g59
NtRp316
(dp317
g62
(dp318
g89
g90
ssg71
g307
sg64
(lp319
S':'
asbag57
(g78
g59
NtRp320
(dp321
g62
(dp322
sg71
g307
sg64
(lp323
g57
(g58
g59
NtRp324
(dp325
g62
(dp326
g70
I3
ssg71
g320
sg64
(lp327
S''
asbasbasbag57
(g73
g59
NtRp328
(dp329
g62
(dp330
sg71
g282
sg64
(lp331
g57
(g78
g59
NtRp332
(dp333
g62
(dp334
g82
g83
ssg71
g328
sg64
(lp335
S'expires'
p336
asbag57
(g78
g59
NtRp337
(dp338
g62
(dp339
g89
g90
ssg71
g328
sg64
(lp340
S':'
asbag57
(g78
g59
NtRp341
(dp342
g62
(dp343
sg71
g328
sg64
(lp344
g57
(g58
g59
NtRp345
(dp346
g62
(dp347
g70
I3
ssg71
g341
sg64
(lp348
S''
asbasbasbag57
(g73
g59
NtRp349
(dp350
g62
(dp351
sg71
g282
sg64
(lp352
g57
(g78
g59
NtRp353
(dp354
g62
(dp355
g82
g83
ssg71
g349
sg64
(lp356
S'httponly'
p357
asbag57
(g78
g59
NtRp358
(dp359
g62
(dp360
g89
g90
ssg71
g349
sg64
(lp361
S':'
asbag57
(g78
g59
NtRp362
(dp363
g62
(dp364
sg71
g349
sg64
(lp365
g57
(g58
g59
NtRp366
(dp367
g62
(dp368
g70
I3
ssg71
g362
sg64
(lp369
S''
asbasbasbag57
(g73
g59
NtRp370
(dp371
g62
(dp372
sg71
g282
sg64
(lp373
g57
(g78
g59
NtRp374
(dp375
g62
(dp376
g82
g83
ssg71
g370
sg64
(lp377
S'max-age'
p378
asbag57
(g78
g59
NtRp379
(dp380
g62
(dp381
g89
g90
ssg71
g370
sg64
(lp382
S':'
asbag57
(g78
g59
NtRp383
(dp384
g62
(dp385
sg71
g370
sg64
(lp386
g57
(g58
g59
NtRp387
(dp388
g62
(dp389
g70
I3
ssg71
g383
sg64
(lp390
S''
asbasbasbag57
(g73
g59
NtRp391
(dp392
g62
(dp393
sg71
g282
sg64
(lp394
g57
(g78
g59
NtRp395
(dp396
g62
(dp397
g82
g83
ssg71
g391
sg64
(lp398
S'path'
p399
asbag57
(g78
g59
NtRp400
(dp401
g62
(dp402
g89
g90
ssg71
g391
sg64
(lp403
S':'
asbag57
(g78
g59
NtRp404
(dp405
g62
(dp406
sg71
g391
sg64
(lp407
g57
(g58
g59
NtRp408
(dp409
g62
(dp410
g70
I3
ssg71
g404
sg64
(lp411
S''
asbasbasbag57
(g73
g59
NtRp412
(dp413
g62
(dp414
sg71
g282
sg64
(lp415
g57
(g78
g59
NtRp416
(dp417
g62
(dp418
g82
g83
ssg71
g412
sg64
(lp419
S'secure'
p420
asbag57
(g78
g59
NtRp421
(dp422
g62
(dp423
g89
g90
ssg71
g412
sg64
(lp424
S':'
asbag57
(g78
g59
NtRp425
(dp426
g62
(dp427
sg71
g412
sg64
(lp428
g57
(g58
g59
NtRp429
(dp430
g62
(dp431
g70
I3
ssg71
g425
sg64
(lp432
S''
asbasbasbag57
(g73
g59
NtRp433
(dp434
g62
(dp435
sg71
g282
sg64
(lp436
g57
(g78
g59
NtRp437
(dp438
g62
(dp439
g82
g83
ssg71
g433
sg64
(lp440
S'version'
p441
asbag57
(g78
g59
NtRp442
(dp443
g62
(dp444
g89
g90
ssg71
g433
sg64
(lp445
S':'
asbag57
(g78
g59
NtRp446
(dp447
g62
(dp448
sg71
g433
sg64
(lp449
g57
(g58
g59
NtRp450
(dp451
g62
(dp452
g70
I3
ssg71
g446
sg64
(lp453
S''
asbasbasbasbasbasbasbag57
(g73
g59
NtRp454
(dp455
g62
(dp456
sg71
g256
sg64
(lp457
g57
(g78
g59
NtRp458
(dp459
g62
(dp460
g82
g83
ssg71
g454
sg64
(lp461
S'session_id_admin'
p462
asbag57
(g78
g59
NtRp463
(dp464
g62
(dp465
g89
g90
ssg71
g454
sg64
(lp466
S':'
asbag57
(g78
g59
NtRp467
(dp468
g62
(dp469
sg71
g454
sg64
(lp470
g57
(g58
g59
NtRp471
(dp472
g62
(dp473
g70
I4
ssg71
g467
sg64
(lp474
S'127.0.0.1-eea59e1b-9257-4df1-8c44-da77bf9e4ec2'
p475
ag57
(g66
g59
NtRp476
(dp477
g62
(dp478
g70
I3
ssg71
Nsg64
(lp479
g57
(g73
g59
NtRp480
(dp481
g62
(dp482
sg71
g476
sg64
(lp483
g57
(g78
g59
NtRp484
(dp485
g62
(dp486
g82
g83
ssg71
g480
sg64
(lp487
g294
asbag57
(g78
g59
NtRp488
(dp489
g62
(dp490
g89
g90
ssg71
g480
sg64
(lp491
S':'
asbag57
(g78
g59
NtRp492
(dp493
g62
(dp494
sg71
g480
sg64
(lp495
g57
(g58
g59
NtRp496
(dp497
g62
(dp498
g70
I3
ssg71
g492
sg64
(lp499
S''
asbasbasbag57
(g73
g59
NtRp500
(dp501
g62
(dp502
sg71
g476
sg64
(lp503
g57
(g78
g59
NtRp504
(dp505
g62
(dp506
g82
g83
ssg71
g500
sg64
(lp507
g315
asbag57
(g78
g59
NtRp508
(dp509
g62
(dp510
g89
g90
ssg71
g500
sg64
(lp511
S':'
asbag57
(g78
g59
NtRp512
(dp513
g62
(dp514
sg71
g500
sg64
(lp515
g57
(g58
g59
NtRp516
(dp517
g62
(dp518
g70
I3
ssg71
g512
sg64
(lp519
S''
asbasbasbag57
(g73
g59
NtRp520
(dp521
g62
(dp522
sg71
g476
sg64
(lp523
g57
(g78
g59
NtRp524
(dp525
g62
(dp526
g82
g83
ssg71
g520
sg64
(lp527
g336
asbag57
(g78
g59
NtRp528
(dp529
g62
(dp530
g89
g90
ssg71
g520
sg64
(lp531
S':'
asbag57
(g78
g59
NtRp532
(dp533
g62
(dp534
sg71
g520
sg64
(lp535
g57
(g58
g59
NtRp536
(dp537
g62
(dp538
g70
I3
ssg71
g532
sg64
(lp539
S''
asbasbasbag57
(g73
g59
NtRp540
(dp541
g62
(dp542
sg71
g476
sg64
(lp543
g57
(g78
g59
NtRp544
(dp545
g62
(dp546
g82
g83
ssg71
g540
sg64
(lp547
g357
asbag57
(g78
g59
NtRp548
(dp549
g62
(dp550
g89
g90
ssg71
g540
sg64
(lp551
S':'
asbag57
(g78
g59
NtRp552
(dp553
g62
(dp554
sg71
g540
sg64
(lp555
g57
(g58
g59
NtRp556
(dp557
g62
(dp558
g70
I3
ssg71
g552
sg64
(lp559
S''
asbasbasbag57
(g73
g59
NtRp560
(dp561
g62
(dp562
sg71
g476
sg64
(lp563
g57
(g78
g59
NtRp564
(dp565
g62
(dp566
g82
g83
ssg71
g560
sg64
(lp567
g378
asbag57
(g78
g59
NtRp568
(dp569
g62
(dp570
g89
g90
ssg71
g560
sg64
(lp571
S':'
asbag57
(g78
g59
NtRp572
(dp573
g62
(dp574
sg71
g560
sg64
(lp575
g57
(g58
g59
NtRp576
(dp577
g62
(dp578
g70
I3
ssg71
g572
sg64
(lp579
S''
asbasbasbag57
(g73
g59
NtRp580
(dp581
g62
(dp582
sg71
g476
sg64
(lp583
g57
(g78
g59
NtRp584
(dp585
g62
(dp586
g82
g83
ssg71
g580
sg64
(lp587
g399
asbag57
(g78
g59
NtRp588
(dp589
g62
(dp590
g89
g90
ssg71
g580
sg64
(lp591
S':'
asbag57
(g78
g59
NtRp592
(dp593
g62
(dp594
sg71
g580
sg64
(lp595
g57
(g58
g59
NtRp596
(dp597
g62
(dp598
g70
I3
ssg71
g592
sg64
(lp599
S''
asbasbasbag57
(g73
g59
NtRp600
(dp601
g62
(dp602
sg71
g476
sg64
(lp603
g57
(g78
g59
NtRp604
(dp605
g62
(dp606
g82
g83
ssg71
g600
sg64
(lp607
g420
asbag57
(g78
g59
NtRp608
(dp609
g62
(dp610
g89
g90
ssg71
g600
sg64
(lp611
S':'
asbag57
(g78
g59
NtRp612
(dp613
g62
(dp614
sg71
g600
sg64
(lp615
g57
(g58
g59
NtRp616
(dp617
g62
(dp618
g70
I3
ssg71
g612
sg64
(lp619
S''
asbasbasbag57
(g73
g59
NtRp620
(dp621
g62
(dp622
sg71
g476
sg64
(lp623
g57
(g78
g59
NtRp624
(dp625
g62
(dp626
g82
g83
ssg71
g620
sg64
(lp627
g441
asbag57
(g78
g59
NtRp628
(dp629
g62
(dp630
g89
g90
ssg71
g620
sg64
(lp631
S':'
asbag57
(g78
g59
NtRp632
(dp633
g62
(dp634
sg71
g620
sg64
(lp635
g57
(g58
g59
NtRp636
(dp637
g62
(dp638
g70
I3
ssg71
g632
sg64
(lp639
S''
asbasbasbasbasbasbasbag57
(g73
g59
NtRp640
(dp641
g62
(dp642
sg71
g256
sg64
(lp643
g57
(g78
g59
NtRp644
(dp645
g62
(dp646
g82
g83
ssg71
g640
sg64
(lp647
S'session_id_arihant'
p648
asbag57
(g78
g59
NtRp649
(dp650
g62
(dp651
g89
g90
ssg71
g640
sg64
(lp652
S':'
asbag57
(g78
g59
NtRp653
(dp654
g62
(dp655
sg71
g640
sg64
(lp656
g57
(g58
g59
NtRp657
(dp658
g62
(dp659
g70
I4
ssg71
g653
sg64
(lp660
S'127.0.0.1-fa99deb6-5977-491c-864a-b5d79c0d1842'
p661
ag57
(g66
g59
NtRp662
(dp663
g62
(dp664
g70
I3
ssg71
Nsg64
(lp665
g57
(g73
g59
NtRp666
(dp667
g62
(dp668
sg71
g662
sg64
(lp669
g57
(g78
g59
NtRp670
(dp671
g62
(dp672
g82
g83
ssg71
g666
sg64
(lp673
g294
asbag57
(g78
g59
NtRp674
(dp675
g62
(dp676
g89
g90
ssg71
g666
sg64
(lp677
S':'
asbag57
(g78
g59
NtRp678
(dp679
g62
(dp680
sg71
g666
sg64
(lp681
g57
(g58
g59
NtRp682
(dp683
g62
(dp684
g70
I3
ssg71
g678
sg64
(lp685
S''
asbasbasbag57
(g73
g59
NtRp686
(dp687
g62
(dp688
sg71
g662
sg64
(lp689
g57
(g78
g59
NtRp690
(dp691
g62
(dp692
g82
g83
ssg71
g686
sg64
(lp693
g315
asbag57
(g78
g59
NtRp694
(dp695
g62
(dp696
g89
g90
ssg71
g686
sg64
(lp697
S':'
asbag57
(g78
g59
NtRp698
(dp699
g62
(dp700
sg71
g686
sg64
(lp701
g57
(g58
g59
NtRp702
(dp703
g62
(dp704
g70
I3
ssg71
g698
sg64
(lp705
S''
asbasbasbag57
(g73
g59
NtRp706
(dp707
g62
(dp708
sg71
g662
sg64
(lp709
g57
(g78
g59
NtRp710
(dp711
g62
(dp712
g82
g83
ssg71
g706
sg64
(lp713
g336
asbag57
(g78
g59
NtRp714
(dp715
g62
(dp716
g89
g90
ssg71
g706
sg64
(lp717
S':'
asbag57
(g78
g59
NtRp718
(dp719
g62
(dp720
sg71
g706
sg64
(lp721
g57
(g58
g59
NtRp722
(dp723
g62
(dp724
g70
I3
ssg71
g718
sg64
(lp725
S''
asbasbasbag57
(g73
g59
NtRp726
(dp727
g62
(dp728
sg71
g662
sg64
(lp729
g57
(g78
g59
NtRp730
(dp731
g62
(dp732
g82
g83
ssg71
g726
sg64
(lp733
g357
asbag57
(g78
g59
NtRp734
(dp735
g62
(dp736
g89
g90
ssg71
g726
sg64
(lp737
S':'
asbag57
(g78
g59
NtRp738
(dp739
g62
(dp740
sg71
g726
sg64
(lp741
g57
(g58
g59
NtRp742
(dp743
g62
(dp744
g70
I3
ssg71
g738
sg64
(lp745
S''
asbasbasbag57
(g73
g59
NtRp746
(dp747
g62
(dp748
sg71
g662
sg64
(lp749
g57
(g78
g59
NtRp750
(dp751
g62
(dp752
g82
g83
ssg71
g746
sg64
(lp753
g378
asbag57
(g78
g59
NtRp754
(dp755
g62
(dp756
g89
g90
ssg71
g746
sg64
(lp757
S':'
asbag57
(g78
g59
NtRp758
(dp759
g62
(dp760
sg71
g746
sg64
(lp761
g57
(g58
g59
NtRp762
(dp763
g62
(dp764
g70
I3
ssg71
g758
sg64
(lp765
S''
asbasbasbag57
(g73
g59
NtRp766
(dp767
g62
(dp768
sg71
g662
sg64
(lp769
g57
(g78
g59
NtRp770
(dp771
g62
(dp772
g82
g83
ssg71
g766
sg64
(lp773
g399
asbag57
(g78
g59
NtRp774
(dp775
g62
(dp776
g89
g90
ssg71
g766
sg64
(lp777
S':'
asbag57
(g78
g59
NtRp778
(dp779
g62
(dp780
sg71
g766
sg64
(lp781
g57
(g58
g59
NtRp782
(dp783
g62
(dp784
g70
I3
ssg71
g778
sg64
(lp785
S''
asbasbasbag57
(g73
g59
NtRp786
(dp787
g62
(dp788
sg71
g662
sg64
(lp789
g57
(g78
g59
NtRp790
(dp791
g62
(dp792
g82
g83
ssg71
g786
sg64
(lp793
g420
asbag57
(g78
g59
NtRp794
(dp795
g62
(dp796
g89
g90
ssg71
g786
sg64
(lp797
S':'
asbag57
(g78
g59
NtRp798
(dp799
g62
(dp800
sg71
g786
sg64
(lp801
g57
(g58
g59
NtRp802
(dp803
g62
(dp804
g70
I3
ssg71
g798
sg64
(lp805
S''
asbasbasbag57
(g73
g59
NtRp806
(dp807
g62
(dp808
sg71
g662
sg64
(lp809
g57
(g78
g59
NtRp810
(dp811
g62
(dp812
g82
g83
ssg71
g806
sg64
(lp813
g441
asbag57
(g78
g59
NtRp814
(dp815
g62
(dp816
g89
g90
ssg71
g806
sg64
(lp817
S':'
asbag57
(g78
g59
NtRp818
(dp819
g62
(dp820
sg71
g806
sg64
(lp821
g57
(g58
g59
NtRp822
(dp823
g62
(dp824
g70
I3
ssg71
g818
sg64
(lp825
S''
asbasbasbasbasbasbasbag57
(g73
g59
NtRp826
(dp827
g62
(dp828
sg71
g256
sg64
(lp829
g57
(g78
g59
NtRp830
(dp831
g62
(dp832
g82
g83
ssg71
g826
sg64
(lp833
S'session_id_cataminder'
p834
asbag57
(g78
g59
NtRp835
(dp836
g62
(dp837
g89
g90
ssg71
g826
sg64
(lp838
S':'
asbag57
(g78
g59
NtRp839
(dp840
g62
(dp841
sg71
g826
sg64
(lp842
g57
(g58
g59
NtRp843
(dp844
g62
(dp845
g70
I4
ssg71
g839
sg64
(lp846
S'127.0.0.1-81b628a7-34a5-4e70-a95c-79ef710dcdbb'
p847
ag57
(g66
g59
NtRp848
(dp849
g62
(dp850
g70
I3
ssg71
Nsg64
(lp851
g57
(g73
g59
NtRp852
(dp853
g62
(dp854
sg71
g848
sg64
(lp855
g57
(g78
g59
NtRp856
(dp857
g62
(dp858
g82
g83
ssg71
g852
sg64
(lp859
g294
asbag57
(g78
g59
NtRp860
(dp861
g62
(dp862
g89
g90
ssg71
g852
sg64
(lp863
S':'
asbag57
(g78
g59
NtRp864
(dp865
g62
(dp866
sg71
g852
sg64
(lp867
g57
(g58
g59
NtRp868
(dp869
g62
(dp870
g70
I3
ssg71
g864
sg64
(lp871
S''
asbasbasbag57
(g73
g59
NtRp872
(dp873
g62
(dp874
sg71
g848
sg64
(lp875
g57
(g78
g59
NtRp876
(dp877
g62
(dp878
g82
g83
ssg71
g872
sg64
(lp879
g315
asbag57
(g78
g59
NtRp880
(dp881
g62
(dp882
g89
g90
ssg71
g872
sg64
(lp883
S':'
asbag57
(g78
g59
NtRp884
(dp885
g62
(dp886
sg71
g872
sg64
(lp887
g57
(g58
g59
NtRp888
(dp889
g62
(dp890
g70
I3
ssg71
g884
sg64
(lp891
S''
asbasbasbag57
(g73
g59
NtRp892
(dp893
g62
(dp894
sg71
g848
sg64
(lp895
g57
(g78
g59
NtRp896
(dp897
g62
(dp898
g82
g83
ssg71
g892
sg64
(lp899
g336
asbag57
(g78
g59
NtRp900
(dp901
g62
(dp902
g89
g90
ssg71
g892
sg64
(lp903
S':'
asbag57
(g78
g59
NtRp904
(dp905
g62
(dp906
sg71
g892
sg64
(lp907
g57
(g58
g59
NtRp908
(dp909
g62
(dp910
g70
I3
ssg71
g904
sg64
(lp911
S''
asbasbasbag57
(g73
g59
NtRp912
(dp913
g62
(dp914
sg71
g848
sg64
(lp915
g57
(g78
g59
NtRp916
(dp917
g62
(dp918
g82
g83
ssg71
g912
sg64
(lp919
g357
asbag57
(g78
g59
NtRp920
(dp921
g62
(dp922
g89
g90
ssg71
g912
sg64
(lp923
S':'
asbag57
(g78
g59
NtRp924
(dp925
g62
(dp926
sg71
g912
sg64
(lp927
g57
(g58
g59
NtRp928
(dp929
g62
(dp930
g70
I3
ssg71
g924
sg64
(lp931
S''
asbasbasbag57
(g73
g59
NtRp932
(dp933
g62
(dp934
sg71
g848
sg64
(lp935
g57
(g78
g59
NtRp936
(dp937
g62
(dp938
g82
g83
ssg71
g932
sg64
(lp939
g378
asbag57
(g78
g59
NtRp940
(dp941
g62
(dp942
g89
g90
ssg71
g932
sg64
(lp943
S':'
asbag57
(g78
g59
NtRp944
(dp945
g62
(dp946
sg71
g932
sg64
(lp947
g57
(g58
g59
NtRp948
(dp949
g62
(dp950
g70
I3
ssg71
g944
sg64
(lp951
S''
asbasbasbag57
(g73
g59
NtRp952
(dp953
g62
(dp954
sg71
g848
sg64
(lp955
g57
(g78
g59
NtRp956
(dp957
g62
(dp958
g82
g83
ssg71
g952
sg64
(lp959
g399
asbag57
(g78
g59
NtRp960
(dp961
g62
(dp962
g89
g90
ssg71
g952
sg64
(lp963
S':'
asbag57
(g78
g59
NtRp964
(dp965
g62
(dp966
sg71
g952
sg64
(lp967
g57
(g58
g59
NtRp968
(dp969
g62
(dp970
g70
I3
ssg71
g964
sg64
(lp971
S''
asbasbasbag57
(g73
g59
NtRp972
(dp973
g62
(dp974
sg71
g848
sg64
(lp975
g57
(g78
g59
NtRp976
(dp977
g62
(dp978
g82
g83
ssg71
g972
sg64
(lp979
g420
asbag57
(g78
g59
NtRp980
(dp981
g62
(dp982
g89
g90
ssg71
g972
sg64
(lp983
S':'
asbag57
(g78
g59
NtRp984
(dp985
g62
(dp986
sg71
g972
sg64
(lp987
g57
(g58
g59
NtRp988
(dp989
g62
(dp990
g70
I3
ssg71
g984
sg64
(lp991
S''
asbasbasbag57
(g73
g59
NtRp992
(dp993
g62
(dp994
sg71
g848
sg64
(lp995
g57
(g78
g59
NtRp996
(dp997
g62
(dp998
g82
g83
ssg71
g992
sg64
(lp999
g441
asbag57
(g78
g59
NtRp1000
(dp1001
g62
(dp1002
g89
g90
ssg71
g992
sg64
(lp1003
S':'
asbag57
(g78
g59
NtRp1004
(dp1005
g62
(dp1006
sg71
g992
sg64
(lp1007
g57
(g58
g59
NtRp1008
(dp1009
g62
(dp1010
g70
I3
ssg71
g1004
sg64
(lp1011
S''
asbasbasbasbasbasbasbag57
(g73
g59
NtRp1012
(dp1013
g62
(dp1014
sg71
g256
sg64
(lp1015
g57
(g78
g59
NtRp1016
(dp1017
g62
(dp1018
g82
g83
ssg71
g1012
sg64
(lp1019
S'session_id_courses'
p1020
asbag57
(g78
g59
NtRp1021
(dp1022
g62
(dp1023
g89
g90
ssg71
g1012
sg64
(lp1024
S':'
asbag57
(g78
g59
NtRp1025
(dp1026
g62
(dp1027
sg71
g1012
sg64
(lp1028
g57
(g58
g59
NtRp1029
(dp1030
g62
(dp1031
g70
I4
ssg71
g1025
sg64
(lp1032
S'127.0.0.1-1d46c4eb-fdfc-4abb-bb62-6bcf52d1fcaa'
p1033
ag57
(g66
g59
NtRp1034
(dp1035
g62
(dp1036
g70
I3
ssg71
Nsg64
(lp1037
g57
(g73
g59
NtRp1038
(dp1039
g62
(dp1040
sg71
g1034
sg64
(lp1041
g57
(g78
g59
NtRp1042
(dp1043
g62
(dp1044
g82
g83
ssg71
g1038
sg64
(lp1045
g294
asbag57
(g78
g59
NtRp1046
(dp1047
g62
(dp1048
g89
g90
ssg71
g1038
sg64
(lp1049
S':'
asbag57
(g78
g59
NtRp1050
(dp1051
g62
(dp1052
sg71
g1038
sg64
(lp1053
g57
(g58
g59
NtRp1054
(dp1055
g62
(dp1056
g70
I3
ssg71
g1050
sg64
(lp1057
S''
asbasbasbag57
(g73
g59
NtRp1058
(dp1059
g62
(dp1060
sg71
g1034
sg64
(lp1061
g57
(g78
g59
NtRp1062
(dp1063
g62
(dp1064
g82
g83
ssg71
g1058
sg64
(lp1065
g315
asbag57
(g78
g59
NtRp1066
(dp1067
g62
(dp1068
g89
g90
ssg71
g1058
sg64
(lp1069
S':'
asbag57
(g78
g59
NtRp1070
(dp1071
g62
(dp1072
sg71
g1058
sg64
(lp1073
g57
(g58
g59
NtRp1074
(dp1075
g62
(dp1076
g70
I3
ssg71
g1070
sg64
(lp1077
S''
asbasbasbag57
(g73
g59
NtRp1078
(dp1079
g62
(dp1080
sg71
g1034
sg64
(lp1081
g57
(g78
g59
NtRp1082
(dp1083
g62
(dp1084
g82
g83
ssg71
g1078
sg64
(lp1085
g336
asbag57
(g78
g59
NtRp1086
(dp1087
g62
(dp1088
g89
g90
ssg71
g1078
sg64
(lp1089
S':'
asbag57
(g78
g59
NtRp1090
(dp1091
g62
(dp1092
sg71
g1078
sg64
(lp1093
g57
(g58
g59
NtRp1094
(dp1095
g62
(dp1096
g70
I3
ssg71
g1090
sg64
(lp1097
S''
asbasbasbag57
(g73
g59
NtRp1098
(dp1099
g62
(dp1100
sg71
g1034
sg64
(lp1101
g57
(g78
g59
NtRp1102
(dp1103
g62
(dp1104
g82
g83
ssg71
g1098
sg64
(lp1105
g357
asbag57
(g78
g59
NtRp1106
(dp1107
g62
(dp1108
g89
g90
ssg71
g1098
sg64
(lp1109
S':'
asbag57
(g78
g59
NtRp1110
(dp1111
g62
(dp1112
sg71
g1098
sg64
(lp1113
g57
(g58
g59
NtRp1114
(dp1115
g62
(dp1116
g70
I3
ssg71
g1110
sg64
(lp1117
S''
asbasbasbag57
(g73
g59
NtRp1118
(dp1119
g62
(dp1120
sg71
g1034
sg64
(lp1121
g57
(g78
g59
NtRp1122
(dp1123
g62
(dp1124
g82
g83
ssg71
g1118
sg64
(lp1125
g378
asbag57
(g78
g59
NtRp1126
(dp1127
g62
(dp1128
g89
g90
ssg71
g1118
sg64
(lp1129
S':'
asbag57
(g78
g59
NtRp1130
(dp1131
g62
(dp1132
sg71
g1118
sg64
(lp1133
g57
(g58
g59
NtRp1134
(dp1135
g62
(dp1136
g70
I3
ssg71
g1130
sg64
(lp1137
S''
asbasbasbag57
(g73
g59
NtRp1138
(dp1139
g62
(dp1140
sg71
g1034
sg64
(lp1141
g57
(g78
g59
NtRp1142
(dp1143
g62
(dp1144
g82
g83
ssg71
g1138
sg64
(lp1145
g399
asbag57
(g78
g59
NtRp1146
(dp1147
g62
(dp1148
g89
g90
ssg71
g1138
sg64
(lp1149
S':'
asbag57
(g78
g59
NtRp1150
(dp1151
g62
(dp1152
sg71
g1138
sg64
(lp1153
g57
(g58
g59
NtRp1154
(dp1155
g62
(dp1156
g70
I3
ssg71
g1150
sg64
(lp1157
S''
asbasbasbag57
(g73
g59
NtRp1158
(dp1159
g62
(dp1160
sg71
g1034
sg64
(lp1161
g57
(g78
g59
NtRp1162
(dp1163
g62
(dp1164
g82
g83
ssg71
g1158
sg64
(lp1165
g420
asbag57
(g78
g59
NtRp1166
(dp1167
g62
(dp1168
g89
g90
ssg71
g1158
sg64
(lp1169
S':'
asbag57
(g78
g59
NtRp1170
(dp1171
g62
(dp1172
sg71
g1158
sg64
(lp1173
g57
(g58
g59
NtRp1174
(dp1175
g62
(dp1176
g70
I3
ssg71
g1170
sg64
(lp1177
S''
asbasbasbag57
(g73
g59
NtRp1178
(dp1179
g62
(dp1180
sg71
g1034
sg64
(lp1181
g57
(g78
g59
NtRp1182
(dp1183
g62
(dp1184
g82
g83
ssg71
g1178
sg64
(lp1185
g441
asbag57
(g78
g59
NtRp1186
(dp1187
g62
(dp1188
g89
g90
ssg71
g1178
sg64
(lp1189
S':'
asbag57
(g78
g59
NtRp1190
(dp1191
g62
(dp1192
sg71
g1178
sg64
(lp1193
g57
(g58
g59
NtRp1194
(dp1195
g62
(dp1196
g70
I3
ssg71
g1190
sg64
(lp1197
S''
asbasbasbasbasbasbasbag57
(g73
g59
NtRp1198
(dp1199
g62
(dp1200
sg71
g256
sg64
(lp1201
g57
(g78
g59
NtRp1202
(dp1203
g62
(dp1204
g82
g83
ssg71
g1198
sg64
(lp1205
S'session_id_iiit_fb'
p1206
asbag57
(g78
g59
NtRp1207
(dp1208
g62
(dp1209
g89
g90
ssg71
g1198
sg64
(lp1210
S':'
asbag57
(g78
g59
NtRp1211
(dp1212
g62
(dp1213
sg71
g1198
sg64
(lp1214
g57
(g58
g59
NtRp1215
(dp1216
g62
(dp1217
g70
I4
ssg71
g1211
sg64
(lp1218
S'127.0.0.1-04b7df24-4720-4bb5-98de-96b98776240d'
p1219
ag57
(g66
g59
NtRp1220
(dp1221
g62
(dp1222
g70
I3
ssg71
Nsg64
(lp1223
g57
(g73
g59
NtRp1224
(dp1225
g62
(dp1226
sg71
g1220
sg64
(lp1227
g57
(g78
g59
NtRp1228
(dp1229
g62
(dp1230
g82
g83
ssg71
g1224
sg64
(lp1231
g294
asbag57
(g78
g59
NtRp1232
(dp1233
g62
(dp1234
g89
g90
ssg71
g1224
sg64
(lp1235
S':'
asbag57
(g78
g59
NtRp1236
(dp1237
g62
(dp1238
sg71
g1224
sg64
(lp1239
g57
(g58
g59
NtRp1240
(dp1241
g62
(dp1242
g70
I3
ssg71
g1236
sg64
(lp1243
S''
asbasbasbag57
(g73
g59
NtRp1244
(dp1245
g62
(dp1246
sg71
g1220
sg64
(lp1247
g57
(g78
g59
NtRp1248
(dp1249
g62
(dp1250
g82
g83
ssg71
g1244
sg64
(lp1251
g315
asbag57
(g78
g59
NtRp1252
(dp1253
g62
(dp1254
g89
g90
ssg71
g1244
sg64
(lp1255
S':'
asbag57
(g78
g59
NtRp1256
(dp1257
g62
(dp1258
sg71
g1244
sg64
(lp1259
g57
(g58
g59
NtRp1260
(dp1261
g62
(dp1262
g70
I3
ssg71
g1256
sg64
(lp1263
S''
asbasbasbag57
(g73
g59
NtRp1264
(dp1265
g62
(dp1266
sg71
g1220
sg64
(lp1267
g57
(g78
g59
NtRp1268
(dp1269
g62
(dp1270
g82
g83
ssg71
g1264
sg64
(lp1271
g336
asbag57
(g78
g59
NtRp1272
(dp1273
g62
(dp1274
g89
g90
ssg71
g1264
sg64
(lp1275
S':'
asbag57
(g78
g59
NtRp1276
(dp1277
g62
(dp1278
sg71
g1264
sg64
(lp1279
g57
(g58
g59
NtRp1280
(dp1281
g62
(dp1282
g70
I3
ssg71
g1276
sg64
(lp1283
S''
asbasbasbag57
(g73
g59
NtRp1284
(dp1285
g62
(dp1286
sg71
g1220
sg64
(lp1287
g57
(g78
g59
NtRp1288
(dp1289
g62
(dp1290
g82
g83
ssg71
g1284
sg64
(lp1291
g357
asbag57
(g78
g59
NtRp1292
(dp1293
g62
(dp1294
g89
g90
ssg71
g1284
sg64
(lp1295
S':'
asbag57
(g78
g59
NtRp1296
(dp1297
g62
(dp1298
sg71
g1284
sg64
(lp1299
g57
(g58
g59
NtRp1300
(dp1301
g62
(dp1302
g70
I3
ssg71
g1296
sg64
(lp1303
S''
asbasbasbag57
(g73
g59
NtRp1304
(dp1305
g62
(dp1306
sg71
g1220
sg64
(lp1307
g57
(g78
g59
NtRp1308
(dp1309
g62
(dp1310
g82
g83
ssg71
g1304
sg64
(lp1311
g378
asbag57
(g78
g59
NtRp1312
(dp1313
g62
(dp1314
g89
g90
ssg71
g1304
sg64
(lp1315
S':'
asbag57
(g78
g59
NtRp1316
(dp1317
g62
(dp1318
sg71
g1304
sg64
(lp1319
g57
(g58
g59
NtRp1320
(dp1321
g62
(dp1322
g70
I3
ssg71
g1316
sg64
(lp1323
S''
asbasbasbag57
(g73
g59
NtRp1324
(dp1325
g62
(dp1326
sg71
g1220
sg64
(lp1327
g57
(g78
g59
NtRp1328
(dp1329
g62
(dp1330
g82
g83
ssg71
g1324
sg64
(lp1331
g399
asbag57
(g78
g59
NtRp1332
(dp1333
g62
(dp1334
g89
g90
ssg71
g1324
sg64
(lp1335
S':'
asbag57
(g78
g59
NtRp1336
(dp1337
g62
(dp1338
sg71
g1324
sg64
(lp1339
g57
(g58
g59
NtRp1340
(dp1341
g62
(dp1342
g70
I3
ssg71
g1336
sg64
(lp1343
S''
asbasbasbag57
(g73
g59
NtRp1344
(dp1345
g62
(dp1346
sg71
g1220
sg64
(lp1347
g57
(g78
g59
NtRp1348
(dp1349
g62
(dp1350
g82
g83
ssg71
g1344
sg64
(lp1351
g420
asbag57
(g78
g59
NtRp1352
(dp1353
g62
(dp1354
g89
g90
ssg71
g1344
sg64
(lp1355
S':'
asbag57
(g78
g59
NtRp1356
(dp1357
g62
(dp1358
sg71
g1344
sg64
(lp1359
g57
(g58
g59
NtRp1360
(dp1361
g62
(dp1362
g70
I3
ssg71
g1356
sg64
(lp1363
S''
asbasbasbag57
(g73
g59
NtRp1364
(dp1365
g62
(dp1366
sg71
g1220
sg64
(lp1367
g57
(g78
g59
NtRp1368
(dp1369
g62
(dp1370
g82
g83
ssg71
g1364
sg64
(lp1371
g441
asbag57
(g78
g59
NtRp1372
(dp1373
g62
(dp1374
g89
g90
ssg71
g1364
sg64
(lp1375
S':'
asbag57
(g78
g59
NtRp1376
(dp1377
g62
(dp1378
sg71
g1364
sg64
(lp1379
g57
(g58
g59
NtRp1380
(dp1381
g62
(dp1382
g70
I3
ssg71
g1376
sg64
(lp1383
S''
asbasbasbasbasbasbasbag57
(g73
g59
NtRp1384
(dp1385
g62
(dp1386
sg71
g256
sg64
(lp1387
g57
(g78
g59
NtRp1388
(dp1389
g62
(dp1390
g82
g83
ssg71
g1384
sg64
(lp1391
S'session_id_myapp'
p1392
asbag57
(g78
g59
NtRp1393
(dp1394
g62
(dp1395
g89
g90
ssg71
g1384
sg64
(lp1396
S':'
asbag57
(g78
g59
NtRp1397
(dp1398
g62
(dp1399
sg71
g1384
sg64
(lp1400
g57
(g58
g59
NtRp1401
(dp1402
g62
(dp1403
g70
I4
ssg71
g1397
sg64
(lp1404
S'127.0.0.1-f28af7a6-9d1e-4a86-bd34-27605492a231'
p1405
ag57
(g66
g59
NtRp1406
(dp1407
g62
(dp1408
g70
I3
ssg71
Nsg64
(lp1409
g57
(g73
g59
NtRp1410
(dp1411
g62
(dp1412
sg71
g1406
sg64
(lp1413
g57
(g78
g59
NtRp1414
(dp1415
g62
(dp1416
g82
g83
ssg71
g1410
sg64
(lp1417
g294
asbag57
(g78
g59
NtRp1418
(dp1419
g62
(dp1420
g89
g90
ssg71
g1410
sg64
(lp1421
S':'
asbag57
(g78
g59
NtRp1422
(dp1423
g62
(dp1424
sg71
g1410
sg64
(lp1425
g57
(g58
g59
NtRp1426
(dp1427
g62
(dp1428
g70
I3
ssg71
g1422
sg64
(lp1429
S''
asbasbasbag57
(g73
g59
NtRp1430
(dp1431
g62
(dp1432
sg71
g1406
sg64
(lp1433
g57
(g78
g59
NtRp1434
(dp1435
g62
(dp1436
g82
g83
ssg71
g1430
sg64
(lp1437
g315
asbag57
(g78
g59
NtRp1438
(dp1439
g62
(dp1440
g89
g90
ssg71
g1430
sg64
(lp1441
S':'
asbag57
(g78
g59
NtRp1442
(dp1443
g62
(dp1444
sg71
g1430
sg64
(lp1445
g57
(g58
g59
NtRp1446
(dp1447
g62
(dp1448
g70
I3
ssg71
g1442
sg64
(lp1449
S''
asbasbasbag57
(g73
g59
NtRp1450
(dp1451
g62
(dp1452
sg71
g1406
sg64
(lp1453
g57
(g78
g59
NtRp1454
(dp1455
g62
(dp1456
g82
g83
ssg71
g1450
sg64
(lp1457
g336
asbag57
(g78
g59
NtRp1458
(dp1459
g62
(dp1460
g89
g90
ssg71
g1450
sg64
(lp1461
S':'
asbag57
(g78
g59
NtRp1462
(dp1463
g62
(dp1464
sg71
g1450
sg64
(lp1465
g57
(g58
g59
NtRp1466
(dp1467
g62
(dp1468
g70
I3
ssg71
g1462
sg64
(lp1469
S''
asbasbasbag57
(g73
g59
NtRp1470
(dp1471
g62
(dp1472
sg71
g1406
sg64
(lp1473
g57
(g78
g59
NtRp1474
(dp1475
g62
(dp1476
g82
g83
ssg71
g1470
sg64
(lp1477
g357
asbag57
(g78
g59
NtRp1478
(dp1479
g62
(dp1480
g89
g90
ssg71
g1470
sg64
(lp1481
S':'
asbag57
(g78
g59
NtRp1482
(dp1483
g62
(dp1484
sg71
g1470
sg64
(lp1485
g57
(g58
g59
NtRp1486
(dp1487
g62
(dp1488
g70
I3
ssg71
g1482
sg64
(lp1489
S''
asbasbasbag57
(g73
g59
NtRp1490
(dp1491
g62
(dp1492
sg71
g1406
sg64
(lp1493
g57
(g78
g59
NtRp1494
(dp1495
g62
(dp1496
g82
g83
ssg71
g1490
sg64
(lp1497
g378
asbag57
(g78
g59
NtRp1498
(dp1499
g62
(dp1500
g89
g90
ssg71
g1490
sg64
(lp1501
S':'
asbag57
(g78
g59
NtRp1502
(dp1503
g62
(dp1504
sg71
g1490
sg64
(lp1505
g57
(g58
g59
NtRp1506
(dp1507
g62
(dp1508
g70
I3
ssg71
g1502
sg64
(lp1509
S''
asbasbasbag57
(g73
g59
NtRp1510
(dp1511
g62
(dp1512
sg71
g1406
sg64
(lp1513
g57
(g78
g59
NtRp1514
(dp1515
g62
(dp1516
g82
g83
ssg71
g1510
sg64
(lp1517
g399
asbag57
(g78
g59
NtRp1518
(dp1519
g62
(dp1520
g89
g90
ssg71
g1510
sg64
(lp1521
S':'
asbag57
(g78
g59
NtRp1522
(dp1523
g62
(dp1524
sg71
g1510
sg64
(lp1525
g57
(g58
g59
NtRp1526
(dp1527
g62
(dp1528
g70
I3
ssg71
g1522
sg64
(lp1529
S''
asbasbasbag57
(g73
g59
NtRp1530
(dp1531
g62
(dp1532
sg71
g1406
sg64
(lp1533
g57
(g78
g59
NtRp1534
(dp1535
g62
(dp1536
g82
g83
ssg71
g1530
sg64
(lp1537
g420
asbag57
(g78
g59
NtRp1538
(dp1539
g62
(dp1540
g89
g90
ssg71
g1530
sg64
(lp1541
S':'
asbag57
(g78
g59
NtRp1542
(dp1543
g62
(dp1544
sg71
g1530
sg64
(lp1545
g57
(g58
g59
NtRp1546
(dp1547
g62
(dp1548
g70
I3
ssg71
g1542
sg64
(lp1549
S''
asbasbasbag57
(g73
g59
NtRp1550
(dp1551
g62
(dp1552
sg71
g1406
sg64
(lp1553
g57
(g78
g59
NtRp1554
(dp1555
g62
(dp1556
g82
g83
ssg71
g1550
sg64
(lp1557
g441
asbag57
(g78
g59
NtRp1558
(dp1559
g62
(dp1560
g89
g90
ssg71
g1550
sg64
(lp1561
S':'
asbag57
(g78
g59
NtRp1562
(dp1563
g62
(dp1564
sg71
g1550
sg64
(lp1565
g57
(g58
g59
NtRp1566
(dp1567
g62
(dp1568
g70
I3
ssg71
g1562
sg64
(lp1569
S''
asbasbasbasbasbasbasbag57
(g73
g59
NtRp1570
(dp1571
g62
(dp1572
sg71
g256
sg64
(lp1573
g57
(g78
g59
NtRp1574
(dp1575
g62
(dp1576
g82
g83
ssg71
g1570
sg64
(lp1577
S'session_id_project'
p1578
asbag57
(g78
g59
NtRp1579
(dp1580
g62
(dp1581
g89
g90
ssg71
g1570
sg64
(lp1582
S':'
asbag57
(g78
g59
NtRp1583
(dp1584
g62
(dp1585
sg71
g1570
sg64
(lp1586
g57
(g58
g59
NtRp1587
(dp1588
g62
(dp1589
g70
I4
ssg71
g1583
sg64
(lp1590
S'127.0.0.1-029ca61b-f875-404a-b7ff-1634c44ab767'
p1591
ag57
(g66
g59
NtRp1592
(dp1593
g62
(dp1594
g70
I3
ssg71
Nsg64
(lp1595
g57
(g73
g59
NtRp1596
(dp1597
g62
(dp1598
sg71
g1592
sg64
(lp1599
g57
(g78
g59
NtRp1600
(dp1601
g62
(dp1602
g82
g83
ssg71
g1596
sg64
(lp1603
g294
asbag57
(g78
g59
NtRp1604
(dp1605
g62
(dp1606
g89
g90
ssg71
g1596
sg64
(lp1607
S':'
asbag57
(g78
g59
NtRp1608
(dp1609
g62
(dp1610
sg71
g1596
sg64
(lp1611
g57
(g58
g59
NtRp1612
(dp1613
g62
(dp1614
g70
I3
ssg71
g1608
sg64
(lp1615
S''
asbasbasbag57
(g73
g59
NtRp1616
(dp1617
g62
(dp1618
sg71
g1592
sg64
(lp1619
g57
(g78
g59
NtRp1620
(dp1621
g62
(dp1622
g82
g83
ssg71
g1616
sg64
(lp1623
g315
asbag57
(g78
g59
NtRp1624
(dp1625
g62
(dp1626
g89
g90
ssg71
g1616
sg64
(lp1627
S':'
asbag57
(g78
g59
NtRp1628
(dp1629
g62
(dp1630
sg71
g1616
sg64
(lp1631
g57
(g58
g59
NtRp1632
(dp1633
g62
(dp1634
g70
I3
ssg71
g1628
sg64
(lp1635
S''
asbasbasbag57
(g73
g59
NtRp1636
(dp1637
g62
(dp1638
sg71
g1592
sg64
(lp1639
g57
(g78
g59
NtRp1640
(dp1641
g62
(dp1642
g82
g83
ssg71
g1636
sg64
(lp1643
g336
asbag57
(g78
g59
NtRp1644
(dp1645
g62
(dp1646
g89
g90
ssg71
g1636
sg64
(lp1647
S':'
asbag57
(g78
g59
NtRp1648
(dp1649
g62
(dp1650
sg71
g1636
sg64
(lp1651
g57
(g58
g59
NtRp1652
(dp1653
g62
(dp1654
g70
I3
ssg71
g1648
sg64
(lp1655
S''
asbasbasbag57
(g73
g59
NtRp1656
(dp1657
g62
(dp1658
sg71
g1592
sg64
(lp1659
g57
(g78
g59
NtRp1660
(dp1661
g62
(dp1662
g82
g83
ssg71
g1656
sg64
(lp1663
g357
asbag57
(g78
g59
NtRp1664
(dp1665
g62
(dp1666
g89
g90
ssg71
g1656
sg64
(lp1667
S':'
asbag57
(g78
g59
NtRp1668
(dp1669
g62
(dp1670
sg71
g1656
sg64
(lp1671
g57
(g58
g59
NtRp1672
(dp1673
g62
(dp1674
g70
I3
ssg71
g1668
sg64
(lp1675
S''
asbasbasbag57
(g73
g59
NtRp1676
(dp1677
g62
(dp1678
sg71
g1592
sg64
(lp1679
g57
(g78
g59
NtRp1680
(dp1681
g62
(dp1682
g82
g83
ssg71
g1676
sg64
(lp1683
g378
asbag57
(g78
g59
NtRp1684
(dp1685
g62
(dp1686
g89
g90
ssg71
g1676
sg64
(lp1687
S':'
asbag57
(g78
g59
NtRp1688
(dp1689
g62
(dp1690
sg71
g1676
sg64
(lp1691
g57
(g58
g59
NtRp1692
(dp1693
g62
(dp1694
g70
I3
ssg71
g1688
sg64
(lp1695
S''
asbasbasbag57
(g73
g59
NtRp1696
(dp1697
g62
(dp1698
sg71
g1592
sg64
(lp1699
g57
(g78
g59
NtRp1700
(dp1701
g62
(dp1702
g82
g83
ssg71
g1696
sg64
(lp1703
g399
asbag57
(g78
g59
NtRp1704
(dp1705
g62
(dp1706
g89
g90
ssg71
g1696
sg64
(lp1707
S':'
asbag57
(g78
g59
NtRp1708
(dp1709
g62
(dp1710
sg71
g1696
sg64
(lp1711
g57
(g58
g59
NtRp1712
(dp1713
g62
(dp1714
g70
I3
ssg71
g1708
sg64
(lp1715
S''
asbasbasbag57
(g73
g59
NtRp1716
(dp1717
g62
(dp1718
sg71
g1592
sg64
(lp1719
g57
(g78
g59
NtRp1720
(dp1721
g62
(dp1722
g82
g83
ssg71
g1716
sg64
(lp1723
g420
asbag57
(g78
g59
NtRp1724
(dp1725
g62
(dp1726
g89
g90
ssg71
g1716
sg64
(lp1727
S':'
asbag57
(g78
g59
NtRp1728
(dp1729
g62
(dp1730
sg71
g1716
sg64
(lp1731
g57
(g58
g59
NtRp1732
(dp1733
g62
(dp1734
g70
I3
ssg71
g1728
sg64
(lp1735
S''
asbasbasbag57
(g73
g59
NtRp1736
(dp1737
g62
(dp1738
sg71
g1592
sg64
(lp1739
g57
(g78
g59
NtRp1740
(dp1741
g62
(dp1742
g82
g83
ssg71
g1736
sg64
(lp1743
g441
asbag57
(g78
g59
NtRp1744
(dp1745
g62
(dp1746
g89
g90
ssg71
g1736
sg64
(lp1747
S':'
asbag57
(g78
g59
NtRp1748
(dp1749
g62
(dp1750
sg71
g1736
sg64
(lp1751
g57
(g58
g59
NtRp1752
(dp1753
g62
(dp1754
g70
I3
ssg71
g1748
sg64
(lp1755
S''
asbasbasbasbasbasbasbag57
(g73
g59
NtRp1756
(dp1757
g62
(dp1758
sg71
g256
sg64
(lp1759
g57
(g78
g59
NtRp1760
(dp1761
g62
(dp1762
g82
g83
ssg71
g1756
sg64
(lp1763
S'session_id_reddit'
p1764
asbag57
(g78
g59
NtRp1765
(dp1766
g62
(dp1767
g89
g90
ssg71
g1756
sg64
(lp1768
S':'
asbag57
(g78
g59
NtRp1769
(dp1770
g62
(dp1771
sg71
g1756
sg64
(lp1772
g57
(g58
g59
NtRp1773
(dp1774
g62
(dp1775
g70
I4
ssg71
g1769
sg64
(lp1776
S'127.0.0.1-24289f39-32a1-48fb-a367-22792fb8b813'
p1777
ag57
(g66
g59
NtRp1778
(dp1779
g62
(dp1780
g70
I3
ssg71
Nsg64
(lp1781
g57
(g73
g59
NtRp1782
(dp1783
g62
(dp1784
sg71
g1778
sg64
(lp1785
g57
(g78
g59
NtRp1786
(dp1787
g62
(dp1788
g82
g83
ssg71
g1782
sg64
(lp1789
g294
asbag57
(g78
g59
NtRp1790
(dp1791
g62
(dp1792
g89
g90
ssg71
g1782
sg64
(lp1793
S':'
asbag57
(g78
g59
NtRp1794
(dp1795
g62
(dp1796
sg71
g1782
sg64
(lp1797
g57
(g58
g59
NtRp1798
(dp1799
g62
(dp1800
g70
I3
ssg71
g1794
sg64
(lp1801
S''
asbasbasbag57
(g73
g59
NtRp1802
(dp1803
g62
(dp1804
sg71
g1778
sg64
(lp1805
g57
(g78
g59
NtRp1806
(dp1807
g62
(dp1808
g82
g83
ssg71
g1802
sg64
(lp1809
g315
asbag57
(g78
g59
NtRp1810
(dp1811
g62
(dp1812
g89
g90
ssg71
g1802
sg64
(lp1813
S':'
asbag57
(g78
g59
NtRp1814
(dp1815
g62
(dp1816
sg71
g1802
sg64
(lp1817
g57
(g58
g59
NtRp1818
(dp1819
g62
(dp1820
g70
I3
ssg71
g1814
sg64
(lp1821
S''
asbasbasbag57
(g73
g59
NtRp1822
(dp1823
g62
(dp1824
sg71
g1778
sg64
(lp1825
g57
(g78
g59
NtRp1826
(dp1827
g62
(dp1828
g82
g83
ssg71
g1822
sg64
(lp1829
g336
asbag57
(g78
g59
NtRp1830
(dp1831
g62
(dp1832
g89
g90
ssg71
g1822
sg64
(lp1833
S':'
asbag57
(g78
g59
NtRp1834
(dp1835
g62
(dp1836
sg71
g1822
sg64
(lp1837
g57
(g58
g59
NtRp1838
(dp1839
g62
(dp1840
g70
I3
ssg71
g1834
sg64
(lp1841
S''
asbasbasbag57
(g73
g59
NtRp1842
(dp1843
g62
(dp1844
sg71
g1778
sg64
(lp1845
g57
(g78
g59
NtRp1846
(dp1847
g62
(dp1848
g82
g83
ssg71
g1842
sg64
(lp1849
g357
asbag57
(g78
g59
NtRp1850
(dp1851
g62
(dp1852
g89
g90
ssg71
g1842
sg64
(lp1853
S':'
asbag57
(g78
g59
NtRp1854
(dp1855
g62
(dp1856
sg71
g1842
sg64
(lp1857
g57
(g58
g59
NtRp1858
(dp1859
g62
(dp1860
g70
I3
ssg71
g1854
sg64
(lp1861
S''
asbasbasbag57
(g73
g59
NtRp1862
(dp1863
g62
(dp1864
sg71
g1778
sg64
(lp1865
g57
(g78
g59
NtRp1866
(dp1867
g62
(dp1868
g82
g83
ssg71
g1862
sg64
(lp1869
g378
asbag57
(g78
g59
NtRp1870
(dp1871
g62
(dp1872
g89
g90
ssg71
g1862
sg64
(lp1873
S':'
asbag57
(g78
g59
NtRp1874
(dp1875
g62
(dp1876
sg71
g1862
sg64
(lp1877
g57
(g58
g59
NtRp1878
(dp1879
g62
(dp1880
g70
I3
ssg71
g1874
sg64
(lp1881
S''
asbasbasbag57
(g73
g59
NtRp1882
(dp1883
g62
(dp1884
sg71
g1778
sg64
(lp1885
g57
(g78
g59
NtRp1886
(dp1887
g62
(dp1888
g82
g83
ssg71
g1882
sg64
(lp1889
g399
asbag57
(g78
g59
NtRp1890
(dp1891
g62
(dp1892
g89
g90
ssg71
g1882
sg64
(lp1893
S':'
asbag57
(g78
g59
NtRp1894
(dp1895
g62
(dp1896
sg71
g1882
sg64
(lp1897
g57
(g58
g59
NtRp1898
(dp1899
g62
(dp1900
g70
I3
ssg71
g1894
sg64
(lp1901
S''
asbasbasbag57
(g73
g59
NtRp1902
(dp1903
g62
(dp1904
sg71
g1778
sg64
(lp1905
g57
(g78
g59
NtRp1906
(dp1907
g62
(dp1908
g82
g83
ssg71
g1902
sg64
(lp1909
g420
asbag57
(g78
g59
NtRp1910
(dp1911
g62
(dp1912
g89
g90
ssg71
g1902
sg64
(lp1913
S':'
asbag57
(g78
g59
NtRp1914
(dp1915
g62
(dp1916
sg71
g1902
sg64
(lp1917
g57
(g58
g59
NtRp1918
(dp1919
g62
(dp1920
g70
I3
ssg71
g1914
sg64
(lp1921
S''
asbasbasbag57
(g73
g59
NtRp1922
(dp1923
g62
(dp1924
sg71
g1778
sg64
(lp1925
g57
(g78
g59
NtRp1926
(dp1927
g62
(dp1928
g82
g83
ssg71
g1922
sg64
(lp1929
g441
asbag57
(g78
g59
NtRp1930
(dp1931
g62
(dp1932
g89
g90
ssg71
g1922
sg64
(lp1933
S':'
asbag57
(g78
g59
NtRp1934
(dp1935
g62
(dp1936
sg71
g1922
sg64
(lp1937
g57
(g58
g59
NtRp1938
(dp1939
g62
(dp1940
g70
I3
ssg71
g1934
sg64
(lp1941
S''
asbasbasbasbasbasbasbag57
(g73
g59
NtRp1942
(dp1943
g62
(dp1944
sg71
g256
sg64
(lp1945
g57
(g78
g59
NtRp1946
(dp1947
g62
(dp1948
g82
g83
ssg71
g1942
sg64
(lp1949
S'session_id_testlayout'
p1950
asbag57
(g78
g59
NtRp1951
(dp1952
g62
(dp1953
g89
g90
ssg71
g1942
sg64
(lp1954
S':'
asbag57
(g78
g59
NtRp1955
(dp1956
g62
(dp1957
sg71
g1942
sg64
(lp1958
g57
(g58
g59
NtRp1959
(dp1960
g62
(dp1961
g70
I4
ssg71
g1955
sg64
(lp1962
S'127.0.0.1-0b2689a2-d3bd-4ee8-ad96-af4d7e3e9ad1'
p1963
ag57
(g66
g59
NtRp1964
(dp1965
g62
(dp1966
g70
I3
ssg71
Nsg64
(lp1967
g57
(g73
g59
NtRp1968
(dp1969
g62
(dp1970
sg71
g1964
sg64
(lp1971
g57
(g78
g59
NtRp1972
(dp1973
g62
(dp1974
g82
g83
ssg71
g1968
sg64
(lp1975
g294
asbag57
(g78
g59
NtRp1976
(dp1977
g62
(dp1978
g89
g90
ssg71
g1968
sg64
(lp1979
S':'
asbag57
(g78
g59
NtRp1980
(dp1981
g62
(dp1982
sg71
g1968
sg64
(lp1983
g57
(g58
g59
NtRp1984
(dp1985
g62
(dp1986
g70
I3
ssg71
g1980
sg64
(lp1987
S''
asbasbasbag57
(g73
g59
NtRp1988
(dp1989
g62
(dp1990
sg71
g1964
sg64
(lp1991
g57
(g78
g59
NtRp1992
(dp1993
g62
(dp1994
g82
g83
ssg71
g1988
sg64
(lp1995
g315
asbag57
(g78
g59
NtRp1996
(dp1997
g62
(dp1998
g89
g90
ssg71
g1988
sg64
(lp1999
S':'
asbag57
(g78
g59
NtRp2000
(dp2001
g62
(dp2002
sg71
g1988
sg64
(lp2003
g57
(g58
g59
NtRp2004
(dp2005
g62
(dp2006
g70
I3
ssg71
g2000
sg64
(lp2007
S''
asbasbasbag57
(g73
g59
NtRp2008
(dp2009
g62
(dp2010
sg71
g1964
sg64
(lp2011
g57
(g78
g59
NtRp2012
(dp2013
g62
(dp2014
g82
g83
ssg71
g2008
sg64
(lp2015
g336
asbag57
(g78
g59
NtRp2016
(dp2017
g62
(dp2018
g89
g90
ssg71
g2008
sg64
(lp2019
S':'
asbag57
(g78
g59
NtRp2020
(dp2021
g62
(dp2022
sg71
g2008
sg64
(lp2023
g57
(g58
g59
NtRp2024
(dp2025
g62
(dp2026
g70
I3
ssg71
g2020
sg64
(lp2027
S''
asbasbasbag57
(g73
g59
NtRp2028
(dp2029
g62
(dp2030
sg71
g1964
sg64
(lp2031
g57
(g78
g59
NtRp2032
(dp2033
g62
(dp2034
g82
g83
ssg71
g2028
sg64
(lp2035
g357
asbag57
(g78
g59
NtRp2036
(dp2037
g62
(dp2038
g89
g90
ssg71
g2028
sg64
(lp2039
S':'
asbag57
(g78
g59
NtRp2040
(dp2041
g62
(dp2042
sg71
g2028
sg64
(lp2043
g57
(g58
g59
NtRp2044
(dp2045
g62
(dp2046
g70
I3
ssg71
g2040
sg64
(lp2047
S''
asbasbasbag57
(g73
g59
NtRp2048
(dp2049
g62
(dp2050
sg71
g1964
sg64
(lp2051
g57
(g78
g59
NtRp2052
(dp2053
g62
(dp2054
g82
g83
ssg71
g2048
sg64
(lp2055
g378
asbag57
(g78
g59
NtRp2056
(dp2057
g62
(dp2058
g89
g90
ssg71
g2048
sg64
(lp2059
S':'
asbag57
(g78
g59
NtRp2060
(dp2061
g62
(dp2062
sg71
g2048
sg64
(lp2063
g57
(g58
g59
NtRp2064
(dp2065
g62
(dp2066
g70
I3
ssg71
g2060
sg64
(lp2067
S''
asbasbasbag57
(g73
g59
NtRp2068
(dp2069
g62
(dp2070
sg71
g1964
sg64
(lp2071
g57
(g78
g59
NtRp2072
(dp2073
g62
(dp2074
g82
g83
ssg71
g2068
sg64
(lp2075
g399
asbag57
(g78
g59
NtRp2076
(dp2077
g62
(dp2078
g89
g90
ssg71
g2068
sg64
(lp2079
S':'
asbag57
(g78
g59
NtRp2080
(dp2081
g62
(dp2082
sg71
g2068
sg64
(lp2083
g57
(g58
g59
NtRp2084
(dp2085
g62
(dp2086
g70
I3
ssg71
g2080
sg64
(lp2087
S''
asbasbasbag57
(g73
g59
NtRp2088
(dp2089
g62
(dp2090
sg71
g1964
sg64
(lp2091
g57
(g78
g59
NtRp2092
(dp2093
g62
(dp2094
g82
g83
ssg71
g2088
sg64
(lp2095
g420
asbag57
(g78
g59
NtRp2096
(dp2097
g62
(dp2098
g89
g90
ssg71
g2088
sg64
(lp2099
S':'
asbag57
(g78
g59
NtRp2100
(dp2101
g62
(dp2102
sg71
g2088
sg64
(lp2103
g57
(g58
g59
NtRp2104
(dp2105
g62
(dp2106
g70
I3
ssg71
g2100
sg64
(lp2107
S''
asbasbasbag57
(g73
g59
NtRp2108
(dp2109
g62
(dp2110
sg71
g1964
sg64
(lp2111
g57
(g78
g59
NtRp2112
(dp2113
g62
(dp2114
g82
g83
ssg71
g2108
sg64
(lp2115
g441
asbag57
(g78
g59
NtRp2116
(dp2117
g62
(dp2118
g89
g90
ssg71
g2108
sg64
(lp2119
S':'
asbag57
(g78
g59
NtRp2120
(dp2121
g62
(dp2122
sg71
g2108
sg64
(lp2123
g57
(g58
g59
NtRp2124
(dp2125
g62
(dp2126
g70
I3
ssg71
g2120
sg64
(lp2127
S''
asbasbasbasbasbasbasbag57
(g73
g59
NtRp2128
(dp2129
g62
(dp2130
sg71
g256
sg64
(lp2131
g57
(g78
g59
NtRp2132
(dp2133
g62
(dp2134
g82
g83
ssg71
g2128
sg64
(lp2135
S'session_id_try'
p2136
asbag57
(g78
g59
NtRp2137
(dp2138
g62
(dp2139
g89
g90
ssg71
g2128
sg64
(lp2140
S':'
asbag57
(g78
g59
NtRp2141
(dp2142
g62
(dp2143
sg71
g2128
sg64
(lp2144
g57
(g58
g59
NtRp2145
(dp2146
g62
(dp2147
g70
I4
ssg71
g2141
sg64
(lp2148
S'127.0.0.1-4d514347-24a9-48c9-9e7c-4ac4f4a70173'
p2149
ag57
(g66
g59
NtRp2150
(dp2151
g62
(dp2152
g70
I3
ssg71
Nsg64
(lp2153
g57
(g73
g59
NtRp2154
(dp2155
g62
(dp2156
sg71
g2150
sg64
(lp2157
g57
(g78
g59
NtRp2158
(dp2159
g62
(dp2160
g82
g83
ssg71
g2154
sg64
(lp2161
g294
asbag57
(g78
g59
NtRp2162
(dp2163
g62
(dp2164
g89
g90
ssg71
g2154
sg64
(lp2165
S':'
asbag57
(g78
g59
NtRp2166
(dp2167
g62
(dp2168
sg71
g2154
sg64
(lp2169
g57
(g58
g59
NtRp2170
(dp2171
g62
(dp2172
g70
I3
ssg71
g2166
sg64
(lp2173
S''
asbasbasbag57
(g73
g59
NtRp2174
(dp2175
g62
(dp2176
sg71
g2150
sg64
(lp2177
g57
(g78
g59
NtRp2178
(dp2179
g62
(dp2180
g82
g83
ssg71
g2174
sg64
(lp2181
g315
asbag57
(g78
g59
NtRp2182
(dp2183
g62
(dp2184
g89
g90
ssg71
g2174
sg64
(lp2185
S':'
asbag57
(g78
g59
NtRp2186
(dp2187
g62
(dp2188
sg71
g2174
sg64
(lp2189
g57
(g58
g59
NtRp2190
(dp2191
g62
(dp2192
g70
I3
ssg71
g2186
sg64
(lp2193
S''
asbasbasbag57
(g73
g59
NtRp2194
(dp2195
g62
(dp2196
sg71
g2150
sg64
(lp2197
g57
(g78
g59
NtRp2198
(dp2199
g62
(dp2200
g82
g83
ssg71
g2194
sg64
(lp2201
g336
asbag57
(g78
g59
NtRp2202
(dp2203
g62
(dp2204
g89
g90
ssg71
g2194
sg64
(lp2205
S':'
asbag57
(g78
g59
NtRp2206
(dp2207
g62
(dp2208
sg71
g2194
sg64
(lp2209
g57
(g58
g59
NtRp2210
(dp2211
g62
(dp2212
g70
I3
ssg71
g2206
sg64
(lp2213
S''
asbasbasbag57
(g73
g59
NtRp2214
(dp2215
g62
(dp2216
sg71
g2150
sg64
(lp2217
g57
(g78
g59
NtRp2218
(dp2219
g62
(dp2220
g82
g83
ssg71
g2214
sg64
(lp2221
g357
asbag57
(g78
g59
NtRp2222
(dp2223
g62
(dp2224
g89
g90
ssg71
g2214
sg64
(lp2225
S':'
asbag57
(g78
g59
NtRp2226
(dp2227
g62
(dp2228
sg71
g2214
sg64
(lp2229
g57
(g58
g59
NtRp2230
(dp2231
g62
(dp2232
g70
I3
ssg71
g2226
sg64
(lp2233
S''
asbasbasbag57
(g73
g59
NtRp2234
(dp2235
g62
(dp2236
sg71
g2150
sg64
(lp2237
g57
(g78
g59
NtRp2238
(dp2239
g62
(dp2240
g82
g83
ssg71
g2234
sg64
(lp2241
g378
asbag57
(g78
g59
NtRp2242
(dp2243
g62
(dp2244
g89
g90
ssg71
g2234
sg64
(lp2245
S':'
asbag57
(g78
g59
NtRp2246
(dp2247
g62
(dp2248
sg71
g2234
sg64
(lp2249
g57
(g58
g59
NtRp2250
(dp2251
g62
(dp2252
g70
I3
ssg71
g2246
sg64
(lp2253
S''
asbasbasbag57
(g73
g59
NtRp2254
(dp2255
g62
(dp2256
sg71
g2150
sg64
(lp2257
g57
(g78
g59
NtRp2258
(dp2259
g62
(dp2260
g82
g83
ssg71
g2254
sg64
(lp2261
g399
asbag57
(g78
g59
NtRp2262
(dp2263
g62
(dp2264
g89
g90
ssg71
g2254
sg64
(lp2265
S':'
asbag57
(g78
g59
NtRp2266
(dp2267
g62
(dp2268
sg71
g2254
sg64
(lp2269
g57
(g58
g59
NtRp2270
(dp2271
g62
(dp2272
g70
I3
ssg71
g2266
sg64
(lp2273
S''
asbasbasbag57
(g73
g59
NtRp2274
(dp2275
g62
(dp2276
sg71
g2150
sg64
(lp2277
g57
(g78
g59
NtRp2278
(dp2279
g62
(dp2280
g82
g83
ssg71
g2274
sg64
(lp2281
g420
asbag57
(g78
g59
NtRp2282
(dp2283
g62
(dp2284
g89
g90
ssg71
g2274
sg64
(lp2285
S':'
asbag57
(g78
g59
NtRp2286
(dp2287
g62
(dp2288
sg71
g2274
sg64
(lp2289
g57
(g58
g59
NtRp2290
(dp2291
g62
(dp2292
g70
I3
ssg71
g2286
sg64
(lp2293
S''
asbasbasbag57
(g73
g59
NtRp2294
(dp2295
g62
(dp2296
sg71
g2150
sg64
(lp2297
g57
(g78
g59
NtRp2298
(dp2299
g62
(dp2300
g82
g83
ssg71
g2294
sg64
(lp2301
g441
asbag57
(g78
g59
NtRp2302
(dp2303
g62
(dp2304
g89
g90
ssg71
g2294
sg64
(lp2305
S':'
asbag57
(g78
g59
NtRp2306
(dp2307
g62
(dp2308
sg71
g2294
sg64
(lp2309
g57
(g58
g59
NtRp2310
(dp2311
g62
(dp2312
g70
I3
ssg71
g2306
sg64
(lp2313
S''
asbasbasbasbasbasbasbag57
(g73
g59
NtRp2314
(dp2315
g62
(dp2316
sg71
g256
sg64
(lp2317
g57
(g78
g59
NtRp2318
(dp2319
g62
(dp2320
g82
g83
ssg71
g2314
sg64
(lp2321
S'session_id_vikramahuja'
p2322
asbag57
(g78
g59
NtRp2323
(dp2324
g62
(dp2325
g89
g90
ssg71
g2314
sg64
(lp2326
S':'
asbag57
(g78
g59
NtRp2327
(dp2328
g62
(dp2329
sg71
g2314
sg64
(lp2330
g57
(g58
g59
NtRp2331
(dp2332
g62
(dp2333
g70
I4
ssg71
g2327
sg64
(lp2334
S'127.0.0.1-a555d16d-54b5-476d-a152-f88918b513fe'
p2335
ag57
(g66
g59
NtRp2336
(dp2337
g62
(dp2338
g70
I3
ssg71
Nsg64
(lp2339
g57
(g73
g59
NtRp2340
(dp2341
g62
(dp2342
sg71
g2336
sg64
(lp2343
g57
(g78
g59
NtRp2344
(dp2345
g62
(dp2346
g82
g83
ssg71
g2340
sg64
(lp2347
g294
asbag57
(g78
g59
NtRp2348
(dp2349
g62
(dp2350
g89
g90
ssg71
g2340
sg64
(lp2351
S':'
asbag57
(g78
g59
NtRp2352
(dp2353
g62
(dp2354
sg71
g2340
sg64
(lp2355
g57
(g58
g59
NtRp2356
(dp2357
g62
(dp2358
g70
I3
ssg71
g2352
sg64
(lp2359
S''
asbasbasbag57
(g73
g59
NtRp2360
(dp2361
g62
(dp2362
sg71
g2336
sg64
(lp2363
g57
(g78
g59
NtRp2364
(dp2365
g62
(dp2366
g82
g83
ssg71
g2360
sg64
(lp2367
g315
asbag57
(g78
g59
NtRp2368
(dp2369
g62
(dp2370
g89
g90
ssg71
g2360
sg64
(lp2371
S':'
asbag57
(g78
g59
NtRp2372
(dp2373
g62
(dp2374
sg71
g2360
sg64
(lp2375
g57
(g58
g59
NtRp2376
(dp2377
g62
(dp2378
g70
I3
ssg71
g2372
sg64
(lp2379
S''
asbasbasbag57
(g73
g59
NtRp2380
(dp2381
g62
(dp2382
sg71
g2336
sg64
(lp2383
g57
(g78
g59
NtRp2384
(dp2385
g62
(dp2386
g82
g83
ssg71
g2380
sg64
(lp2387
g336
asbag57
(g78
g59
NtRp2388
(dp2389
g62
(dp2390
g89
g90
ssg71
g2380
sg64
(lp2391
S':'
asbag57
(g78
g59
NtRp2392
(dp2393
g62
(dp2394
sg71
g2380
sg64
(lp2395
g57
(g58
g59
NtRp2396
(dp2397
g62
(dp2398
g70
I3
ssg71
g2392
sg64
(lp2399
S''
asbasbasbag57
(g73
g59
NtRp2400
(dp2401
g62
(dp2402
sg71
g2336
sg64
(lp2403
g57
(g78
g59
NtRp2404
(dp2405
g62
(dp2406
g82
g83
ssg71
g2400
sg64
(lp2407
g357
asbag57
(g78
g59
NtRp2408
(dp2409
g62
(dp2410
g89
g90
ssg71
g2400
sg64
(lp2411
S':'
asbag57
(g78
g59
NtRp2412
(dp2413
g62
(dp2414
sg71
g2400
sg64
(lp2415
g57
(g58
g59
NtRp2416
(dp2417
g62
(dp2418
g70
I3
ssg71
g2412
sg64
(lp2419
S''
asbasbasbag57
(g73
g59
NtRp2420
(dp2421
g62
(dp2422
sg71
g2336
sg64
(lp2423
g57
(g78
g59
NtRp2424
(dp2425
g62
(dp2426
g82
g83
ssg71
g2420
sg64
(lp2427
g378
asbag57
(g78
g59
NtRp2428
(dp2429
g62
(dp2430
g89
g90
ssg71
g2420
sg64
(lp2431
S':'
asbag57
(g78
g59
NtRp2432
(dp2433
g62
(dp2434
sg71
g2420
sg64
(lp2435
g57
(g58
g59
NtRp2436
(dp2437
g62
(dp2438
g70
I3
ssg71
g2432
sg64
(lp2439
S''
asbasbasbag57
(g73
g59
NtRp2440
(dp2441
g62
(dp2442
sg71
g2336
sg64
(lp2443
g57
(g78
g59
NtRp2444
(dp2445
g62
(dp2446
g82
g83
ssg71
g2440
sg64
(lp2447
g399
asbag57
(g78
g59
NtRp2448
(dp2449
g62
(dp2450
g89
g90
ssg71
g2440
sg64
(lp2451
S':'
asbag57
(g78
g59
NtRp2452
(dp2453
g62
(dp2454
sg71
g2440
sg64
(lp2455
g57
(g58
g59
NtRp2456
(dp2457
g62
(dp2458
g70
I3
ssg71
g2452
sg64
(lp2459
S''
asbasbasbag57
(g73
g59
NtRp2460
(dp2461
g62
(dp2462
sg71
g2336
sg64
(lp2463
g57
(g78
g59
NtRp2464
(dp2465
g62
(dp2466
g82
g83
ssg71
g2460
sg64
(lp2467
g420
asbag57
(g78
g59
NtRp2468
(dp2469
g62
(dp2470
g89
g90
ssg71
g2460
sg64
(lp2471
S':'
asbag57
(g78
g59
NtRp2472
(dp2473
g62
(dp2474
sg71
g2460
sg64
(lp2475
g57
(g58
g59
NtRp2476
(dp2477
g62
(dp2478
g70
I3
ssg71
g2472
sg64
(lp2479
S''
asbasbasbag57
(g73
g59
NtRp2480
(dp2481
g62
(dp2482
sg71
g2336
sg64
(lp2483
g57
(g78
g59
NtRp2484
(dp2485
g62
(dp2486
g82
g83
ssg71
g2480
sg64
(lp2487
g441
asbag57
(g78
g59
NtRp2488
(dp2489
g62
(dp2490
g89
g90
ssg71
g2480
sg64
(lp2491
S':'
asbag57
(g78
g59
NtRp2492
(dp2493
g62
(dp2494
sg71
g2480
sg64
(lp2495
g57
(g58
g59
NtRp2496
(dp2497
g62
(dp2498
g70
I3
ssg71
g2492
sg64
(lp2499
S''
asbasbasbasbasbasbasbag57
(g73
g59
NtRp2500
(dp2501
g62
(dp2502
sg71
g256
sg64
(lp2503
g57
(g78
g59
NtRp2504
(dp2505
g62
(dp2506
g82
g83
ssg71
g2500
sg64
(lp2507
S'session_id_welcome'
p2508
asbag57
(g78
g59
NtRp2509
(dp2510
g62
(dp2511
g89
g90
ssg71
g2500
sg64
(lp2512
S':'
asbag57
(g78
g59
NtRp2513
(dp2514
g62
(dp2515
sg71
g2500
sg64
(lp2516
g57
(g58
g59
NtRp2517
(dp2518
g62
(dp2519
g70
I4
ssg71
g2513
sg64
(lp2520
S'127.0.0.1-a85dd4d7-ab1c-49ab-856d-4173a26ef319'
p2521
ag57
(g66
g59
NtRp2522
(dp2523
g62
(dp2524
g70
I3
ssg71
Nsg64
(lp2525
g57
(g73
g59
NtRp2526
(dp2527
g62
(dp2528
sg71
g2522
sg64
(lp2529
g57
(g78
g59
NtRp2530
(dp2531
g62
(dp2532
g82
g83
ssg71
g2526
sg64
(lp2533
g294
asbag57
(g78
g59
NtRp2534
(dp2535
g62
(dp2536
g89
g90
ssg71
g2526
sg64
(lp2537
S':'
asbag57
(g78
g59
NtRp2538
(dp2539
g62
(dp2540
sg71
g2526
sg64
(lp2541
g57
(g58
g59
NtRp2542
(dp2543
g62
(dp2544
g70
I3
ssg71
g2538
sg64
(lp2545
S''
asbasbasbag57
(g73
g59
NtRp2546
(dp2547
g62
(dp2548
sg71
g2522
sg64
(lp2549
g57
(g78
g59
NtRp2550
(dp2551
g62
(dp2552
g82
g83
ssg71
g2546
sg64
(lp2553
g315
asbag57
(g78
g59
NtRp2554
(dp2555
g62
(dp2556
g89
g90
ssg71
g2546
sg64
(lp2557
S':'
asbag57
(g78
g59
NtRp2558
(dp2559
g62
(dp2560
sg71
g2546
sg64
(lp2561
g57
(g58
g59
NtRp2562
(dp2563
g62
(dp2564
g70
I3
ssg71
g2558
sg64
(lp2565
S''
asbasbasbag57
(g73
g59
NtRp2566
(dp2567
g62
(dp2568
sg71
g2522
sg64
(lp2569
g57
(g78
g59
NtRp2570
(dp2571
g62
(dp2572
g82
g83
ssg71
g2566
sg64
(lp2573
g336
asbag57
(g78
g59
NtRp2574
(dp2575
g62
(dp2576
g89
g90
ssg71
g2566
sg64
(lp2577
S':'
asbag57
(g78
g59
NtRp2578
(dp2579
g62
(dp2580
sg71
g2566
sg64
(lp2581
g57
(g58
g59
NtRp2582
(dp2583
g62
(dp2584
g70
I3
ssg71
g2578
sg64
(lp2585
S''
asbasbasbag57
(g73
g59
NtRp2586
(dp2587
g62
(dp2588
sg71
g2522
sg64
(lp2589
g57
(g78
g59
NtRp2590
(dp2591
g62
(dp2592
g82
g83
ssg71
g2586
sg64
(lp2593
g357
asbag57
(g78
g59
NtRp2594
(dp2595
g62
(dp2596
g89
g90
ssg71
g2586
sg64
(lp2597
S':'
asbag57
(g78
g59
NtRp2598
(dp2599
g62
(dp2600
sg71
g2586
sg64
(lp2601
g57
(g58
g59
NtRp2602
(dp2603
g62
(dp2604
g70
I3
ssg71
g2598
sg64
(lp2605
S''
asbasbasbag57
(g73
g59
NtRp2606
(dp2607
g62
(dp2608
sg71
g2522
sg64
(lp2609
g57
(g78
g59
NtRp2610
(dp2611
g62
(dp2612
g82
g83
ssg71
g2606
sg64
(lp2613
g378
asbag57
(g78
g59
NtRp2614
(dp2615
g62
(dp2616
g89
g90
ssg71
g2606
sg64
(lp2617
S':'
asbag57
(g78
g59
NtRp2618
(dp2619
g62
(dp2620
sg71
g2606
sg64
(lp2621
g57
(g58
g59
NtRp2622
(dp2623
g62
(dp2624
g70
I3
ssg71
g2618
sg64
(lp2625
S''
asbasbasbag57
(g73
g59
NtRp2626
(dp2627
g62
(dp2628
sg71
g2522
sg64
(lp2629
g57
(g78
g59
NtRp2630
(dp2631
g62
(dp2632
g82
g83
ssg71
g2626
sg64
(lp2633
g399
asbag57
(g78
g59
NtRp2634
(dp2635
g62
(dp2636
g89
g90
ssg71
g2626
sg64
(lp2637
S':'
asbag57
(g78
g59
NtRp2638
(dp2639
g62
(dp2640
sg71
g2626
sg64
(lp2641
g57
(g58
g59
NtRp2642
(dp2643
g62
(dp2644
g70
I3
ssg71
g2638
sg64
(lp2645
S''
asbasbasbag57
(g73
g59
NtRp2646
(dp2647
g62
(dp2648
sg71
g2522
sg64
(lp2649
g57
(g78
g59
NtRp2650
(dp2651
g62
(dp2652
g82
g83
ssg71
g2646
sg64
(lp2653
g420
asbag57
(g78
g59
NtRp2654
(dp2655
g62
(dp2656
g89
g90
ssg71
g2646
sg64
(lp2657
S':'
asbag57
(g78
g59
NtRp2658
(dp2659
g62
(dp2660
sg71
g2646
sg64
(lp2661
g57
(g58
g59
NtRp2662
(dp2663
g62
(dp2664
g70
I3
ssg71
g2658
sg64
(lp2665
S''
asbasbasbag57
(g73
g59
NtRp2666
(dp2667
g62
(dp2668
sg71
g2522
sg64
(lp2669
g57
(g78
g59
NtRp2670
(dp2671
g62
(dp2672
g82
g83
ssg71
g2666
sg64
(lp2673
g441
asbag57
(g78
g59
NtRp2674
(dp2675
g62
(dp2676
g89
g90
ssg71
g2666
sg64
(lp2677
S':'
asbag57
(g78
g59
NtRp2678
(dp2679
g62
(dp2680
sg71
g2666
sg64
(lp2681
g57
(g58
g59
NtRp2682
(dp2683
g62
(dp2684
g70
I3
ssg71
g2678
sg64
(lp2685
S''
asbasbasbasbasbasbasbasbasbasbasbag57
(g73
g59
NtRp2686
(dp2687
g62
(dp2688
sg71
g67
sg64
(lp2689
g57
(g78
g59
NtRp2690
(dp2691
g62
(dp2692
g82
g83
ssg71
g2686
sg64
(lp2693
S'env'
p2694
asbag57
(g78
g59
NtRp2695
(dp2696
g62
(dp2697
g89
g90
ssg71
g2686
sg64
(lp2698
S':'
asbag57
(g78
g59
NtRp2699
(dp2700
g62
(dp2701
sg71
g2686
sg64
(lp2702
g57
(g58
g59
NtRp2703
(dp2704
g62
(dp2705
g70
I5
ssg71
g2699
sg64
(lp2706
g57
(g66
g59
NtRp2707
(dp2708
g62
(dp2709
g70
I4
ssg71
Nsg64
(lp2710
g57
(g73
g59
NtRp2711
(dp2712
g62
(dp2713
sg71
g2707
sg64
(lp2714
g57
(g78
g59
NtRp2715
(dp2716
g62
(dp2717
g82
g83
ssg71
g2711
sg64
(lp2718
S'app_folders'
p2719
asbag57
(g78
g59
NtRp2720
(dp2721
g62
(dp2722
g89
g90
ssg71
g2711
sg64
(lp2723
S':'
asbag57
(g78
g59
NtRp2724
(dp2725
g62
(dp2726
sg71
g2711
sg64
(lp2727
g57
(g58
g59
NtRp2728
(dp2729
g62
(dp2730
g70
I4
ssg71
g2724
sg64
(lp2731
S"set(['/home/pankaj/web2py/applications/admin/', '/home/pankaj/web2py/applications/welcome/', '/home/pankaj/web2py/applications/reddit/'])"
p2732
asbasbasbag57
(g73
g59
NtRp2733
(dp2734
g62
(dp2735
sg71
g2707
sg64
(lp2736
g57
(g78
g59
NtRp2737
(dp2738
g62
(dp2739
g82
g83
ssg71
g2733
sg64
(lp2740
S'applications_parent'
p2741
asbag57
(g78
g59
NtRp2742
(dp2743
g62
(dp2744
g89
g90
ssg71
g2733
sg64
(lp2745
S':'
asbag57
(g78
g59
NtRp2746
(dp2747
g62
(dp2748
sg71
g2733
sg64
(lp2749
g57
(g58
g59
NtRp2750
(dp2751
g62
(dp2752
g70
I4
ssg71
g2746
sg64
(lp2753
S'/home/pankaj/web2py'
p2754
asbasbasbag57
(g73
g59
NtRp2755
(dp2756
g62
(dp2757
sg71
g2707
sg64
(lp2758
g57
(g78
g59
NtRp2759
(dp2760
g62
(dp2761
g82
g83
ssg71
g2755
sg64
(lp2762
S'cmd_args'
p2763
asbag57
(g78
g59
NtRp2764
(dp2765
g62
(dp2766
g89
g90
ssg71
g2755
sg64
(lp2767
S':'
asbag57
(g78
g59
NtRp2768
(dp2769
g62
(dp2770
sg71
g2755
sg64
(lp2771
g57
(g58
g59
NtRp2772
(dp2773
g62
(dp2774
g70
I4
ssg71
g2768
sg64
(lp2775
g57
(g66
g59
NtRp2776
(dp2777
g62
(dp2778
g70
I3
ssg71
Nsg64
(lp2779
sbasbasbasbag57
(g73
g59
NtRp2780
(dp2781
g62
(dp2782
sg71
g2707
sg64
(lp2783
g57
(g78
g59
NtRp2784
(dp2785
g62
(dp2786
g82
g83
ssg71
g2780
sg64
(lp2787
S'cmd_options'
p2788
asbag57
(g78
g59
NtRp2789
(dp2790
g62
(dp2791
g89
g90
ssg71
g2780
sg64
(lp2792
S':'
asbag57
(g78
g59
NtRp2793
(dp2794
g62
(dp2795
sg71
g2780
sg64
(lp2796
g57
(g58
g59
NtRp2797
(dp2798
g62
(dp2799
g70
I4
ssg71
g2793
sg64
(lp2800
S"<Values at 0x9843dcc: {'verbose': False, 'ip': '127.0.0.1', 'with_scheduler': False, 'ips': [], 'shutdown_timeout': 5, 'taskbar': False, 'port': 8000, 'maxthreads': None, 'softcron': False, 'server_name': 'pankaj-HP-Pavilion-dv4-Notebook-PC', 'bpython': False, 'nogui': False, 'pid_filename': 'httpserver.pid', 'extcron': False, 'runcron': False, 'run_system_tests': False, 'test': None, 'folder': '/home/pankaj/web2py', 'config': '', 'import_models': False, 'winservice': '', 'shell': None, 'run': '', 'log_filename': 'httpserver.log', 'debuglevel': 30, 'args': [''], 'socket_timeout': 5, 'ssl_ca_certificate': None, 'scheduler': None, 'profiler_filename': None, 'ssl_private_key': '', 'scheduler_groups': None, 'password': '<ask>', 'request_queue_size': 5, 'ssl_certificate': '', 'cronjob': False, 'numthreads': None, 'quiet': False, 'interfaces': None, 'minthreads': None, 'timeout': 10, 'plain': False, 'nobanner': False}>"
p2801
asbasbasbag57
(g73
g59
NtRp2802
(dp2803
g62
(dp2804
sg71
g2707
sg64
(lp2805
g57
(g78
g59
NtRp2806
(dp2807
g62
(dp2808
g82
g83
ssg71
g2802
sg64
(lp2809
S'content_length'
p2810
asbag57
(g78
g59
NtRp2811
(dp2812
g62
(dp2813
g89
g90
ssg71
g2802
sg64
(lp2814
S':'
asbag57
(g78
g59
NtRp2815
(dp2816
g62
(dp2817
sg71
g2802
sg64
(lp2818
g57
(g58
g59
NtRp2819
(dp2820
g62
(dp2821
g70
I4
ssg71
g2815
sg64
(lp2822
S'7'
asbasbasbag57
(g73
g59
NtRp2823
(dp2824
g62
(dp2825
sg71
g2707
sg64
(lp2826
g57
(g78
g59
NtRp2827
(dp2828
g62
(dp2829
g82
g83
ssg71
g2823
sg64
(lp2830
S'content_type'
p2831
asbag57
(g78
g59
NtRp2832
(dp2833
g62
(dp2834
g89
g90
ssg71
g2823
sg64
(lp2835
S':'
asbag57
(g78
g59
NtRp2836
(dp2837
g62
(dp2838
sg71
g2823
sg64
(lp2839
g57
(g58
g59
NtRp2840
(dp2841
g62
(dp2842
g70
I4
ssg71
g2836
sg64
(lp2843
S'application/x-www-form-urlencoded'
p2844
asbasbasbag57
(g73
g59
NtRp2845
(dp2846
g62
(dp2847
sg71
g2707
sg64
(lp2848
g57
(g78
g59
NtRp2849
(dp2850
g62
(dp2851
g82
g83
ssg71
g2845
sg64
(lp2852
S'db_sessions'
p2853
asbag57
(g78
g59
NtRp2854
(dp2855
g62
(dp2856
g89
g90
ssg71
g2845
sg64
(lp2857
S':'
asbag57
(g78
g59
NtRp2858
(dp2859
g62
(dp2860
sg71
g2845
sg64
(lp2861
g57
(g58
g59
NtRp2862
(dp2863
g62
(dp2864
g70
I4
ssg71
g2858
sg64
(lp2865
S'set([])'
p2866
asbasbasbag57
(g73
g59
NtRp2867
(dp2868
g62
(dp2869
sg71
g2707
sg64
(lp2870
g57
(g78
g59
NtRp2871
(dp2872
g62
(dp2873
g82
g83
ssg71
g2867
sg64
(lp2874
S'debugging'
p2875
asbag57
(g78
g59
NtRp2876
(dp2877
g62
(dp2878
g89
g90
ssg71
g2867
sg64
(lp2879
S':'
asbag57
(g78
g59
NtRp2880
(dp2881
g62
(dp2882
sg71
g2867
sg64
(lp2883
g57
(g58
g59
NtRp2884
(dp2885
g62
(dp2886
g70
I4
ssg71
g2880
sg64
(lp2887
g100
asbasbasbag57
(g73
g59
NtRp2888
(dp2889
g62
(dp2890
sg71
g2707
sg64
(lp2891
g57
(g78
g59
NtRp2892
(dp2893
g62
(dp2894
g82
g83
ssg71
g2888
sg64
(lp2895
S'gluon_parent'
p2896
asbag57
(g78
g59
NtRp2897
(dp2898
g62
(dp2899
g89
g90
ssg71
g2888
sg64
(lp2900
S':'
asbag57
(g78
g59
NtRp2901
(dp2902
g62
(dp2903
sg71
g2888
sg64
(lp2904
g57
(g58
g59
NtRp2905
(dp2906
g62
(dp2907
g70
I4
ssg71
g2901
sg64
(lp2908
S'/home/pankaj/web2py'
p2909
asbasbasbag57
(g73
g59
NtRp2910
(dp2911
g62
(dp2912
sg71
g2707
sg64
(lp2913
g57
(g78
g59
NtRp2914
(dp2915
g62
(dp2916
g82
g83
ssg71
g2910
sg64
(lp2917
S'http_accept'
p2918
asbag57
(g78
g59
NtRp2919
(dp2920
g62
(dp2921
g89
g90
ssg71
g2910
sg64
(lp2922
S':'
asbag57
(g78
g59
NtRp2923
(dp2924
g62
(dp2925
sg71
g2910
sg64
(lp2926
g57
(g58
g59
NtRp2927
(dp2928
g62
(dp2929
g70
I4
ssg71
g2923
sg64
(lp2930
S'text/html,application/xhtml+xml,application/xml;q=0.9,*/*;q=0.8'
p2931
asbasbasbag57
(g73
g59
NtRp2932
(dp2933
g62
(dp2934
sg71
g2707
sg64
(lp2935
g57
(g78
g59
NtRp2936
(dp2937
g62
(dp2938
g82
g83
ssg71
g2932
sg64
(lp2939
S'http_accept_encoding'
p2940
asbag57
(g78
g59
NtRp2941
(dp2942
g62
(dp2943
g89
g90
ssg71
g2932
sg64
(lp2944
S':'
asbag57
(g78
g59
NtRp2945
(dp2946
g62
(dp2947
sg71
g2932
sg64
(lp2948
g57
(g58
g59
NtRp2949
(dp2950
g62
(dp2951
g70
I4
ssg71
g2945
sg64
(lp2952
S'gzip, deflate'
p2953
asbasbasbag57
(g73
g59
NtRp2954
(dp2955
g62
(dp2956
sg71
g2707
sg64
(lp2957
g57
(g78
g59
NtRp2958
(dp2959
g62
(dp2960
g82
g83
ssg71
g2954
sg64
(lp2961
S'http_accept_language'
p2962
asbag57
(g78
g59
NtRp2963
(dp2964
g62
(dp2965
g89
g90
ssg71
g2954
sg64
(lp2966
S':'
asbag57
(g78
g59
NtRp2967
(dp2968
g62
(dp2969
sg71
g2954
sg64
(lp2970
g57
(g58
g59
NtRp2971
(dp2972
g62
(dp2973
g70
I4
ssg71
g2967
sg64
(lp2974
S'en-US,en;q=0.5'
p2975
asbasbasbag57
(g73
g59
NtRp2976
(dp2977
g62
(dp2978
sg71
g2707
sg64
(lp2979
g57
(g78
g59
NtRp2980
(dp2981
g62
(dp2982
g82
g83
ssg71
g2976
sg64
(lp2983
S'http_cache_control'
p2984
asbag57
(g78
g59
NtRp2985
(dp2986
g62
(dp2987
g89
g90
ssg71
g2976
sg64
(lp2988
S':'
asbag57
(g78
g59
NtRp2989
(dp2990
g62
(dp2991
sg71
g2976
sg64
(lp2992
g57
(g58
g59
NtRp2993
(dp2994
g62
(dp2995
g70
I4
ssg71
g2989
sg64
(lp2996
S'max-age=0'
p2997
asbasbasbag57
(g73
g59
NtRp2998
(dp2999
g62
(dp3000
sg71
g2707
sg64
(lp3001
g57
(g78
g59
NtRp3002
(dp3003
g62
(dp3004
g82
g83
ssg71
g2998
sg64
(lp3005
S'http_connection'
p3006
asbag57
(g78
g59
NtRp3007
(dp3008
g62
(dp3009
g89
g90
ssg71
g2998
sg64
(lp3010
S':'
asbag57
(g78
g59
NtRp3011
(dp3012
g62
(dp3013
sg71
g2998
sg64
(lp3014
g57
(g58
g59
NtRp3015
(dp3016
g62
(dp3017
g70
I4
ssg71
g3011
sg64
(lp3018
S'keep-alive'
p3019
asbasbasbag57
(g73
g59
NtRp3020
(dp3021
g62
(dp3022
sg71
g2707
sg64
(lp3023
g57
(g78
g59
NtRp3024
(dp3025
g62
(dp3026
g82
g83
ssg71
g3020
sg64
(lp3027
S'http_content_length'
p3028
asbag57
(g78
g59
NtRp3029
(dp3030
g62
(dp3031
g89
g90
ssg71
g3020
sg64
(lp3032
S':'
asbag57
(g78
g59
NtRp3033
(dp3034
g62
(dp3035
sg71
g3020
sg64
(lp3036
g57
(g58
g59
NtRp3037
(dp3038
g62
(dp3039
g70
I4
ssg71
g3033
sg64
(lp3040
S'7'
asbasbasbag57
(g73
g59
NtRp3041
(dp3042
g62
(dp3043
sg71
g2707
sg64
(lp3044
g57
(g78
g59
NtRp3045
(dp3046
g62
(dp3047
g82
g83
ssg71
g3041
sg64
(lp3048
S'http_content_type'
p3049
asbag57
(g78
g59
NtRp3050
(dp3051
g62
(dp3052
g89
g90
ssg71
g3041
sg64
(lp3053
S':'
asbag57
(g78
g59
NtRp3054
(dp3055
g62
(dp3056
sg71
g3041
sg64
(lp3057
g57
(g58
g59
NtRp3058
(dp3059
g62
(dp3060
g70
I4
ssg71
g3054
sg64
(lp3061
g2844
asbasbasbag57
(g73
g59
NtRp3062
(dp3063
g62
(dp3064
sg71
g2707
sg64
(lp3065
g57
(g78
g59
NtRp3066
(dp3067
g62
(dp3068
g82
g83
ssg71
g3062
sg64
(lp3069
S'http_cookie'
p3070
asbag57
(g78
g59
NtRp3071
(dp3072
g62
(dp3073
g89
g90
ssg71
g3062
sg64
(lp3074
S':'
asbag57
(g78
g59
NtRp3075
(dp3076
g62
(dp3077
sg71
g3062
sg64
(lp3078
g57
(g58
g59
NtRp3079
(dp3080
g62
(dp3081
g70
I4
ssg71
g3075
sg64
(lp3082
S'session_id_welcome=127.0.0.1-a85dd4d7-ab1c-49ab-856d-4173a26ef319; session_id_admin=127.0.0.1-eea59e1b-9257-4df1-8c44-da77bf9e4ec2; session_id_20120156_assignment_1=127.0.0.1-6cad324c-0572-4be8-8f41-6fcaca863c93; session_id_arihant=127.0.0.1-fa99deb6-5977-491c-864a-b5d79c0d1842; session_id_cataminder=127.0.0.1-81b628a7-34a5-4e70-a95c-79ef710dcdbb; session_id_courses=127.0.0.1-1d46c4eb-fdfc-4abb-bb62-6bcf52d1fcaa; session_id_iiit_fb=127.0.0.1-04b7df24-4720-4bb5-98de-96b98776240d; session_id_myapp=127.0.0.1-f28af7a6-9d1e-4a86-bd34-27605492a231; session_id_project=127.0.0.1-029ca61b-f875-404a-b7ff-1634c44ab767; session_id_testlayout=127.0.0.1-0b2689a2-d3bd-4ee8-ad96-af4d7e3e9ad1; session_id_try=127.0.0.1-4d514347-24a9-48c9-9e7c-4ac4f4a70173; session_id_vikramahuja=127.0.0.1-a555d16d-54b5-476d-a152-f88918b513fe; session_id_reddit=127.0.0.1-24289f39-32a1-48fb-a367-22792fb8b813'
p3083
asbasbasbag57
(g73
g59
NtRp3084
(dp3085
g62
(dp3086
sg71
g2707
sg64
(lp3087
g57
(g78
g59
NtRp3088
(dp3089
g62
(dp3090
g82
g83
ssg71
g3084
sg64
(lp3091
S'http_host'
p3092
asbag57
(g78
g59
NtRp3093
(dp3094
g62
(dp3095
g89
g90
ssg71
g3084
sg64
(lp3096
S':'
asbag57
(g78
g59
NtRp3097
(dp3098
g62
(dp3099
sg71
g3084
sg64
(lp3100
g57
(g58
g59
NtRp3101
(dp3102
g62
(dp3103
g70
I4
ssg71
g3097
sg64
(lp3104
S'127.0.0.1:8000'
p3105
asbasbasbag57
(g73
g59
NtRp3106
(dp3107
g62
(dp3108
sg71
g2707
sg64
(lp3109
g57
(g78
g59
NtRp3110
(dp3111
g62
(dp3112
g82
g83
ssg71
g3106
sg64
(lp3113
S'http_referer'
p3114
asbag57
(g78
g59
NtRp3115
(dp3116
g62
(dp3117
g89
g90
ssg71
g3106
sg64
(lp3118
S':'
asbag57
(g78
g59
NtRp3119
(dp3120
g62
(dp3121
sg71
g3106
sg64
(lp3122
g57
(g58
g59
NtRp3123
(dp3124
g62
(dp3125
g70
I4
ssg71
g3119
sg64
(lp3126
S'http://127.0.0.1:8000/reddit/default/displaycat'
p3127
asbasbasbag57
(g73
g59
NtRp3128
(dp3129
g62
(dp3130
sg71
g2707
sg64
(lp3131
g57
(g78
g59
NtRp3132
(dp3133
g62
(dp3134
g82
g83
ssg71
g3128
sg64
(lp3135
S'http_user_agent'
p3136
asbag57
(g78
g59
NtRp3137
(dp3138
g62
(dp3139
g89
g90
ssg71
g3128
sg64
(lp3140
S':'
asbag57
(g78
g59
NtRp3141
(dp3142
g62
(dp3143
sg71
g3128
sg64
(lp3144
g57
(g58
g59
NtRp3145
(dp3146
g62
(dp3147
g70
I4
ssg71
g3141
sg64
(lp3148
S'Mozilla/5.0 (X11; Ubuntu; Linux i686; rv:22.0) Gecko/20100101 Firefox/22.0'
p3149
asbasbasbag57
(g73
g59
NtRp3150
(dp3151
g62
(dp3152
sg71
g2707
sg64
(lp3153
g57
(g78
g59
NtRp3154
(dp3155
g62
(dp3156
g82
g83
ssg71
g3150
sg64
(lp3157
S'is_jython'
p3158
asbag57
(g78
g59
NtRp3159
(dp3160
g62
(dp3161
g89
g90
ssg71
g3150
sg64
(lp3162
S':'
asbag57
(g78
g59
NtRp3163
(dp3164
g62
(dp3165
sg71
g3150
sg64
(lp3166
g57
(g58
g59
NtRp3167
(dp3168
g62
(dp3169
g70
I4
ssg71
g3163
sg64
(lp3170
g100
asbasbasbag57
(g73
g59
NtRp3171
(dp3172
g62
(dp3173
sg71
g2707
sg64
(lp3174
g57
(g78
g59
NtRp3175
(dp3176
g62
(dp3177
g82
g83
ssg71
g3171
sg64
(lp3178
S'is_pypy'
p3179
asbag57
(g78
g59
NtRp3180
(dp3181
g62
(dp3182
g89
g90
ssg71
g3171
sg64
(lp3183
S':'
asbag57
(g78
g59
NtRp3184
(dp3185
g62
(dp3186
sg71
g3171
sg64
(lp3187
g57
(g58
g59
NtRp3188
(dp3189
g62
(dp3190
g70
I4
ssg71
g3184
sg64
(lp3191
g100
asbasbasbag57
(g73
g59
NtRp3192
(dp3193
g62
(dp3194
sg71
g2707
sg64
(lp3195
g57
(g78
g59
NtRp3196
(dp3197
g62
(dp3198
g82
g83
ssg71
g3192
sg64
(lp3199
S'local_hosts'
p3200
asbag57
(g78
g59
NtRp3201
(dp3202
g62
(dp3203
g89
g90
ssg71
g3192
sg64
(lp3204
S':'
asbag57
(g78
g59
NtRp3205
(dp3206
g62
(dp3207
sg71
g3192
sg64
(lp3208
g57
(g58
g59
NtRp3209
(dp3210
g62
(dp3211
g70
I4
ssg71
g3205
sg64
(lp3212
g57
(g66
g59
NtRp3213
(dp3214
g62
(dp3215
g70
I3
ssg71
Nsg64
(lp3216
g57
(g73
g59
NtRp3217
(dp3218
g62
(dp3219
sg71
g3213
sg64
(lp3220
g57
(g78
g59
NtRp3221
(dp3222
g62
(dp3223
sg71
g3217
sg64
(lp3224
g57
(g58
g59
NtRp3225
(dp3226
g62
(dp3227
g70
I3
ssg71
g3221
sg64
(lp3228
S'pankaj-HP-Pavilion-dv4-Notebook-PC'
p3229
asbasbasbag57
(g73
g59
NtRp3230
(dp3231
g62
(dp3232
sg71
g3213
sg64
(lp3233
g57
(g78
g59
NtRp3234
(dp3235
g62
(dp3236
sg71
g3230
sg64
(lp3237
g57
(g58
g59
NtRp3238
(dp3239
g62
(dp3240
g70
I3
ssg71
g3234
sg64
(lp3241
S'::1'
p3242
asbasbasbag57
(g73
g59
NtRp3243
(dp3244
g62
(dp3245
sg71
g3213
sg64
(lp3246
g57
(g78
g59
NtRp3247
(dp3248
g62
(dp3249
sg71
g3243
sg64
(lp3250
g57
(g58
g59
NtRp3251
(dp3252
g62
(dp3253
g70
I3
ssg71
g3247
sg64
(lp3254
S'127.0.1.1'
p3255
asbasbasbag57
(g73
g59
NtRp3256
(dp3257
g62
(dp3258
sg71
g3213
sg64
(lp3259
g57
(g78
g59
NtRp3260
(dp3261
g62
(dp3262
sg71
g3256
sg64
(lp3263
g57
(g58
g59
NtRp3264
(dp3265
g62
(dp3266
g70
I3
ssg71
g3260
sg64
(lp3267
S'::ffff:127.0.0.1'
p3268
asbasbasbag57
(g73
g59
NtRp3269
(dp3270
g62
(dp3271
sg71
g3213
sg64
(lp3272
g57
(g78
g59
NtRp3273
(dp3274
g62
(dp3275
sg71
g3269
sg64
(lp3276
g57
(g58
g59
NtRp3277
(dp3278
g62
(dp3279
g70
I3
ssg71
g3273
sg64
(lp3280
S'127.0.0.1'
p3281
asbasbasbasbasbasbasbag57
(g73
g59
NtRp3282
(dp3283
g62
(dp3284
sg71
g2707
sg64
(lp3285
g57
(g78
g59
NtRp3286
(dp3287
g62
(dp3288
g82
g83
ssg71
g3282
sg64
(lp3289
S'path_info'
p3290
asbag57
(g78
g59
NtRp3291
(dp3292
g62
(dp3293
g89
g90
ssg71
g3282
sg64
(lp3294
S':'
asbag57
(g78
g59
NtRp3295
(dp3296
g62
(dp3297
sg71
g3282
sg64
(lp3298
g57
(g58
g59
NtRp3299
(dp3300
g62
(dp3301
g70
I4
ssg71
g3295
sg64
(lp3302
S'/reddit/default/displaycat'
p3303
asbasbasbag57
(g73
g59
NtRp3304
(dp3305
g62
(dp3306
sg71
g2707
sg64
(lp3307
g57
(g78
g59
NtRp3308
(dp3309
g62
(dp3310
g82
g83
ssg71
g3304
sg64
(lp3311
S'query_string'
p3312
asbag57
(g78
g59
NtRp3313
(dp3314
g62
(dp3315
g89
g90
ssg71
g3304
sg64
(lp3316
S':'
asbag57
(g78
g59
NtRp3317
(dp3318
g62
(dp3319
sg71
g3304
sg64
(lp3320
g57
(g58
g59
NtRp3321
(dp3322
g62
(dp3323
g70
I4
ssg71
g3317
sg64
(lp3324
S''
asbasbasbag57
(g73
g59
NtRp3325
(dp3326
g62
(dp3327
sg71
g2707
sg64
(lp3328
g57
(g78
g59
NtRp3329
(dp3330
g62
(dp3331
g82
g83
ssg71
g3325
sg64
(lp3332
S'remote_addr'
p3333
asbag57
(g78
g59
NtRp3334
(dp3335
g62
(dp3336
g89
g90
ssg71
g3325
sg64
(lp3337
S':'
asbag57
(g78
g59
NtRp3338
(dp3339
g62
(dp3340
sg71
g3325
sg64
(lp3341
g57
(g58
g59
NtRp3342
(dp3343
g62
(dp3344
g70
I4
ssg71
g3338
sg64
(lp3345
g212
asbasbasbag57
(g73
g59
NtRp3346
(dp3347
g62
(dp3348
sg71
g2707
sg64
(lp3349
g57
(g78
g59
NtRp3350
(dp3351
g62
(dp3352
g82
g83
ssg71
g3346
sg64
(lp3353
S'remote_port'
p3354
asbag57
(g78
g59
NtRp3355
(dp3356
g62
(dp3357
g89
g90
ssg71
g3346
sg64
(lp3358
S':'
asbag57
(g78
g59
NtRp3359
(dp3360
g62
(dp3361
sg71
g3346
sg64
(lp3362
g57
(g58
g59
NtRp3363
(dp3364
g62
(dp3365
g70
I4
ssg71
g3359
sg64
(lp3366
S'59350'
p3367
asbasbasbag57
(g73
g59
NtRp3368
(dp3369
g62
(dp3370
sg71
g2707
sg64
(lp3371
g57
(g78
g59
NtRp3372
(dp3373
g62
(dp3374
g82
g83
ssg71
g3368
sg64
(lp3375
S'request_method'
p3376
asbag57
(g78
g59
NtRp3377
(dp3378
g62
(dp3379
g89
g90
ssg71
g3368
sg64
(lp3380
S':'
asbag57
(g78
g59
NtRp3381
(dp3382
g62
(dp3383
sg71
g3368
sg64
(lp3384
g57
(g58
g59
NtRp3385
(dp3386
g62
(dp3387
g70
I4
ssg71
g3381
sg64
(lp3388
S'POST'
p3389
asbasbasbag57
(g73
g59
NtRp3390
(dp3391
g62
(dp3392
sg71
g2707
sg64
(lp3393
g57
(g78
g59
NtRp3394
(dp3395
g62
(dp3396
g82
g83
ssg71
g3390
sg64
(lp3397
S'request_uri'
p3398
asbag57
(g78
g59
NtRp3399
(dp3400
g62
(dp3401
g89
g90
ssg71
g3390
sg64
(lp3402
S':'
asbag57
(g78
g59
NtRp3403
(dp3404
g62
(dp3405
sg71
g3390
sg64
(lp3406
g57
(g58
g59
NtRp3407
(dp3408
g62
(dp3409
g70
I4
ssg71
g3403
sg64
(lp3410
g3303
asbasbasbag57
(g73
g59
NtRp3411
(dp3412
g62
(dp3413
sg71
g2707
sg64
(lp3414
g57
(g78
g59
NtRp3415
(dp3416
g62
(dp3417
g82
g83
ssg71
g3411
sg64
(lp3418
S'script_name'
p3419
asbag57
(g78
g59
NtRp3420
(dp3421
g62
(dp3422
g89
g90
ssg71
g3411
sg64
(lp3423
S':'
asbag57
(g78
g59
NtRp3424
(dp3425
g62
(dp3426
sg71
g3411
sg64
(lp3427
g57
(g58
g59
NtRp3428
(dp3429
g62
(dp3430
g70
I4
ssg71
g3424
sg64
(lp3431
S''
asbasbasbag57
(g73
g59
NtRp3432
(dp3433
g62
(dp3434
sg71
g2707
sg64
(lp3435
g57
(g78
g59
NtRp3436
(dp3437
g62
(dp3438
g82
g83
ssg71
g3432
sg64
(lp3439
S'server_name'
p3440
asbag57
(g78
g59
NtRp3441
(dp3442
g62
(dp3443
g89
g90
ssg71
g3432
sg64
(lp3444
S':'
asbag57
(g78
g59
NtRp3445
(dp3446
g62
(dp3447
sg71
g3432
sg64
(lp3448
g57
(g58
g59
NtRp3449
(dp3450
g62
(dp3451
g70
I4
ssg71
g3445
sg64
(lp3452
S'pankaj-HP-Pavilion-dv4-Notebook-PC'
p3453
asbasbasbag57
(g73
g59
NtRp3454
(dp3455
g62
(dp3456
sg71
g2707
sg64
(lp3457
g57
(g78
g59
NtRp3458
(dp3459
g62
(dp3460
g82
g83
ssg71
g3454
sg64
(lp3461
S'server_port'
p3462
asbag57
(g78
g59
NtRp3463
(dp3464
g62
(dp3465
g89
g90
ssg71
g3454
sg64
(lp3466
S':'
asbag57
(g78
g59
NtRp3467
(dp3468
g62
(dp3469
sg71
g3454
sg64
(lp3470
g57
(g58
g59
NtRp3471
(dp3472
g62
(dp3473
g70
I4
ssg71
g3467
sg64
(lp3474
S'8000'
p3475
asbasbasbag57
(g73
g59
NtRp3476
(dp3477
g62
(dp3478
sg71
g2707
sg64
(lp3479
g57
(g78
g59
NtRp3480
(dp3481
g62
(dp3482
g82
g83
ssg71
g3476
sg64
(lp3483
S'server_protocol'
p3484
asbag57
(g78
g59
NtRp3485
(dp3486
g62
(dp3487
g89
g90
ssg71
g3476
sg64
(lp3488
S':'
asbag57
(g78
g59
NtRp3489
(dp3490
g62
(dp3491
sg71
g3476
sg64
(lp3492
g57
(g58
g59
NtRp3493
(dp3494
g62
(dp3495
g70
I4
ssg71
g3489
sg64
(lp3496
S'HTTP/1.1'
p3497
asbasbasbag57
(g73
g59
NtRp3498
(dp3499
g62
(dp3500
sg71
g2707
sg64
(lp3501
g57
(g78
g59
NtRp3502
(dp3503
g62
(dp3504
g82
g83
ssg71
g3498
sg64
(lp3505
S'server_software'
p3506
asbag57
(g78
g59
NtRp3507
(dp3508
g62
(dp3509
g89
g90
ssg71
g3498
sg64
(lp3510
S':'
asbag57
(g78
g59
NtRp3511
(dp3512
g62
(dp3513
sg71
g3498
sg64
(lp3514
g57
(g58
g59
NtRp3515
(dp3516
g62
(dp3517
g70
I4
ssg71
g3511
sg64
(lp3518
S'Rocket 1.2.6'
p3519
asbasbasbag57
(g73
g59
NtRp3520
(dp3521
g62
(dp3522
sg71
g2707
sg64
(lp3523
g57
(g78
g59
NtRp3524
(dp3525
g62
(dp3526
g82
g83
ssg71
g3520
sg64
(lp3527
S'web2py_path'
p3528
asbag57
(g78
g59
NtRp3529
(dp3530
g62
(dp3531
g89
g90
ssg71
g3520
sg64
(lp3532
S':'
asbag57
(g78
g59
NtRp3533
(dp3534
g62
(dp3535
sg71
g3520
sg64
(lp3536
g57
(g58
g59
NtRp3537
(dp3538
g62
(dp3539
g70
I4
ssg71
g3533
sg64
(lp3540
g2754
asbasbasbag57
(g73
g59
NtRp3541
(dp3542
g62
(dp3543
sg71
g2707
sg64
(lp3544
g57
(g78
g59
NtRp3545
(dp3546
g62
(dp3547
g82
g83
ssg71
g3541
sg64
(lp3548
S'web2py_version'
p3549
asbag57
(g78
g59
NtRp3550
(dp3551
g62
(dp3552
g89
g90
ssg71
g3541
sg64
(lp3553
S':'
asbag57
(g78
g59
NtRp3554
(dp3555
g62
(dp3556
sg71
g3541
sg64
(lp3557
g57
(g58
g59
NtRp3558
(dp3559
g62
(dp3560
g70
I4
ssg71
g3554
sg64
(lp3561
g57
(g66
g59
NtRp3562
(dp3563
g62
(dp3564
g70
I3
ssg71
Nsg64
(lp3565
g57
(g73
g59
NtRp3566
(dp3567
g62
(dp3568
sg71
g3562
sg64
(lp3569
g57
(g78
g59
NtRp3570
(dp3571
g62
(dp3572
sg71
g3566
sg64
(lp3573
g57
(g58
g59
NtRp3574
(dp3575
g62
(dp3576
g70
I3
ssg71
g3570
sg64
(lp3577
S'2'
asbasbasbag57
(g73
g59
NtRp3578
(dp3579
g62
(dp3580
sg71
g3562
sg64
(lp3581
g57
(g78
g59
NtRp3582
(dp3583
g62
(dp3584
sg71
g3578
sg64
(lp3585
g57
(g58
g59
NtRp3586
(dp3587
g62
(dp3588
g70
I3
ssg71
g3582
sg64
(lp3589
S'3'
asbasbasbag57
(g73
g59
NtRp3590
(dp3591
g62
(dp3592
sg71
g3562
sg64
(lp3593
g57
(g78
g59
NtRp3594
(dp3595
g62
(dp3596
sg71
g3590
sg64
(lp3597
g57
(g58
g59
NtRp3598
(dp3599
g62
(dp3600
g70
I3
ssg71
g3594
sg64
(lp3601
S'2'
asbasbasbag57
(g73
g59
NtRp3602
(dp3603
g62
(dp3604
sg71
g3562
sg64
(lp3605
g57
(g78
g59
NtRp3606
(dp3607
g62
(dp3608
sg71
g3602
sg64
(lp3609
g57
(g58
g59
NtRp3610
(dp3611
g62
(dp3612
g70
I3
ssg71
g3606
sg64
(lp3613
S'datetime.datetime(2012, 12, 17, 15, 3, 30)'
p3614
asbasbasbag57
(g73
g59
NtRp3615
(dp3616
g62
(dp3617
sg71
g3562
sg64
(lp3618
g57
(g78
g59
NtRp3619
(dp3620
g62
(dp3621
sg71
g3615
sg64
(lp3622
g57
(g58
g59
NtRp3623
(dp3624
g62
(dp3625
g70
I3
ssg71
g3619
sg64
(lp3626
S'stable'
p3627
asbasbasbasbasbasbasbag57
(g73
g59
NtRp3628
(dp3629
g62
(dp3630
sg71
g2707
sg64
(lp3631
g57
(g78
g59
NtRp3632
(dp3633
g62
(dp3634
g82
g83
ssg71
g3628
sg64
(lp3635
S'wsgi_errors'
p3636
asbag57
(g78
g59
NtRp3637
(dp3638
g62
(dp3639
g89
g90
ssg71
g3628
sg64
(lp3640
S':'
asbag57
(g78
g59
NtRp3641
(dp3642
g62
(dp3643
sg71
g3628
sg64
(lp3644
g57
(g58
g59
NtRp3645
(dp3646
g62
(dp3647
g70
I4
ssg71
g3641
sg64
(lp3648
S"<open file '<stderr>', mode 'w' at 0xb73000d0>"
p3649
asbasbasbag57
(g73
g59
NtRp3650
(dp3651
g62
(dp3652
sg71
g2707
sg64
(lp3653
g57
(g78
g59
NtRp3654
(dp3655
g62
(dp3656
g82
g83
ssg71
g3650
sg64
(lp3657
S'wsgi_file_wrapper'
p3658
asbag57
(g78
g59
NtRp3659
(dp3660
g62
(dp3661
g89
g90
ssg71
g3650
sg64
(lp3662
S':'
asbag57
(g78
g59
NtRp3663
(dp3664
g62
(dp3665
sg71
g3650
sg64
(lp3666
g57
(g58
g59
NtRp3667
(dp3668
g62
(dp3669
g70
I4
ssg71
g3663
sg64
(lp3670
S'<class wsgiref.util.FileWrapper at 0x980905c>'
p3671
asbasbasbag57
(g73
g59
NtRp3672
(dp3673
g62
(dp3674
sg71
g2707
sg64
(lp3675
g57
(g78
g59
NtRp3676
(dp3677
g62
(dp3678
g82
g83
ssg71
g3672
sg64
(lp3679
S'wsgi_input'
p3680
asbag57
(g78
g59
NtRp3681
(dp3682
g62
(dp3683
g89
g90
ssg71
g3672
sg64
(lp3684
S':'
asbag57
(g78
g59
NtRp3685
(dp3686
g62
(dp3687
sg71
g3672
sg64
(lp3688
g57
(g58
g59
NtRp3689
(dp3690
g62
(dp3691
g70
I4
ssg71
g3685
sg64
(lp3692
S'<socket._fileobject object at 0x9b07eec>'
p3693
asbasbasbag57
(g73
g59
NtRp3694
(dp3695
g62
(dp3696
sg71
g2707
sg64
(lp3697
g57
(g78
g59
NtRp3698
(dp3699
g62
(dp3700
g82
g83
ssg71
g3694
sg64
(lp3701
S'wsgi_multiprocess'
p3702
asbag57
(g78
g59
NtRp3703
(dp3704
g62
(dp3705
g89
g90
ssg71
g3694
sg64
(lp3706
S':'
asbag57
(g78
g59
NtRp3707
(dp3708
g62
(dp3709
sg71
g3694
sg64
(lp3710
g57
(g58
g59
NtRp3711
(dp3712
g62
(dp3713
g70
I4
ssg71
g3707
sg64
(lp3714
g100
asbasbasbag57
(g73
g59
NtRp3715
(dp3716
g62
(dp3717
sg71
g2707
sg64
(lp3718
g57
(g78
g59
NtRp3719
(dp3720
g62
(dp3721
g82
g83
ssg71
g3715
sg64
(lp3722
S'wsgi_multithread'
p3723
asbag57
(g78
g59
NtRp3724
(dp3725
g62
(dp3726
g89
g90
ssg71
g3715
sg64
(lp3727
S':'
asbag57
(g78
g59
NtRp3728
(dp3729
g62
(dp3730
sg71
g3715
sg64
(lp3731
g57
(g58
g59
NtRp3732
(dp3733
g62
(dp3734
g70
I4
ssg71
g3728
sg64
(lp3735
S'True'
p3736
asbasbasbag57
(g73
g59
NtRp3737
(dp3738
g62
(dp3739
sg71
g2707
sg64
(lp3740
g57
(g78
g59
NtRp3741
(dp3742
g62
(dp3743
g82
g83
ssg71
g3737
sg64
(lp3744
S'wsgi_run_once'
p3745
asbag57
(g78
g59
NtRp3746
(dp3747
g62
(dp3748
g89
g90
ssg71
g3737
sg64
(lp3749
S':'
asbag57
(g78
g59
NtRp3750
(dp3751
g62
(dp3752
sg71
g3737
sg64
(lp3753
g57
(g58
g59
NtRp3754
(dp3755
g62
(dp3756
g70
I4
ssg71
g3750
sg64
(lp3757
g100
asbasbasbag57
(g73
g59
NtRp3758
(dp3759
g62
(dp3760
sg71
g2707
sg64
(lp3761
g57
(g78
g59
NtRp3762
(dp3763
g62
(dp3764
g82
g83
ssg71
g3758
sg64
(lp3765
S'wsgi_url_scheme'
p3766
asbag57
(g78
g59
NtRp3767
(dp3768
g62
(dp3769
g89
g90
ssg71
g3758
sg64
(lp3770
S':'
asbag57
(g78
g59
NtRp3771
(dp3772
g62
(dp3773
sg71
g3758
sg64
(lp3774
g57
(g58
g59
NtRp3775
(dp3776
g62
(dp3777
g70
I4
ssg71
g3771
sg64
(lp3778
S'http'
p3779
asbasbasbag57
(g73
g59
NtRp3780
(dp3781
g62
(dp3782
sg71
g2707
sg64
(lp3783
g57
(g78
g59
NtRp3784
(dp3785
g62
(dp3786
g82
g83
ssg71
g3780
sg64
(lp3787
S'wsgi_version'
p3788
asbag57
(g78
g59
NtRp3789
(dp3790
g62
(dp3791
g89
g90
ssg71
g3780
sg64
(lp3792
S':'
asbag57
(g78
g59
NtRp3793
(dp3794
g62
(dp3795
sg71
g3780
sg64
(lp3796
g57
(g58
g59
NtRp3797
(dp3798
g62
(dp3799
g70
I4
ssg71
g3793
sg64
(lp3800
g57
(g66
g59
NtRp3801
(dp3802
g62
(dp3803
g70
I3
ssg71
Nsg64
(lp3804
g57
(g73
g59
NtRp3805
(dp3806
g62
(dp3807
sg71
g3801
sg64
(lp3808
g57
(g78
g59
NtRp3809
(dp3810
g62
(dp3811
sg71
g3805
sg64
(lp3812
g57
(g58
g59
NtRp3813
(dp3814
g62
(dp3815
g70
I3
ssg71
g3809
sg64
(lp3816
S'1'
asbasbasbag57
(g73
g59
NtRp3817
(dp3818
g62
(dp3819
sg71
g3801
sg64
(lp3820
g57
(g78
g59
NtRp3821
(dp3822
g62
(dp3823
sg71
g3817
sg64
(lp3824
g57
(g58
g59
NtRp3825
(dp3826
g62
(dp3827
g70
I3
ssg71
g3821
sg64
(lp3828
S'0'
asbasbasbasbasbasbasbasbasbasbasbag57
(g73
g59
NtRp3829
(dp3830
g62
(dp3831
sg71
g67
sg64
(lp3832
g57
(g78
g59
NtRp3833
(dp3834
g62
(dp3835
g82
g83
ssg71
g3829
sg64
(lp3836
S'extension'
p3837
asbag57
(g78
g59
NtRp3838
(dp3839
g62
(dp3840
g89
g90
ssg71
g3829
sg64
(lp3841
S':'
asbag57
(g78
g59
NtRp3842
(dp3843
g62
(dp3844
sg71
g3829
sg64
(lp3845
g57
(g58
g59
NtRp3846
(dp3847
g62
(dp3848
g70
I5
ssg71
g3842
sg64
(lp3849
S'html'
p3850
asbasbasbag57
(g73
g59
NtRp3851
(dp3852
g62
(dp3853
sg71
g67
sg64
(lp3854
g57
(g78
g59
NtRp3855
(dp3856
g62
(dp3857
g82
g83
ssg71
g3851
sg64
(lp3858
S'folder'
p3859
asbag57
(g78
g59
NtRp3860
(dp3861
g62
(dp3862
g89
g90
ssg71
g3851
sg64
(lp3863
S':'
asbag57
(g78
g59
NtRp3864
(dp3865
g62
(dp3866
sg71
g3851
sg64
(lp3867
g57
(g58
g59
NtRp3868
(dp3869
g62
(dp3870
g70
I5
ssg71
g3864
sg64
(lp3871
S'/home/pankaj/web2py/applications/reddit/'
p3872
asbasbasbag57
(g73
g59
NtRp3873
(dp3874
g62
(dp3875
sg71
g67
sg64
(lp3876
g57
(g78
g59
NtRp3877
(dp3878
g62
(dp3879
g82
g83
ssg71
g3873
sg64
(lp3880
S'function'
p3881
asbag57
(g78
g59
NtRp3882
(dp3883
g62
(dp3884
g89
g90
ssg71
g3873
sg64
(lp3885
S':'
asbag57
(g78
g59
NtRp3886
(dp3887
g62
(dp3888
sg71
g3873
sg64
(lp3889
g57
(g58
g59
NtRp3890
(dp3891
g62
(dp3892
g70
I5
ssg71
g3886
sg64
(lp3893
S'displaycat'
p3894
asbasbasbag57
(g73
g59
NtRp3895
(dp3896
g62
(dp3897
sg71
g67
sg64
(lp3898
g57
(g78
g59
NtRp3899
(dp3900
g62
(dp3901
g82
g83
ssg71
g3895
sg64
(lp3902
S'get_vars'
p3903
asbag57
(g78
g59
NtRp3904
(dp3905
g62
(dp3906
g89
g90
ssg71
g3895
sg64
(lp3907
S':'
asbag57
(g78
g59
NtRp3908
(dp3909
g62
(dp3910
sg71
g3895
sg64
(lp3911
g57
(g58
g59
NtRp3912
(dp3913
g62
(dp3914
g70
I5
ssg71
g3908
sg64
(lp3915
g57
(g66
g59
NtRp3916
(dp3917
g62
(dp3918
g70
I4
ssg71
Nsg64
(lp3919
sbasbasbasbag57
(g73
g59
NtRp3920
(dp3921
g62
(dp3922
sg71
g67
sg64
(lp3923
g57
(g78
g59
NtRp3924
(dp3925
g62
(dp3926
g82
g83
ssg71
g3920
sg64
(lp3927
S'global_settings'
p3928
asbag57
(g78
g59
NtRp3929
(dp3930
g62
(dp3931
g89
g90
ssg71
g3920
sg64
(lp3932
S':'
asbag57
(g78
g59
NtRp3933
(dp3934
g62
(dp3935
sg71
g3920
sg64
(lp3936
g57
(g58
g59
NtRp3937
(dp3938
g62
(dp3939
g70
I5
ssg71
g3933
sg64
(lp3940
g57
(g66
g59
NtRp3941
(dp3942
g62
(dp3943
g70
I4
ssg71
Nsg64
(lp3944
g57
(g73
g59
NtRp3945
(dp3946
g62
(dp3947
sg71
g3941
sg64
(lp3948
g57
(g78
g59
NtRp3949
(dp3950
g62
(dp3951
g82
g83
ssg71
g3945
sg64
(lp3952
g2719
asbag57
(g78
g59
NtRp3953
(dp3954
g62
(dp3955
g89
g90
ssg71
g3945
sg64
(lp3956
S':'
asbag57
(g78
g59
NtRp3957
(dp3958
g62
(dp3959
sg71
g3945
sg64
(lp3960
g57
(g58
g59
NtRp3961
(dp3962
g62
(dp3963
g70
I4
ssg71
g3957
sg64
(lp3964
S"set(['/home/pankaj/web2py/applications/admin/', '/home/pankaj/web2py/applications/welcome/', '/home/pankaj/web2py/applications/reddit/'])"
p3965
asbasbasbag57
(g73
g59
NtRp3966
(dp3967
g62
(dp3968
sg71
g3941
sg64
(lp3969
g57
(g78
g59
NtRp3970
(dp3971
g62
(dp3972
g82
g83
ssg71
g3966
sg64
(lp3973
g2741
asbag57
(g78
g59
NtRp3974
(dp3975
g62
(dp3976
g89
g90
ssg71
g3966
sg64
(lp3977
S':'
asbag57
(g78
g59
NtRp3978
(dp3979
g62
(dp3980
sg71
g3966
sg64
(lp3981
g57
(g58
g59
NtRp3982
(dp3983
g62
(dp3984
g70
I4
ssg71
g3978
sg64
(lp3985
g2754
asbasbasbag57
(g73
g59
NtRp3986
(dp3987
g62
(dp3988
sg71
g3941
sg64
(lp3989
g57
(g78
g59
NtRp3990
(dp3991
g62
(dp3992
g82
g83
ssg71
g3986
sg64
(lp3993
g2763
asbag57
(g78
g59
NtRp3994
(dp3995
g62
(dp3996
g89
g90
ssg71
g3986
sg64
(lp3997
S':'
asbag57
(g78
g59
NtRp3998
(dp3999
g62
(dp4000
sg71
g3986
sg64
(lp4001
g57
(g58
g59
NtRp4002
(dp4003
g62
(dp4004
g70
I4
ssg71
g3998
sg64
(lp4005
g57
(g66
g59
NtRp4006
(dp4007
g62
(dp4008
g70
I3
ssg71
Nsg64
(lp4009
sbasbasbasbag57
(g73
g59
NtRp4010
(dp4011
g62
(dp4012
sg71
g3941
sg64
(lp4013
g57
(g78
g59
NtRp4014
(dp4015
g62
(dp4016
g82
g83
ssg71
g4010
sg64
(lp4017
g2788
asbag57
(g78
g59
NtRp4018
(dp4019
g62
(dp4020
g89
g90
ssg71
g4010
sg64
(lp4021
S':'
asbag57
(g78
g59
NtRp4022
(dp4023
g62
(dp4024
sg71
g4010
sg64
(lp4025
g57
(g58
g59
NtRp4026
(dp4027
g62
(dp4028
g70
I4
ssg71
g4022
sg64
(lp4029
S"<Values at 0x9843dcc: {'verbose': False, 'ip': '127.0.0.1', 'with_scheduler': False, 'ips': [], 'shutdown_timeout': 5, 'taskbar': False, 'port': 8000, 'maxthreads': None, 'softcron': False, 'server_name': 'pankaj-HP-Pavilion-dv4-Notebook-PC', 'bpython': False, 'nogui': False, 'pid_filename': 'httpserver.pid', 'extcron': False, 'runcron': False, 'run_system_tests': False, 'test': None, 'folder': '/home/pankaj/web2py', 'config': '', 'import_models': False, 'winservice': '', 'shell': None, 'run': '', 'log_filename': 'httpserver.log', 'debuglevel': 30, 'args': [''], 'socket_timeout': 5, 'ssl_ca_certificate': None, 'scheduler': None, 'profiler_filename': None, 'ssl_private_key': '', 'scheduler_groups': None, 'password': '<ask>', 'request_queue_size': 5, 'ssl_certificate': '', 'cronjob': False, 'numthreads': None, 'quiet': False, 'interfaces': None, 'minthreads': None, 'timeout': 10, 'plain': False, 'nobanner': False}>"
p4030
asbasbasbag57
(g73
g59
NtRp4031
(dp4032
g62
(dp4033
sg71
g3941
sg64
(lp4034
g57
(g78
g59
NtRp4035
(dp4036
g62
(dp4037
g82
g83
ssg71
g4031
sg64
(lp4038
g2853
asbag57
(g78
g59
NtRp4039
(dp4040
g62
(dp4041
g89
g90
ssg71
g4031
sg64
(lp4042
S':'
asbag57
(g78
g59
NtRp4043
(dp4044
g62
(dp4045
sg71
g4031
sg64
(lp4046
g57
(g58
g59
NtRp4047
(dp4048
g62
(dp4049
g70
I4
ssg71
g4043
sg64
(lp4050
S'set([])'
p4051
asbasbasbag57
(g73
g59
NtRp4052
(dp4053
g62
(dp4054
sg71
g3941
sg64
(lp4055
g57
(g78
g59
NtRp4056
(dp4057
g62
(dp4058
g82
g83
ssg71
g4052
sg64
(lp4059
g2875
asbag57
(g78
g59
NtRp4060
(dp4061
g62
(dp4062
g89
g90
ssg71
g4052
sg64
(lp4063
S':'
asbag57
(g78
g59
NtRp4064
(dp4065
g62
(dp4066
sg71
g4052
sg64
(lp4067
g57
(g58
g59
NtRp4068
(dp4069
g62
(dp4070
g70
I4
ssg71
g4064
sg64
(lp4071
g100
asbasbasbag57
(g73
g59
NtRp4072
(dp4073
g62
(dp4074
sg71
g3941
sg64
(lp4075
g57
(g78
g59
NtRp4076
(dp4077
g62
(dp4078
g82
g83
ssg71
g4072
sg64
(lp4079
g2896
asbag57
(g78
g59
NtRp4080
(dp4081
g62
(dp4082
g89
g90
ssg71
g4072
sg64
(lp4083
S':'
asbag57
(g78
g59
NtRp4084
(dp4085
g62
(dp4086
sg71
g4072
sg64
(lp4087
g57
(g58
g59
NtRp4088
(dp4089
g62
(dp4090
g70
I4
ssg71
g4084
sg64
(lp4091
g2909
asbasbasbag57
(g73
g59
NtRp4092
(dp4093
g62
(dp4094
sg71
g3941
sg64
(lp4095
g57
(g78
g59
NtRp4096
(dp4097
g62
(dp4098
g82
g83
ssg71
g4092
sg64
(lp4099
g3158
asbag57
(g78
g59
NtRp4100
(dp4101
g62
(dp4102
g89
g90
ssg71
g4092
sg64
(lp4103
S':'
asbag57
(g78
g59
NtRp4104
(dp4105
g62
(dp4106
sg71
g4092
sg64
(lp4107
g57
(g58
g59
NtRp4108
(dp4109
g62
(dp4110
g70
I4
ssg71
g4104
sg64
(lp4111
g100
asbasbasbag57
(g73
g59
NtRp4112
(dp4113
g62
(dp4114
sg71
g3941
sg64
(lp4115
g57
(g78
g59
NtRp4116
(dp4117
g62
(dp4118
g82
g83
ssg71
g4112
sg64
(lp4119
g3179
asbag57
(g78
g59
NtRp4120
(dp4121
g62
(dp4122
g89
g90
ssg71
g4112
sg64
(lp4123
S':'
asbag57
(g78
g59
NtRp4124
(dp4125
g62
(dp4126
sg71
g4112
sg64
(lp4127
g57
(g58
g59
NtRp4128
(dp4129
g62
(dp4130
g70
I4
ssg71
g4124
sg64
(lp4131
g100
asbasbasbag57
(g73
g59
NtRp4132
(dp4133
g62
(dp4134
sg71
g3941
sg64
(lp4135
g57
(g78
g59
NtRp4136
(dp4137
g62
(dp4138
g82
g83
ssg71
g4132
sg64
(lp4139
g3200
asbag57
(g78
g59
NtRp4140
(dp4141
g62
(dp4142
g89
g90
ssg71
g4132
sg64
(lp4143
S':'
asbag57
(g78
g59
NtRp4144
(dp4145
g62
(dp4146
sg71
g4132
sg64
(lp4147
g57
(g58
g59
NtRp4148
(dp4149
g62
(dp4150
g70
I4
ssg71
g4144
sg64
(lp4151
g57
(g66
g59
NtRp4152
(dp4153
g62
(dp4154
g70
I3
ssg71
Nsg64
(lp4155
g57
(g73
g59
NtRp4156
(dp4157
g62
(dp4158
sg71
g4152
sg64
(lp4159
g57
(g78
g59
NtRp4160
(dp4161
g62
(dp4162
sg71
g4156
sg64
(lp4163
g57
(g58
g59
NtRp4164
(dp4165
g62
(dp4166
g70
I3
ssg71
g4160
sg64
(lp4167
g3229
asbasbasbag57
(g73
g59
NtRp4168
(dp4169
g62
(dp4170
sg71
g4152
sg64
(lp4171
g57
(g78
g59
NtRp4172
(dp4173
g62
(dp4174
sg71
g4168
sg64
(lp4175
g57
(g58
g59
NtRp4176
(dp4177
g62
(dp4178
g70
I3
ssg71
g4172
sg64
(lp4179
g3242
asbasbasbag57
(g73
g59
NtRp4180
(dp4181
g62
(dp4182
sg71
g4152
sg64
(lp4183
g57
(g78
g59
NtRp4184
(dp4185
g62
(dp4186
sg71
g4180
sg64
(lp4187
g57
(g58
g59
NtRp4188
(dp4189
g62
(dp4190
g70
I3
ssg71
g4184
sg64
(lp4191
g3255
asbasbasbag57
(g73
g59
NtRp4192
(dp4193
g62
(dp4194
sg71
g4152
sg64
(lp4195
g57
(g78
g59
NtRp4196
(dp4197
g62
(dp4198
sg71
g4192
sg64
(lp4199
g57
(g58
g59
NtRp4200
(dp4201
g62
(dp4202
g70
I3
ssg71
g4196
sg64
(lp4203
g3268
asbasbasbag57
(g73
g59
NtRp4204
(dp4205
g62
(dp4206
sg71
g4152
sg64
(lp4207
g57
(g78
g59
NtRp4208
(dp4209
g62
(dp4210
sg71
g4204
sg64
(lp4211
g57
(g58
g59
NtRp4212
(dp4213
g62
(dp4214
g70
I3
ssg71
g4208
sg64
(lp4215
g3281
asbasbasbasbasbasbasbag57
(g73
g59
NtRp4216
(dp4217
g62
(dp4218
sg71
g3941
sg64
(lp4219
g57
(g78
g59
NtRp4220
(dp4221
g62
(dp4222
g82
g83
ssg71
g4216
sg64
(lp4223
g3549
asbag57
(g78
g59
NtRp4224
(dp4225
g62
(dp4226
g89
g90
ssg71
g4216
sg64
(lp4227
S':'
asbag57
(g78
g59
NtRp4228
(dp4229
g62
(dp4230
sg71
g4216
sg64
(lp4231
g57
(g58
g59
NtRp4232
(dp4233
g62
(dp4234
g70
I4
ssg71
g4228
sg64
(lp4235
g57
(g66
g59
NtRp4236
(dp4237
g62
(dp4238
g70
I3
ssg71
Nsg64
(lp4239
g57
(g73
g59
NtRp4240
(dp4241
g62
(dp4242
sg71
g4236
sg64
(lp4243
g57
(g78
g59
NtRp4244
(dp4245
g62
(dp4246
sg71
g4240
sg64
(lp4247
g57
(g58
g59
NtRp4248
(dp4249
g62
(dp4250
g70
I3
ssg71
g4244
sg64
(lp4251
S'2'
asbasbasbag57
(g73
g59
NtRp4252
(dp4253
g62
(dp4254
sg71
g4236
sg64
(lp4255
g57
(g78
g59
NtRp4256
(dp4257
g62
(dp4258
sg71
g4252
sg64
(lp4259
g57
(g58
g59
NtRp4260
(dp4261
g62
(dp4262
g70
I3
ssg71
g4256
sg64
(lp4263
S'3'
asbasbasbag57
(g73
g59
NtRp4264
(dp4265
g62
(dp4266
sg71
g4236
sg64
(lp4267
g57
(g78
g59
NtRp4268
(dp4269
g62
(dp4270
sg71
g4264
sg64
(lp4271
g57
(g58
g59
NtRp4272
(dp4273
g62
(dp4274
g70
I3
ssg71
g4268
sg64
(lp4275
S'2'
asbasbasbag57
(g73
g59
NtRp4276
(dp4277
g62
(dp4278
sg71
g4236
sg64
(lp4279
g57
(g78
g59
NtRp4280
(dp4281
g62
(dp4282
sg71
g4276
sg64
(lp4283
g57
(g58
g59
NtRp4284
(dp4285
g62
(dp4286
g70
I3
ssg71
g4280
sg64
(lp4287
S'datetime.datetime(2012, 12, 17, 15, 3, 30)'
p4288
asbasbasbag57
(g73
g59
NtRp4289
(dp4290
g62
(dp4291
sg71
g4236
sg64
(lp4292
g57
(g78
g59
NtRp4293
(dp4294
g62
(dp4295
sg71
g4289
sg64
(lp4296
g57
(g58
g59
NtRp4297
(dp4298
g62
(dp4299
g70
I3
ssg71
g4293
sg64
(lp4300
g3627
asbasbasbasbasbasbasbasbasbasbasbag57
(g73
g59
NtRp4301
(dp4302
g62
(dp4303
sg71
g67
sg64
(lp4304
g57
(g78
g59
NtRp4305
(dp4306
g62
(dp4307
g82
g83
ssg71
g4301
sg64
(lp4308
S'is_https'
p4309
asbag57
(g78
g59
NtRp4310
(dp4311
g62
(dp4312
g89
g90
ssg71
g4301
sg64
(lp4313
S':'
asbag57
(g78
g59
NtRp4314
(dp4315
g62
(dp4316
sg71
g4301
sg64
(lp4317
g57
(g58
g59
NtRp4318
(dp4319
g62
(dp4320
g70
I5
ssg71
g4314
sg64
(lp4321
g100
asbasbasbag57
(g73
g59
NtRp4322
(dp4323
g62
(dp4324
sg71
g67
sg64
(lp4325
g57
(g78
g59
NtRp4326
(dp4327
g62
(dp4328
g82
g83
ssg71
g4322
sg64
(lp4329
S'is_local'
p4330
asbag57
(g78
g59
NtRp4331
(dp4332
g62
(dp4333
g89
g90
ssg71
g4322
sg64
(lp4334
S':'
asbag57
(g78
g59
NtRp4335
(dp4336
g62
(dp4337
sg71
g4322
sg64
(lp4338
g57
(g58
g59
NtRp4339
(dp4340
g62
(dp4341
g70
I5
ssg71
g4335
sg64
(lp4342
g3736
asbasbasbag57
(g73
g59
NtRp4343
(dp4344
g62
(dp4345
sg71
g67
sg64
(lp4346
g57
(g78
g59
NtRp4347
(dp4348
g62
(dp4349
g82
g83
ssg71
g4343
sg64
(lp4350
S'is_restful'
p4351
asbag57
(g78
g59
NtRp4352
(dp4353
g62
(dp4354
g89
g90
ssg71
g4343
sg64
(lp4355
S':'
asbag57
(g78
g59
NtRp4356
(dp4357
g62
(dp4358
sg71
g4343
sg64
(lp4359
g57
(g58
g59
NtRp4360
(dp4361
g62
(dp4362
g70
I5
ssg71
g4356
sg64
(lp4363
g100
asbasbasbag57
(g73
g59
NtRp4364
(dp4365
g62
(dp4366
sg71
g67
sg64
(lp4367
g57
(g78
g59
NtRp4368
(dp4369
g62
(dp4370
g82
g83
ssg71
g4364
sg64
(lp4371
S'now'
p4372
asbag57
(g78
g59
NtRp4373
(dp4374
g62
(dp4375
g89
g90
ssg71
g4364
sg64
(lp4376
S':'
asbag57
(g78
g59
NtRp4377
(dp4378
g62
(dp4379
sg71
g4364
sg64
(lp4380
g57
(g58
g59
NtRp4381
(dp4382
g62
(dp4383
g70
I5
ssg71
g4377
sg64
(lp4384
S'datetime.datetime(2013, 8, 30, 3, 20, 16, 570222)'
p4385
asbasbasbag57
(g73
g59
NtRp4386
(dp4387
g62
(dp4388
sg71
g67
sg64
(lp4389
g57
(g78
g59
NtRp4390
(dp4391
g62
(dp4392
g82
g83
ssg71
g4386
sg64
(lp4393
S'post_vars'
p4394
asbag57
(g78
g59
NtRp4395
(dp4396
g62
(dp4397
g89
g90
ssg71
g4386
sg64
(lp4398
S':'
asbag57
(g78
g59
NtRp4399
(dp4400
g62
(dp4401
sg71
g4386
sg64
(lp4402
g57
(g58
g59
NtRp4403
(dp4404
g62
(dp4405
g70
I5
ssg71
g4399
sg64
(lp4406
g57
(g66
g59
NtRp4407
(dp4408
g62
(dp4409
g70
I4
ssg71
Nsg64
(lp4410
g57
(g73
g59
NtRp4411
(dp4412
g62
(dp4413
sg71
g4407
sg64
(lp4414
g57
(g78
g59
NtRp4415
(dp4416
g62
(dp4417
g82
g83
ssg71
g4411
sg64
(lp4418
S'catid'
p4419
asbag57
(g78
g59
NtRp4420
(dp4421
g62
(dp4422
g89
g90
ssg71
g4411
sg64
(lp4423
S':'
asbag57
(g78
g59
NtRp4424
(dp4425
g62
(dp4426
sg71
g4411
sg64
(lp4427
g57
(g58
g59
NtRp4428
(dp4429
g62
(dp4430
g70
I4
ssg71
g4424
sg64
(lp4431
S'4'
asbasbasbasbasbasbasbag57
(g73
g59
NtRp4432
(dp4433
g62
(dp4434
sg71
g67
sg64
(lp4435
g57
(g78
g59
NtRp4436
(dp4437
g62
(dp4438
g82
g83
ssg71
g4432
sg64
(lp4439
S'raw_args'
p4440
asbag57
(g78
g59
NtRp4441
(dp4442
g62
(dp4443
g89
g90
ssg71
g4432
sg64
(lp4444
S':'
asbag57
(g78
g59
NtRp4445
(dp4446
g62
(dp4447
sg71
g4432
sg64
(lp4448
g57
(g58
g59
NtRp4449
(dp4450
g62
(dp4451
g70
I5
ssg71
g4445
sg64
(lp4452
S''
asbasbasbag57
(g73
g59
NtRp4453
(dp4454
g62
(dp4455
sg71
g67
sg64
(lp4456
g57
(g78
g59
NtRp4457
(dp4458
g62
(dp4459
g82
g83
ssg71
g4453
sg64
(lp4460
S'raw_extension'
p4461
asbag57
(g78
g59
NtRp4462
(dp4463
g62
(dp4464
g89
g90
ssg71
g4453
sg64
(lp4465
S':'
asbag57
(g78
g59
NtRp4466
(dp4467
g62
(dp4468
sg71
g4453
sg64
(lp4469
g57
(g58
g59
NtRp4470
(dp4471
g62
(dp4472
g70
I5
ssg71
g4466
sg64
(lp4473
S'None'
p4474
asbasbasbag57
(g73
g59
NtRp4475
(dp4476
g62
(dp4477
sg71
g67
sg64
(lp4478
g57
(g78
g59
NtRp4479
(dp4480
g62
(dp4481
g82
g83
ssg71
g4475
sg64
(lp4482
S'url'
p4483
asbag57
(g78
g59
NtRp4484
(dp4485
g62
(dp4486
g89
g90
ssg71
g4475
sg64
(lp4487
S':'
asbag57
(g78
g59
NtRp4488
(dp4489
g62
(dp4490
sg71
g4475
sg64
(lp4491
g57
(g58
g59
NtRp4492
(dp4493
g62
(dp4494
g70
I5
ssg71
g4488
sg64
(lp4495
g3303
asbasbasbag57
(g73
g59
NtRp4496
(dp4497
g62
(dp4498
sg71
g67
sg64
(lp4499
g57
(g78
g59
NtRp4500
(dp4501
g62
(dp4502
g82
g83
ssg71
g4496
sg64
(lp4503
S'utcnow'
p4504
asbag57
(g78
g59
NtRp4505
(dp4506
g62
(dp4507
g89
g90
ssg71
g4496
sg64
(lp4508
S':'
asbag57
(g78
g59
NtRp4509
(dp4510
g62
(dp4511
sg71
g4496
sg64
(lp4512
g57
(g58
g59
NtRp4513
(dp4514
g62
(dp4515
g70
I5
ssg71
g4509
sg64
(lp4516
S'datetime.datetime(2013, 8, 29, 21, 50, 16, 570260)'
p4517
asbasbasbag57
(g73
g59
NtRp4518
(dp4519
g62
(dp4520
sg71
g67
sg64
(lp4521
g57
(g78
g59
NtRp4522
(dp4523
g62
(dp4524
g82
g83
ssg71
g4518
sg64
(lp4525
S'uuid'
p4526
asbag57
(g78
g59
NtRp4527
(dp4528
g62
(dp4529
g89
g90
ssg71
g4518
sg64
(lp4530
S':'
asbag57
(g78
g59
NtRp4531
(dp4532
g62
(dp4533
sg71
g4518
sg64
(lp4534
g57
(g58
g59
NtRp4535
(dp4536
g62
(dp4537
g70
I5
ssg71
g4531
sg64
(lp4538
S'reddit/127.0.0.1.2013-08-30.03-20-16.f80f3253-9cef-4e5d-8f24-3db923408c1d'
p4539
asbasbasbag57
(g73
g59
NtRp4540
(dp4541
g62
(dp4542
sg71
g67
sg64
(lp4543
g57
(g78
g59
NtRp4544
(dp4545
g62
(dp4546
g82
g83
ssg71
g4540
sg64
(lp4547
S'vars'
p4548
asbag57
(g78
g59
NtRp4549
(dp4550
g62
(dp4551
g89
g90
ssg71
g4540
sg64
(lp4552
S':'
asbag57
(g78
g59
NtRp4553
(dp4554
g62
(dp4555
sg71
g4540
sg64
(lp4556
g57
(g58
g59
NtRp4557
(dp4558
g62
(dp4559
g70
I5
ssg71
g4553
sg64
(lp4560
g57
(g66
g59
NtRp4561
(dp4562
g62
(dp4563
g70
I4
ssg71
Nsg64
(lp4564
g57
(g73
g59
NtRp4565
(dp4566
g62
(dp4567
sg71
g4561
sg64
(lp4568
g57
(g78
g59
NtRp4569
(dp4570
g62
(dp4571
g82
g83
ssg71
g4565
sg64
(lp4572
g4419
asbag57
(g78
g59
NtRp4573
(dp4574
g62
(dp4575
g89
g90
ssg71
g4565
sg64
(lp4576
S':'
asbag57
(g78
g59
NtRp4577
(dp4578
g62
(dp4579
sg71
g4565
sg64
(lp4580
g57
(g58
g59
NtRp4581
(dp4582
g62
(dp4583
g70
I4
ssg71
g4577
sg64
(lp4584
S'4'
asbasbasbasbasbasbasbag57
(g73
g59
NtRp4585
(dp4586
g62
(dp4587
sg71
g67
sg64
(lp4588
g57
(g78
g59
NtRp4589
(dp4590
g62
(dp4591
g82
g83
ssg71
g4585
sg64
(lp4592
S'wsgi'
p4593
asbag57
(g78
g59
NtRp4594
(dp4595
g62
(dp4596
g89
g90
ssg71
g4585
sg64
(lp4597
S':'
asbag57
(g78
g59
NtRp4598
(dp4599
g62
(dp4600
sg71
g4585
sg64
(lp4601
g57
(g58
g59
NtRp4602
(dp4603
g62
(dp4604
g70
I5
ssg71
g4598
sg64
(lp4605
g57
(g66
g59
NtRp4606
(dp4607
g62
(dp4608
g70
I4
ssg71
Nsg64
(lp4609
g57
(g73
g59
NtRp4610
(dp4611
g62
(dp4612
sg71
g4606
sg64
(lp4613
g57
(g78
g59
NtRp4614
(dp4615
g62
(dp4616
g82
g83
ssg71
g4610
sg64
(lp4617
S'environ'
p4618
asbag57
(g78
g59
NtRp4619
(dp4620
g62
(dp4621
g89
g90
ssg71
g4610
sg64
(lp4622
S':'
asbag57
(g78
g59
NtRp4623
(dp4624
g62
(dp4625
sg71
g4610
sg64
(lp4626
g57
(g58
g59
NtRp4627
(dp4628
g62
(dp4629
g70
I4
ssg71
g4623
sg64
(lp4630
g57
(g66
g59
NtRp4631
(dp4632
g62
(dp4633
g70
I3
ssg71
Nsg64
(lp4634
g57
(g73
g59
NtRp4635
(dp4636
g62
(dp4637
sg71
g4631
sg64
(lp4638
g57
(g78
g59
NtRp4639
(dp4640
g62
(dp4641
g82
g83
ssg71
g4635
sg64
(lp4642
S'CONTENT_LENGTH'
p4643
asbag57
(g78
g59
NtRp4644
(dp4645
g62
(dp4646
g89
g90
ssg71
g4635
sg64
(lp4647
S':'
asbag57
(g78
g59
NtRp4648
(dp4649
g62
(dp4650
sg71
g4635
sg64
(lp4651
g57
(g58
g59
NtRp4652
(dp4653
g62
(dp4654
g70
I3
ssg71
g4648
sg64
(lp4655
S'7'
asbasbasbag57
(g73
g59
NtRp4656
(dp4657
g62
(dp4658
sg71
g4631
sg64
(lp4659
g57
(g78
g59
NtRp4660
(dp4661
g62
(dp4662
g82
g83
ssg71
g4656
sg64
(lp4663
S'CONTENT_TYPE'
p4664
asbag57
(g78
g59
NtRp4665
(dp4666
g62
(dp4667
g89
g90
ssg71
g4656
sg64
(lp4668
S':'
asbag57
(g78
g59
NtRp4669
(dp4670
g62
(dp4671
sg71
g4656
sg64
(lp4672
g57
(g58
g59
NtRp4673
(dp4674
g62
(dp4675
g70
I3
ssg71
g4669
sg64
(lp4676
g2844
asbasbasbag57
(g73
g59
NtRp4677
(dp4678
g62
(dp4679
sg71
g4631
sg64
(lp4680
g57
(g78
g59
NtRp4681
(dp4682
g62
(dp4683
g82
g83
ssg71
g4677
sg64
(lp4684
S'HTTP_ACCEPT'
p4685
asbag57
(g78
g59
NtRp4686
(dp4687
g62
(dp4688
g89
g90
ssg71
g4677
sg64
(lp4689
S':'
asbag57
(g78
g59
NtRp4690
(dp4691
g62
(dp4692
sg71
g4677
sg64
(lp4693
g57
(g58
g59
NtRp4694
(dp4695
g62
(dp4696
g70
I3
ssg71
g4690
sg64
(lp4697
g2931
asbasbasbag57
(g73
g59
NtRp4698
(dp4699
g62
(dp4700
sg71
g4631
sg64
(lp4701
g57
(g78
g59
NtRp4702
(dp4703
g62
(dp4704
g82
g83
ssg71
g4698
sg64
(lp4705
S'HTTP_ACCEPT_ENCODING'
p4706
asbag57
(g78
g59
NtRp4707
(dp4708
g62
(dp4709
g89
g90
ssg71
g4698
sg64
(lp4710
S':'
asbag57
(g78
g59
NtRp4711
(dp4712
g62
(dp4713
sg71
g4698
sg64
(lp4714
g57
(g58
g59
NtRp4715
(dp4716
g62
(dp4717
g70
I3
ssg71
g4711
sg64
(lp4718
g2953
asbasbasbag57
(g73
g59
NtRp4719
(dp4720
g62
(dp4721
sg71
g4631
sg64
(lp4722
g57
(g78
g59
NtRp4723
(dp4724
g62
(dp4725
g82
g83
ssg71
g4719
sg64
(lp4726
S'HTTP_ACCEPT_LANGUAGE'
p4727
asbag57
(g78
g59
NtRp4728
(dp4729
g62
(dp4730
g89
g90
ssg71
g4719
sg64
(lp4731
S':'
asbag57
(g78
g59
NtRp4732
(dp4733
g62
(dp4734
sg71
g4719
sg64
(lp4735
g57
(g58
g59
NtRp4736
(dp4737
g62
(dp4738
g70
I3
ssg71
g4732
sg64
(lp4739
g2975
asbasbasbag57
(g73
g59
NtRp4740
(dp4741
g62
(dp4742
sg71
g4631
sg64
(lp4743
g57
(g78
g59
NtRp4744
(dp4745
g62
(dp4746
g82
g83
ssg71
g4740
sg64
(lp4747
S'HTTP_CACHE_CONTROL'
p4748
asbag57
(g78
g59
NtRp4749
(dp4750
g62
(dp4751
g89
g90
ssg71
g4740
sg64
(lp4752
S':'
asbag57
(g78
g59
NtRp4753
(dp4754
g62
(dp4755
sg71
g4740
sg64
(lp4756
g57
(g58
g59
NtRp4757
(dp4758
g62
(dp4759
g70
I3
ssg71
g4753
sg64
(lp4760
g2997
asbasbasbag57
(g73
g59
NtRp4761
(dp4762
g62
(dp4763
sg71
g4631
sg64
(lp4764
g57
(g78
g59
NtRp4765
(dp4766
g62
(dp4767
g82
g83
ssg71
g4761
sg64
(lp4768
S'HTTP_CONNECTION'
p4769
asbag57
(g78
g59
NtRp4770
(dp4771
g62
(dp4772
g89
g90
ssg71
g4761
sg64
(lp4773
S':'
asbag57
(g78
g59
NtRp4774
(dp4775
g62
(dp4776
sg71
g4761
sg64
(lp4777
g57
(g58
g59
NtRp4778
(dp4779
g62
(dp4780
g70
I3
ssg71
g4774
sg64
(lp4781
g3019
asbasbasbag57
(g73
g59
NtRp4782
(dp4783
g62
(dp4784
sg71
g4631
sg64
(lp4785
g57
(g78
g59
NtRp4786
(dp4787
g62
(dp4788
g82
g83
ssg71
g4782
sg64
(lp4789
S'HTTP_CONTENT_LENGTH'
p4790
asbag57
(g78
g59
NtRp4791
(dp4792
g62
(dp4793
g89
g90
ssg71
g4782
sg64
(lp4794
S':'
asbag57
(g78
g59
NtRp4795
(dp4796
g62
(dp4797
sg71
g4782
sg64
(lp4798
g57
(g58
g59
NtRp4799
(dp4800
g62
(dp4801
g70
I3
ssg71
g4795
sg64
(lp4802
S'7'
asbasbasbag57
(g73
g59
NtRp4803
(dp4804
g62
(dp4805
sg71
g4631
sg64
(lp4806
g57
(g78
g59
NtRp4807
(dp4808
g62
(dp4809
g82
g83
ssg71
g4803
sg64
(lp4810
S'HTTP_CONTENT_TYPE'
p4811
asbag57
(g78
g59
NtRp4812
(dp4813
g62
(dp4814
g89
g90
ssg71
g4803
sg64
(lp4815
S':'
asbag57
(g78
g59
NtRp4816
(dp4817
g62
(dp4818
sg71
g4803
sg64
(lp4819
g57
(g58
g59
NtRp4820
(dp4821
g62
(dp4822
g70
I3
ssg71
g4816
sg64
(lp4823
g2844
asbasbasbag57
(g73
g59
NtRp4824
(dp4825
g62
(dp4826
sg71
g4631
sg64
(lp4827
g57
(g78
g59
NtRp4828
(dp4829
g62
(dp4830
g82
g83
ssg71
g4824
sg64
(lp4831
S'HTTP_COOKIE'
p4832
asbag57
(g78
g59
NtRp4833
(dp4834
g62
(dp4835
g89
g90
ssg71
g4824
sg64
(lp4836
S':'
asbag57
(g78
g59
NtRp4837
(dp4838
g62
(dp4839
sg71
g4824
sg64
(lp4840
g57
(g58
g59
NtRp4841
(dp4842
g62
(dp4843
g70
I3
ssg71
g4837
sg64
(lp4844
g3083
asbasbasbag57
(g73
g59
NtRp4845
(dp4846
g62
(dp4847
sg71
g4631
sg64
(lp4848
g57
(g78
g59
NtRp4849
(dp4850
g62
(dp4851
g82
g83
ssg71
g4845
sg64
(lp4852
S'HTTP_HOST'
p4853
asbag57
(g78
g59
NtRp4854
(dp4855
g62
(dp4856
g89
g90
ssg71
g4845
sg64
(lp4857
S':'
asbag57
(g78
g59
NtRp4858
(dp4859
g62
(dp4860
sg71
g4845
sg64
(lp4861
g57
(g58
g59
NtRp4862
(dp4863
g62
(dp4864
g70
I3
ssg71
g4858
sg64
(lp4865
g3105
asbasbasbag57
(g73
g59
NtRp4866
(dp4867
g62
(dp4868
sg71
g4631
sg64
(lp4869
g57
(g78
g59
NtRp4870
(dp4871
g62
(dp4872
g82
g83
ssg71
g4866
sg64
(lp4873
S'HTTP_REFERER'
p4874
asbag57
(g78
g59
NtRp4875
(dp4876
g62
(dp4877
g89
g90
ssg71
g4866
sg64
(lp4878
S':'
asbag57
(g78
g59
NtRp4879
(dp4880
g62
(dp4881
sg71
g4866
sg64
(lp4882
g57
(g58
g59
NtRp4883
(dp4884
g62
(dp4885
g70
I3
ssg71
g4879
sg64
(lp4886
g3127
asbasbasbag57
(g73
g59
NtRp4887
(dp4888
g62
(dp4889
sg71
g4631
sg64
(lp4890
g57
(g78
g59
NtRp4891
(dp4892
g62
(dp4893
g82
g83
ssg71
g4887
sg64
(lp4894
S'HTTP_USER_AGENT'
p4895
asbag57
(g78
g59
NtRp4896
(dp4897
g62
(dp4898
g89
g90
ssg71
g4887
sg64
(lp4899
S':'
asbag57
(g78
g59
NtRp4900
(dp4901
g62
(dp4902
sg71
g4887
sg64
(lp4903
g57
(g58
g59
NtRp4904
(dp4905
g62
(dp4906
g70
I3
ssg71
g4900
sg64
(lp4907
g3149
asbasbasbag57
(g73
g59
NtRp4908
(dp4909
g62
(dp4910
sg71
g4631
sg64
(lp4911
g57
(g78
g59
NtRp4912
(dp4913
g62
(dp4914
g82
g83
ssg71
g4908
sg64
(lp4915
S'PATH_INFO'
p4916
asbag57
(g78
g59
NtRp4917
(dp4918
g62
(dp4919
g89
g90
ssg71
g4908
sg64
(lp4920
S':'
asbag57
(g78
g59
NtRp4921
(dp4922
g62
(dp4923
sg71
g4908
sg64
(lp4924
g57
(g58
g59
NtRp4925
(dp4926
g62
(dp4927
g70
I3
ssg71
g4921
sg64
(lp4928
g3303
asbasbasbag57
(g73
g59
NtRp4929
(dp4930
g62
(dp4931
sg71
g4631
sg64
(lp4932
g57
(g78
g59
NtRp4933
(dp4934
g62
(dp4935
g82
g83
ssg71
g4929
sg64
(lp4936
S'QUERY_STRING'
p4937
asbag57
(g78
g59
NtRp4938
(dp4939
g62
(dp4940
g89
g90
ssg71
g4929
sg64
(lp4941
S':'
asbag57
(g78
g59
NtRp4942
(dp4943
g62
(dp4944
sg71
g4929
sg64
(lp4945
g57
(g58
g59
NtRp4946
(dp4947
g62
(dp4948
g70
I3
ssg71
g4942
sg64
(lp4949
S''
asbasbasbag57
(g73
g59
NtRp4950
(dp4951
g62
(dp4952
sg71
g4631
sg64
(lp4953
g57
(g78
g59
NtRp4954
(dp4955
g62
(dp4956
g82
g83
ssg71
g4950
sg64
(lp4957
S'REMOTE_ADDR'
p4958
asbag57
(g78
g59
NtRp4959
(dp4960
g62
(dp4961
g89
g90
ssg71
g4950
sg64
(lp4962
S':'
asbag57
(g78
g59
NtRp4963
(dp4964
g62
(dp4965
sg71
g4950
sg64
(lp4966
g57
(g58
g59
NtRp4967
(dp4968
g62
(dp4969
g70
I3
ssg71
g4963
sg64
(lp4970
g212
asbasbasbag57
(g73
g59
NtRp4971
(dp4972
g62
(dp4973
sg71
g4631
sg64
(lp4974
g57
(g78
g59
NtRp4975
(dp4976
g62
(dp4977
g82
g83
ssg71
g4971
sg64
(lp4978
S'REMOTE_PORT'
p4979
asbag57
(g78
g59
NtRp4980
(dp4981
g62
(dp4982
g89
g90
ssg71
g4971
sg64
(lp4983
S':'
asbag57
(g78
g59
NtRp4984
(dp4985
g62
(dp4986
sg71
g4971
sg64
(lp4987
g57
(g58
g59
NtRp4988
(dp4989
g62
(dp4990
g70
I3
ssg71
g4984
sg64
(lp4991
g3367
asbasbasbag57
(g73
g59
NtRp4992
(dp4993
g62
(dp4994
sg71
g4631
sg64
(lp4995
g57
(g78
g59
NtRp4996
(dp4997
g62
(dp4998
g82
g83
ssg71
g4992
sg64
(lp4999
S'REQUEST_METHOD'
p5000
asbag57
(g78
g59
NtRp5001
(dp5002
g62
(dp5003
g89
g90
ssg71
g4992
sg64
(lp5004
S':'
asbag57
(g78
g59
NtRp5005
(dp5006
g62
(dp5007
sg71
g4992
sg64
(lp5008
g57
(g58
g59
NtRp5009
(dp5010
g62
(dp5011
g70
I3
ssg71
g5005
sg64
(lp5012
g3389
asbasbasbag57
(g73
g59
NtRp5013
(dp5014
g62
(dp5015
sg71
g4631
sg64
(lp5016
g57
(g78
g59
NtRp5017
(dp5018
g62
(dp5019
g82
g83
ssg71
g5013
sg64
(lp5020
S'REQUEST_URI'
p5021
asbag57
(g78
g59
NtRp5022
(dp5023
g62
(dp5024
g89
g90
ssg71
g5013
sg64
(lp5025
S':'
asbag57
(g78
g59
NtRp5026
(dp5027
g62
(dp5028
sg71
g5013
sg64
(lp5029
g57
(g58
g59
NtRp5030
(dp5031
g62
(dp5032
g70
I3
ssg71
g5026
sg64
(lp5033
g3303
asbasbasbag57
(g73
g59
NtRp5034
(dp5035
g62
(dp5036
sg71
g4631
sg64
(lp5037
g57
(g78
g59
NtRp5038
(dp5039
g62
(dp5040
g82
g83
ssg71
g5034
sg64
(lp5041
S'SCRIPT_NAME'
p5042
asbag57
(g78
g59
NtRp5043
(dp5044
g62
(dp5045
g89
g90
ssg71
g5034
sg64
(lp5046
S':'
asbag57
(g78
g59
NtRp5047
(dp5048
g62
(dp5049
sg71
g5034
sg64
(lp5050
g57
(g58
g59
NtRp5051
(dp5052
g62
(dp5053
g70
I3
ssg71
g5047
sg64
(lp5054
S''
asbasbasbag57
(g73
g59
NtRp5055
(dp5056
g62
(dp5057
sg71
g4631
sg64
(lp5058
g57
(g78
g59
NtRp5059
(dp5060
g62
(dp5061
g82
g83
ssg71
g5055
sg64
(lp5062
S'SERVER_NAME'
p5063
asbag57
(g78
g59
NtRp5064
(dp5065
g62
(dp5066
g89
g90
ssg71
g5055
sg64
(lp5067
S':'
asbag57
(g78
g59
NtRp5068
(dp5069
g62
(dp5070
sg71
g5055
sg64
(lp5071
g57
(g58
g59
NtRp5072
(dp5073
g62
(dp5074
g70
I3
ssg71
g5068
sg64
(lp5075
g3453
asbasbasbag57
(g73
g59
NtRp5076
(dp5077
g62
(dp5078
sg71
g4631
sg64
(lp5079
g57
(g78
g59
NtRp5080
(dp5081
g62
(dp5082
g82
g83
ssg71
g5076
sg64
(lp5083
S'SERVER_PORT'
p5084
asbag57
(g78
g59
NtRp5085
(dp5086
g62
(dp5087
g89
g90
ssg71
g5076
sg64
(lp5088
S':'
asbag57
(g78
g59
NtRp5089
(dp5090
g62
(dp5091
sg71
g5076
sg64
(lp5092
g57
(g58
g59
NtRp5093
(dp5094
g62
(dp5095
g70
I3
ssg71
g5089
sg64
(lp5096
g3475
asbasbasbag57
(g73
g59
NtRp5097
(dp5098
g62
(dp5099
sg71
g4631
sg64
(lp5100
g57
(g78
g59
NtRp5101
(dp5102
g62
(dp5103
g82
g83
ssg71
g5097
sg64
(lp5104
S'SERVER_PROTOCOL'
p5105
asbag57
(g78
g59
NtRp5106
(dp5107
g62
(dp5108
g89
g90
ssg71
g5097
sg64
(lp5109
S':'
asbag57
(g78
g59
NtRp5110
(dp5111
g62
(dp5112
sg71
g5097
sg64
(lp5113
g57
(g58
g59
NtRp5114
(dp5115
g62
(dp5116
g70
I3
ssg71
g5110
sg64
(lp5117
g3497
asbasbasbag57
(g73
g59
NtRp5118
(dp5119
g62
(dp5120
sg71
g4631
sg64
(lp5121
g57
(g78
g59
NtRp5122
(dp5123
g62
(dp5124
g82
g83
ssg71
g5118
sg64
(lp5125
S'SERVER_SOFTWARE'
p5126
asbag57
(g78
g59
NtRp5127
(dp5128
g62
(dp5129
g89
g90
ssg71
g5118
sg64
(lp5130
S':'
asbag57
(g78
g59
NtRp5131
(dp5132
g62
(dp5133
sg71
g5118
sg64
(lp5134
g57
(g58
g59
NtRp5135
(dp5136
g62
(dp5137
g70
I3
ssg71
g5131
sg64
(lp5138
g3519
asbasbasbag57
(g73
g59
NtRp5139
(dp5140
g62
(dp5141
sg71
g4631
sg64
(lp5142
g57
(g78
g59
NtRp5143
(dp5144
g62
(dp5145
g82
g83
ssg71
g5139
sg64
(lp5146
S'wsgi.errors'
p5147
asbag57
(g78
g59
NtRp5148
(dp5149
g62
(dp5150
g89
g90
ssg71
g5139
sg64
(lp5151
S':'
asbag57
(g78
g59
NtRp5152
(dp5153
g62
(dp5154
sg71
g5139
sg64
(lp5155
g57
(g58
g59
NtRp5156
(dp5157
g62
(dp5158
g70
I3
ssg71
g5152
sg64
(lp5159
S"<open file '<stderr>', mode 'w' at 0xb73000d0>"
p5160
asbasbasbag57
(g73
g59
NtRp5161
(dp5162
g62
(dp5163
sg71
g4631
sg64
(lp5164
g57
(g78
g59
NtRp5165
(dp5166
g62
(dp5167
g82
g83
ssg71
g5161
sg64
(lp5168
S'wsgi.file_wrapper'
p5169
asbag57
(g78
g59
NtRp5170
(dp5171
g62
(dp5172
g89
g90
ssg71
g5161
sg64
(lp5173
S':'
asbag57
(g78
g59
NtRp5174
(dp5175
g62
(dp5176
sg71
g5161
sg64
(lp5177
g57
(g58
g59
NtRp5178
(dp5179
g62
(dp5180
g70
I3
ssg71
g5174
sg64
(lp5181
S'<class wsgiref.util.FileWrapper at 0x980905c>'
p5182
asbasbasbag57
(g73
g59
NtRp5183
(dp5184
g62
(dp5185
sg71
g4631
sg64
(lp5186
g57
(g78
g59
NtRp5187
(dp5188
g62
(dp5189
g82
g83
ssg71
g5183
sg64
(lp5190
S'wsgi.input'
p5191
asbag57
(g78
g59
NtRp5192
(dp5193
g62
(dp5194
g89
g90
ssg71
g5183
sg64
(lp5195
S':'
asbag57
(g78
g59
NtRp5196
(dp5197
g62
(dp5198
sg71
g5183
sg64
(lp5199
g57
(g58
g59
NtRp5200
(dp5201
g62
(dp5202
g70
I3
ssg71
g5196
sg64
(lp5203
S"<open file '<fdopen>', mode 'w+b' at 0xae221390>"
p5204
asbasbasbag57
(g73
g59
NtRp5205
(dp5206
g62
(dp5207
sg71
g4631
sg64
(lp5208
g57
(g78
g59
NtRp5209
(dp5210
g62
(dp5211
g82
g83
ssg71
g5205
sg64
(lp5212
S'wsgi.multiprocess'
p5213
asbag57
(g78
g59
NtRp5214
(dp5215
g62
(dp5216
g89
g90
ssg71
g5205
sg64
(lp5217
S':'
asbag57
(g78
g59
NtRp5218
(dp5219
g62
(dp5220
sg71
g5205
sg64
(lp5221
g57
(g58
g59
NtRp5222
(dp5223
g62
(dp5224
g70
I3
ssg71
g5218
sg64
(lp5225
g100
asbasbasbag57
(g73
g59
NtRp5226
(dp5227
g62
(dp5228
sg71
g4631
sg64
(lp5229
g57
(g78
g59
NtRp5230
(dp5231
g62
(dp5232
g82
g83
ssg71
g5226
sg64
(lp5233
S'wsgi.multithread'
p5234
asbag57
(g78
g59
NtRp5235
(dp5236
g62
(dp5237
g89
g90
ssg71
g5226
sg64
(lp5238
S':'
asbag57
(g78
g59
NtRp5239
(dp5240
g62
(dp5241
sg71
g5226
sg64
(lp5242
g57
(g58
g59
NtRp5243
(dp5244
g62
(dp5245
g70
I3
ssg71
g5239
sg64
(lp5246
g3736
asbasbasbag57
(g73
g59
NtRp5247
(dp5248
g62
(dp5249
sg71
g4631
sg64
(lp5250
g57
(g78
g59
NtRp5251
(dp5252
g62
(dp5253
g82
g83
ssg71
g5247
sg64
(lp5254
S'wsgi.run_once'
p5255
asbag57
(g78
g59
NtRp5256
(dp5257
g62
(dp5258
g89
g90
ssg71
g5247
sg64
(lp5259
S':'
asbag57
(g78
g59
NtRp5260
(dp5261
g62
(dp5262
sg71
g5247
sg64
(lp5263
g57
(g58
g59
NtRp5264
(dp5265
g62
(dp5266
g70
I3
ssg71
g5260
sg64
(lp5267
g100
asbasbasbag57
(g73
g59
NtRp5268
(dp5269
g62
(dp5270
sg71
g4631
sg64
(lp5271
g57
(g78
g59
NtRp5272
(dp5273
g62
(dp5274
g82
g83
ssg71
g5268
sg64
(lp5275
S'wsgi.url_scheme'
p5276
asbag57
(g78
g59
NtRp5277
(dp5278
g62
(dp5279
g89
g90
ssg71
g5268
sg64
(lp5280
S':'
asbag57
(g78
g59
NtRp5281
(dp5282
g62
(dp5283
sg71
g5268
sg64
(lp5284
g57
(g58
g59
NtRp5285
(dp5286
g62
(dp5287
g70
I3
ssg71
g5281
sg64
(lp5288
g3779
asbasbasbag57
(g73
g59
NtRp5289
(dp5290
g62
(dp5291
sg71
g4631
sg64
(lp5292
g57
(g78
g59
NtRp5293
(dp5294
g62
(dp5295
g82
g83
ssg71
g5289
sg64
(lp5296
S'wsgi.version'
p5297
asbag57
(g78
g59
NtRp5298
(dp5299
g62
(dp5300
g89
g90
ssg71
g5289
sg64
(lp5301
S':'
asbag57
(g78
g59
NtRp5302
(dp5303
g62
(dp5304
sg71
g5289
sg64
(lp5305
g57
(g58
g59
NtRp5306
(dp5307
g62
(dp5308
g70
I3
ssg71
g5302
sg64
(lp5309
S'1'
asbasbasbasbasbasbasbasbasbasbasbasbasbsS'frames'
p5310
(lp5311
(dp5312
S'file'
p5313
S'/home/pankaj/web2py/gluon/restricted.py'
p5314
sS'dump'
p5315
(dp5316
S'environment'
p5317
S"{'A': <class 'gluon.html.A'>, 'Auth': <class 'gluon.tools.Auth'>, 'B': <class 'gluon.html.B'>, 'BEAUTIFY': <class 'gluon.html.BEAUTIFY'>, 'BODY': <class 'gluon.html.BODY'>, 'BR': <class 'gluon.html.BR'>, 'BUTTON': <class 'gluon.html.BUTTON'>, 'CAT': <class 'gluon.html.CAT'>, 'CENTER': <class 'gluon.html.CENTER'>, 'CLEANUP': <class 'gluon.validators.CLEANUP'>, ...}"
p5318
sS'ccode'
p5319
S'<code object <module> at 0x9ef1260, file "/home/...ns/reddit/views/default/displaycat.html", line 1>'
p5320
ssS'lnum'
p5321
I212
sS'lines'
p5322
(dp5323
I207
S'    try:'
p5324
sI208
S'        if isinstance(code, types.CodeType):'
p5325
sI209
S'            ccode = code'
p5326
sI210
S'        else:'
p5327
sI211
S'            ccode = compile2(code, layer)'
p5328
sI212
S'        exec ccode in environment'
p5329
sI213
S'    except HTTP:'
p5330
sI214
S'        raise'
p5331
sI215
S'    except RestrictedError:'
p5332
sI216
S'        # do not encapsulate (obfuscate) the original RestrictedError'
p5333
ssS'call'
p5334
S'(code=\'response.write(\\\'<!DOCTYPE html>\\\\n<!-- paulirish...."></script>\\\\n</body>\\\\n</html>\\\\n\\\\n\\\', escape=False)\', environment={\'A\': <class \'gluon.html.A\'>, \'Auth\': <class \'gluon.tools.Auth\'>, \'B\': <class \'gluon.html.B\'>, \'BEAUTIFY\': <class \'gluon.html.BEAUTIFY\'>, \'BODY\': <class \'gluon.html.BODY\'>, \'BR\': <class \'gluon.html.BR\'>, \'BUTTON\': <class \'gluon.html.BUTTON\'>, \'CAT\': <class \'gluon.html.CAT\'>, \'CENTER\': <class \'gluon.html.CENTER\'>, \'CLEANUP\': <class \'gluon.validators.CLEANUP\'>, ...}, layer=\'/home/pankaj/web2py/applications/reddit/views/default/displaycat.html\')'
p5335
sS'func'
p5336
S'restricted'
p5337
sa(dp5338
g5313
S'/home/pankaj/web2py/applications/reddit/views/default/displaycat.html'
p5339
sg5315
(dp5340
sg5321
I81
sg5322
(dp5341
I72
S'    response.write(\'\\n        <div class="span3 left-sidebar">\\n            \', escape=False)'
p5342
sI73
S"    response.write('\\n            <h3>Left Sidebar</h3>\\n            <p></p>\\n            ', escape=False)"
p5343
sI74
S"    response.write('\\n        </div>\\n        ', escape=False)"
p5344
sI75
S'    pass'
p5345
sI76
S'response.write(\'\\n\\n        <div class="\', escape=False)'
p5346
sI77
S'response.write(middle_columns)'
p5347
sI78
S'response.write(\'">\\n            \', escape=False)'
p5348
sI79
S"response.write('\\n            ', escape=False)"
p5349
sI80
S'response.write(\'\\n<form action="index" method="post">\\n\\t<button type="submit" name="catid" value="\', escape=False)'
p5350
sI81
S"response.write(k['id'])"
p5351
sI82
S'response.write(\'">ALL</button>\\n</form>\\n\', escape=False)'
p5352
sI83
S'for k in catg:'
p5353
sI84
S'    response.write(\'\\n<form action="displaycat" method="post">\\n\\t<button type="submit" name="catid" value="\', escape=False)'
p5354
sI85
S"    response.write(k['id'])"
p5355
sI86
S'    response.write(\'">\', escape=False)'
p5356
sI87
S"    response.write(k['name'])"
p5357
sI88
S"    response.write('</button>\\n</form>\\n', escape=False)"
p5358
sI89
S'    pass'
p5359
sI90
S"response.write('\\n', escape=False)"
p5360
sI91
S'for l in nstore:'
p5361
ssg5334
S'()'
p5362
sg5336
S'<module>'
p5363
sasS'pyver'
p5364
S'Python 2.7.3: /usr/bin/python'
p5365
sS'session'
p5366
g57
(g58
g59
NtRp5367
(dp5368
g62
(dp5369
sg64
(lp5370
g57
(g66
g59
NtRp5371
(dp5372
g62
(dp5373
g70
I5
ssg71
Nsg64
(lp5374
g57
(g73
g59
NtRp5375
(dp5376
g62
(dp5377
sg71
g5371
sg64
(lp5378
g57
(g78
g59
NtRp5379
(dp5380
g62
(dp5381
g82
g83
ssg71
g5375
sg64
(lp5382
S'auth'
p5383
asbag57
(g78
g59
NtRp5384
(dp5385
g62
(dp5386
g89
g90
ssg71
g5375
sg64
(lp5387
S':'
asbag57
(g78
g59
NtRp5388
(dp5389
g62
(dp5390
sg71
g5375
sg64
(lp5391
g57
(g58
g59
NtRp5392
(dp5393
g62
(dp5394
g70
I5
ssg71
g5388
sg64
(lp5395
g57
(g66
g59
NtRp5396
(dp5397
g62
(dp5398
g70
I4
ssg71
Nsg64
(lp5399
g57
(g73
g59
NtRp5400
(dp5401
g62
(dp5402
sg71
g5396
sg64
(lp5403
g57
(g78
g59
NtRp5404
(dp5405
g62
(dp5406
g82
g83
ssg71
g5400
sg64
(lp5407
S'expiration'
p5408
asbag57
(g78
g59
NtRp5409
(dp5410
g62
(dp5411
g89
g90
ssg71
g5400
sg64
(lp5412
S':'
asbag57
(g78
g59
NtRp5413
(dp5414
g62
(dp5415
sg71
g5400
sg64
(lp5416
g57
(g58
g59
NtRp5417
(dp5418
g62
(dp5419
g70
I4
ssg71
g5413
sg64
(lp5420
S'2592000'
p5421
asbasbasbag57
(g73
g59
NtRp5422
(dp5423
g62
(dp5424
sg71
g5396
sg64
(lp5425
g57
(g78
g59
NtRp5426
(dp5427
g62
(dp5428
g82
g83
ssg71
g5422
sg64
(lp5429
S'hmac_key'
p5430
asbag57
(g78
g59
NtRp5431
(dp5432
g62
(dp5433
g89
g90
ssg71
g5422
sg64
(lp5434
S':'
asbag57
(g78
g59
NtRp5435
(dp5436
g62
(dp5437
sg71
g5422
sg64
(lp5438
g57
(g58
g59
NtRp5439
(dp5440
g62
(dp5441
g70
I4
ssg71
g5435
sg64
(lp5442
S'f8ac37ec-2036-4076-bffe-8306279ac35a'
p5443
asbasbasbag57
(g73
g59
NtRp5444
(dp5445
g62
(dp5446
sg71
g5396
sg64
(lp5447
g57
(g78
g59
NtRp5448
(dp5449
g62
(dp5450
g82
g83
ssg71
g5444
sg64
(lp5451
S'last_visit'
p5452
asbag57
(g78
g59
NtRp5453
(dp5454
g62
(dp5455
g89
g90
ssg71
g5444
sg64
(lp5456
S':'
asbag57
(g78
g59
NtRp5457
(dp5458
g62
(dp5459
sg71
g5444
sg64
(lp5460
g57
(g58
g59
NtRp5461
(dp5462
g62
(dp5463
g70
I4
ssg71
g5457
sg64
(lp5464
S'datetime.datetime(2013, 8, 30, 1, 8, 1, 584665)'
p5465
asbasbasbag57
(g73
g59
NtRp5466
(dp5467
g62
(dp5468
sg71
g5396
sg64
(lp5469
g57
(g78
g59
NtRp5470
(dp5471
g62
(dp5472
g82
g83
ssg71
g5466
sg64
(lp5473
S'remember'
p5474
asbag57
(g78
g59
NtRp5475
(dp5476
g62
(dp5477
g89
g90
ssg71
g5466
sg64
(lp5478
S':'
asbag57
(g78
g59
NtRp5479
(dp5480
g62
(dp5481
sg71
g5466
sg64
(lp5482
g57
(g58
g59
NtRp5483
(dp5484
g62
(dp5485
g70
I4
ssg71
g5479
sg64
(lp5486
g3736
asbasbasbag57
(g73
g59
NtRp5487
(dp5488
g62
(dp5489
sg71
g5396
sg64
(lp5490
g57
(g78
g59
NtRp5491
(dp5492
g62
(dp5493
g82
g83
ssg71
g5487
sg64
(lp5494
S'user'
p5495
asbag57
(g78
g59
NtRp5496
(dp5497
g62
(dp5498
g89
g90
ssg71
g5487
sg64
(lp5499
S':'
asbag57
(g78
g59
NtRp5500
(dp5501
g62
(dp5502
sg71
g5487
sg64
(lp5503
g57
(g58
g59
NtRp5504
(dp5505
g62
(dp5506
g70
I4
ssg71
g5500
sg64
(lp5507
g57
(g66
g59
NtRp5508
(dp5509
g62
(dp5510
g70
I3
ssg71
Nsg64
(lp5511
g57
(g73
g59
NtRp5512
(dp5513
g62
(dp5514
sg71
g5508
sg64
(lp5515
g57
(g78
g59
NtRp5516
(dp5517
g62
(dp5518
g82
g83
ssg71
g5512
sg64
(lp5519
S'email'
p5520
asbag57
(g78
g59
NtRp5521
(dp5522
g62
(dp5523
g89
g90
ssg71
g5512
sg64
(lp5524
S':'
asbag57
(g78
g59
NtRp5525
(dp5526
g62
(dp5527
sg71
g5512
sg64
(lp5528
g57
(g58
g59
NtRp5529
(dp5530
g62
(dp5531
g70
I3
ssg71
g5525
sg64
(lp5532
S'pankaj@gmail.com'
p5533
asbasbasbag57
(g73
g59
NtRp5534
(dp5535
g62
(dp5536
sg71
g5508
sg64
(lp5537
g57
(g78
g59
NtRp5538
(dp5539
g62
(dp5540
g82
g83
ssg71
g5534
sg64
(lp5541
S'first_name'
p5542
asbag57
(g78
g59
NtRp5543
(dp5544
g62
(dp5545
g89
g90
ssg71
g5534
sg64
(lp5546
S':'
asbag57
(g78
g59
NtRp5547
(dp5548
g62
(dp5549
sg71
g5534
sg64
(lp5550
g57
(g58
g59
NtRp5551
(dp5552
g62
(dp5553
g70
I3
ssg71
g5547
sg64
(lp5554
S'pankaj'
p5555
asbasbasbag57
(g73
g59
NtRp5556
(dp5557
g62
(dp5558
sg71
g5508
sg64
(lp5559
g57
(g78
g59
NtRp5560
(dp5561
g62
(dp5562
g82
g83
ssg71
g5556
sg64
(lp5563
S'id'
p5564
asbag57
(g78
g59
NtRp5565
(dp5566
g62
(dp5567
g89
g90
ssg71
g5556
sg64
(lp5568
S':'
asbag57
(g78
g59
NtRp5569
(dp5570
g62
(dp5571
sg71
g5556
sg64
(lp5572
g57
(g58
g59
NtRp5573
(dp5574
g62
(dp5575
g70
I3
ssg71
g5569
sg64
(lp5576
S'1'
asbasbasbag57
(g73
g59
NtRp5577
(dp5578
g62
(dp5579
sg71
g5508
sg64
(lp5580
g57
(g78
g59
NtRp5581
(dp5582
g62
(dp5583
g82
g83
ssg71
g5577
sg64
(lp5584
S'last_name'
p5585
asbag57
(g78
g59
NtRp5586
(dp5587
g62
(dp5588
g89
g90
ssg71
g5577
sg64
(lp5589
S':'
asbag57
(g78
g59
NtRp5590
(dp5591
g62
(dp5592
sg71
g5577
sg64
(lp5593
g57
(g58
g59
NtRp5594
(dp5595
g62
(dp5596
g70
I3
ssg71
g5590
sg64
(lp5597
S'malhotra'
p5598
asbasbasbag57
(g73
g59
NtRp5599
(dp5600
g62
(dp5601
sg71
g5508
sg64
(lp5602
g57
(g78
g59
NtRp5603
(dp5604
g62
(dp5605
g82
g83
ssg71
g5599
sg64
(lp5606
S'registration_id'
p5607
asbag57
(g78
g59
NtRp5608
(dp5609
g62
(dp5610
g89
g90
ssg71
g5599
sg64
(lp5611
S':'
asbag57
(g78
g59
NtRp5612
(dp5613
g62
(dp5614
sg71
g5599
sg64
(lp5615
g57
(g58
g59
NtRp5616
(dp5617
g62
(dp5618
g70
I3
ssg71
g5612
sg64
(lp5619
S''
asbasbasbag57
(g73
g59
NtRp5620
(dp5621
g62
(dp5622
sg71
g5508
sg64
(lp5623
g57
(g78
g59
NtRp5624
(dp5625
g62
(dp5626
g82
g83
ssg71
g5620
sg64
(lp5627
S'registration_key'
p5628
asbag57
(g78
g59
NtRp5629
(dp5630
g62
(dp5631
g89
g90
ssg71
g5620
sg64
(lp5632
S':'
asbag57
(g78
g59
NtRp5633
(dp5634
g62
(dp5635
sg71
g5620
sg64
(lp5636
g57
(g58
g59
NtRp5637
(dp5638
g62
(dp5639
g70
I3
ssg71
g5633
sg64
(lp5640
S''
asbasbasbag57
(g73
g59
NtRp5641
(dp5642
g62
(dp5643
sg71
g5508
sg64
(lp5644
g57
(g78
g59
NtRp5645
(dp5646
g62
(dp5647
g82
g83
ssg71
g5641
sg64
(lp5648
S'reset_password_key'
p5649
asbag57
(g78
g59
NtRp5650
(dp5651
g62
(dp5652
g89
g90
ssg71
g5641
sg64
(lp5653
S':'
asbag57
(g78
g59
NtRp5654
(dp5655
g62
(dp5656
sg71
g5641
sg64
(lp5657
g57
(g58
g59
NtRp5658
(dp5659
g62
(dp5660
g70
I3
ssg71
g5654
sg64
(lp5661
S''
asbasbasbasbasbasbasbag57
(g73
g59
NtRp5662
(dp5663
g62
(dp5664
sg71
g5396
sg64
(lp5665
g57
(g78
g59
NtRp5666
(dp5667
g62
(dp5668
g82
g83
ssg71
g5662
sg64
(lp5669
S'user_groups'
p5670
asbag57
(g78
g59
NtRp5671
(dp5672
g62
(dp5673
g89
g90
ssg71
g5662
sg64
(lp5674
S':'
asbag57
(g78
g59
NtRp5675
(dp5676
g62
(dp5677
sg71
g5662
sg64
(lp5678
g57
(g58
g59
NtRp5679
(dp5680
g62
(dp5681
g70
I4
ssg71
g5675
sg64
(lp5682
g57
(g66
g59
NtRp5683
(dp5684
g62
(dp5685
g70
I3
ssg71
Nsg64
(lp5686
g57
(g73
g59
NtRp5687
(dp5688
g62
(dp5689
sg71
g5683
sg64
(lp5690
g57
(g78
g59
NtRp5691
(dp5692
g62
(dp5693
g82
g83
ssg71
g5687
sg64
(lp5694
S'1'
asbag57
(g78
g59
NtRp5695
(dp5696
g62
(dp5697
g89
g90
ssg71
g5687
sg64
(lp5698
S':'
asbag57
(g78
g59
NtRp5699
(dp5700
g62
(dp5701
sg71
g5687
sg64
(lp5702
g57
(g58
g59
NtRp5703
(dp5704
g62
(dp5705
g70
I3
ssg71
g5699
sg64
(lp5706
S'user_1'
p5707
asbasbasbasbasbasbasbasbasbasbasbag57
(g73
g59
NtRp5708
(dp5709
g62
(dp5710
sg71
g5371
sg64
(lp5711
g57
(g78
g59
NtRp5712
(dp5713
g62
(dp5714
g82
g83
ssg71
g5708
sg64
(lp5715
S'flash'
p5716
asbag57
(g78
g59
NtRp5717
(dp5718
g62
(dp5719
g89
g90
ssg71
g5708
sg64
(lp5720
S':'
asbag57
(g78
g59
NtRp5721
(dp5722
g62
(dp5723
sg71
g5708
sg64
(lp5724
g57
(g58
g59
NtRp5725
(dp5726
g62
(dp5727
g70
I5
ssg71
g5721
sg64
(lp5728
S'None'
p5729
asbasbasbag57
(g73
g59
NtRp5730
(dp5731
g62
(dp5732
sg71
g5371
sg64
(lp5733
g57
(g78
g59
NtRp5734
(dp5735
g62
(dp5736
g82
g83
ssg71
g5730
sg64
(lp5737
S'last_orderby'
p5738
asbag57
(g78
g59
NtRp5739
(dp5740
g62
(dp5741
g89
g90
ssg71
g5730
sg64
(lp5742
S':'
asbag57
(g78
g59
NtRp5743
(dp5744
g62
(dp5745
sg71
g5730
sg64
(lp5746
g57
(g58
g59
NtRp5747
(dp5748
g62
(dp5749
g70
I5
ssg71
g5743
sg64
(lp5750
S'None'
p5751
asbasbasbag57
(g73
g59
NtRp5752
(dp5753
g62
(dp5754
sg71
g5371
sg64
(lp5755
g57
(g78
g59
NtRp5756
(dp5757
g62
(dp5758
g82
g83
ssg71
g5752
sg64
(lp5759
S'last_query'
p5760
asbag57
(g78
g59
NtRp5761
(dp5762
g62
(dp5763
g89
g90
ssg71
g5752
sg64
(lp5764
S':'
asbag57
(g78
g59
NtRp5765
(dp5766
g62
(dp5767
sg71
g5752
sg64
(lp5768
g57
(g58
g59
NtRp5769
(dp5770
g62
(dp5771
g70
I5
ssg71
g5765
sg64
(lp5772
S'db.news.id>0'
p5773
asbasbasbasbasbsS'etype'
p5774
S"<type 'exceptions.NameError'>"
p5775
sS'date'
p5776
S'Fri Aug 30 03:20:16 2013'
p5777
sS'response'
p5778
g57
(g58
g59
NtRp5779
(dp5780
g62
(dp5781
sg64
(lp5782
g57
(g66
g59
NtRp5783
(dp5784
g62
(dp5785
g70
I5
ssg71
Nsg64
(lp5786
g57
(g73
g59
NtRp5787
(dp5788
g62
(dp5789
sg71
g5783
sg64
(lp5790
g57
(g78
g59
NtRp5791
(dp5792
g62
(dp5793
g82
g83
ssg71
g5787
sg64
(lp5794
g155
asbag57
(g78
g59
NtRp5795
(dp5796
g62
(dp5797
g89
g90
ssg71
g5787
sg64
(lp5798
S':'
asbag57
(g78
g59
NtRp5799
(dp5800
g62
(dp5801
sg71
g5787
sg64
(lp5802
g57
(g58
g59
NtRp5803
(dp5804
g62
(dp5805
g70
I5
ssg71
g5799
sg64
(lp5806
S'<cStringIO.StringO object at 0xadc66f00>'
p5807
asbasbasbag57
(g73
g59
NtRp5808
(dp5809
g62
(dp5810
sg71
g5783
sg64
(lp5811
g57
(g78
g59
NtRp5812
(dp5813
g62
(dp5814
g82
g83
ssg71
g5808
sg64
(lp5815
g243
asbag57
(g78
g59
NtRp5816
(dp5817
g62
(dp5818
g89
g90
ssg71
g5808
sg64
(lp5819
S':'
asbag57
(g78
g59
NtRp5820
(dp5821
g62
(dp5822
sg71
g5808
sg64
(lp5823
g57
(g58
g59
NtRp5824
(dp5825
g62
(dp5826
g70
I5
ssg71
g5820
sg64
(lp5827
g57
(g66
g59
NtRp5828
(dp5829
g62
(dp5830
g70
I4
ssg71
Nsg64
(lp5831
g57
(g73
g59
NtRp5832
(dp5833
g62
(dp5834
sg71
g5828
sg64
(lp5835
g57
(g78
g59
NtRp5836
(dp5837
g62
(dp5838
g82
g83
ssg71
g5832
sg64
(lp5839
S'session_id_reddit'
p5840
asbag57
(g78
g59
NtRp5841
(dp5842
g62
(dp5843
g89
g90
ssg71
g5832
sg64
(lp5844
S':'
asbag57
(g78
g59
NtRp5845
(dp5846
g62
(dp5847
sg71
g5832
sg64
(lp5848
g57
(g58
g59
NtRp5849
(dp5850
g62
(dp5851
g70
I4
ssg71
g5845
sg64
(lp5852
g1777
ag57
(g66
g59
NtRp5853
(dp5854
g62
(dp5855
g70
I3
ssg71
Nsg64
(lp5856
g57
(g73
g59
NtRp5857
(dp5858
g62
(dp5859
sg71
g5853
sg64
(lp5860
g57
(g78
g59
NtRp5861
(dp5862
g62
(dp5863
g82
g83
ssg71
g5857
sg64
(lp5864
g294
asbag57
(g78
g59
NtRp5865
(dp5866
g62
(dp5867
g89
g90
ssg71
g5857
sg64
(lp5868
S':'
asbag57
(g78
g59
NtRp5869
(dp5870
g62
(dp5871
sg71
g5857
sg64
(lp5872
g57
(g58
g59
NtRp5873
(dp5874
g62
(dp5875
g70
I3
ssg71
g5869
sg64
(lp5876
S''
asbasbasbag57
(g73
g59
NtRp5877
(dp5878
g62
(dp5879
sg71
g5853
sg64
(lp5880
g57
(g78
g59
NtRp5881
(dp5882
g62
(dp5883
g82
g83
ssg71
g5877
sg64
(lp5884
g315
asbag57
(g78
g59
NtRp5885
(dp5886
g62
(dp5887
g89
g90
ssg71
g5877
sg64
(lp5888
S':'
asbag57
(g78
g59
NtRp5889
(dp5890
g62
(dp5891
sg71
g5877
sg64
(lp5892
g57
(g58
g59
NtRp5893
(dp5894
g62
(dp5895
g70
I3
ssg71
g5889
sg64
(lp5896
S''
asbasbasbag57
(g73
g59
NtRp5897
(dp5898
g62
(dp5899
sg71
g5853
sg64
(lp5900
g57
(g78
g59
NtRp5901
(dp5902
g62
(dp5903
g82
g83
ssg71
g5897
sg64
(lp5904
g336
asbag57
(g78
g59
NtRp5905
(dp5906
g62
(dp5907
g89
g90
ssg71
g5897
sg64
(lp5908
S':'
asbag57
(g78
g59
NtRp5909
(dp5910
g62
(dp5911
sg71
g5897
sg64
(lp5912
g57
(g58
g59
NtRp5913
(dp5914
g62
(dp5915
g70
I3
ssg71
g5909
sg64
(lp5916
S'2592000'
p5917
asbasbasbag57
(g73
g59
NtRp5918
(dp5919
g62
(dp5920
sg71
g5853
sg64
(lp5921
g57
(g78
g59
NtRp5922
(dp5923
g62
(dp5924
g82
g83
ssg71
g5918
sg64
(lp5925
g357
asbag57
(g78
g59
NtRp5926
(dp5927
g62
(dp5928
g89
g90
ssg71
g5918
sg64
(lp5929
S':'
asbag57
(g78
g59
NtRp5930
(dp5931
g62
(dp5932
sg71
g5918
sg64
(lp5933
g57
(g58
g59
NtRp5934
(dp5935
g62
(dp5936
g70
I3
ssg71
g5930
sg64
(lp5937
S''
asbasbasbag57
(g73
g59
NtRp5938
(dp5939
g62
(dp5940
sg71
g5853
sg64
(lp5941
g57
(g78
g59
NtRp5942
(dp5943
g62
(dp5944
g82
g83
ssg71
g5938
sg64
(lp5945
g378
asbag57
(g78
g59
NtRp5946
(dp5947
g62
(dp5948
g89
g90
ssg71
g5938
sg64
(lp5949
S':'
asbag57
(g78
g59
NtRp5950
(dp5951
g62
(dp5952
sg71
g5938
sg64
(lp5953
g57
(g58
g59
NtRp5954
(dp5955
g62
(dp5956
g70
I3
ssg71
g5950
sg64
(lp5957
S''
asbasbasbag57
(g73
g59
NtRp5958
(dp5959
g62
(dp5960
sg71
g5853
sg64
(lp5961
g57
(g78
g59
NtRp5962
(dp5963
g62
(dp5964
g82
g83
ssg71
g5958
sg64
(lp5965
g399
asbag57
(g78
g59
NtRp5966
(dp5967
g62
(dp5968
g89
g90
ssg71
g5958
sg64
(lp5969
S':'
asbag57
(g78
g59
NtRp5970
(dp5971
g62
(dp5972
sg71
g5958
sg64
(lp5973
g57
(g58
g59
NtRp5974
(dp5975
g62
(dp5976
g70
I3
ssg71
g5970
sg64
(lp5977
S'/'
asbasbasbag57
(g73
g59
NtRp5978
(dp5979
g62
(dp5980
sg71
g5853
sg64
(lp5981
g57
(g78
g59
NtRp5982
(dp5983
g62
(dp5984
g82
g83
ssg71
g5978
sg64
(lp5985
g420
asbag57
(g78
g59
NtRp5986
(dp5987
g62
(dp5988
g89
g90
ssg71
g5978
sg64
(lp5989
S':'
asbag57
(g78
g59
NtRp5990
(dp5991
g62
(dp5992
sg71
g5978
sg64
(lp5993
g57
(g58
g59
NtRp5994
(dp5995
g62
(dp5996
g70
I3
ssg71
g5990
sg64
(lp5997
S''
asbasbasbag57
(g73
g59
NtRp5998
(dp5999
g62
(dp6000
sg71
g5853
sg64
(lp6001
g57
(g78
g59
NtRp6002
(dp6003
g62
(dp6004
g82
g83
ssg71
g5998
sg64
(lp6005
g441
asbag57
(g78
g59
NtRp6006
(dp6007
g62
(dp6008
g89
g90
ssg71
g5998
sg64
(lp6009
S':'
asbag57
(g78
g59
NtRp6010
(dp6011
g62
(dp6012
sg71
g5998
sg64
(lp6013
g57
(g58
g59
NtRp6014
(dp6015
g62
(dp6016
g70
I3
ssg71
g6010
sg64
(lp6017
S''
asbasbasbasbasbasbasbasbasbasbasbag57
(g73
g59
NtRp6018
(dp6019
g62
(dp6020
sg71
g5783
sg64
(lp6021
g57
(g78
g59
NtRp6022
(dp6023
g62
(dp6024
g82
g83
ssg71
g6018
sg64
(lp6025
S'delimiters'
p6026
asbag57
(g78
g59
NtRp6027
(dp6028
g62
(dp6029
g89
g90
ssg71
g6018
sg64
(lp6030
S':'
asbag57
(g78
g59
NtRp6031
(dp6032
g62
(dp6033
sg71
g6018
sg64
(lp6034
g57
(g58
g59
NtRp6035
(dp6036
g62
(dp6037
g70
I5
ssg71
g6031
sg64
(lp6038
g57
(g66
g59
NtRp6039
(dp6040
g62
(dp6041
g70
I4
ssg71
Nsg64
(lp6042
g57
(g73
g59
NtRp6043
(dp6044
g62
(dp6045
sg71
g6039
sg64
(lp6046
g57
(g78
g59
NtRp6047
(dp6048
g62
(dp6049
sg71
g6043
sg64
(lp6050
g57
(g58
g59
NtRp6051
(dp6052
g62
(dp6053
g70
I4
ssg71
g6047
sg64
(lp6054
S'{{'
p6055
asbasbasbag57
(g73
g59
NtRp6056
(dp6057
g62
(dp6058
sg71
g6039
sg64
(lp6059
g57
(g78
g59
NtRp6060
(dp6061
g62
(dp6062
sg71
g6056
sg64
(lp6063
g57
(g58
g59
NtRp6064
(dp6065
g62
(dp6066
g70
I4
ssg71
g6060
sg64
(lp6067
S'}}'
p6068
asbasbasbasbasbasbasbag57
(g73
g59
NtRp6069
(dp6070
g62
(dp6071
sg71
g5783
sg64
(lp6072
g57
(g78
g59
NtRp6073
(dp6074
g62
(dp6075
g82
g83
ssg71
g6069
sg64
(lp6076
S'files'
p6077
asbag57
(g78
g59
NtRp6078
(dp6079
g62
(dp6080
g89
g90
ssg71
g6069
sg64
(lp6081
S':'
asbag57
(g78
g59
NtRp6082
(dp6083
g62
(dp6084
sg71
g6069
sg64
(lp6085
g57
(g58
g59
NtRp6086
(dp6087
g62
(dp6088
g70
I5
ssg71
g6082
sg64
(lp6089
g57
(g66
g59
NtRp6090
(dp6091
g62
(dp6092
g70
I4
ssg71
Nsg64
(lp6093
g57
(g73
g59
NtRp6094
(dp6095
g62
(dp6096
sg71
g6090
sg64
(lp6097
g57
(g78
g59
NtRp6098
(dp6099
g62
(dp6100
sg71
g6094
sg64
(lp6101
g57
(g58
g59
NtRp6102
(dp6103
g62
(dp6104
g70
I4
ssg71
g6098
sg64
(lp6105
S'/reddit/static/js/jquery.js'
p6106
asbasbasbag57
(g73
g59
NtRp6107
(dp6108
g62
(dp6109
sg71
g6090
sg64
(lp6110
g57
(g78
g59
NtRp6111
(dp6112
g62
(dp6113
sg71
g6107
sg64
(lp6114
g57
(g58
g59
NtRp6115
(dp6116
g62
(dp6117
g70
I4
ssg71
g6111
sg64
(lp6118
S'/reddit/static/css/calendar.css'
p6119
asbasbasbag57
(g73
g59
NtRp6120
(dp6121
g62
(dp6122
sg71
g6090
sg64
(lp6123
g57
(g78
g59
NtRp6124
(dp6125
g62
(dp6126
sg71
g6120
sg64
(lp6127
g57
(g58
g59
NtRp6128
(dp6129
g62
(dp6130
g70
I4
ssg71
g6124
sg64
(lp6131
S'/reddit/static/js/calendar.js'
p6132
asbasbasbag57
(g73
g59
NtRp6133
(dp6134
g62
(dp6135
sg71
g6090
sg64
(lp6136
g57
(g78
g59
NtRp6137
(dp6138
g62
(dp6139
sg71
g6133
sg64
(lp6140
g57
(g58
g59
NtRp6141
(dp6142
g62
(dp6143
g70
I4
ssg71
g6137
sg64
(lp6144
S'/reddit/static/js/web2py.js'
p6145
asbasbasbag57
(g73
g59
NtRp6146
(dp6147
g62
(dp6148
sg71
g6090
sg64
(lp6149
g57
(g78
g59
NtRp6150
(dp6151
g62
(dp6152
sg71
g6146
sg64
(lp6153
g57
(g58
g59
NtRp6154
(dp6155
g62
(dp6156
g70
I4
ssg71
g6150
sg64
(lp6157
S'/reddit/static/css/web2py.css'
p6158
asbasbasbag57
(g73
g59
NtRp6159
(dp6160
g62
(dp6161
sg71
g6090
sg64
(lp6162
g57
(g78
g59
NtRp6163
(dp6164
g62
(dp6165
sg71
g6159
sg64
(lp6166
g57
(g58
g59
NtRp6167
(dp6168
g62
(dp6169
g70
I4
ssg71
g6163
sg64
(lp6170
S'/reddit/static/css/bootstrap.min.css'
p6171
asbasbasbag57
(g73
g59
NtRp6172
(dp6173
g62
(dp6174
sg71
g6090
sg64
(lp6175
g57
(g78
g59
NtRp6176
(dp6177
g62
(dp6178
sg71
g6172
sg64
(lp6179
g57
(g58
g59
NtRp6180
(dp6181
g62
(dp6182
g70
I4
ssg71
g6176
sg64
(lp6183
S'/reddit/static/css/bootstrap-responsive.min.css'
p6184
asbasbasbag57
(g73
g59
NtRp6185
(dp6186
g62
(dp6187
sg71
g6090
sg64
(lp6188
g57
(g78
g59
NtRp6189
(dp6190
g62
(dp6191
sg71
g6185
sg64
(lp6192
g57
(g58
g59
NtRp6193
(dp6194
g62
(dp6195
g70
I4
ssg71
g6189
sg64
(lp6196
S'/reddit/static/css/web2py_bootstrap.css'
p6197
asbasbasbasbasbasbasbag57
(g73
g59
NtRp6198
(dp6199
g62
(dp6200
sg71
g5783
sg64
(lp6201
g57
(g78
g59
NtRp6202
(dp6203
g62
(dp6204
g82
g83
ssg71
g6198
sg64
(lp6205
S'flash'
p6206
asbag57
(g78
g59
NtRp6207
(dp6208
g62
(dp6209
g89
g90
ssg71
g6198
sg64
(lp6210
S':'
asbag57
(g78
g59
NtRp6211
(dp6212
g62
(dp6213
sg71
g6198
sg64
(lp6214
g57
(g58
g59
NtRp6215
(dp6216
g62
(dp6217
g70
I5
ssg71
g6211
sg64
(lp6218
S''
asbasbasbag57
(g73
g59
NtRp6219
(dp6220
g62
(dp6221
sg71
g5783
sg64
(lp6222
g57
(g78
g59
NtRp6223
(dp6224
g62
(dp6225
g82
g83
ssg71
g6219
sg64
(lp6226
S'generic_patterns'
p6227
asbag57
(g78
g59
NtRp6228
(dp6229
g62
(dp6230
g89
g90
ssg71
g6219
sg64
(lp6231
S':'
asbag57
(g78
g59
NtRp6232
(dp6233
g62
(dp6234
sg71
g6219
sg64
(lp6235
g57
(g58
g59
NtRp6236
(dp6237
g62
(dp6238
g70
I5
ssg71
g6232
sg64
(lp6239
g57
(g66
g59
NtRp6240
(dp6241
g62
(dp6242
g70
I4
ssg71
Nsg64
(lp6243
g57
(g73
g59
NtRp6244
(dp6245
g62
(dp6246
sg71
g6240
sg64
(lp6247
g57
(g78
g59
NtRp6248
(dp6249
g62
(dp6250
sg71
g6244
sg64
(lp6251
g57
(g58
g59
NtRp6252
(dp6253
g62
(dp6254
g70
I4
ssg71
g6248
sg64
(lp6255
S'*'
asbasbasbasbasbasbasbag57
(g73
g59
NtRp6256
(dp6257
g62
(dp6258
sg71
g5783
sg64
(lp6259
g57
(g78
g59
NtRp6260
(dp6261
g62
(dp6262
g82
g83
ssg71
g6256
sg64
(lp6263
S'google_analytics_id'
p6264
asbag57
(g78
g59
NtRp6265
(dp6266
g62
(dp6267
g89
g90
ssg71
g6256
sg64
(lp6268
S':'
asbag57
(g78
g59
NtRp6269
(dp6270
g62
(dp6271
sg71
g6256
sg64
(lp6272
g57
(g58
g59
NtRp6273
(dp6274
g62
(dp6275
g70
I5
ssg71
g6269
sg64
(lp6276
S'None'
p6277
asbasbasbag57
(g73
g59
NtRp6278
(dp6279
g62
(dp6280
sg71
g5783
sg64
(lp6281
g57
(g78
g59
NtRp6282
(dp6283
g62
(dp6284
g82
g83
ssg71
g6278
sg64
(lp6285
S'headers'
p6286
asbag57
(g78
g59
NtRp6287
(dp6288
g62
(dp6289
g89
g90
ssg71
g6278
sg64
(lp6290
S':'
asbag57
(g78
g59
NtRp6291
(dp6292
g62
(dp6293
sg71
g6278
sg64
(lp6294
g57
(g58
g59
NtRp6295
(dp6296
g62
(dp6297
g70
I5
ssg71
g6291
sg64
(lp6298
g57
(g66
g59
NtRp6299
(dp6300
g62
(dp6301
g70
I4
ssg71
Nsg64
(lp6302
g57
(g73
g59
NtRp6303
(dp6304
g62
(dp6305
sg71
g6299
sg64
(lp6306
g57
(g78
g59
NtRp6307
(dp6308
g62
(dp6309
g82
g83
ssg71
g6303
sg64
(lp6310
S'X-Powered-By'
p6311
asbag57
(g78
g59
NtRp6312
(dp6313
g62
(dp6314
g89
g90
ssg71
g6303
sg64
(lp6315
S':'
asbag57
(g78
g59
NtRp6316
(dp6317
g62
(dp6318
sg71
g6303
sg64
(lp6319
g57
(g58
g59
NtRp6320
(dp6321
g62
(dp6322
g70
I4
ssg71
g6316
sg64
(lp6323
S'web2py'
p6324
asbasbasbasbasbasbasbag57
(g73
g59
NtRp6325
(dp6326
g62
(dp6327
sg71
g5783
sg64
(lp6328
g57
(g78
g59
NtRp6329
(dp6330
g62
(dp6331
g82
g83
ssg71
g6325
sg64
(lp6332
S'logo'
p6333
asbag57
(g78
g59
NtRp6334
(dp6335
g62
(dp6336
g89
g90
ssg71
g6325
sg64
(lp6337
S':'
asbag57
(g78
g59
NtRp6338
(dp6339
g62
(dp6340
sg71
g6325
sg64
(lp6341
g57
(g58
g59
NtRp6342
(dp6343
g62
(dp6344
g70
I5
ssg71
g6338
sg64
(lp6345
g57
(cgluon.html
A
p6346
g59
NtRp6347
(dp6348
g62
(dp6349
S'_class'
p6350
S'brand'
p6351
sS'_href'
p6352
S'http://www.web2py.com/'
p6353
ssg71
Nsg64
(lp6354
g57
(cgluon.html
B
p6355
g59
NtRp6356
(dp6357
g62
(dp6358
sg71
g6347
sg64
(lp6359
S'web'
p6360
ag57
(cgluon.html
SPAN
p6361
g59
NtRp6362
(dp6363
g62
(dp6364
sg71
g6356
sg64
(lp6365
I2
asbaS'py'
p6366
asbacgluon.html
XML_unpickle
p6367
(S's\r\x00\x00\x00&trade;&nbsp;'
tRp6368
asbasbasbasbag57
(g73
g59
NtRp6369
(dp6370
g62
(dp6371
sg71
g5783
sg64
(lp6372
g57
(g78
g59
NtRp6373
(dp6374
g62
(dp6375
g82
g83
ssg71
g6369
sg64
(lp6376
S'menu'
p6377
asbag57
(g78
g59
NtRp6378
(dp6379
g62
(dp6380
g89
g90
ssg71
g6369
sg64
(lp6381
S':'
asbag57
(g78
g59
NtRp6382
(dp6383
g62
(dp6384
sg71
g6369
sg64
(lp6385
g57
(g58
g59
NtRp6386
(dp6387
g62
(dp6388
g70
I5
ssg71
g6382
sg64
(lp6389
g57
(g66
g59
NtRp6390
(dp6391
g62
(dp6392
g70
I4
ssg71
Nsg64
(lp6393
g57
(g73
g59
NtRp6394
(dp6395
g62
(dp6396
sg71
g6390
sg64
(lp6397
g57
(g78
g59
NtRp6398
(dp6399
g62
(dp6400
sg71
g6394
sg64
(lp6401
g57
(g58
g59
NtRp6402
(dp6403
g62
(dp6404
g70
I4
ssg71
g6398
sg64
(lp6405
g57
(g66
g59
NtRp6406
(dp6407
g62
(dp6408
g70
I3
ssg71
Nsg64
(lp6409
g57
(g73
g59
NtRp6410
(dp6411
g62
(dp6412
sg71
g6406
sg64
(lp6413
g57
(g78
g59
NtRp6414
(dp6415
g62
(dp6416
sg71
g6410
sg64
(lp6417
g57
(g58
g59
NtRp6418
(dp6419
g62
(dp6420
g70
I3
ssg71
g6414
sg64
(lp6421
cgluon.languages
lazyT_unpickle
p6422
(S's\x04\x00\x00\x00Home'
tRp6423
asbasbasbag57
(g73
g59
NtRp6424
(dp6425
g62
(dp6426
sg71
g6406
sg64
(lp6427
g57
(g78
g59
NtRp6428
(dp6429
g62
(dp6430
sg71
g6424
sg64
(lp6431
g57
(g58
g59
NtRp6432
(dp6433
g62
(dp6434
g70
I3
ssg71
g6428
sg64
(lp6435
g100
asbasbasbag57
(g73
g59
NtRp6436
(dp6437
g62
(dp6438
sg71
g6406
sg64
(lp6439
g57
(g78
g59
NtRp6440
(dp6441
g62
(dp6442
sg71
g6436
sg64
(lp6443
g57
(g58
g59
NtRp6444
(dp6445
g62
(dp6446
g70
I3
ssg71
g6440
sg64
(lp6447
S'/reddit/default/index'
p6448
asbasbasbag57
(g73
g59
NtRp6449
(dp6450
g62
(dp6451
sg71
g6406
sg64
(lp6452
g57
(g78
g59
NtRp6453
(dp6454
g62
(dp6455
sg71
g6449
sg64
(lp6456
g57
(g58
g59
NtRp6457
(dp6458
g62
(dp6459
g70
I3
ssg71
g6453
sg64
(lp6460
g57
(g66
g59
NtRp6461
(dp6462
g62
(dp6463
g70
I2
ssg71
Nsg64
(lp6464
sbasbasbasbasbasbasbasbag57
(g73
g59
NtRp6465
(dp6466
g62
(dp6467
sg71
g6390
sg64
(lp6468
g57
(g78
g59
NtRp6469
(dp6470
g62
(dp6471
sg71
g6465
sg64
(lp6472
g57
(g58
g59
NtRp6473
(dp6474
g62
(dp6475
g70
I4
ssg71
g6469
sg64
(lp6476
g57
(g66
g59
NtRp6477
(dp6478
g62
(dp6479
g70
I3
ssg71
Nsg64
(lp6480
g57
(g73
g59
NtRp6481
(dp6482
g62
(dp6483
sg71
g6477
sg64
(lp6484
g57
(g78
g59
NtRp6485
(dp6486
g62
(dp6487
sg71
g6481
sg64
(lp6488
g57
(g58
g59
NtRp6489
(dp6490
g62
(dp6491
g70
I3
ssg71
g6485
sg64
(lp6492
g57
(g6361
g59
NtRp6493
(dp6494
g62
(dp6495
g6350
S'highlighted'
p6496
ssg71
g57
(g6346
g59
NtRp6497
(dp6498
g62
(dp6499
g6352
S'http://web2py.com'
p6500
ssg71
g57
(cgluon.html
LI
p6501
g59
NtRp6502
(dp6503
g62
(dp6504
g6350
S'dropdown'
p6505
ssg71
g57
(cgluon.html
UL
p6506
g59
NtRp6507
(dp6508
g62
(dp6509
S'mobile'
p6510
I00
sS'ul_class'
p6511
S'dropdown-menu'
p6512
sS'li_last'
p6513
S'web2py-menu-last'
p6514
sS'li_class'
p6515
g6505
sS'li_first'
p6516
S'web2py-menu-first'
p6517
sg6350
S'nav'
p6518
sS'li_active'
p6519
S'web2py-menu-active'
p6520
ssg71
Nsg64
(lp6521
g57
(g6501
g59
NtRp6522
(dp6523
g62
(dp6524
g6350
g6517
ssg71
g6507
sg64
(lp6525
g57
(g6346
g59
NtRp6526
(dp6527
g62
(dp6528
g6352
g6448
ssg71
g6522
sg64
(lp6529
g6423
asbasbag6502
asbsg64
(lp6530
g6497
ag57
(g6506
g59
NtRp6531
(dp6532
g62
(dp6533
g6350
g6512
ssg71
g6502
sg64
(lp6534
g57
(g6501
g59
NtRp6535
(dp6536
g62
(dp6537
sg71
g6531
sg64
(lp6538
g57
(g6346
g59
NtRp6539
(dp6540
g62
(dp6541
g6352
S'/admin/default/site'
p6542
ssg71
g6535
sg64
(lp6543
g6422
(S's\x08\x00\x00\x00My Sites'
tRp6544
asbasbag57
(g6501
g59
NtRp6545
(dp6546
g62
(dp6547
g6350
g6505
ssg71
g6531
sg64
(lp6548
g57
(g6346
g59
NtRp6549
(dp6550
g62
(dp6551
g6352
S'/admin/default/design/reddit'
p6552
ssg71
g6545
sg64
(lp6553
g6422
(S's\x08\x00\x00\x00This App'
tRp6554
asbag57
(g6506
g59
NtRp6555
(dp6556
g62
(dp6557
g6350
g6512
ssg71
g6545
sg64
(lp6558
g57
(g6501
g59
NtRp6559
(dp6560
g62
(dp6561
sg71
g6555
sg64
(lp6562
g57
(g6346
g59
NtRp6563
(dp6564
g62
(dp6565
g6352
S'/admin/default/edit/reddit/controllers/default.py'
p6566
ssg71
g6559
sg64
(lp6567
g6422
(S's\n\x00\x00\x00Controller'
tRp6568
asbasbag57
(g6501
g59
NtRp6569
(dp6570
g62
(dp6571
sg71
g6555
sg64
(lp6572
g57
(g6346
g59
NtRp6573
(dp6574
g62
(dp6575
g6352
S'/admin/default/edit/reddit/views/default/displaycat.html'
p6576
ssg71
g6569
sg64
(lp6577
g6422
(S's\x04\x00\x00\x00View'
tRp6578
asbasbag57
(g6501
g59
NtRp6579
(dp6580
g62
(dp6581
sg71
g6555
sg64
(lp6582
g57
(g6346
g59
NtRp6583
(dp6584
g62
(dp6585
g6352
S'/admin/default/edit/reddit/views/layout.html'
p6586
ssg71
g6579
sg64
(lp6587
g6422
(S's\x06\x00\x00\x00Layout'
tRp6588
asbasbag57
(g6501
g59
NtRp6589
(dp6590
g62
(dp6591
sg71
g6555
sg64
(lp6592
g57
(g6346
g59
NtRp6593
(dp6594
g62
(dp6595
g6352
S'/admin/default/edit/reddit/static/css/web2py.css'
p6596
ssg71
g6589
sg64
(lp6597
g6422
(S's\n\x00\x00\x00Stylesheet'
tRp6598
asbasbag57
(g6501
g59
NtRp6599
(dp6600
g62
(dp6601
sg71
g6555
sg64
(lp6602
g57
(g6346
g59
NtRp6603
(dp6604
g62
(dp6605
g6352
S'/admin/default/edit/reddit/models/db.py'
p6606
ssg71
g6599
sg64
(lp6607
g6422
(S's\x08\x00\x00\x00DB Model'
tRp6608
asbasbag57
(g6501
g59
NtRp6609
(dp6610
g62
(dp6611
sg71
g6555
sg64
(lp6612
g57
(g6346
g59
NtRp6613
(dp6614
g62
(dp6615
g6352
S'/admin/default/edit/reddit/models/menu.py'
p6616
ssg71
g6609
sg64
(lp6617
g6422
(S's\n\x00\x00\x00Menu Model'
tRp6618
asbasbag57
(g6501
g59
NtRp6619
(dp6620
g62
(dp6621
sg71
g6555
sg64
(lp6622
g57
(g6346
g59
NtRp6623
(dp6624
g62
(dp6625
g6352
S'/reddit/appadmin/index'
p6626
ssg71
g6619
sg64
(lp6627
g6422
(S's\x08\x00\x00\x00Database'
tRp6628
asbasbag57
(g6501
g59
NtRp6629
(dp6630
g62
(dp6631
sg71
g6555
sg64
(lp6632
g57
(g6346
g59
NtRp6633
(dp6634
g62
(dp6635
g6352
S'/admin/default/errors/reddit'
p6636
ssg71
g6629
sg64
(lp6637
g6422
(S's\x06\x00\x00\x00Errors'
tRp6638
asbasbag57
(g6501
g59
NtRp6639
(dp6640
g62
(dp6641
sg71
g6555
sg64
(lp6642
g57
(g6346
g59
NtRp6643
(dp6644
g62
(dp6645
g6352
S'/admin/default/about/reddit'
p6646
ssg71
g6639
sg64
(lp6647
g6422
(S's\x05\x00\x00\x00About'
tRp6648
asbasbasbasbag57
(g6501
g59
NtRp6649
(dp6650
g62
(dp6651
g6350
g6505
ssg71
g6531
sg64
(lp6652
g57
(g6346
g59
NtRp6653
(dp6654
g62
(dp6655
g6352
S'http://www.web2py.com'
p6656
ssg71
g6649
sg64
(lp6657
S'web2py.com'
p6658
asbag57
(g6506
g59
NtRp6659
(dp6660
g62
(dp6661
g6350
g6512
ssg71
g6649
sg64
(lp6662
g57
(g6501
g59
NtRp6663
(dp6664
g62
(dp6665
sg71
g6659
sg64
(lp6666
g57
(g6346
g59
NtRp6667
(dp6668
g62
(dp6669
g6352
S'http://www.web2py.com/examples/default/download'
p6670
ssg71
g6663
sg64
(lp6671
g6422
(S's\x08\x00\x00\x00Download'
tRp6672
asbasbag57
(g6501
g59
NtRp6673
(dp6674
g62
(dp6675
sg71
g6659
sg64
(lp6676
g57
(g6346
g59
NtRp6677
(dp6678
g62
(dp6679
g6352
S'http://www.web2py.com/examples/default/support'
p6680
ssg71
g6673
sg64
(lp6681
g6422
(S's\x07\x00\x00\x00Support'
tRp6682
asbasbag57
(g6501
g59
NtRp6683
(dp6684
g62
(dp6685
sg71
g6659
sg64
(lp6686
g57
(g6346
g59
NtRp6687
(dp6688
g62
(dp6689
g6352
S'http://web2py.com/demo_admin'
p6690
ssg71
g6683
sg64
(lp6691
g6422
(S's\x04\x00\x00\x00Demo'
tRp6692
asbasbag57
(g6501
g59
NtRp6693
(dp6694
g62
(dp6695
sg71
g6659
sg64
(lp6696
g57
(g6346
g59
NtRp6697
(dp6698
g62
(dp6699
g6352
S'http://web2py.com/examples/default/examples'
p6700
ssg71
g6693
sg64
(lp6701
g6422
(S's\x0e\x00\x00\x00Quick Examples'
tRp6702
asbasbag57
(g6501
g59
NtRp6703
(dp6704
g62
(dp6705
sg71
g6659
sg64
(lp6706
g57
(g6346
g59
NtRp6707
(dp6708
g62
(dp6709
g6352
S'http://web2py.com/AlterEgo'
p6710
ssg71
g6703
sg64
(lp6711
g6422
(S's\x03\x00\x00\x00FAQ'
tRp6712
asbasbag57
(g6501
g59
NtRp6713
(dp6714
g62
(dp6715
sg71
g6659
sg64
(lp6716
g57
(g6346
g59
NtRp6717
(dp6718
g62
(dp6719
g6352
S'http://www.web2py.com/examples/default/videos/'
p6720
ssg71
g6713
sg64
(lp6721
g6422
(S's\x06\x00\x00\x00Videos'
tRp6722
asbasbag57
(g6501
g59
NtRp6723
(dp6724
g62
(dp6725
sg71
g6659
sg64
(lp6726
g57
(g6346
g59
NtRp6727
(dp6728
g62
(dp6729
g6352
S'http://web2py.com/appliances'
p6730
ssg71
g6723
sg64
(lp6731
g6422
(S's\x11\x00\x00\x00Free Applications'
tRp6732
asbasbag57
(g6501
g59
NtRp6733
(dp6734
g62
(dp6735
sg71
g6659
sg64
(lp6736
g57
(g6346
g59
NtRp6737
(dp6738
g62
(dp6739
g6352
S'http://web2py.com/plugins'
p6740
ssg71
g6733
sg64
(lp6741
g6422
(S's\x07\x00\x00\x00Plugins'
tRp6742
asbasbag57
(g6501
g59
NtRp6743
(dp6744
g62
(dp6745
sg71
g6659
sg64
(lp6746
g57
(g6346
g59
NtRp6747
(dp6748
g62
(dp6749
g6352
S'http://web2py.com/layouts'
p6750
ssg71
g6743
sg64
(lp6751
g6422
(S's\x07\x00\x00\x00Layouts'
tRp6752
asbasbag57
(g6501
g59
NtRp6753
(dp6754
g62
(dp6755
sg71
g6659
sg64
(lp6756
g57
(g6346
g59
NtRp6757
(dp6758
g62
(dp6759
g6352
S'http://web2pyslices.com/'
p6760
ssg71
g6753
sg64
(lp6761
g6422
(S's\x07\x00\x00\x00Recipes'
tRp6762
asbasbag57
(g6501
g59
NtRp6763
(dp6764
g62
(dp6765
sg71
g6659
sg64
(lp6766
g57
(g6346
g59
NtRp6767
(dp6768
g62
(dp6769
g6352
S'http://web2py.com/semantic'
p6770
ssg71
g6763
sg64
(lp6771
g6422
(S's\x08\x00\x00\x00Semantic'
tRp6772
asbasbasbasbag57
(g6501
g59
NtRp6773
(dp6774
g62
(dp6775
g6350
g6505
ssg71
g6531
sg64
(lp6776
g57
(g6346
g59
NtRp6777
(dp6778
g62
(dp6779
g6352
S'http://www.web2py.com/book'
p6780
ssg71
g6773
sg64
(lp6781
g6422
(S's\r\x00\x00\x00Documentation'
tRp6782
asbag57
(g6506
g59
NtRp6783
(dp6784
g62
(dp6785
g6350
g6512
ssg71
g6773
sg64
(lp6786
g57
(g6501
g59
NtRp6787
(dp6788
g62
(dp6789
sg71
g6783
sg64
(lp6790
g57
(g6346
g59
NtRp6791
(dp6792
g62
(dp6793
g6352
S'http://www.web2py.com/book/default/chapter/00'
p6794
ssg71
g6787
sg64
(lp6795
g6422
(S's\x07\x00\x00\x00Preface'
tRp6796
asbasbag57
(g6501
g59
NtRp6797
(dp6798
g62
(dp6799
sg71
g6783
sg64
(lp6800
g57
(g6346
g59
NtRp6801
(dp6802
g62
(dp6803
g6352
S'http://www.web2py.com/book/default/chapter/01'
p6804
ssg71
g6797
sg64
(lp6805
g6422
(S's\x0c\x00\x00\x00Introduction'
tRp6806
asbasbag57
(g6501
g59
NtRp6807
(dp6808
g62
(dp6809
sg71
g6783
sg64
(lp6810
g57
(g6346
g59
NtRp6811
(dp6812
g62
(dp6813
g6352
S'http://www.web2py.com/book/default/chapter/02'
p6814
ssg71
g6807
sg64
(lp6815
g6422
(S's\x06\x00\x00\x00Python'
tRp6816
asbasbag57
(g6501
g59
NtRp6817
(dp6818
g62
(dp6819
sg71
g6783
sg64
(lp6820
g57
(g6346
g59
NtRp6821
(dp6822
g62
(dp6823
g6352
S'http://www.web2py.com/book/default/chapter/03'
p6824
ssg71
g6817
sg64
(lp6825
g6422
(S's\x08\x00\x00\x00Overview'
tRp6826
asbasbag57
(g6501
g59
NtRp6827
(dp6828
g62
(dp6829
sg71
g6783
sg64
(lp6830
g57
(g6346
g59
NtRp6831
(dp6832
g62
(dp6833
g6352
S'http://www.web2py.com/book/default/chapter/04'
p6834
ssg71
g6827
sg64
(lp6835
g6422
(S's\x08\x00\x00\x00The Core'
tRp6836
asbasbag57
(g6501
g59
NtRp6837
(dp6838
g62
(dp6839
sg71
g6783
sg64
(lp6840
g57
(g6346
g59
NtRp6841
(dp6842
g62
(dp6843
g6352
S'http://www.web2py.com/book/default/chapter/05'
p6844
ssg71
g6837
sg64
(lp6845
g6422
(S's\t\x00\x00\x00The Views'
tRp6846
asbasbag57
(g6501
g59
NtRp6847
(dp6848
g62
(dp6849
sg71
g6783
sg64
(lp6850
g57
(g6346
g59
NtRp6851
(dp6852
g62
(dp6853
g6352
S'http://www.web2py.com/book/default/chapter/06'
p6854
ssg71
g6847
sg64
(lp6855
g6422
(S's\x08\x00\x00\x00Database'
tRp6856
asbasbag57
(g6501
g59
NtRp6857
(dp6858
g62
(dp6859
sg71
g6783
sg64
(lp6860
g57
(g6346
g59
NtRp6861
(dp6862
g62
(dp6863
g6352
S'http://www.web2py.com/book/default/chapter/07'
p6864
ssg71
g6857
sg64
(lp6865
g6422
(S's\x14\x00\x00\x00Forms and Validators'
tRp6866
asbasbag57
(g6501
g59
NtRp6867
(dp6868
g62
(dp6869
sg71
g6783
sg64
(lp6870
g57
(g6346
g59
NtRp6871
(dp6872
g62
(dp6873
g6352
S'http://www.web2py.com/book/default/chapter/08'
p6874
ssg71
g6867
sg64
(lp6875
g6422
(S's\r\x00\x00\x00Email and SMS'
tRp6876
asbasbag57
(g6501
g59
NtRp6877
(dp6878
g62
(dp6879
sg71
g6783
sg64
(lp6880
g57
(g6346
g59
NtRp6881
(dp6882
g62
(dp6883
g6352
S'http://www.web2py.com/book/default/chapter/09'
p6884
ssg71
g6877
sg64
(lp6885
g6422
(S's\x0e\x00\x00\x00Access Control'
tRp6886
asbasbag57
(g6501
g59
NtRp6887
(dp6888
g62
(dp6889
sg71
g6783
sg64
(lp6890
g57
(g6346
g59
NtRp6891
(dp6892
g62
(dp6893
g6352
S'http://www.web2py.com/book/default/chapter/10'
p6894
ssg71
g6887
sg64
(lp6895
g6422
(S's\x08\x00\x00\x00Services'
tRp6896
asbasbag57
(g6501
g59
NtRp6897
(dp6898
g62
(dp6899
sg71
g6783
sg64
(lp6900
g57
(g6346
g59
NtRp6901
(dp6902
g62
(dp6903
g6352
S'http://www.web2py.com/book/default/chapter/11'
p6904
ssg71
g6897
sg64
(lp6905
g6422
(S's\x0c\x00\x00\x00Ajax Recipes'
tRp6906
asbasbag57
(g6501
g59
NtRp6907
(dp6908
g62
(dp6909
sg71
g6783
sg64
(lp6910
g57
(g6346
g59
NtRp6911
(dp6912
g62
(dp6913
g6352
S'http://www.web2py.com/book/default/chapter/12'
p6914
ssg71
g6907
sg64
(lp6915
g6422
(S's\x16\x00\x00\x00Components and Plugins'
tRp6916
asbasbag57
(g6501
g59
NtRp6917
(dp6918
g62
(dp6919
sg71
g6783
sg64
(lp6920
g57
(g6346
g59
NtRp6921
(dp6922
g62
(dp6923
g6352
S'http://www.web2py.com/book/default/chapter/13'
p6924
ssg71
g6917
sg64
(lp6925
g6422
(S's\x12\x00\x00\x00Deployment Recipes'
tRp6926
asbasbag57
(g6501
g59
NtRp6927
(dp6928
g62
(dp6929
sg71
g6783
sg64
(lp6930
g57
(g6346
g59
NtRp6931
(dp6932
g62
(dp6933
g6352
S'http://www.web2py.com/book/default/chapter/14'
p6934
ssg71
g6927
sg64
(lp6935
g6422
(S's\r\x00\x00\x00Other Recipes'
tRp6936
asbasbag57
(g6501
g59
NtRp6937
(dp6938
g62
(dp6939
sg71
g6783
sg64
(lp6940
g57
(g6346
g59
NtRp6941
(dp6942
g62
(dp6943
g6352
S'http://stores.lulu.com/web2py'
p6944
ssg71
g6937
sg64
(lp6945
g6422
(S's\r\x00\x00\x00Buy this book'
tRp6946
asbasbasbasbag57
(g6501
g59
NtRp6947
(dp6948
g62
(dp6949
g6350
g6505
ssg71
g6531
sg64
(lp6950
g57
(g6346
g59
NtRp6951
(dp6952
g62
(dp6953
S'_onclick'
p6954
S'javascript:void(0);return false;'
p6955
sg6352
S'#'
ssg71
g6947
sg64
(lp6956
g6422
(S's\t\x00\x00\x00Community'
tRp6957
asbag57
(g6506
g59
NtRp6958
(dp6959
g62
(dp6960
g6350
g6512
ssg71
g6947
sg64
(lp6961
g57
(g6501
g59
NtRp6962
(dp6963
g62
(dp6964
sg71
g6958
sg64
(lp6965
g57
(g6346
g59
NtRp6966
(dp6967
g62
(dp6968
g6352
S'http://www.web2py.com/examples/default/usergroups'
p6969
ssg71
g6962
sg64
(lp6970
g6422
(S's\x06\x00\x00\x00Groups'
tRp6971
asbasbag57
(g6501
g59
NtRp6972
(dp6973
g62
(dp6974
sg71
g6958
sg64
(lp6975
g57
(g6346
g59
NtRp6976
(dp6977
g62
(dp6978
g6352
S'http://twitter.com/web2py'
p6979
ssg71
g6972
sg64
(lp6980
g6422
(S's\x07\x00\x00\x00Twitter'
tRp6981
asbasbag57
(g6501
g59
NtRp6982
(dp6983
g62
(dp6984
sg71
g6958
sg64
(lp6985
g57
(g6346
g59
NtRp6986
(dp6987
g62
(dp6988
g6352
S'http://webchat.freenode.net/?channels=web2py'
p6989
ssg71
g6982
sg64
(lp6990
g6422
(S's\t\x00\x00\x00Live Chat'
tRp6991
asbasbasbasbag57
(g6501
g59
NtRp6992
(dp6993
g62
(dp6994
g6350
g6505
ssg71
g6531
sg64
(lp6995
g57
(g6346
g59
NtRp6996
(dp6997
g62
(dp6998
g6954
g6955
sg6352
S'#'
ssg71
g6992
sg64
(lp6999
g6422
(S's\x07\x00\x00\x00Plugins'
tRp7000
asbag57
(g6506
g59
NtRp7001
(dp7002
g62
(dp7003
g6350
g6512
ssg71
g6992
sg64
(lp7004
g57
(g6501
g59
NtRp7005
(dp7006
g62
(dp7007
sg71
g7001
sg64
(lp7008
g57
(g6346
g59
NtRp7009
(dp7010
g62
(dp7011
g6352
S'http://web2py.com/examples/default/download'
p7012
ssg71
g7005
sg64
(lp7013
S'plugin_wiki'
p7014
asbasbag57
(g6501
g59
NtRp7015
(dp7016
g62
(dp7017
sg71
g7001
sg64
(lp7018
g57
(g6346
g59
NtRp7019
(dp7020
g62
(dp7021
g6352
g6740
ssg71
g7015
sg64
(lp7022
g6422
(S's\r\x00\x00\x00Other Plugins'
tRp7023
asbasbag57
(g6501
g59
NtRp7024
(dp7025
g62
(dp7026
sg71
g7001
sg64
(lp7027
g57
(g6346
g59
NtRp7028
(dp7029
g62
(dp7030
g6352
g6750
ssg71
g7024
sg64
(lp7031
g6422
(S's\x0e\x00\x00\x00Layout Plugins'
tRp7032
asbasbasbasbasbasbsg64
(lp7033
g6493
asbsg64
(lp7034
g6324
asbasbasbasbag57
(g73
g59
NtRp7035
(dp7036
g62
(dp7037
sg71
g6477
sg64
(lp7038
g57
(g78
g59
NtRp7039
(dp7040
g62
(dp7041
sg71
g7035
sg64
(lp7042
g57
(g58
g59
NtRp7043
(dp7044
g62
(dp7045
g70
I3
ssg71
g7039
sg64
(lp7046
g100
asbasbasbag57
(g73
g59
NtRp7047
(dp7048
g62
(dp7049
sg71
g6477
sg64
(lp7050
g57
(g78
g59
NtRp7051
(dp7052
g62
(dp7053
sg71
g7047
sg64
(lp7054
g57
(g58
g59
NtRp7055
(dp7056
g62
(dp7057
g70
I3
ssg71
g7051
sg64
(lp7058
g6500
asbasbasbag57
(g73
g59
NtRp7059
(dp7060
g62
(dp7061
sg71
g6477
sg64
(lp7062
g57
(g78
g59
NtRp7063
(dp7064
g62
(dp7065
sg71
g7059
sg64
(lp7066
g57
(g58
g59
NtRp7067
(dp7068
g62
(dp7069
g70
I3
ssg71
g7063
sg64
(lp7070
g57
(g66
g59
NtRp7071
(dp7072
g62
(dp7073
g70
I2
ssg71
Nsg64
(lp7074
g57
(g73
g59
NtRp7075
(dp7076
g62
(dp7077
sg71
g7071
sg64
(lp7078
g57
(g78
g59
NtRp7079
(dp7080
g62
(dp7081
sg71
g7075
sg64
(lp7082
g57
(g58
g59
NtRp7083
(dp7084
g62
(dp7085
g70
I2
ssg71
g7079
sg64
(lp7086
g57
(g66
g59
NtRp7087
(dp7088
g62
(dp7089
g70
I1
ssg71
Nsg64
(lp7090
g57
(g73
g59
NtRp7091
(dp7092
g62
(dp7093
sg71
g7087
sg64
(lp7094
g57
(g78
g59
NtRp7095
(dp7096
g62
(dp7097
sg71
g7091
sg64
(lp7098
g57
(g58
g59
NtRp7099
(dp7100
g62
(dp7101
g70
I1
ssg71
g7095
sg64
(lp7102
g6544
asbasbasbag57
(g73
g59
NtRp7103
(dp7104
g62
(dp7105
sg71
g7087
sg64
(lp7106
g57
(g78
g59
NtRp7107
(dp7108
g62
(dp7109
sg71
g7103
sg64
(lp7110
g57
(g58
g59
NtRp7111
(dp7112
g62
(dp7113
g70
I1
ssg71
g7107
sg64
(lp7114
I00
asbasbasbag57
(g73
g59
NtRp7115
(dp7116
g62
(dp7117
sg71
g7087
sg64
(lp7118
g57
(g78
g59
NtRp7119
(dp7120
g62
(dp7121
sg71
g7115
sg64
(lp7122
g57
(g58
g59
NtRp7123
(dp7124
g62
(dp7125
g70
I1
ssg71
g7119
sg64
(lp7126
g6542
asbasbasbasbasbasbasbag57
(g73
g59
NtRp7127
(dp7128
g62
(dp7129
sg71
g7071
sg64
(lp7130
g57
(g78
g59
NtRp7131
(dp7132
g62
(dp7133
sg71
g7127
sg64
(lp7134
g57
(g58
g59
NtRp7135
(dp7136
g62
(dp7137
g70
I2
ssg71
g7131
sg64
(lp7138
g57
(g66
g59
NtRp7139
(dp7140
g62
(dp7141
g70
I1
ssg71
Nsg64
(lp7142
g57
(g73
g59
NtRp7143
(dp7144
g62
(dp7145
sg71
g7139
sg64
(lp7146
g57
(g78
g59
NtRp7147
(dp7148
g62
(dp7149
sg71
g7143
sg64
(lp7150
g57
(g58
g59
NtRp7151
(dp7152
g62
(dp7153
g70
I1
ssg71
g7147
sg64
(lp7154
g6554
asbasbasbag57
(g73
g59
NtRp7155
(dp7156
g62
(dp7157
sg71
g7139
sg64
(lp7158
g57
(g78
g59
NtRp7159
(dp7160
g62
(dp7161
sg71
g7155
sg64
(lp7162
g57
(g58
g59
NtRp7163
(dp7164
g62
(dp7165
g70
I1
ssg71
g7159
sg64
(lp7166
I00
asbasbasbag57
(g73
g59
NtRp7167
(dp7168
g62
(dp7169
sg71
g7139
sg64
(lp7170
g57
(g78
g59
NtRp7171
(dp7172
g62
(dp7173
sg71
g7167
sg64
(lp7174
g57
(g58
g59
NtRp7175
(dp7176
g62
(dp7177
g70
I1
ssg71
g7171
sg64
(lp7178
g6552
asbasbasbag57
(g73
g59
NtRp7179
(dp7180
g62
(dp7181
sg71
g7139
sg64
(lp7182
g57
(g78
g59
NtRp7183
(dp7184
g62
(dp7185
sg71
g7179
sg64
(lp7186
g57
(g58
g59
NtRp7187
(dp7188
g62
(dp7189
g70
I1
ssg71
g7183
sg64
(lp7190
(lp7191
(g6568
I00
g6566
tp7192
a(g6578
I00
g6576
tp7193
a(g6588
I00
g6586
tp7194
a(g6598
I00
g6596
tp7195
a(g6608
I00
g6606
tp7196
a(g6618
I00
g6616
tp7197
a(g6628
I00
g6626
tp7198
a(g6638
I00
g6636
tp7199
a(g6648
I00
g6646
tp7200
aasbasbasbasbasbasbasbag57
(g73
g59
NtRp7201
(dp7202
g62
(dp7203
sg71
g7071
sg64
(lp7204
g57
(g78
g59
NtRp7205
(dp7206
g62
(dp7207
sg71
g7201
sg64
(lp7208
g57
(g58
g59
NtRp7209
(dp7210
g62
(dp7211
g70
I2
ssg71
g7205
sg64
(lp7212
g57
(g66
g59
NtRp7213
(dp7214
g62
(dp7215
g70
I1
ssg71
Nsg64
(lp7216
g57
(g73
g59
NtRp7217
(dp7218
g62
(dp7219
sg71
g7213
sg64
(lp7220
g57
(g78
g59
NtRp7221
(dp7222
g62
(dp7223
sg71
g7217
sg64
(lp7224
g57
(g58
g59
NtRp7225
(dp7226
g62
(dp7227
g70
I1
ssg71
g7221
sg64
(lp7228
g6658
asbasbasbag57
(g73
g59
NtRp7229
(dp7230
g62
(dp7231
sg71
g7213
sg64
(lp7232
g57
(g78
g59
NtRp7233
(dp7234
g62
(dp7235
sg71
g7229
sg64
(lp7236
g57
(g58
g59
NtRp7237
(dp7238
g62
(dp7239
g70
I1
ssg71
g7233
sg64
(lp7240
I00
asbasbasbag57
(g73
g59
NtRp7241
(dp7242
g62
(dp7243
sg71
g7213
sg64
(lp7244
g57
(g78
g59
NtRp7245
(dp7246
g62
(dp7247
sg71
g7241
sg64
(lp7248
g57
(g58
g59
NtRp7249
(dp7250
g62
(dp7251
g70
I1
ssg71
g7245
sg64
(lp7252
g6656
asbasbasbag57
(g73
g59
NtRp7253
(dp7254
g62
(dp7255
sg71
g7213
sg64
(lp7256
g57
(g78
g59
NtRp7257
(dp7258
g62
(dp7259
sg71
g7253
sg64
(lp7260
g57
(g58
g59
NtRp7261
(dp7262
g62
(dp7263
g70
I1
ssg71
g7257
sg64
(lp7264
(lp7265
(g6672
I00
g6670
tp7266
a(g6682
I00
g6680
tp7267
a(g6692
I00
g6690
tp7268
a(g6702
I00
g6700
tp7269
a(g6712
I00
g6710
tp7270
a(g6722
I00
g6720
tp7271
a(g6732
I00
g6730
tp7272
a(g6742
I00
g6740
tp7273
a(g6752
I00
g6750
tp7274
a(g6762
I00
g6760
tp7275
a(g6772
I00
g6770
tp7276
aasbasbasbasbasbasbasbag57
(g73
g59
NtRp7277
(dp7278
g62
(dp7279
sg71
g7071
sg64
(lp7280
g57
(g78
g59
NtRp7281
(dp7282
g62
(dp7283
sg71
g7277
sg64
(lp7284
g57
(g58
g59
NtRp7285
(dp7286
g62
(dp7287
g70
I2
ssg71
g7281
sg64
(lp7288
g57
(g66
g59
NtRp7289
(dp7290
g62
(dp7291
g70
I1
ssg71
Nsg64
(lp7292
g57
(g73
g59
NtRp7293
(dp7294
g62
(dp7295
sg71
g7289
sg64
(lp7296
g57
(g78
g59
NtRp7297
(dp7298
g62
(dp7299
sg71
g7293
sg64
(lp7300
g57
(g58
g59
NtRp7301
(dp7302
g62
(dp7303
g70
I1
ssg71
g7297
sg64
(lp7304
g6782
asbasbasbag57
(g73
g59
NtRp7305
(dp7306
g62
(dp7307
sg71
g7289
sg64
(lp7308
g57
(g78
g59
NtRp7309
(dp7310
g62
(dp7311
sg71
g7305
sg64
(lp7312
g57
(g58
g59
NtRp7313
(dp7314
g62
(dp7315
g70
I1
ssg71
g7309
sg64
(lp7316
I00
asbasbasbag57
(g73
g59
NtRp7317
(dp7318
g62
(dp7319
sg71
g7289
sg64
(lp7320
g57
(g78
g59
NtRp7321
(dp7322
g62
(dp7323
sg71
g7317
sg64
(lp7324
g57
(g58
g59
NtRp7325
(dp7326
g62
(dp7327
g70
I1
ssg71
g7321
sg64
(lp7328
g6780
asbasbasbag57
(g73
g59
NtRp7329
(dp7330
g62
(dp7331
sg71
g7289
sg64
(lp7332
g57
(g78
g59
NtRp7333
(dp7334
g62
(dp7335
sg71
g7329
sg64
(lp7336
g57
(g58
g59
NtRp7337
(dp7338
g62
(dp7339
g70
I1
ssg71
g7333
sg64
(lp7340
(lp7341
(g6796
I00
g6794
tp7342
a(g6806
I00
g6804
tp7343
a(g6816
I00
g6814
tp7344
a(g6826
I00
g6824
tp7345
a(g6836
I00
g6834
tp7346
a(g6846
I00
g6844
tp7347
a(g6856
I00
g6854
tp7348
a(g6866
I00
g6864
tp7349
a(g6876
I00
g6874
tp7350
a(g6886
I00
g6884
tp7351
a(g6896
I00
g6894
tp7352
a(g6906
I00
g6904
tp7353
a(g6916
I00
g6914
tp7354
a(g6926
I00
g6924
tp7355
a(g6936
I00
g6934
tp7356
a(g6946
I00
g6944
tp7357
aasbasbasbasbasbasbasbag57
(g73
g59
NtRp7358
(dp7359
g62
(dp7360
sg71
g7071
sg64
(lp7361
g57
(g78
g59
NtRp7362
(dp7363
g62
(dp7364
sg71
g7358
sg64
(lp7365
g57
(g58
g59
NtRp7366
(dp7367
g62
(dp7368
g70
I2
ssg71
g7362
sg64
(lp7369
g57
(g66
g59
NtRp7370
(dp7371
g62
(dp7372
g70
I1
ssg71
Nsg64
(lp7373
g57
(g73
g59
NtRp7374
(dp7375
g62
(dp7376
sg71
g7370
sg64
(lp7377
g57
(g78
g59
NtRp7378
(dp7379
g62
(dp7380
sg71
g7374
sg64
(lp7381
g57
(g58
g59
NtRp7382
(dp7383
g62
(dp7384
g70
I1
ssg71
g7378
sg64
(lp7385
g6957
asbasbasbag57
(g73
g59
NtRp7386
(dp7387
g62
(dp7388
sg71
g7370
sg64
(lp7389
g57
(g78
g59
NtRp7390
(dp7391
g62
(dp7392
sg71
g7386
sg64
(lp7393
g57
(g58
g59
NtRp7394
(dp7395
g62
(dp7396
g70
I1
ssg71
g7390
sg64
(lp7397
I00
asbasbasbag57
(g73
g59
NtRp7398
(dp7399
g62
(dp7400
sg71
g7370
sg64
(lp7401
g57
(g78
g59
NtRp7402
(dp7403
g62
(dp7404
sg71
g7398
sg64
(lp7405
g57
(g58
g59
NtRp7406
(dp7407
g62
(dp7408
g70
I1
ssg71
g7402
sg64
(lp7409
Nasbasbasbag57
(g73
g59
NtRp7410
(dp7411
g62
(dp7412
sg71
g7370
sg64
(lp7413
g57
(g78
g59
NtRp7414
(dp7415
g62
(dp7416
sg71
g7410
sg64
(lp7417
g57
(g58
g59
NtRp7418
(dp7419
g62
(dp7420
g70
I1
ssg71
g7414
sg64
(lp7421
(lp7422
(g6971
I00
g6969
tp7423
a(g6981
I00
g6979
tp7424
a(g6991
I00
g6989
tp7425
aasbasbasbasbasbasbasbag57
(g73
g59
NtRp7426
(dp7427
g62
(dp7428
sg71
g7071
sg64
(lp7429
g57
(g78
g59
NtRp7430
(dp7431
g62
(dp7432
sg71
g7426
sg64
(lp7433
g57
(g58
g59
NtRp7434
(dp7435
g62
(dp7436
g70
I2
ssg71
g7430
sg64
(lp7437
g57
(g66
g59
NtRp7438
(dp7439
g62
(dp7440
g70
I1
ssg71
Nsg64
(lp7441
g57
(g73
g59
NtRp7442
(dp7443
g62
(dp7444
sg71
g7438
sg64
(lp7445
g57
(g78
g59
NtRp7446
(dp7447
g62
(dp7448
sg71
g7442
sg64
(lp7449
g57
(g58
g59
NtRp7450
(dp7451
g62
(dp7452
g70
I1
ssg71
g7446
sg64
(lp7453
g7000
asbasbasbag57
(g73
g59
NtRp7454
(dp7455
g62
(dp7456
sg71
g7438
sg64
(lp7457
g57
(g78
g59
NtRp7458
(dp7459
g62
(dp7460
sg71
g7454
sg64
(lp7461
g57
(g58
g59
NtRp7462
(dp7463
g62
(dp7464
g70
I1
ssg71
g7458
sg64
(lp7465
I00
asbasbasbag57
(g73
g59
NtRp7466
(dp7467
g62
(dp7468
sg71
g7438
sg64
(lp7469
g57
(g78
g59
NtRp7470
(dp7471
g62
(dp7472
sg71
g7466
sg64
(lp7473
g57
(g58
g59
NtRp7474
(dp7475
g62
(dp7476
g70
I1
ssg71
g7470
sg64
(lp7477
Nasbasbasbag57
(g73
g59
NtRp7478
(dp7479
g62
(dp7480
sg71
g7438
sg64
(lp7481
g57
(g78
g59
NtRp7482
(dp7483
g62
(dp7484
sg71
g7478
sg64
(lp7485
g57
(g58
g59
NtRp7486
(dp7487
g62
(dp7488
g70
I1
ssg71
g7482
sg64
(lp7489
(lp7490
(g7014
I00
g7012
tp7491
a(g7023
I00
g6740
tp7492
a(g7032
I00
g6750
tp7493
aasbasbasbasbasbasbasbasbasbasbasbasbasbasbasbasbasbasbasbag57
(g73
g59
NtRp7494
(dp7495
g62
(dp7496
sg71
g5783
sg64
(lp7497
g57
(g78
g59
NtRp7498
(dp7499
g62
(dp7500
g82
g83
ssg71
g7494
sg64
(lp7501
S'meta'
p7502
asbag57
(g78
g59
NtRp7503
(dp7504
g62
(dp7505
g89
g90
ssg71
g7494
sg64
(lp7506
S':'
asbag57
(g78
g59
NtRp7507
(dp7508
g62
(dp7509
sg71
g7494
sg64
(lp7510
g57
(g58
g59
NtRp7511
(dp7512
g62
(dp7513
g70
I5
ssg71
g7507
sg64
(lp7514
g57
(g66
g59
NtRp7515
(dp7516
g62
(dp7517
g70
I4
ssg71
Nsg64
(lp7518
g57
(g73
g59
NtRp7519
(dp7520
g62
(dp7521
sg71
g7515
sg64
(lp7522
g57
(g78
g59
NtRp7523
(dp7524
g62
(dp7525
g82
g83
ssg71
g7519
sg64
(lp7526
S'author'
p7527
asbag57
(g78
g59
NtRp7528
(dp7529
g62
(dp7530
g89
g90
ssg71
g7519
sg64
(lp7531
S':'
asbag57
(g78
g59
NtRp7532
(dp7533
g62
(dp7534
sg71
g7519
sg64
(lp7535
g57
(g58
g59
NtRp7536
(dp7537
g62
(dp7538
g70
I4
ssg71
g7532
sg64
(lp7539
S'Your Name <you@example.com>'
p7540
asbasbasbag57
(g73
g59
NtRp7541
(dp7542
g62
(dp7543
sg71
g7515
sg64
(lp7544
g57
(g78
g59
NtRp7545
(dp7546
g62
(dp7547
g82
g83
ssg71
g7541
sg64
(lp7548
S'description'
p7549
asbag57
(g78
g59
NtRp7550
(dp7551
g62
(dp7552
g89
g90
ssg71
g7541
sg64
(lp7553
S':'
asbag57
(g78
g59
NtRp7554
(dp7555
g62
(dp7556
sg71
g7541
sg64
(lp7557
g57
(g58
g59
NtRp7558
(dp7559
g62
(dp7560
g70
I4
ssg71
g7554
sg64
(lp7561
S'a cool new app'
p7562
asbasbasbag57
(g73
g59
NtRp7563
(dp7564
g62
(dp7565
sg71
g7515
sg64
(lp7566
g57
(g78
g59
NtRp7567
(dp7568
g62
(dp7569
g82
g83
ssg71
g7563
sg64
(lp7570
S'generator'
p7571
asbag57
(g78
g59
NtRp7572
(dp7573
g62
(dp7574
g89
g90
ssg71
g7563
sg64
(lp7575
S':'
asbag57
(g78
g59
NtRp7576
(dp7577
g62
(dp7578
sg71
g7563
sg64
(lp7579
g57
(g58
g59
NtRp7580
(dp7581
g62
(dp7582
g70
I4
ssg71
g7576
sg64
(lp7583
S'Web2py Web Framework'
p7584
asbasbasbag57
(g73
g59
NtRp7585
(dp7586
g62
(dp7587
sg71
g7515
sg64
(lp7588
g57
(g78
g59
NtRp7589
(dp7590
g62
(dp7591
g82
g83
ssg71
g7585
sg64
(lp7592
S'keywords'
p7593
asbag57
(g78
g59
NtRp7594
(dp7595
g62
(dp7596
g89
g90
ssg71
g7585
sg64
(lp7597
S':'
asbag57
(g78
g59
NtRp7598
(dp7599
g62
(dp7600
sg71
g7585
sg64
(lp7601
g57
(g58
g59
NtRp7602
(dp7603
g62
(dp7604
g70
I4
ssg71
g7598
sg64
(lp7605
S'web2py, python, framework'
p7606
asbasbasbasbasbasbasbag57
(g73
g59
NtRp7607
(dp7608
g62
(dp7609
sg71
g5783
sg64
(lp7610
g57
(g78
g59
NtRp7611
(dp7612
g62
(dp7613
g82
g83
ssg71
g7607
sg64
(lp7614
S'models_to_run'
p7615
asbag57
(g78
g59
NtRp7616
(dp7617
g62
(dp7618
g89
g90
ssg71
g7607
sg64
(lp7619
S':'
asbag57
(g78
g59
NtRp7620
(dp7621
g62
(dp7622
sg71
g7607
sg64
(lp7623
g57
(g58
g59
NtRp7624
(dp7625
g62
(dp7626
g70
I5
ssg71
g7620
sg64
(lp7627
g57
(g66
g59
NtRp7628
(dp7629
g62
(dp7630
g70
I4
ssg71
Nsg64
(lp7631
g57
(g73
g59
NtRp7632
(dp7633
g62
(dp7634
sg71
g7628
sg64
(lp7635
g57
(g78
g59
NtRp7636
(dp7637
g62
(dp7638
sg71
g7632
sg64
(lp7639
g57
(g58
g59
NtRp7640
(dp7641
g62
(dp7642
g70
I4
ssg71
g7636
sg64
(lp7643
S'^\\w+\\.py$'
p7644
asbasbasbag57
(g73
g59
NtRp7645
(dp7646
g62
(dp7647
sg71
g7628
sg64
(lp7648
g57
(g78
g59
NtRp7649
(dp7650
g62
(dp7651
sg71
g7645
sg64
(lp7652
g57
(g58
g59
NtRp7653
(dp7654
g62
(dp7655
g70
I4
ssg71
g7649
sg64
(lp7656
S'^default/\\w+\\.py$'
p7657
asbasbasbag57
(g73
g59
NtRp7658
(dp7659
g62
(dp7660
sg71
g7628
sg64
(lp7661
g57
(g78
g59
NtRp7662
(dp7663
g62
(dp7664
sg71
g7658
sg64
(lp7665
g57
(g58
g59
NtRp7666
(dp7667
g62
(dp7668
g70
I4
ssg71
g7662
sg64
(lp7669
S'^default/displaycat/\\w+\\.py$'
p7670
asbasbasbasbasbasbasbag57
(g73
g59
NtRp7671
(dp7672
g62
(dp7673
sg71
g5783
sg64
(lp7674
g57
(g78
g59
NtRp7675
(dp7676
g62
(dp7677
g82
g83
ssg71
g7671
sg64
(lp7678
S'postprocessing'
p7679
asbag57
(g78
g59
NtRp7680
(dp7681
g62
(dp7682
g89
g90
ssg71
g7671
sg64
(lp7683
S':'
asbag57
(g78
g59
NtRp7684
(dp7685
g62
(dp7686
sg71
g7671
sg64
(lp7687
g57
(g58
g59
NtRp7688
(dp7689
g62
(dp7690
g70
I5
ssg71
g7684
sg64
(lp7691
g57
(g66
g59
NtRp7692
(dp7693
g62
(dp7694
g70
I4
ssg71
Nsg64
(lp7695
sbasbasbasbag57
(g73
g59
NtRp7696
(dp7697
g62
(dp7698
sg71
g5783
sg64
(lp7699
g57
(g78
g59
NtRp7700
(dp7701
g62
(dp7702
g82
g83
ssg71
g7696
sg64
(lp7703
S'session_cookie_expires'
p7704
asbag57
(g78
g59
NtRp7705
(dp7706
g62
(dp7707
g89
g90
ssg71
g7696
sg64
(lp7708
S':'
asbag57
(g78
g59
NtRp7709
(dp7710
g62
(dp7711
sg71
g7696
sg64
(lp7712
g57
(g58
g59
NtRp7713
(dp7714
g62
(dp7715
g70
I5
ssg71
g7709
sg64
(lp7716
S'None'
p7717
asbasbasbag57
(g73
g59
NtRp7718
(dp7719
g62
(dp7720
sg71
g5783
sg64
(lp7721
g57
(g78
g59
NtRp7722
(dp7723
g62
(dp7724
g82
g83
ssg71
g7718
sg64
(lp7725
S'session_data_name'
p7726
asbag57
(g78
g59
NtRp7727
(dp7728
g62
(dp7729
g89
g90
ssg71
g7718
sg64
(lp7730
S':'
asbag57
(g78
g59
NtRp7731
(dp7732
g62
(dp7733
sg71
g7718
sg64
(lp7734
g57
(g58
g59
NtRp7735
(dp7736
g62
(dp7737
g70
I5
ssg71
g7731
sg64
(lp7738
S'session_data_reddit'
p7739
asbasbasbag57
(g73
g59
NtRp7740
(dp7741
g62
(dp7742
sg71
g5783
sg64
(lp7743
g57
(g78
g59
NtRp7744
(dp7745
g62
(dp7746
g82
g83
ssg71
g7740
sg64
(lp7747
S'session_file'
p7748
asbag57
(g78
g59
NtRp7749
(dp7750
g62
(dp7751
g89
g90
ssg71
g7740
sg64
(lp7752
S':'
asbag57
(g78
g59
NtRp7753
(dp7754
g62
(dp7755
sg71
g7740
sg64
(lp7756
g57
(g58
g59
NtRp7757
(dp7758
g62
(dp7759
g70
I5
ssg71
g7753
sg64
(lp7760
S"<open file '/home/pankaj/web2py/applications/reddit/sessions/127.0.0.1-24289f39-32a1-48fb-a367-22792fb8b813', mode 'rb+' at 0xae221a18>"
p7761
asbasbasbag57
(g73
g59
NtRp7762
(dp7763
g62
(dp7764
sg71
g5783
sg64
(lp7765
g57
(g78
g59
NtRp7766
(dp7767
g62
(dp7768
g82
g83
ssg71
g7762
sg64
(lp7769
S'session_filename'
p7770
asbag57
(g78
g59
NtRp7771
(dp7772
g62
(dp7773
g89
g90
ssg71
g7762
sg64
(lp7774
S':'
asbag57
(g78
g59
NtRp7775
(dp7776
g62
(dp7777
sg71
g7762
sg64
(lp7778
g57
(g58
g59
NtRp7779
(dp7780
g62
(dp7781
g70
I5
ssg71
g7775
sg64
(lp7782
S'/home/pankaj/web2py/applications/reddit/sessions/127.0.0.1-24289f39-32a1-48fb-a367-22792fb8b813'
p7783
asbasbasbag57
(g73
g59
NtRp7784
(dp7785
g62
(dp7786
sg71
g5783
sg64
(lp7787
g57
(g78
g59
NtRp7788
(dp7789
g62
(dp7790
g82
g83
ssg71
g7784
sg64
(lp7791
S'session_id'
p7792
asbag57
(g78
g59
NtRp7793
(dp7794
g62
(dp7795
g89
g90
ssg71
g7784
sg64
(lp7796
S':'
asbag57
(g78
g59
NtRp7797
(dp7798
g62
(dp7799
sg71
g7784
sg64
(lp7800
g57
(g58
g59
NtRp7801
(dp7802
g62
(dp7803
g70
I5
ssg71
g7797
sg64
(lp7804
g1777
asbasbasbag57
(g73
g59
NtRp7805
(dp7806
g62
(dp7807
sg71
g5783
sg64
(lp7808
g57
(g78
g59
NtRp7809
(dp7810
g62
(dp7811
g82
g83
ssg71
g7805
sg64
(lp7812
S'session_id_name'
p7813
asbag57
(g78
g59
NtRp7814
(dp7815
g62
(dp7816
g89
g90
ssg71
g7805
sg64
(lp7817
S':'
asbag57
(g78
g59
NtRp7818
(dp7819
g62
(dp7820
sg71
g7805
sg64
(lp7821
g57
(g58
g59
NtRp7822
(dp7823
g62
(dp7824
g70
I5
ssg71
g7818
sg64
(lp7825
g5840
asbasbasbag57
(g73
g59
NtRp7826
(dp7827
g62
(dp7828
sg71
g5783
sg64
(lp7829
g57
(g78
g59
NtRp7830
(dp7831
g62
(dp7832
g82
g83
ssg71
g7826
sg64
(lp7833
S'session_locked'
p7834
asbag57
(g78
g59
NtRp7835
(dp7836
g62
(dp7837
g89
g90
ssg71
g7826
sg64
(lp7838
S':'
asbag57
(g78
g59
NtRp7839
(dp7840
g62
(dp7841
sg71
g7826
sg64
(lp7842
g57
(g58
g59
NtRp7843
(dp7844
g62
(dp7845
g70
I5
ssg71
g7839
sg64
(lp7846
g3736
asbasbasbag57
(g73
g59
NtRp7847
(dp7848
g62
(dp7849
sg71
g5783
sg64
(lp7850
g57
(g78
g59
NtRp7851
(dp7852
g62
(dp7853
g82
g83
ssg71
g7847
sg64
(lp7854
S'session_new'
p7855
asbag57
(g78
g59
NtRp7856
(dp7857
g62
(dp7858
g89
g90
ssg71
g7847
sg64
(lp7859
S':'
asbag57
(g78
g59
NtRp7860
(dp7861
g62
(dp7862
sg71
g7847
sg64
(lp7863
g57
(g58
g59
NtRp7864
(dp7865
g62
(dp7866
g70
I5
ssg71
g7860
sg64
(lp7867
g100
asbasbasbag57
(g73
g59
NtRp7868
(dp7869
g62
(dp7870
sg71
g5783
sg64
(lp7871
g57
(g78
g59
NtRp7872
(dp7873
g62
(dp7874
g82
g83
ssg71
g7868
sg64
(lp7875
S'session_storage_type'
p7876
asbag57
(g78
g59
NtRp7877
(dp7878
g62
(dp7879
g89
g90
ssg71
g7868
sg64
(lp7880
S':'
asbag57
(g78
g59
NtRp7881
(dp7882
g62
(dp7883
sg71
g7868
sg64
(lp7884
g57
(g58
g59
NtRp7885
(dp7886
g62
(dp7887
g70
I5
ssg71
g7881
sg64
(lp7888
g5313
asbasbasbag57
(g73
g59
NtRp7889
(dp7890
g62
(dp7891
sg71
g5783
sg64
(lp7892
g57
(g78
g59
NtRp7893
(dp7894
g62
(dp7895
g82
g83
ssg71
g7889
sg64
(lp7896
S'status'
p7897
asbag57
(g78
g59
NtRp7898
(dp7899
g62
(dp7900
g89
g90
ssg71
g7889
sg64
(lp7901
S':'
asbag57
(g78
g59
NtRp7902
(dp7903
g62
(dp7904
sg71
g7889
sg64
(lp7905
g57
(g58
g59
NtRp7906
(dp7907
g62
(dp7908
g70
I5
ssg71
g7902
sg64
(lp7909
S'200'
p7910
asbasbasbag57
(g73
g59
NtRp7911
(dp7912
g62
(dp7913
sg71
g5783
sg64
(lp7914
g57
(g78
g59
NtRp7915
(dp7916
g62
(dp7917
g82
g83
ssg71
g7911
sg64
(lp7918
S'subtitle'
p7919
asbag57
(g78
g59
NtRp7920
(dp7921
g62
(dp7922
g89
g90
ssg71
g7911
sg64
(lp7923
S':'
asbag57
(g78
g59
NtRp7924
(dp7925
g62
(dp7926
sg71
g7911
sg64
(lp7927
g57
(g58
g59
NtRp7928
(dp7929
g62
(dp7930
g70
I5
ssg71
g7924
sg64
(lp7931
g6422
(S's\r\x00\x00\x00customize me!'
tRp7932
asbasbasbag57
(g73
g59
NtRp7933
(dp7934
g62
(dp7935
sg71
g5783
sg64
(lp7936
g57
(g78
g59
NtRp7937
(dp7938
g62
(dp7939
g82
g83
ssg71
g7933
sg64
(lp7940
S'title'
p7941
asbag57
(g78
g59
NtRp7942
(dp7943
g62
(dp7944
g89
g90
ssg71
g7933
sg64
(lp7945
S':'
asbag57
(g78
g59
NtRp7946
(dp7947
g62
(dp7948
sg71
g7933
sg64
(lp7949
g57
(g58
g59
NtRp7950
(dp7951
g62
(dp7952
g70
I5
ssg71
g7946
sg64
(lp7953
S'Reddit'
p7954
asbasbasbag57
(g73
g59
NtRp7955
(dp7956
g62
(dp7957
sg71
g5783
sg64
(lp7958
g57
(g78
g59
NtRp7959
(dp7960
g62
(dp7961
g82
g83
ssg71
g7955
sg64
(lp7962
S'view'
p7963
asbag57
(g78
g59
NtRp7964
(dp7965
g62
(dp7966
g89
g90
ssg71
g7955
sg64
(lp7967
S':'
asbag57
(g78
g59
NtRp7968
(dp7969
g62
(dp7970
sg71
g7955
sg64
(lp7971
g57
(g58
g59
NtRp7972
(dp7973
g62
(dp7974
g70
I5
ssg71
g7968
sg64
(lp7975
S'default/displaycat.html'
p7976
asbasbasbasbasbsS'locals'
p7977
(dp7978
S'Service'
p7979
S"<class 'gluon.tools.Service'>"
p7980
sS'OBJECT'
p7981
S"<class 'gluon.html.OBJECT'>"
p7982
sS'SQLDB'
p7983
S"<class 'gluon.dal.DAL'>"
p7984
sg5366
S"<Storage {'_formkey[news/create]': '3202fc24-dbe...login]': 'c792479c-9193-4faa-a73c-7aea4a6641bc'}>"
p7985
sS'LINK'
p7986
S"<class 'gluon.html.LINK'>"
p7987
sS'BR'
p7988
S"<class 'gluon.html.BR'>"
p7989
sS'local_import'
p7990
S'<function <lambda>>'
p7991
sS'OPTGROUP'
p7992
S"<class 'gluon.html.OPTGROUP'>"
p7993
sS'__package__'
p7994
S'None'
p7995
sS'PRE'
p7996
S"<class 'gluon.html.PRE'>"
p7997
sS'IS_INT_IN_RANGE'
p7998
S"<class 'gluon.validators.IS_INT_IN_RANGE'>"
p7999
sS'left_sidebar_enabled'
p8000
g100
sS'IS_LOWER'
p8001
S"<class 'gluon.validators.IS_LOWER'>"
p8002
sS'IS_STRONG'
p8003
S"<class 'gluon.validators.IS_STRONG'>"
p8004
sS'cache'
p8005
S'<gluon.cache.Cache object>'
p8006
sS'IS_IN_DB'
p8007
S"<class 'gluon.validators.IS_IN_DB'>"
p8008
sS'TAG'
p8009
S'<gluon.html.__TAG__ object>'
p8010
sS'SQLField'
p8011
S"<class 'gluon.dal.Field'>"
p8012
sS'mail'
p8013
S'<gluon.tools.Mail object>'
p8014
sS'BODY'
p8015
S"<class 'gluon.html.BODY'>"
p8016
sS'IS_DATE_IN_RANGE'
p8017
S"<class 'gluon.validators.IS_DATE_IN_RANGE'>"
p8018
sS'IFRAME'
p8019
S"<class 'gluon.html.IFRAME'>"
p8020
sS'URL'
p8021
S'<function URL>'
p8022
sS'__file__'
p8023
S"'/home/pankaj/web2py/applications/reddit/views/default/displaycat.html'"
p8024
sS'db'
p8025
S'<DAL uri="sqlite://storage.sqlite">'
p8026
sS'auth'
p8027
S'<gluon.tools.Auth object>'
p8028
sS'P'
S"<class 'gluon.html.P'>"
p8029
sS'TFOOT'
p8030
S"<class 'gluon.html.TFOOT'>"
p8031
sS'XHTML'
p8032
S"<class 'gluon.html.XHTML'>"
p8033
sS'ON'
p8034
g3736
sS'OL'
p8035
S"<class 'gluon.html.OL'>"
p8036
sS'TEXTAREA'
p8037
S"<class 'gluon.html.TEXTAREA'>"
p8038
sS'MENU'
p8039
S"<class 'gluon.html.MENU'>"
p8040
sS'cstore'
p8041
S'[<Row {\'usrid\': 1, \'rating\': 100, \'val\': \'more to...(2013, 8, 29, 23, 53, 59), \'newsid\': 2, \'id\': 7}>, <Row {\'usrid\': 1, \'rating\': 100, \'val\': \'hola it...(2013, 8, 29, 23, 32, 10), \'newsid\': 4, \'id\': 6}>, <Row {\'usrid\': 1, \'rating\': 100, \'val\': \'hello i...(2013, 8, 29, 23, 31, 48), \'newsid\': 6, \'id\': 5}>, <Row {\'usrid\': None, \'rating\': 100, \'val\': "that...me(2013, 8, 29, 2, 17, 1), \'newsid\': 4, \'id\': 4}>, <Row {\'usrid\': None, \'rating\': 100, \'val\': \'very...e(2013, 8, 29, 2, 14, 25), \'newsid\': 3, \'id\': 3}>, <Row {\'usrid\': None, \'rating\': 100, \'val\': \'oh n...e(2013, 8, 29, 2, 13, 45), \'newsid\': 2, \'id\': 2}>, <Row {\'usrid\': None, \'rating\': 100, \'val\': \'well...e(2013, 8, 29, 2, 12, 50), \'newsid\': 1, \'id\': 1}>]'
p8042
sS'IS_IMAGE'
p8043
S"<class 'gluon.validators.IS_IMAGE'>"
p8044
sS'EM'
p8045
S"<class 'gluon.html.EM'>"
p8046
sS'CODE'
p8047
S"<class 'gluon.html.CODE'>"
p8048
sS'HTTP'
p8049
S"<class 'gluon.http.HTTP'>"
p8050
sS'HR'
p8051
S"<class 'gluon.html.HR'>"
p8052
sS'IS_DATETIME'
p8053
S"<class 'gluon.validators.IS_DATETIME'>"
p8054
sS'STYLE'
p8055
S"<class 'gluon.html.STYLE'>"
p8056
sS'LABEL'
p8057
S"<class 'gluon.html.LABEL'>"
p8058
sS'CLEANUP'
p8059
S"<class 'gluon.validators.CLEANUP'>"
p8060
sS'plugins'
p8061
S'<gluon.tools.PluginManager object>'
p8062
sS'SELECT'
p8063
S"<class 'gluon.html.SELECT'>"
p8064
sS'use_janrain'
p8065
S'<function use_janrain>'
p8066
sS'CENTER'
p8067
S"<class 'gluon.html.CENTER'>"
p8068
sS'prettydate'
p8069
S'<function prettydate>'
p8070
sS'Crud'
p8071
S"<class 'gluon.tools.Crud'>"
p8072
sS'Auth'
p8073
S"<class 'gluon.tools.Auth'>"
p8074
sS'DEVELOPMENT_MENU'
p8075
g3736
sS'__builtins__'
p8076
S"{'ArithmeticError': <type 'exceptions.ArithmeticError'>, 'AssertionError': <type 'exceptions.AssertionError'>, 'AttributeError': <type 'exceptions.AttributeError'>, 'BaseException': <type 'exceptions.BaseException'>, 'BufferError': <type 'exceptions.BufferError'>, 'BytesWarning': <type 'exceptions.BytesWarning'>, 'DeprecationWarning': <type 'exceptions.DeprecationWarning'>, 'EOFError': <type 'exceptions.EOFError'>, 'Ellipsis': Ellipsis, 'EnvironmentError': <type 'exceptions.EnvironmentError'>, ...}"
p8077
sS'HTML'
p8078
S"<class 'gluon.html.HTML'>"
p8079
sS'SQLFORM'
p8080
S"<class 'gluon.sqlhtml.SQLFORM'>"
p8081
sS'LOAD'
p8082
S'<function LOAD>'
p8083
sS'redirect'
p8084
S'<function redirect>'
p8085
sS'FIELDSET'
p8086
S"<class 'gluon.html.FIELDSET'>"
p8087
sS'IS_EQUAL_TO'
p8088
S"<class 'gluon.validators.IS_EQUAL_TO'>"
p8089
sS'embed64'
p8090
S'<function embed64>'
p8091
sS'IS_LIST_OF'
p8092
S"<class 'gluon.validators.IS_LIST_OF'>"
p8093
sS'INPUT'
p8094
S"<class 'gluon.html.INPUT'>"
p8095
sS'EMBED'
p8096
S"<class 'gluon.html.EMBED'>"
p8097
sS'_'
S'<function _>'
p8098
sS'H2'
p8099
S"<class 'gluon.html.H2'>"
p8100
sS'H3'
p8101
S"<class 'gluon.html.H3'>"
p8102
sS'BUTTON'
p8103
S"<class 'gluon.html.BUTTON'>"
p8104
sS'H1'
p8105
S"<class 'gluon.html.H1'>"
p8106
sS'H6'
p8107
S"<class 'gluon.html.H6'>"
p8108
sS'H4'
p8109
S"<class 'gluon.html.H4'>"
p8110
sS'H5'
p8111
S"<class 'gluon.html.H5'>"
p8112
sS'UL'
p8113
S"<class 'gluon.html.UL'>"
p8114
sS'IS_UPPER'
p8115
S"<class 'gluon.validators.IS_UPPER'>"
p8116
sS'xmlescape'
p8117
S'<function xmlescape>'
p8118
sS'IS_TIME'
p8119
S"<class 'gluon.validators.IS_TIME'>"
p8120
sS'OPTION'
p8121
S"<class 'gluon.html.OPTION'>"
p8122
sS'TITLE'
p8123
S"<class 'gluon.html.TITLE'>"
p8124
sS'CRYPT'
p8125
S"<class 'gluon.validators.CRYPT'>"
p8126
sS'IS_EMPTY_OR'
p8127
S"<class 'gluon.validators.IS_EMPTY_OR'>"
p8128
sS'MARKMIN'
p8129
S"<class 'gluon.html.MARKMIN'>"
p8130
sS'__name__'
p8131
S"'__restricted__'"
p8132
sS'STRONG'
p8133
S"<class 'gluon.html.STRONG'>"
p8134
sS'COL'
p8135
S"<class 'gluon.html.COL'>"
p8136
sS'service'
p8137
S'<gluon.tools.Service object>'
p8138
sS'catg'
p8139
S'<Rows (4)>'
p8140
sS'is_mobile'
p8141
g100
sS'TABLE'
p8142
S"<class 'gluon.html.TABLE'>"
p8143
sS'IS_IPV4'
p8144
S"<class 'gluon.validators.IS_IPV4'>"
p8145
sS'IS_LENGTH'
p8146
S"<class 'gluon.validators.IS_LENGTH'>"
p8147
sS'XML'
p8148
S"<class 'gluon.html.XML'>"
p8149
sS'B'
S"<class 'gluon.html.B'>"
p8150
sS'IMG'
p8151
S"<class 'gluon.html.IMG'>"
p8152
sS'SQLTABLE'
p8153
S"<class 'gluon.sqlhtml.SQLTABLE'>"
p8154
sS'IS_MATCH'
p8155
S"<class 'gluon.validators.IS_MATCH'>"
p8156
sS'IS_ALPHANUMERIC'
p8157
S"<class 'gluon.validators.IS_ALPHANUMERIC'>"
p8158
sS'nstore'
p8159
S"[<Row {'rating': 100, 'head': 'big B getting old'...ate': datetime.datetime(2013, 8, 29, 2, 10, 51)}>]"
p8160
sS'SPAN'
p8161
S"<class 'gluon.html.SPAN'>"
p8162
sS'IS_SLUG'
p8163
S"<class 'gluon.validators.IS_SLUG'>"
p8164
sS'BEAUTIFY'
p8165
S"<class 'gluon.html.BEAUTIFY'>"
p8166
sS'META'
p8167
S"<class 'gluon.html.META'>"
p8168
sS'IS_DATE'
p8169
S"<class 'gluon.validators.IS_DATE'>"
p8170
sS'IS_EMAIL'
p8171
S"<class 'gluon.validators.IS_EMAIL'>"
p8172
sS'IS_NOT_EMPTY'
p8173
S"<class 'gluon.validators.IS_NOT_EMPTY'>"
p8174
sS'IS_FLOAT_IN_RANGE'
p8175
S"<class 'gluon.validators.IS_FLOAT_IN_RANGE'>"
p8176
sS'TBODY'
p8177
S"<class 'gluon.html.TBODY'>"
p8178
sS'CAT'
p8179
S"<class 'gluon.html.CAT'>"
p8180
sS'Field'
p8181
S"<class 'gluon.dal.Field'>"
p8182
sS'middle_columns'
p8183
S"'span12'"
p8184
sS'DIV'
p8185
S"<class 'gluon.html.DIV'>"
p8186
sS'LEGEND'
p8187
S"<class 'gluon.html.LEGEND'>"
p8188
sS'COLGROUP'
p8189
S"<class 'gluon.html.COLGROUP'>"
p8190
sS'DAL'
p8191
S"<class 'gluon.dal.DAL'>"
p8192
sS'TT'
p8193
S"<class 'gluon.html.TT'>"
p8194
sS'TR'
p8195
S"<class 'gluon.html.TR'>"
p8196
sS'LI'
p8197
S"<class 'gluon.html.LI'>"
p8198
sS'right_sidebar_enabled'
p8199
g100
sS'TH'
p8200
S"<class 'gluon.html.TH'>"
p8201
sS'SCRIPT'
p8202
S"<class 'gluon.html.SCRIPT'>"
p8203
sS'TD'
p8204
S"<class 'gluon.html.TD'>"
p8205
sS'PluginManager'
p8206
S"<class 'gluon.tools.PluginManager'>"
p8207
sS'IS_URL'
p8208
S"<class 'gluon.validators.IS_URL'>"
p8209
sS'A'
S"<class 'gluon.html.A'>"
p8210
sS'HEAD'
p8211
S"<class 'gluon.html.HEAD'>"
p8212
sS'IS_DATETIME_IN_RANGE'
p8213
S"<class 'gluon.validators.IS_DATETIME_IN_RANGE'>"
p8214
sS'FORM'
p8215
S"<class 'gluon.html.FORM'>"
p8216
sS'I'
S"<class 'gluon.html.I'>"
p8217
sS'crud'
p8218
S'<gluon.tools.Crud object>'
p8219
sS'IS_NOT_IN_DB'
p8220
S"<class 'gluon.validators.IS_NOT_IN_DB'>"
p8221
sg5778
S"<Storage {'body': <cStringIO.StringO object at 0... 0xb55a7144>, 'view': 'default/displaycat.html'}>"
p8222
sS'THEAD'
p8223
S"<class 'gluon.html.THEAD'>"
p8224
sS'IS_NULL_OR'
p8225
S"<class 'gluon.validators.IS_EMPTY_OR'>"
p8226
sg56
S"<Storage {'function': 'displaycat', 'body': <ope...reddit/', 'post_vars': <Storage {'catid': '4'}>}>"
p8227
sS'IS_EXPR'
p8228
S"<class 'gluon.validators.IS_EXPR'>"
p8229
sS'T'
S'<gluon.languages.translator object>'
p8230
sS'IS_IN_SET'
p8231
S"<class 'gluon.validators.IS_IN_SET'>"
p8232
sS'IS_UPLOAD_FILENAME'
p8233
S"<class 'gluon.validators.IS_UPLOAD_FILENAME'>"
p8234
sS'IS_DECIMAL_IN_RANGE'
p8235
S"<class 'gluon.validators.IS_DECIMAL_IN_RANGE'>"
p8236
sssS'traceback'
p8237
S'Traceback (most recent call last):\n  File "/home/pankaj/web2py/gluon/restricted.py", line 212, in restricted\n    exec ccode in environment\n  File "/home/pankaj/web2py/applications/reddit/views/default/displaycat.html", line 81, in <module>\nNameError: name \'k\' is not defined\n'
p8238
s.