(dp1
S'output'
p2
S"<type 'exceptions.SyntaxError'> invalid syntax (default.py, line 96)"
p3
sS'layer'
p4
S'/home/pankaj/web2py/applications/reddit/controllers/default.py'
p5
sS'code'
p6
S'# -*- coding: utf-8 -*-\n# this file is released under public domain and you can use without limitations\n\n#########################################################################\n## This is a samples controller\n## - index is the default action of any application\n## - user is required for authentication and authorization\n## - download is for downloading files uploaded in the db (does streaming)\n## - call exposes all registered services (none by default)\n#########################################################################\n\nimport operator\n@auth.requires_login()\ndef index():\n\n    #   response.flash = T("Welcome to Reddit.com!")\n    nstore=db(db.news.id > 0).select()\n    cstore=db(db.comments.id > 0).select()\n    catg=db(db.category.id>0).select()\n    news = sorted(nstore, key=lambda k: k[\'rating\'])\n    comments = sorted(cstore, key=lambda k: k[\'rating\'])\n    news.reverse()\n    comments.reverse()\n    return dict(nstore=news,cstore=comments,catg=catg)\n\n@auth.requires_login()\ndef displaycat():\n\tcatid=int(request.post_vars[\'catid\'])\n\tnstore=db((db.news.cat==db.category.name)&(db.category.id==catid)).select()\n\tnstore=db((db.category.id == catid)&(db.category.name == db.news.cat)).select(db.news.ALL)\n\t\'\'\' selecting all comments no matter what the category is \'\'\'\n\tcstore=db(db.comments.id > 0).select()\n\tcatg=db(db.category.id>0).select()\n\tnews = sorted(nstore, key=lambda k: k[\'rating\'])\n\tcomments = sorted(cstore, key=lambda k: k[\'rating\'])\n\tnews.reverse()\n\tcomments.reverse()\n\treturn dict(nstore=news,cstore=comments,catg=catg)\n\n@auth.requires_login()\ndef myposts():\n    nstore=db(db.news.usrid == auth.user.id).select()\n    cstore=db(db.comments.id > 0).select()\n    catg=db(db.category.id>0).select()\n    news = sorted(nstore, key=lambda k: k[\'rating\'])\n    comments = sorted(cstore, key=lambda k: k[\'rating\'])\n    news.reverse()\n    comments.reverse()\n    return dict(nstore=news,cstore=comments,catg=catg)\n\n@auth.requires_login()\ndef uplike():\n\tcheck=int(request.post_vars[\'check\'])\n\tnid=int(request.post_vars[\'nid\'])\n\tuid=int(request.post_vars[\'uid\'])\n\tnval=db(db.news.id==nid).select()\n\tprint nval\n\tval=int(nval[0][\'rating\'])\n\tif check==1:\n\t\tval=val+5\n\t\tdb.lstate.insert(newsid=nid,usrid=uid,cflag=1)\n\telif check==2:\n\t\tval=val-3\n\t\tdb.lstate.insert(newsid=nid,usrid=uid,cflag=0)\n\telif check==3:\n\t\tval=val+3\n\t\tdb((db.lstate.newsid==nid)&(db.lstate.usrid==uid)).update(cflag=-1)\n\telif check==4:\n\t\tval=val-5\n\t\tdb((db.lstate.newsid==nid)&(db.lstate.usrid==uid)).update(cflag=-1)\n\tdb(db.news.id==nid).update(rating=val)\n\tredirect(URL(\'index\'))\n\treturn dict()\n\n@auth.requires_login()\ndef addpost():\n\tform = SQLFORM(db.news)\n\tif form.process().accepted:\n\t\tsession.flash=\'form accepted\'\n\t\tredirect(URL(\'index\'))\n\telif form.errors:\n\t\tresponse.flash = \'form has errors\'\n\treturn dict(form=form)\n\n@auth.requires_login()\ndef addc():\n\tcval=request.post_vars[\'cval\']\n\tnid=int(request.post_vars[\'nid\'])\n\tusri=int(request.post_vars[\'usri\'])\n\tdb.comments.insert(val=cval,newsid=nid,usrid=usri)\n\tredirect(URL(\'index\'))\n\treturn dict()\n\n@auth.requires_login()\ndef editn():\n\ttemp=request.vars[\'nid\'])\n\tif temp is not None:\n\t\tnid=int(temp)\n\tif session.newid == None:\n\t\tsession.newid=nid\n\tform = SQLFORM(db.news, session.newid,deletable=True)\n\tif form.accepts(request.vars,session):\n\t\tresponse.flash = \'form accepted\'\n\telif form.errors:\n\t\tresponse.flash = \'form has errors\'\n\treturn dict(form=form)\n\n\ndef user():\n   return dict(form=auth())\n"""\n    exposes:\n    http://..../[app]/default/user/login\n    http://..../[app]/default/user/logout\n    http://..../[app]/default/user/register\n    http://..../[app]/default/user/profile\n    http://..../[app]/default/user/retrieve_password\n    http://..../[app]/default/user/change_password\n    use @auth.requires_login()\n\t@auth.requires_membership(\'group name\')\n\t@auth.requires_permission(\'read\',\'table name\',record_id)\n    to decorate functions that need access control\n"""\n\ndef download():\n    """\n    allows downloading of uploaded files\n    http://..../[app]/default/download/[filename]\n    """\n    return response.download(request, db)\n\n\ndef call():\n    """\n    exposes services. for example:\n    http://..../[app]/default/call/jsonrpc\n    decorate with @services.jsonrpc the functions to expose\n    supports xml, json, xmlrpc, jsonrpc, amfrpc, rss, csv\n    """\n    return service()\n\n\n@auth.requires_signature()\ndef data():\n    """\n    http://..../[app]/default/data/tables\n    http://..../[app]/default/data/create/[table]\n    http://..../[app]/default/data/read/[table]/[id]\n    http://..../[app]/default/data/update/[table]/[id]\n    http://..../[app]/default/data/delete/[table]/[id]\n    http://..../[app]/default/data/select/[table]\n    http://..../[app]/default/data/search/[table]\n    but URLs must be signed, i.e. linked with\n      A(\'table\',_href=URL(\'data/tables\',user_signature=True))\n    or with the signed load operator\n      LOAD(\'default\',\'data.load\',args=\'tables\',ajax=True,user_signature=True)\n    """\n    return dict(form=crud())\n\nresponse._vars=response._caller(user)\n'
p7
sS'snapshot'
p8
(dp9
S'exception'
p10
(dp11
S'__getslice__'
p12
S"<method-wrapper '__getslice__' of exceptions.SyntaxError object>"
p13
sS'text'
p14
S'"\\ttemp=request.vars[\'nid\'])\\n"'
p15
sS'__str__'
p16
S"<method-wrapper '__str__' of exceptions.SyntaxError object>"
p17
sS'__reduce__'
p18
S'<built-in method __reduce__ of exceptions.SyntaxError object>'
p19
sS'__dict__'
p20
S'{}'
p21
sS'__sizeof__'
p22
S'<built-in method __sizeof__ of exceptions.SyntaxError object>'
p23
sS'__init__'
p24
S"<method-wrapper '__init__' of exceptions.SyntaxError object>"
p25
sS'__setattr__'
p26
S"<method-wrapper '__setattr__' of exceptions.SyntaxError object>"
p27
sS'__reduce_ex__'
p28
S'<built-in method __reduce_ex__ of exceptions.SyntaxError object>'
p29
sS'__new__'
p30
S'<built-in method __new__ of type object>'
p31
sS'__format__'
p32
S'<built-in method __format__ of exceptions.SyntaxError object>'
p33
sS'__class__'
p34
S"<type 'exceptions.SyntaxError'>"
p35
sS'filename'
p36
S"'/home/pankaj/web2py/applications/reddit/controllers/default.py'"
p37
sS'lineno'
p38
S'96'
p39
sS'msg'
p40
S"'invalid syntax'"
p41
sS'__doc__'
p42
S"'Invalid syntax.'"
p43
sS'__getitem__'
p44
S"<method-wrapper '__getitem__' of exceptions.SyntaxError object>"
p45
sS'__setstate__'
p46
S'<built-in method __setstate__ of exceptions.SyntaxError object>'
p47
sS'__getattribute__'
p48
S"<method-wrapper '__getattribute__' of exceptions.SyntaxError object>"
p49
sS'print_file_and_line'
p50
S'None'
p51
sS'args'
p52
S'(\'invalid syntax\', (\'/home/pankaj/web2py/applications/reddit/controllers/default.py\', 96, 26, "\\ttemp=request.vars[\'nid\'])\\n"))'
p53
sS'__subclasshook__'
p54
S'<built-in method __subclasshook__ of type object>'
p55
sS'offset'
p56
S'26'
p57
sS'__unicode__'
p58
S'<built-in method __unicode__ of exceptions.SyntaxError object>'
p59
sS'__delattr__'
p60
S"<method-wrapper '__delattr__' of exceptions.SyntaxError object>"
p61
sS'__repr__'
p62
S"<method-wrapper '__repr__' of exceptions.SyntaxError object>"
p63
sS'__hash__'
p64
S"<method-wrapper '__hash__' of exceptions.SyntaxError object>"
p65
ssS'evalue'
p66
S'invalid syntax (default.py, line 96)'
p67
sS'request'
p68
ccopy_reg
_reconstructor
p69
(cgluon.html
BEAUTIFY
p70
c__builtin__
object
p71
NtRp72
(dp73
S'attributes'
p74
(dp75
sS'components'
p76
(lp77
g69
(cgluon.html
TABLE
p78
g71
NtRp79
(dp80
g74
(dp81
S'level'
p82
I5
ssS'parent'
p83
Nsg76
(lp84
g69
(cgluon.html
TR
p85
g71
NtRp86
(dp87
g74
(dp88
sg83
g79
sg76
(lp89
g69
(cgluon.html
TD
p90
g71
NtRp91
(dp92
g74
(dp93
S'_style'
p94
S'font-weight:bold;vertical-align:top'
p95
ssg83
g86
sg76
(lp96
S'ajax'
p97
asbag69
(g90
g71
NtRp98
(dp99
g74
(dp100
S'_valign'
p101
S'top'
p102
ssg83
g86
sg76
(lp103
S':'
asbag69
(g90
g71
NtRp104
(dp105
g74
(dp106
sg83
g86
sg76
(lp107
g69
(g70
g71
NtRp108
(dp109
g74
(dp110
g82
I5
ssg83
g104
sg76
(lp111
S'False'
p112
asbasbasbag69
(g85
g71
NtRp113
(dp114
g74
(dp115
sg83
g79
sg76
(lp116
g69
(g90
g71
NtRp117
(dp118
g74
(dp119
g94
g95
ssg83
g113
sg76
(lp120
S'application'
p121
asbag69
(g90
g71
NtRp122
(dp123
g74
(dp124
g101
g102
ssg83
g113
sg76
(lp125
S':'
asbag69
(g90
g71
NtRp126
(dp127
g74
(dp128
sg83
g113
sg76
(lp129
g69
(g70
g71
NtRp130
(dp131
g74
(dp132
g82
I5
ssg83
g126
sg76
(lp133
S'reddit'
p134
asbasbasbag69
(g85
g71
NtRp135
(dp136
g74
(dp137
sg83
g79
sg76
(lp138
g69
(g90
g71
NtRp139
(dp140
g74
(dp141
g94
g95
ssg83
g135
sg76
(lp142
g52
asbag69
(g90
g71
NtRp143
(dp144
g74
(dp145
g101
g102
ssg83
g135
sg76
(lp146
S':'
asbag69
(g90
g71
NtRp147
(dp148
g74
(dp149
sg83
g135
sg76
(lp150
g69
(g70
g71
NtRp151
(dp152
g74
(dp153
g82
I5
ssg83
g147
sg76
(lp154
g69
(g78
g71
NtRp155
(dp156
g74
(dp157
g82
I4
ssg83
Nsg76
(lp158
g69
(g85
g71
NtRp159
(dp160
g74
(dp161
sg83
g155
sg76
(lp162
g69
(g90
g71
NtRp163
(dp164
g74
(dp165
sg83
g159
sg76
(lp166
g69
(g70
g71
NtRp167
(dp168
g74
(dp169
g82
I4
ssg83
g163
sg76
(lp170
S'login'
p171
asbasbasbasbasbasbasbag69
(g85
g71
NtRp172
(dp173
g74
(dp174
sg83
g79
sg76
(lp175
g69
(g90
g71
NtRp176
(dp177
g74
(dp178
g94
g95
ssg83
g172
sg76
(lp179
S'body'
p180
asbag69
(g90
g71
NtRp181
(dp182
g74
(dp183
g101
g102
ssg83
g172
sg76
(lp184
S':'
asbag69
(g90
g71
NtRp185
(dp186
g74
(dp187
sg83
g172
sg76
(lp188
g69
(g70
g71
NtRp189
(dp190
g74
(dp191
g82
I5
ssg83
g185
sg76
(lp192
S'<cStringIO.StringO object at 0xae14be80>'
p193
asbasbasbag69
(g85
g71
NtRp194
(dp195
g74
(dp196
sg83
g79
sg76
(lp197
g69
(g90
g71
NtRp198
(dp199
g74
(dp200
g94
g95
ssg83
g194
sg76
(lp201
S'cid'
p202
asbag69
(g90
g71
NtRp203
(dp204
g74
(dp205
g101
g102
ssg83
g194
sg76
(lp206
S':'
asbag69
(g90
g71
NtRp207
(dp208
g74
(dp209
sg83
g194
sg76
(lp210
g69
(g70
g71
NtRp211
(dp212
g74
(dp213
g82
I5
ssg83
g207
sg76
(lp214
S'None'
p215
asbasbasbag69
(g85
g71
NtRp216
(dp217
g74
(dp218
sg83
g79
sg76
(lp219
g69
(g90
g71
NtRp220
(dp221
g74
(dp222
g94
g95
ssg83
g216
sg76
(lp223
S'client'
p224
asbag69
(g90
g71
NtRp225
(dp226
g74
(dp227
g101
g102
ssg83
g216
sg76
(lp228
S':'
asbag69
(g90
g71
NtRp229
(dp230
g74
(dp231
sg83
g216
sg76
(lp232
g69
(g70
g71
NtRp233
(dp234
g74
(dp235
g82
I5
ssg83
g229
sg76
(lp236
S'127.0.0.1'
p237
asbasbasbag69
(g85
g71
NtRp238
(dp239
g74
(dp240
sg83
g79
sg76
(lp241
g69
(g90
g71
NtRp242
(dp243
g74
(dp244
g94
g95
ssg83
g238
sg76
(lp245
S'controller'
p246
asbag69
(g90
g71
NtRp247
(dp248
g74
(dp249
g101
g102
ssg83
g238
sg76
(lp250
S':'
asbag69
(g90
g71
NtRp251
(dp252
g74
(dp253
sg83
g238
sg76
(lp254
g69
(g70
g71
NtRp255
(dp256
g74
(dp257
g82
I5
ssg83
g251
sg76
(lp258
S'default'
p259
asbasbasbag69
(g85
g71
NtRp260
(dp261
g74
(dp262
sg83
g79
sg76
(lp263
g69
(g90
g71
NtRp264
(dp265
g74
(dp266
g94
g95
ssg83
g260
sg76
(lp267
S'cookies'
p268
asbag69
(g90
g71
NtRp269
(dp270
g74
(dp271
g101
g102
ssg83
g260
sg76
(lp272
S':'
asbag69
(g90
g71
NtRp273
(dp274
g74
(dp275
sg83
g260
sg76
(lp276
g69
(g70
g71
NtRp277
(dp278
g74
(dp279
g82
I5
ssg83
g273
sg76
(lp280
g69
(g78
g71
NtRp281
(dp282
g74
(dp283
g82
I4
ssg83
Nsg76
(lp284
g69
(g85
g71
NtRp285
(dp286
g74
(dp287
sg83
g281
sg76
(lp288
g69
(g90
g71
NtRp289
(dp290
g74
(dp291
g94
g95
ssg83
g285
sg76
(lp292
S'session_id_admin'
p293
asbag69
(g90
g71
NtRp294
(dp295
g74
(dp296
g101
g102
ssg83
g285
sg76
(lp297
S':'
asbag69
(g90
g71
NtRp298
(dp299
g74
(dp300
sg83
g285
sg76
(lp301
g69
(g70
g71
NtRp302
(dp303
g74
(dp304
g82
I4
ssg83
g298
sg76
(lp305
S'127.0.0.1-b12d36e5-38f3-46ab-bf33-377848bfeca4'
p306
ag69
(g78
g71
NtRp307
(dp308
g74
(dp309
g82
I3
ssg83
Nsg76
(lp310
g69
(g85
g71
NtRp311
(dp312
g74
(dp313
sg83
g307
sg76
(lp314
g69
(g90
g71
NtRp315
(dp316
g74
(dp317
g94
g95
ssg83
g311
sg76
(lp318
S'comment'
p319
asbag69
(g90
g71
NtRp320
(dp321
g74
(dp322
g101
g102
ssg83
g311
sg76
(lp323
S':'
asbag69
(g90
g71
NtRp324
(dp325
g74
(dp326
sg83
g311
sg76
(lp327
g69
(g70
g71
NtRp328
(dp329
g74
(dp330
g82
I3
ssg83
g324
sg76
(lp331
S''
asbasbasbag69
(g85
g71
NtRp332
(dp333
g74
(dp334
sg83
g307
sg76
(lp335
g69
(g90
g71
NtRp336
(dp337
g74
(dp338
g94
g95
ssg83
g332
sg76
(lp339
S'domain'
p340
asbag69
(g90
g71
NtRp341
(dp342
g74
(dp343
g101
g102
ssg83
g332
sg76
(lp344
S':'
asbag69
(g90
g71
NtRp345
(dp346
g74
(dp347
sg83
g332
sg76
(lp348
g69
(g70
g71
NtRp349
(dp350
g74
(dp351
g82
I3
ssg83
g345
sg76
(lp352
S''
asbasbasbag69
(g85
g71
NtRp353
(dp354
g74
(dp355
sg83
g307
sg76
(lp356
g69
(g90
g71
NtRp357
(dp358
g74
(dp359
g94
g95
ssg83
g353
sg76
(lp360
S'expires'
p361
asbag69
(g90
g71
NtRp362
(dp363
g74
(dp364
g101
g102
ssg83
g353
sg76
(lp365
S':'
asbag69
(g90
g71
NtRp366
(dp367
g74
(dp368
sg83
g353
sg76
(lp369
g69
(g70
g71
NtRp370
(dp371
g74
(dp372
g82
I3
ssg83
g366
sg76
(lp373
S''
asbasbasbag69
(g85
g71
NtRp374
(dp375
g74
(dp376
sg83
g307
sg76
(lp377
g69
(g90
g71
NtRp378
(dp379
g74
(dp380
g94
g95
ssg83
g374
sg76
(lp381
S'httponly'
p382
asbag69
(g90
g71
NtRp383
(dp384
g74
(dp385
g101
g102
ssg83
g374
sg76
(lp386
S':'
asbag69
(g90
g71
NtRp387
(dp388
g74
(dp389
sg83
g374
sg76
(lp390
g69
(g70
g71
NtRp391
(dp392
g74
(dp393
g82
I3
ssg83
g387
sg76
(lp394
S''
asbasbasbag69
(g85
g71
NtRp395
(dp396
g74
(dp397
sg83
g307
sg76
(lp398
g69
(g90
g71
NtRp399
(dp400
g74
(dp401
g94
g95
ssg83
g395
sg76
(lp402
S'max-age'
p403
asbag69
(g90
g71
NtRp404
(dp405
g74
(dp406
g101
g102
ssg83
g395
sg76
(lp407
S':'
asbag69
(g90
g71
NtRp408
(dp409
g74
(dp410
sg83
g395
sg76
(lp411
g69
(g70
g71
NtRp412
(dp413
g74
(dp414
g82
I3
ssg83
g408
sg76
(lp415
S''
asbasbasbag69
(g85
g71
NtRp416
(dp417
g74
(dp418
sg83
g307
sg76
(lp419
g69
(g90
g71
NtRp420
(dp421
g74
(dp422
g94
g95
ssg83
g416
sg76
(lp423
S'path'
p424
asbag69
(g90
g71
NtRp425
(dp426
g74
(dp427
g101
g102
ssg83
g416
sg76
(lp428
S':'
asbag69
(g90
g71
NtRp429
(dp430
g74
(dp431
sg83
g416
sg76
(lp432
g69
(g70
g71
NtRp433
(dp434
g74
(dp435
g82
I3
ssg83
g429
sg76
(lp436
S''
asbasbasbag69
(g85
g71
NtRp437
(dp438
g74
(dp439
sg83
g307
sg76
(lp440
g69
(g90
g71
NtRp441
(dp442
g74
(dp443
g94
g95
ssg83
g437
sg76
(lp444
S'secure'
p445
asbag69
(g90
g71
NtRp446
(dp447
g74
(dp448
g101
g102
ssg83
g437
sg76
(lp449
S':'
asbag69
(g90
g71
NtRp450
(dp451
g74
(dp452
sg83
g437
sg76
(lp453
g69
(g70
g71
NtRp454
(dp455
g74
(dp456
g82
I3
ssg83
g450
sg76
(lp457
S''
asbasbasbag69
(g85
g71
NtRp458
(dp459
g74
(dp460
sg83
g307
sg76
(lp461
g69
(g90
g71
NtRp462
(dp463
g74
(dp464
g94
g95
ssg83
g458
sg76
(lp465
S'version'
p466
asbag69
(g90
g71
NtRp467
(dp468
g74
(dp469
g101
g102
ssg83
g458
sg76
(lp470
S':'
asbag69
(g90
g71
NtRp471
(dp472
g74
(dp473
sg83
g458
sg76
(lp474
g69
(g70
g71
NtRp475
(dp476
g74
(dp477
g82
I3
ssg83
g471
sg76
(lp478
S''
asbasbasbasbasbasbasbag69
(g85
g71
NtRp479
(dp480
g74
(dp481
sg83
g281
sg76
(lp482
g69
(g90
g71
NtRp483
(dp484
g74
(dp485
g94
g95
ssg83
g479
sg76
(lp486
S'session_id_cataminder'
p487
asbag69
(g90
g71
NtRp488
(dp489
g74
(dp490
g101
g102
ssg83
g479
sg76
(lp491
S':'
asbag69
(g90
g71
NtRp492
(dp493
g74
(dp494
sg83
g479
sg76
(lp495
g69
(g70
g71
NtRp496
(dp497
g74
(dp498
g82
I4
ssg83
g492
sg76
(lp499
S'127.0.0.1-f68dfbc3-e46b-4d7f-ad40-351d31d2febb'
p500
ag69
(g78
g71
NtRp501
(dp502
g74
(dp503
g82
I3
ssg83
Nsg76
(lp504
g69
(g85
g71
NtRp505
(dp506
g74
(dp507
sg83
g501
sg76
(lp508
g69
(g90
g71
NtRp509
(dp510
g74
(dp511
g94
g95
ssg83
g505
sg76
(lp512
g319
asbag69
(g90
g71
NtRp513
(dp514
g74
(dp515
g101
g102
ssg83
g505
sg76
(lp516
S':'
asbag69
(g90
g71
NtRp517
(dp518
g74
(dp519
sg83
g505
sg76
(lp520
g69
(g70
g71
NtRp521
(dp522
g74
(dp523
g82
I3
ssg83
g517
sg76
(lp524
S''
asbasbasbag69
(g85
g71
NtRp525
(dp526
g74
(dp527
sg83
g501
sg76
(lp528
g69
(g90
g71
NtRp529
(dp530
g74
(dp531
g94
g95
ssg83
g525
sg76
(lp532
g340
asbag69
(g90
g71
NtRp533
(dp534
g74
(dp535
g101
g102
ssg83
g525
sg76
(lp536
S':'
asbag69
(g90
g71
NtRp537
(dp538
g74
(dp539
sg83
g525
sg76
(lp540
g69
(g70
g71
NtRp541
(dp542
g74
(dp543
g82
I3
ssg83
g537
sg76
(lp544
S''
asbasbasbag69
(g85
g71
NtRp545
(dp546
g74
(dp547
sg83
g501
sg76
(lp548
g69
(g90
g71
NtRp549
(dp550
g74
(dp551
g94
g95
ssg83
g545
sg76
(lp552
g361
asbag69
(g90
g71
NtRp553
(dp554
g74
(dp555
g101
g102
ssg83
g545
sg76
(lp556
S':'
asbag69
(g90
g71
NtRp557
(dp558
g74
(dp559
sg83
g545
sg76
(lp560
g69
(g70
g71
NtRp561
(dp562
g74
(dp563
g82
I3
ssg83
g557
sg76
(lp564
S''
asbasbasbag69
(g85
g71
NtRp565
(dp566
g74
(dp567
sg83
g501
sg76
(lp568
g69
(g90
g71
NtRp569
(dp570
g74
(dp571
g94
g95
ssg83
g565
sg76
(lp572
g382
asbag69
(g90
g71
NtRp573
(dp574
g74
(dp575
g101
g102
ssg83
g565
sg76
(lp576
S':'
asbag69
(g90
g71
NtRp577
(dp578
g74
(dp579
sg83
g565
sg76
(lp580
g69
(g70
g71
NtRp581
(dp582
g74
(dp583
g82
I3
ssg83
g577
sg76
(lp584
S''
asbasbasbag69
(g85
g71
NtRp585
(dp586
g74
(dp587
sg83
g501
sg76
(lp588
g69
(g90
g71
NtRp589
(dp590
g74
(dp591
g94
g95
ssg83
g585
sg76
(lp592
g403
asbag69
(g90
g71
NtRp593
(dp594
g74
(dp595
g101
g102
ssg83
g585
sg76
(lp596
S':'
asbag69
(g90
g71
NtRp597
(dp598
g74
(dp599
sg83
g585
sg76
(lp600
g69
(g70
g71
NtRp601
(dp602
g74
(dp603
g82
I3
ssg83
g597
sg76
(lp604
S''
asbasbasbag69
(g85
g71
NtRp605
(dp606
g74
(dp607
sg83
g501
sg76
(lp608
g69
(g90
g71
NtRp609
(dp610
g74
(dp611
g94
g95
ssg83
g605
sg76
(lp612
g424
asbag69
(g90
g71
NtRp613
(dp614
g74
(dp615
g101
g102
ssg83
g605
sg76
(lp616
S':'
asbag69
(g90
g71
NtRp617
(dp618
g74
(dp619
sg83
g605
sg76
(lp620
g69
(g70
g71
NtRp621
(dp622
g74
(dp623
g82
I3
ssg83
g617
sg76
(lp624
S''
asbasbasbag69
(g85
g71
NtRp625
(dp626
g74
(dp627
sg83
g501
sg76
(lp628
g69
(g90
g71
NtRp629
(dp630
g74
(dp631
g94
g95
ssg83
g625
sg76
(lp632
g445
asbag69
(g90
g71
NtRp633
(dp634
g74
(dp635
g101
g102
ssg83
g625
sg76
(lp636
S':'
asbag69
(g90
g71
NtRp637
(dp638
g74
(dp639
sg83
g625
sg76
(lp640
g69
(g70
g71
NtRp641
(dp642
g74
(dp643
g82
I3
ssg83
g637
sg76
(lp644
S''
asbasbasbag69
(g85
g71
NtRp645
(dp646
g74
(dp647
sg83
g501
sg76
(lp648
g69
(g90
g71
NtRp649
(dp650
g74
(dp651
g94
g95
ssg83
g645
sg76
(lp652
g466
asbag69
(g90
g71
NtRp653
(dp654
g74
(dp655
g101
g102
ssg83
g645
sg76
(lp656
S':'
asbag69
(g90
g71
NtRp657
(dp658
g74
(dp659
sg83
g645
sg76
(lp660
g69
(g70
g71
NtRp661
(dp662
g74
(dp663
g82
I3
ssg83
g657
sg76
(lp664
S''
asbasbasbasbasbasbasbag69
(g85
g71
NtRp665
(dp666
g74
(dp667
sg83
g281
sg76
(lp668
g69
(g90
g71
NtRp669
(dp670
g74
(dp671
g94
g95
ssg83
g665
sg76
(lp672
S'session_id_reddit'
p673
asbag69
(g90
g71
NtRp674
(dp675
g74
(dp676
g101
g102
ssg83
g665
sg76
(lp677
S':'
asbag69
(g90
g71
NtRp678
(dp679
g74
(dp680
sg83
g665
sg76
(lp681
g69
(g70
g71
NtRp682
(dp683
g74
(dp684
g82
I4
ssg83
g678
sg76
(lp685
S'127.0.0.1-24289f39-32a1-48fb-a367-22792fb8b813'
p686
ag69
(g78
g71
NtRp687
(dp688
g74
(dp689
g82
I3
ssg83
Nsg76
(lp690
g69
(g85
g71
NtRp691
(dp692
g74
(dp693
sg83
g687
sg76
(lp694
g69
(g90
g71
NtRp695
(dp696
g74
(dp697
g94
g95
ssg83
g691
sg76
(lp698
g319
asbag69
(g90
g71
NtRp699
(dp700
g74
(dp701
g101
g102
ssg83
g691
sg76
(lp702
S':'
asbag69
(g90
g71
NtRp703
(dp704
g74
(dp705
sg83
g691
sg76
(lp706
g69
(g70
g71
NtRp707
(dp708
g74
(dp709
g82
I3
ssg83
g703
sg76
(lp710
S''
asbasbasbag69
(g85
g71
NtRp711
(dp712
g74
(dp713
sg83
g687
sg76
(lp714
g69
(g90
g71
NtRp715
(dp716
g74
(dp717
g94
g95
ssg83
g711
sg76
(lp718
g340
asbag69
(g90
g71
NtRp719
(dp720
g74
(dp721
g101
g102
ssg83
g711
sg76
(lp722
S':'
asbag69
(g90
g71
NtRp723
(dp724
g74
(dp725
sg83
g711
sg76
(lp726
g69
(g70
g71
NtRp727
(dp728
g74
(dp729
g82
I3
ssg83
g723
sg76
(lp730
S''
asbasbasbag69
(g85
g71
NtRp731
(dp732
g74
(dp733
sg83
g687
sg76
(lp734
g69
(g90
g71
NtRp735
(dp736
g74
(dp737
g94
g95
ssg83
g731
sg76
(lp738
g361
asbag69
(g90
g71
NtRp739
(dp740
g74
(dp741
g101
g102
ssg83
g731
sg76
(lp742
S':'
asbag69
(g90
g71
NtRp743
(dp744
g74
(dp745
sg83
g731
sg76
(lp746
g69
(g70
g71
NtRp747
(dp748
g74
(dp749
g82
I3
ssg83
g743
sg76
(lp750
S''
asbasbasbag69
(g85
g71
NtRp751
(dp752
g74
(dp753
sg83
g687
sg76
(lp754
g69
(g90
g71
NtRp755
(dp756
g74
(dp757
g94
g95
ssg83
g751
sg76
(lp758
g382
asbag69
(g90
g71
NtRp759
(dp760
g74
(dp761
g101
g102
ssg83
g751
sg76
(lp762
S':'
asbag69
(g90
g71
NtRp763
(dp764
g74
(dp765
sg83
g751
sg76
(lp766
g69
(g70
g71
NtRp767
(dp768
g74
(dp769
g82
I3
ssg83
g763
sg76
(lp770
S''
asbasbasbag69
(g85
g71
NtRp771
(dp772
g74
(dp773
sg83
g687
sg76
(lp774
g69
(g90
g71
NtRp775
(dp776
g74
(dp777
g94
g95
ssg83
g771
sg76
(lp778
g403
asbag69
(g90
g71
NtRp779
(dp780
g74
(dp781
g101
g102
ssg83
g771
sg76
(lp782
S':'
asbag69
(g90
g71
NtRp783
(dp784
g74
(dp785
sg83
g771
sg76
(lp786
g69
(g70
g71
NtRp787
(dp788
g74
(dp789
g82
I3
ssg83
g783
sg76
(lp790
S''
asbasbasbag69
(g85
g71
NtRp791
(dp792
g74
(dp793
sg83
g687
sg76
(lp794
g69
(g90
g71
NtRp795
(dp796
g74
(dp797
g94
g95
ssg83
g791
sg76
(lp798
g424
asbag69
(g90
g71
NtRp799
(dp800
g74
(dp801
g101
g102
ssg83
g791
sg76
(lp802
S':'
asbag69
(g90
g71
NtRp803
(dp804
g74
(dp805
sg83
g791
sg76
(lp806
g69
(g70
g71
NtRp807
(dp808
g74
(dp809
g82
I3
ssg83
g803
sg76
(lp810
S''
asbasbasbag69
(g85
g71
NtRp811
(dp812
g74
(dp813
sg83
g687
sg76
(lp814
g69
(g90
g71
NtRp815
(dp816
g74
(dp817
g94
g95
ssg83
g811
sg76
(lp818
g445
asbag69
(g90
g71
NtRp819
(dp820
g74
(dp821
g101
g102
ssg83
g811
sg76
(lp822
S':'
asbag69
(g90
g71
NtRp823
(dp824
g74
(dp825
sg83
g811
sg76
(lp826
g69
(g70
g71
NtRp827
(dp828
g74
(dp829
g82
I3
ssg83
g823
sg76
(lp830
S''
asbasbasbag69
(g85
g71
NtRp831
(dp832
g74
(dp833
sg83
g687
sg76
(lp834
g69
(g90
g71
NtRp835
(dp836
g74
(dp837
g94
g95
ssg83
g831
sg76
(lp838
g466
asbag69
(g90
g71
NtRp839
(dp840
g74
(dp841
g101
g102
ssg83
g831
sg76
(lp842
S':'
asbag69
(g90
g71
NtRp843
(dp844
g74
(dp845
sg83
g831
sg76
(lp846
g69
(g70
g71
NtRp847
(dp848
g74
(dp849
g82
I3
ssg83
g843
sg76
(lp850
S''
asbasbasbasbasbasbasbag69
(g85
g71
NtRp851
(dp852
g74
(dp853
sg83
g281
sg76
(lp854
g69
(g90
g71
NtRp855
(dp856
g74
(dp857
g94
g95
ssg83
g851
sg76
(lp858
S'session_id_welcome'
p859
asbag69
(g90
g71
NtRp860
(dp861
g74
(dp862
g101
g102
ssg83
g851
sg76
(lp863
S':'
asbag69
(g90
g71
NtRp864
(dp865
g74
(dp866
sg83
g851
sg76
(lp867
g69
(g70
g71
NtRp868
(dp869
g74
(dp870
g82
I4
ssg83
g864
sg76
(lp871
S'127.0.0.1-6c6acb01-dab7-498a-a6cb-f847f2ae3337'
p872
ag69
(g78
g71
NtRp873
(dp874
g74
(dp875
g82
I3
ssg83
Nsg76
(lp876
g69
(g85
g71
NtRp877
(dp878
g74
(dp879
sg83
g873
sg76
(lp880
g69
(g90
g71
NtRp881
(dp882
g74
(dp883
g94
g95
ssg83
g877
sg76
(lp884
g319
asbag69
(g90
g71
NtRp885
(dp886
g74
(dp887
g101
g102
ssg83
g877
sg76
(lp888
S':'
asbag69
(g90
g71
NtRp889
(dp890
g74
(dp891
sg83
g877
sg76
(lp892
g69
(g70
g71
NtRp893
(dp894
g74
(dp895
g82
I3
ssg83
g889
sg76
(lp896
S''
asbasbasbag69
(g85
g71
NtRp897
(dp898
g74
(dp899
sg83
g873
sg76
(lp900
g69
(g90
g71
NtRp901
(dp902
g74
(dp903
g94
g95
ssg83
g897
sg76
(lp904
g340
asbag69
(g90
g71
NtRp905
(dp906
g74
(dp907
g101
g102
ssg83
g897
sg76
(lp908
S':'
asbag69
(g90
g71
NtRp909
(dp910
g74
(dp911
sg83
g897
sg76
(lp912
g69
(g70
g71
NtRp913
(dp914
g74
(dp915
g82
I3
ssg83
g909
sg76
(lp916
S''
asbasbasbag69
(g85
g71
NtRp917
(dp918
g74
(dp919
sg83
g873
sg76
(lp920
g69
(g90
g71
NtRp921
(dp922
g74
(dp923
g94
g95
ssg83
g917
sg76
(lp924
g361
asbag69
(g90
g71
NtRp925
(dp926
g74
(dp927
g101
g102
ssg83
g917
sg76
(lp928
S':'
asbag69
(g90
g71
NtRp929
(dp930
g74
(dp931
sg83
g917
sg76
(lp932
g69
(g70
g71
NtRp933
(dp934
g74
(dp935
g82
I3
ssg83
g929
sg76
(lp936
S''
asbasbasbag69
(g85
g71
NtRp937
(dp938
g74
(dp939
sg83
g873
sg76
(lp940
g69
(g90
g71
NtRp941
(dp942
g74
(dp943
g94
g95
ssg83
g937
sg76
(lp944
g382
asbag69
(g90
g71
NtRp945
(dp946
g74
(dp947
g101
g102
ssg83
g937
sg76
(lp948
S':'
asbag69
(g90
g71
NtRp949
(dp950
g74
(dp951
sg83
g937
sg76
(lp952
g69
(g70
g71
NtRp953
(dp954
g74
(dp955
g82
I3
ssg83
g949
sg76
(lp956
S''
asbasbasbag69
(g85
g71
NtRp957
(dp958
g74
(dp959
sg83
g873
sg76
(lp960
g69
(g90
g71
NtRp961
(dp962
g74
(dp963
g94
g95
ssg83
g957
sg76
(lp964
g403
asbag69
(g90
g71
NtRp965
(dp966
g74
(dp967
g101
g102
ssg83
g957
sg76
(lp968
S':'
asbag69
(g90
g71
NtRp969
(dp970
g74
(dp971
sg83
g957
sg76
(lp972
g69
(g70
g71
NtRp973
(dp974
g74
(dp975
g82
I3
ssg83
g969
sg76
(lp976
S''
asbasbasbag69
(g85
g71
NtRp977
(dp978
g74
(dp979
sg83
g873
sg76
(lp980
g69
(g90
g71
NtRp981
(dp982
g74
(dp983
g94
g95
ssg83
g977
sg76
(lp984
g424
asbag69
(g90
g71
NtRp985
(dp986
g74
(dp987
g101
g102
ssg83
g977
sg76
(lp988
S':'
asbag69
(g90
g71
NtRp989
(dp990
g74
(dp991
sg83
g977
sg76
(lp992
g69
(g70
g71
NtRp993
(dp994
g74
(dp995
g82
I3
ssg83
g989
sg76
(lp996
S''
asbasbasbag69
(g85
g71
NtRp997
(dp998
g74
(dp999
sg83
g873
sg76
(lp1000
g69
(g90
g71
NtRp1001
(dp1002
g74
(dp1003
g94
g95
ssg83
g997
sg76
(lp1004
g445
asbag69
(g90
g71
NtRp1005
(dp1006
g74
(dp1007
g101
g102
ssg83
g997
sg76
(lp1008
S':'
asbag69
(g90
g71
NtRp1009
(dp1010
g74
(dp1011
sg83
g997
sg76
(lp1012
g69
(g70
g71
NtRp1013
(dp1014
g74
(dp1015
g82
I3
ssg83
g1009
sg76
(lp1016
S''
asbasbasbag69
(g85
g71
NtRp1017
(dp1018
g74
(dp1019
sg83
g873
sg76
(lp1020
g69
(g90
g71
NtRp1021
(dp1022
g74
(dp1023
g94
g95
ssg83
g1017
sg76
(lp1024
g466
asbag69
(g90
g71
NtRp1025
(dp1026
g74
(dp1027
g101
g102
ssg83
g1017
sg76
(lp1028
S':'
asbag69
(g90
g71
NtRp1029
(dp1030
g74
(dp1031
sg83
g1017
sg76
(lp1032
g69
(g70
g71
NtRp1033
(dp1034
g74
(dp1035
g82
I3
ssg83
g1029
sg76
(lp1036
S''
asbasbasbasbasbasbasbasbasbasbasbag69
(g85
g71
NtRp1037
(dp1038
g74
(dp1039
sg83
g79
sg76
(lp1040
g69
(g90
g71
NtRp1041
(dp1042
g74
(dp1043
g94
g95
ssg83
g1037
sg76
(lp1044
S'env'
p1045
asbag69
(g90
g71
NtRp1046
(dp1047
g74
(dp1048
g101
g102
ssg83
g1037
sg76
(lp1049
S':'
asbag69
(g90
g71
NtRp1050
(dp1051
g74
(dp1052
sg83
g1037
sg76
(lp1053
g69
(g70
g71
NtRp1054
(dp1055
g74
(dp1056
g82
I5
ssg83
g1050
sg76
(lp1057
g69
(g78
g71
NtRp1058
(dp1059
g74
(dp1060
g82
I4
ssg83
Nsg76
(lp1061
g69
(g85
g71
NtRp1062
(dp1063
g74
(dp1064
sg83
g1058
sg76
(lp1065
g69
(g90
g71
NtRp1066
(dp1067
g74
(dp1068
g94
g95
ssg83
g1062
sg76
(lp1069
S'app_folders'
p1070
asbag69
(g90
g71
NtRp1071
(dp1072
g74
(dp1073
g101
g102
ssg83
g1062
sg76
(lp1074
S':'
asbag69
(g90
g71
NtRp1075
(dp1076
g74
(dp1077
sg83
g1062
sg76
(lp1078
g69
(g70
g71
NtRp1079
(dp1080
g74
(dp1081
g82
I4
ssg83
g1075
sg76
(lp1082
S"set(['/home/pankaj/web2py/applications/admin/', '/home/pankaj/web2py/applications/welcome/', '/home/pankaj/web2py/applications/Cataminder/', '/home/pankaj/web2py/applications/reddit/'])"
p1083
asbasbasbag69
(g85
g71
NtRp1084
(dp1085
g74
(dp1086
sg83
g1058
sg76
(lp1087
g69
(g90
g71
NtRp1088
(dp1089
g74
(dp1090
g94
g95
ssg83
g1084
sg76
(lp1091
S'applications_parent'
p1092
asbag69
(g90
g71
NtRp1093
(dp1094
g74
(dp1095
g101
g102
ssg83
g1084
sg76
(lp1096
S':'
asbag69
(g90
g71
NtRp1097
(dp1098
g74
(dp1099
sg83
g1084
sg76
(lp1100
g69
(g70
g71
NtRp1101
(dp1102
g74
(dp1103
g82
I4
ssg83
g1097
sg76
(lp1104
S'/home/pankaj/web2py'
p1105
asbasbasbag69
(g85
g71
NtRp1106
(dp1107
g74
(dp1108
sg83
g1058
sg76
(lp1109
g69
(g90
g71
NtRp1110
(dp1111
g74
(dp1112
g94
g95
ssg83
g1106
sg76
(lp1113
S'cmd_args'
p1114
asbag69
(g90
g71
NtRp1115
(dp1116
g74
(dp1117
g101
g102
ssg83
g1106
sg76
(lp1118
S':'
asbag69
(g90
g71
NtRp1119
(dp1120
g74
(dp1121
sg83
g1106
sg76
(lp1122
g69
(g70
g71
NtRp1123
(dp1124
g74
(dp1125
g82
I4
ssg83
g1119
sg76
(lp1126
g69
(g78
g71
NtRp1127
(dp1128
g74
(dp1129
g82
I3
ssg83
Nsg76
(lp1130
sbasbasbasbag69
(g85
g71
NtRp1131
(dp1132
g74
(dp1133
sg83
g1058
sg76
(lp1134
g69
(g90
g71
NtRp1135
(dp1136
g74
(dp1137
g94
g95
ssg83
g1131
sg76
(lp1138
S'cmd_options'
p1139
asbag69
(g90
g71
NtRp1140
(dp1141
g74
(dp1142
g101
g102
ssg83
g1131
sg76
(lp1143
S':'
asbag69
(g90
g71
NtRp1144
(dp1145
g74
(dp1146
sg83
g1131
sg76
(lp1147
g69
(g70
g71
NtRp1148
(dp1149
g74
(dp1150
g82
I4
ssg83
g1144
sg76
(lp1151
S"<Values at 0x96dbdcc: {'verbose': False, 'ip': '127.0.0.1', 'with_scheduler': False, 'ips': [], 'shutdown_timeout': 5, 'taskbar': False, 'port': 8000, 'maxthreads': None, 'softcron': False, 'server_name': 'pankaj-HP-Pavilion-dv4-Notebook-PC', 'bpython': False, 'nogui': False, 'pid_filename': 'httpserver.pid', 'extcron': False, 'runcron': False, 'run_system_tests': False, 'test': None, 'folder': '/home/pankaj/web2py', 'config': '', 'import_models': False, 'winservice': '', 'shell': None, 'run': '', 'log_filename': 'httpserver.log', 'debuglevel': 30, 'args': [''], 'socket_timeout': 5, 'ssl_ca_certificate': None, 'scheduler': None, 'profiler_filename': None, 'ssl_private_key': '', 'scheduler_groups': None, 'password': '<ask>', 'request_queue_size': 5, 'ssl_certificate': '', 'cronjob': False, 'numthreads': None, 'quiet': False, 'interfaces': None, 'minthreads': None, 'timeout': 10, 'plain': False, 'nobanner': False}>"
p1152
asbasbasbag69
(g85
g71
NtRp1153
(dp1154
g74
(dp1155
sg83
g1058
sg76
(lp1156
g69
(g90
g71
NtRp1157
(dp1158
g74
(dp1159
g94
g95
ssg83
g1153
sg76
(lp1160
S'db_sessions'
p1161
asbag69
(g90
g71
NtRp1162
(dp1163
g74
(dp1164
g101
g102
ssg83
g1153
sg76
(lp1165
S':'
asbag69
(g90
g71
NtRp1166
(dp1167
g74
(dp1168
sg83
g1153
sg76
(lp1169
g69
(g70
g71
NtRp1170
(dp1171
g74
(dp1172
g82
I4
ssg83
g1166
sg76
(lp1173
S'set([])'
p1174
asbasbasbag69
(g85
g71
NtRp1175
(dp1176
g74
(dp1177
sg83
g1058
sg76
(lp1178
g69
(g90
g71
NtRp1179
(dp1180
g74
(dp1181
g94
g95
ssg83
g1175
sg76
(lp1182
S'debugging'
p1183
asbag69
(g90
g71
NtRp1184
(dp1185
g74
(dp1186
g101
g102
ssg83
g1175
sg76
(lp1187
S':'
asbag69
(g90
g71
NtRp1188
(dp1189
g74
(dp1190
sg83
g1175
sg76
(lp1191
g69
(g70
g71
NtRp1192
(dp1193
g74
(dp1194
g82
I4
ssg83
g1188
sg76
(lp1195
g112
asbasbasbag69
(g85
g71
NtRp1196
(dp1197
g74
(dp1198
sg83
g1058
sg76
(lp1199
g69
(g90
g71
NtRp1200
(dp1201
g74
(dp1202
g94
g95
ssg83
g1196
sg76
(lp1203
S'gluon_parent'
p1204
asbag69
(g90
g71
NtRp1205
(dp1206
g74
(dp1207
g101
g102
ssg83
g1196
sg76
(lp1208
S':'
asbag69
(g90
g71
NtRp1209
(dp1210
g74
(dp1211
sg83
g1196
sg76
(lp1212
g69
(g70
g71
NtRp1213
(dp1214
g74
(dp1215
g82
I4
ssg83
g1209
sg76
(lp1216
S'/home/pankaj/web2py'
p1217
asbasbasbag69
(g85
g71
NtRp1218
(dp1219
g74
(dp1220
sg83
g1058
sg76
(lp1221
g69
(g90
g71
NtRp1222
(dp1223
g74
(dp1224
g94
g95
ssg83
g1218
sg76
(lp1225
S'http_accept'
p1226
asbag69
(g90
g71
NtRp1227
(dp1228
g74
(dp1229
g101
g102
ssg83
g1218
sg76
(lp1230
S':'
asbag69
(g90
g71
NtRp1231
(dp1232
g74
(dp1233
sg83
g1218
sg76
(lp1234
g69
(g70
g71
NtRp1235
(dp1236
g74
(dp1237
g82
I4
ssg83
g1231
sg76
(lp1238
S'text/html,application/xhtml+xml,application/xml;q=0.9,*/*;q=0.8'
p1239
asbasbasbag69
(g85
g71
NtRp1240
(dp1241
g74
(dp1242
sg83
g1058
sg76
(lp1243
g69
(g90
g71
NtRp1244
(dp1245
g74
(dp1246
g94
g95
ssg83
g1240
sg76
(lp1247
S'http_accept_encoding'
p1248
asbag69
(g90
g71
NtRp1249
(dp1250
g74
(dp1251
g101
g102
ssg83
g1240
sg76
(lp1252
S':'
asbag69
(g90
g71
NtRp1253
(dp1254
g74
(dp1255
sg83
g1240
sg76
(lp1256
g69
(g70
g71
NtRp1257
(dp1258
g74
(dp1259
g82
I4
ssg83
g1253
sg76
(lp1260
S'gzip, deflate'
p1261
asbasbasbag69
(g85
g71
NtRp1262
(dp1263
g74
(dp1264
sg83
g1058
sg76
(lp1265
g69
(g90
g71
NtRp1266
(dp1267
g74
(dp1268
g94
g95
ssg83
g1262
sg76
(lp1269
S'http_accept_language'
p1270
asbag69
(g90
g71
NtRp1271
(dp1272
g74
(dp1273
g101
g102
ssg83
g1262
sg76
(lp1274
S':'
asbag69
(g90
g71
NtRp1275
(dp1276
g74
(dp1277
sg83
g1262
sg76
(lp1278
g69
(g70
g71
NtRp1279
(dp1280
g74
(dp1281
g82
I4
ssg83
g1275
sg76
(lp1282
S'en-US,en;q=0.5'
p1283
asbasbasbag69
(g85
g71
NtRp1284
(dp1285
g74
(dp1286
sg83
g1058
sg76
(lp1287
g69
(g90
g71
NtRp1288
(dp1289
g74
(dp1290
g94
g95
ssg83
g1284
sg76
(lp1291
S'http_connection'
p1292
asbag69
(g90
g71
NtRp1293
(dp1294
g74
(dp1295
g101
g102
ssg83
g1284
sg76
(lp1296
S':'
asbag69
(g90
g71
NtRp1297
(dp1298
g74
(dp1299
sg83
g1284
sg76
(lp1300
g69
(g70
g71
NtRp1301
(dp1302
g74
(dp1303
g82
I4
ssg83
g1297
sg76
(lp1304
S'keep-alive'
p1305
asbasbasbag69
(g85
g71
NtRp1306
(dp1307
g74
(dp1308
sg83
g1058
sg76
(lp1309
g69
(g90
g71
NtRp1310
(dp1311
g74
(dp1312
g94
g95
ssg83
g1306
sg76
(lp1313
S'http_cookie'
p1314
asbag69
(g90
g71
NtRp1315
(dp1316
g74
(dp1317
g101
g102
ssg83
g1306
sg76
(lp1318
S':'
asbag69
(g90
g71
NtRp1319
(dp1320
g74
(dp1321
sg83
g1306
sg76
(lp1322
g69
(g70
g71
NtRp1323
(dp1324
g74
(dp1325
g82
I4
ssg83
g1319
sg76
(lp1326
S'session_id_reddit=127.0.0.1-24289f39-32a1-48fb-a367-22792fb8b813; session_id_welcome=127.0.0.1-6c6acb01-dab7-498a-a6cb-f847f2ae3337; session_id_admin=127.0.0.1-b12d36e5-38f3-46ab-bf33-377848bfeca4; session_id_cataminder=127.0.0.1-f68dfbc3-e46b-4d7f-ad40-351d31d2febb'
p1327
asbasbasbag69
(g85
g71
NtRp1328
(dp1329
g74
(dp1330
sg83
g1058
sg76
(lp1331
g69
(g90
g71
NtRp1332
(dp1333
g74
(dp1334
g94
g95
ssg83
g1328
sg76
(lp1335
S'http_host'
p1336
asbag69
(g90
g71
NtRp1337
(dp1338
g74
(dp1339
g101
g102
ssg83
g1328
sg76
(lp1340
S':'
asbag69
(g90
g71
NtRp1341
(dp1342
g74
(dp1343
sg83
g1328
sg76
(lp1344
g69
(g70
g71
NtRp1345
(dp1346
g74
(dp1347
g82
I4
ssg83
g1341
sg76
(lp1348
S'127.0.0.1:8000'
p1349
asbasbasbag69
(g85
g71
NtRp1350
(dp1351
g74
(dp1352
sg83
g1058
sg76
(lp1353
g69
(g90
g71
NtRp1354
(dp1355
g74
(dp1356
g94
g95
ssg83
g1350
sg76
(lp1357
S'http_user_agent'
p1358
asbag69
(g90
g71
NtRp1359
(dp1360
g74
(dp1361
g101
g102
ssg83
g1350
sg76
(lp1362
S':'
asbag69
(g90
g71
NtRp1363
(dp1364
g74
(dp1365
sg83
g1350
sg76
(lp1366
g69
(g70
g71
NtRp1367
(dp1368
g74
(dp1369
g82
I4
ssg83
g1363
sg76
(lp1370
S'Mozilla/5.0 (X11; Ubuntu; Linux i686; rv:23.0) Gecko/20100101 Firefox/23.0'
p1371
asbasbasbag69
(g85
g71
NtRp1372
(dp1373
g74
(dp1374
sg83
g1058
sg76
(lp1375
g69
(g90
g71
NtRp1376
(dp1377
g74
(dp1378
g94
g95
ssg83
g1372
sg76
(lp1379
S'is_jython'
p1380
asbag69
(g90
g71
NtRp1381
(dp1382
g74
(dp1383
g101
g102
ssg83
g1372
sg76
(lp1384
S':'
asbag69
(g90
g71
NtRp1385
(dp1386
g74
(dp1387
sg83
g1372
sg76
(lp1388
g69
(g70
g71
NtRp1389
(dp1390
g74
(dp1391
g82
I4
ssg83
g1385
sg76
(lp1392
g112
asbasbasbag69
(g85
g71
NtRp1393
(dp1394
g74
(dp1395
sg83
g1058
sg76
(lp1396
g69
(g90
g71
NtRp1397
(dp1398
g74
(dp1399
g94
g95
ssg83
g1393
sg76
(lp1400
S'is_pypy'
p1401
asbag69
(g90
g71
NtRp1402
(dp1403
g74
(dp1404
g101
g102
ssg83
g1393
sg76
(lp1405
S':'
asbag69
(g90
g71
NtRp1406
(dp1407
g74
(dp1408
sg83
g1393
sg76
(lp1409
g69
(g70
g71
NtRp1410
(dp1411
g74
(dp1412
g82
I4
ssg83
g1406
sg76
(lp1413
g112
asbasbasbag69
(g85
g71
NtRp1414
(dp1415
g74
(dp1416
sg83
g1058
sg76
(lp1417
g69
(g90
g71
NtRp1418
(dp1419
g74
(dp1420
g94
g95
ssg83
g1414
sg76
(lp1421
S'local_hosts'
p1422
asbag69
(g90
g71
NtRp1423
(dp1424
g74
(dp1425
g101
g102
ssg83
g1414
sg76
(lp1426
S':'
asbag69
(g90
g71
NtRp1427
(dp1428
g74
(dp1429
sg83
g1414
sg76
(lp1430
g69
(g70
g71
NtRp1431
(dp1432
g74
(dp1433
g82
I4
ssg83
g1427
sg76
(lp1434
g69
(g78
g71
NtRp1435
(dp1436
g74
(dp1437
g82
I3
ssg83
Nsg76
(lp1438
g69
(g85
g71
NtRp1439
(dp1440
g74
(dp1441
sg83
g1435
sg76
(lp1442
g69
(g90
g71
NtRp1443
(dp1444
g74
(dp1445
sg83
g1439
sg76
(lp1446
g69
(g70
g71
NtRp1447
(dp1448
g74
(dp1449
g82
I3
ssg83
g1443
sg76
(lp1450
S'pankaj-HP-Pavilion-dv4-Notebook-PC'
p1451
asbasbasbag69
(g85
g71
NtRp1452
(dp1453
g74
(dp1454
sg83
g1435
sg76
(lp1455
g69
(g90
g71
NtRp1456
(dp1457
g74
(dp1458
sg83
g1452
sg76
(lp1459
g69
(g70
g71
NtRp1460
(dp1461
g74
(dp1462
g82
I3
ssg83
g1456
sg76
(lp1463
S'::1'
p1464
asbasbasbag69
(g85
g71
NtRp1465
(dp1466
g74
(dp1467
sg83
g1435
sg76
(lp1468
g69
(g90
g71
NtRp1469
(dp1470
g74
(dp1471
sg83
g1465
sg76
(lp1472
g69
(g70
g71
NtRp1473
(dp1474
g74
(dp1475
g82
I3
ssg83
g1469
sg76
(lp1476
S'127.0.1.1'
p1477
asbasbasbag69
(g85
g71
NtRp1478
(dp1479
g74
(dp1480
sg83
g1435
sg76
(lp1481
g69
(g90
g71
NtRp1482
(dp1483
g74
(dp1484
sg83
g1478
sg76
(lp1485
g69
(g70
g71
NtRp1486
(dp1487
g74
(dp1488
g82
I3
ssg83
g1482
sg76
(lp1489
S'::ffff:127.0.0.1'
p1490
asbasbasbag69
(g85
g71
NtRp1491
(dp1492
g74
(dp1493
sg83
g1435
sg76
(lp1494
g69
(g90
g71
NtRp1495
(dp1496
g74
(dp1497
sg83
g1491
sg76
(lp1498
g69
(g70
g71
NtRp1499
(dp1500
g74
(dp1501
g82
I3
ssg83
g1495
sg76
(lp1502
S'127.0.0.1'
p1503
asbasbasbasbasbasbasbag69
(g85
g71
NtRp1504
(dp1505
g74
(dp1506
sg83
g1058
sg76
(lp1507
g69
(g90
g71
NtRp1508
(dp1509
g74
(dp1510
g94
g95
ssg83
g1504
sg76
(lp1511
S'path_info'
p1512
asbag69
(g90
g71
NtRp1513
(dp1514
g74
(dp1515
g101
g102
ssg83
g1504
sg76
(lp1516
S':'
asbag69
(g90
g71
NtRp1517
(dp1518
g74
(dp1519
sg83
g1504
sg76
(lp1520
g69
(g70
g71
NtRp1521
(dp1522
g74
(dp1523
g82
I4
ssg83
g1517
sg76
(lp1524
S'/reddit/default/user/login'
p1525
asbasbasbag69
(g85
g71
NtRp1526
(dp1527
g74
(dp1528
sg83
g1058
sg76
(lp1529
g69
(g90
g71
NtRp1530
(dp1531
g74
(dp1532
g94
g95
ssg83
g1526
sg76
(lp1533
S'query_string'
p1534
asbag69
(g90
g71
NtRp1535
(dp1536
g74
(dp1537
g101
g102
ssg83
g1526
sg76
(lp1538
S':'
asbag69
(g90
g71
NtRp1539
(dp1540
g74
(dp1541
sg83
g1526
sg76
(lp1542
g69
(g70
g71
NtRp1543
(dp1544
g74
(dp1545
g82
I4
ssg83
g1539
sg76
(lp1546
S'_next=/reddit/default/index'
p1547
asbasbasbag69
(g85
g71
NtRp1548
(dp1549
g74
(dp1550
sg83
g1058
sg76
(lp1551
g69
(g90
g71
NtRp1552
(dp1553
g74
(dp1554
g94
g95
ssg83
g1548
sg76
(lp1555
S'remote_addr'
p1556
asbag69
(g90
g71
NtRp1557
(dp1558
g74
(dp1559
g101
g102
ssg83
g1548
sg76
(lp1560
S':'
asbag69
(g90
g71
NtRp1561
(dp1562
g74
(dp1563
sg83
g1548
sg76
(lp1564
g69
(g70
g71
NtRp1565
(dp1566
g74
(dp1567
g82
I4
ssg83
g1561
sg76
(lp1568
g237
asbasbasbag69
(g85
g71
NtRp1569
(dp1570
g74
(dp1571
sg83
g1058
sg76
(lp1572
g69
(g90
g71
NtRp1573
(dp1574
g74
(dp1575
g94
g95
ssg83
g1569
sg76
(lp1576
S'remote_port'
p1577
asbag69
(g90
g71
NtRp1578
(dp1579
g74
(dp1580
g101
g102
ssg83
g1569
sg76
(lp1581
S':'
asbag69
(g90
g71
NtRp1582
(dp1583
g74
(dp1584
sg83
g1569
sg76
(lp1585
g69
(g70
g71
NtRp1586
(dp1587
g74
(dp1588
g82
I4
ssg83
g1582
sg76
(lp1589
S'42911'
p1590
asbasbasbag69
(g85
g71
NtRp1591
(dp1592
g74
(dp1593
sg83
g1058
sg76
(lp1594
g69
(g90
g71
NtRp1595
(dp1596
g74
(dp1597
g94
g95
ssg83
g1591
sg76
(lp1598
S'request_method'
p1599
asbag69
(g90
g71
NtRp1600
(dp1601
g74
(dp1602
g101
g102
ssg83
g1591
sg76
(lp1603
S':'
asbag69
(g90
g71
NtRp1604
(dp1605
g74
(dp1606
sg83
g1591
sg76
(lp1607
g69
(g70
g71
NtRp1608
(dp1609
g74
(dp1610
g82
I4
ssg83
g1604
sg76
(lp1611
S'GET'
p1612
asbasbasbag69
(g85
g71
NtRp1613
(dp1614
g74
(dp1615
sg83
g1058
sg76
(lp1616
g69
(g90
g71
NtRp1617
(dp1618
g74
(dp1619
g94
g95
ssg83
g1613
sg76
(lp1620
S'request_uri'
p1621
asbag69
(g90
g71
NtRp1622
(dp1623
g74
(dp1624
g101
g102
ssg83
g1613
sg76
(lp1625
S':'
asbag69
(g90
g71
NtRp1626
(dp1627
g74
(dp1628
sg83
g1613
sg76
(lp1629
g69
(g70
g71
NtRp1630
(dp1631
g74
(dp1632
g82
I4
ssg83
g1626
sg76
(lp1633
S'/reddit/default/user/login?_next=/reddit/default/index'
p1634
asbasbasbag69
(g85
g71
NtRp1635
(dp1636
g74
(dp1637
sg83
g1058
sg76
(lp1638
g69
(g90
g71
NtRp1639
(dp1640
g74
(dp1641
g94
g95
ssg83
g1635
sg76
(lp1642
S'script_name'
p1643
asbag69
(g90
g71
NtRp1644
(dp1645
g74
(dp1646
g101
g102
ssg83
g1635
sg76
(lp1647
S':'
asbag69
(g90
g71
NtRp1648
(dp1649
g74
(dp1650
sg83
g1635
sg76
(lp1651
g69
(g70
g71
NtRp1652
(dp1653
g74
(dp1654
g82
I4
ssg83
g1648
sg76
(lp1655
S''
asbasbasbag69
(g85
g71
NtRp1656
(dp1657
g74
(dp1658
sg83
g1058
sg76
(lp1659
g69
(g90
g71
NtRp1660
(dp1661
g74
(dp1662
g94
g95
ssg83
g1656
sg76
(lp1663
S'server_name'
p1664
asbag69
(g90
g71
NtRp1665
(dp1666
g74
(dp1667
g101
g102
ssg83
g1656
sg76
(lp1668
S':'
asbag69
(g90
g71
NtRp1669
(dp1670
g74
(dp1671
sg83
g1656
sg76
(lp1672
g69
(g70
g71
NtRp1673
(dp1674
g74
(dp1675
g82
I4
ssg83
g1669
sg76
(lp1676
S'pankaj-HP-Pavilion-dv4-Notebook-PC'
p1677
asbasbasbag69
(g85
g71
NtRp1678
(dp1679
g74
(dp1680
sg83
g1058
sg76
(lp1681
g69
(g90
g71
NtRp1682
(dp1683
g74
(dp1684
g94
g95
ssg83
g1678
sg76
(lp1685
S'server_port'
p1686
asbag69
(g90
g71
NtRp1687
(dp1688
g74
(dp1689
g101
g102
ssg83
g1678
sg76
(lp1690
S':'
asbag69
(g90
g71
NtRp1691
(dp1692
g74
(dp1693
sg83
g1678
sg76
(lp1694
g69
(g70
g71
NtRp1695
(dp1696
g74
(dp1697
g82
I4
ssg83
g1691
sg76
(lp1698
S'8000'
p1699
asbasbasbag69
(g85
g71
NtRp1700
(dp1701
g74
(dp1702
sg83
g1058
sg76
(lp1703
g69
(g90
g71
NtRp1704
(dp1705
g74
(dp1706
g94
g95
ssg83
g1700
sg76
(lp1707
S'server_protocol'
p1708
asbag69
(g90
g71
NtRp1709
(dp1710
g74
(dp1711
g101
g102
ssg83
g1700
sg76
(lp1712
S':'
asbag69
(g90
g71
NtRp1713
(dp1714
g74
(dp1715
sg83
g1700
sg76
(lp1716
g69
(g70
g71
NtRp1717
(dp1718
g74
(dp1719
g82
I4
ssg83
g1713
sg76
(lp1720
S'HTTP/1.1'
p1721
asbasbasbag69
(g85
g71
NtRp1722
(dp1723
g74
(dp1724
sg83
g1058
sg76
(lp1725
g69
(g90
g71
NtRp1726
(dp1727
g74
(dp1728
g94
g95
ssg83
g1722
sg76
(lp1729
S'server_software'
p1730
asbag69
(g90
g71
NtRp1731
(dp1732
g74
(dp1733
g101
g102
ssg83
g1722
sg76
(lp1734
S':'
asbag69
(g90
g71
NtRp1735
(dp1736
g74
(dp1737
sg83
g1722
sg76
(lp1738
g69
(g70
g71
NtRp1739
(dp1740
g74
(dp1741
g82
I4
ssg83
g1735
sg76
(lp1742
S'Rocket 1.2.6'
p1743
asbasbasbag69
(g85
g71
NtRp1744
(dp1745
g74
(dp1746
sg83
g1058
sg76
(lp1747
g69
(g90
g71
NtRp1748
(dp1749
g74
(dp1750
g94
g95
ssg83
g1744
sg76
(lp1751
S'web2py_path'
p1752
asbag69
(g90
g71
NtRp1753
(dp1754
g74
(dp1755
g101
g102
ssg83
g1744
sg76
(lp1756
S':'
asbag69
(g90
g71
NtRp1757
(dp1758
g74
(dp1759
sg83
g1744
sg76
(lp1760
g69
(g70
g71
NtRp1761
(dp1762
g74
(dp1763
g82
I4
ssg83
g1757
sg76
(lp1764
g1105
asbasbasbag69
(g85
g71
NtRp1765
(dp1766
g74
(dp1767
sg83
g1058
sg76
(lp1768
g69
(g90
g71
NtRp1769
(dp1770
g74
(dp1771
g94
g95
ssg83
g1765
sg76
(lp1772
S'web2py_version'
p1773
asbag69
(g90
g71
NtRp1774
(dp1775
g74
(dp1776
g101
g102
ssg83
g1765
sg76
(lp1777
S':'
asbag69
(g90
g71
NtRp1778
(dp1779
g74
(dp1780
sg83
g1765
sg76
(lp1781
g69
(g70
g71
NtRp1782
(dp1783
g74
(dp1784
g82
I4
ssg83
g1778
sg76
(lp1785
g69
(g78
g71
NtRp1786
(dp1787
g74
(dp1788
g82
I3
ssg83
Nsg76
(lp1789
g69
(g85
g71
NtRp1790
(dp1791
g74
(dp1792
sg83
g1786
sg76
(lp1793
g69
(g90
g71
NtRp1794
(dp1795
g74
(dp1796
sg83
g1790
sg76
(lp1797
g69
(g70
g71
NtRp1798
(dp1799
g74
(dp1800
g82
I3
ssg83
g1794
sg76
(lp1801
S'2'
asbasbasbag69
(g85
g71
NtRp1802
(dp1803
g74
(dp1804
sg83
g1786
sg76
(lp1805
g69
(g90
g71
NtRp1806
(dp1807
g74
(dp1808
sg83
g1802
sg76
(lp1809
g69
(g70
g71
NtRp1810
(dp1811
g74
(dp1812
g82
I3
ssg83
g1806
sg76
(lp1813
S'3'
asbasbasbag69
(g85
g71
NtRp1814
(dp1815
g74
(dp1816
sg83
g1786
sg76
(lp1817
g69
(g90
g71
NtRp1818
(dp1819
g74
(dp1820
sg83
g1814
sg76
(lp1821
g69
(g70
g71
NtRp1822
(dp1823
g74
(dp1824
g82
I3
ssg83
g1818
sg76
(lp1825
S'2'
asbasbasbag69
(g85
g71
NtRp1826
(dp1827
g74
(dp1828
sg83
g1786
sg76
(lp1829
g69
(g90
g71
NtRp1830
(dp1831
g74
(dp1832
sg83
g1826
sg76
(lp1833
g69
(g70
g71
NtRp1834
(dp1835
g74
(dp1836
g82
I3
ssg83
g1830
sg76
(lp1837
S'datetime.datetime(2012, 12, 17, 15, 3, 30)'
p1838
asbasbasbag69
(g85
g71
NtRp1839
(dp1840
g74
(dp1841
sg83
g1786
sg76
(lp1842
g69
(g90
g71
NtRp1843
(dp1844
g74
(dp1845
sg83
g1839
sg76
(lp1846
g69
(g70
g71
NtRp1847
(dp1848
g74
(dp1849
g82
I3
ssg83
g1843
sg76
(lp1850
S'stable'
p1851
asbasbasbasbasbasbasbag69
(g85
g71
NtRp1852
(dp1853
g74
(dp1854
sg83
g1058
sg76
(lp1855
g69
(g90
g71
NtRp1856
(dp1857
g74
(dp1858
g94
g95
ssg83
g1852
sg76
(lp1859
S'wsgi_errors'
p1860
asbag69
(g90
g71
NtRp1861
(dp1862
g74
(dp1863
g101
g102
ssg83
g1852
sg76
(lp1864
S':'
asbag69
(g90
g71
NtRp1865
(dp1866
g74
(dp1867
sg83
g1852
sg76
(lp1868
g69
(g70
g71
NtRp1869
(dp1870
g74
(dp1871
g82
I4
ssg83
g1865
sg76
(lp1872
S"<open file '<stderr>', mode 'w' at 0xb735e0d0>"
p1873
asbasbasbag69
(g85
g71
NtRp1874
(dp1875
g74
(dp1876
sg83
g1058
sg76
(lp1877
g69
(g90
g71
NtRp1878
(dp1879
g74
(dp1880
g94
g95
ssg83
g1874
sg76
(lp1881
S'wsgi_file_wrapper'
p1882
asbag69
(g90
g71
NtRp1883
(dp1884
g74
(dp1885
g101
g102
ssg83
g1874
sg76
(lp1886
S':'
asbag69
(g90
g71
NtRp1887
(dp1888
g74
(dp1889
sg83
g1874
sg76
(lp1890
g69
(g70
g71
NtRp1891
(dp1892
g74
(dp1893
g82
I4
ssg83
g1887
sg76
(lp1894
S'<class wsgiref.util.FileWrapper at 0x96a105c>'
p1895
asbasbasbag69
(g85
g71
NtRp1896
(dp1897
g74
(dp1898
sg83
g1058
sg76
(lp1899
g69
(g90
g71
NtRp1900
(dp1901
g74
(dp1902
g94
g95
ssg83
g1896
sg76
(lp1903
S'wsgi_input'
p1904
asbag69
(g90
g71
NtRp1905
(dp1906
g74
(dp1907
g101
g102
ssg83
g1896
sg76
(lp1908
S':'
asbag69
(g90
g71
NtRp1909
(dp1910
g74
(dp1911
sg83
g1896
sg76
(lp1912
g69
(g70
g71
NtRp1913
(dp1914
g74
(dp1915
g82
I4
ssg83
g1909
sg76
(lp1916
S'<socket._fileobject object at 0x99d0e6c>'
p1917
asbasbasbag69
(g85
g71
NtRp1918
(dp1919
g74
(dp1920
sg83
g1058
sg76
(lp1921
g69
(g90
g71
NtRp1922
(dp1923
g74
(dp1924
g94
g95
ssg83
g1918
sg76
(lp1925
S'wsgi_multiprocess'
p1926
asbag69
(g90
g71
NtRp1927
(dp1928
g74
(dp1929
g101
g102
ssg83
g1918
sg76
(lp1930
S':'
asbag69
(g90
g71
NtRp1931
(dp1932
g74
(dp1933
sg83
g1918
sg76
(lp1934
g69
(g70
g71
NtRp1935
(dp1936
g74
(dp1937
g82
I4
ssg83
g1931
sg76
(lp1938
g112
asbasbasbag69
(g85
g71
NtRp1939
(dp1940
g74
(dp1941
sg83
g1058
sg76
(lp1942
g69
(g90
g71
NtRp1943
(dp1944
g74
(dp1945
g94
g95
ssg83
g1939
sg76
(lp1946
S'wsgi_multithread'
p1947
asbag69
(g90
g71
NtRp1948
(dp1949
g74
(dp1950
g101
g102
ssg83
g1939
sg76
(lp1951
S':'
asbag69
(g90
g71
NtRp1952
(dp1953
g74
(dp1954
sg83
g1939
sg76
(lp1955
g69
(g70
g71
NtRp1956
(dp1957
g74
(dp1958
g82
I4
ssg83
g1952
sg76
(lp1959
S'True'
p1960
asbasbasbag69
(g85
g71
NtRp1961
(dp1962
g74
(dp1963
sg83
g1058
sg76
(lp1964
g69
(g90
g71
NtRp1965
(dp1966
g74
(dp1967
g94
g95
ssg83
g1961
sg76
(lp1968
S'wsgi_run_once'
p1969
asbag69
(g90
g71
NtRp1970
(dp1971
g74
(dp1972
g101
g102
ssg83
g1961
sg76
(lp1973
S':'
asbag69
(g90
g71
NtRp1974
(dp1975
g74
(dp1976
sg83
g1961
sg76
(lp1977
g69
(g70
g71
NtRp1978
(dp1979
g74
(dp1980
g82
I4
ssg83
g1974
sg76
(lp1981
g112
asbasbasbag69
(g85
g71
NtRp1982
(dp1983
g74
(dp1984
sg83
g1058
sg76
(lp1985
g69
(g90
g71
NtRp1986
(dp1987
g74
(dp1988
g94
g95
ssg83
g1982
sg76
(lp1989
S'wsgi_url_scheme'
p1990
asbag69
(g90
g71
NtRp1991
(dp1992
g74
(dp1993
g101
g102
ssg83
g1982
sg76
(lp1994
S':'
asbag69
(g90
g71
NtRp1995
(dp1996
g74
(dp1997
sg83
g1982
sg76
(lp1998
g69
(g70
g71
NtRp1999
(dp2000
g74
(dp2001
g82
I4
ssg83
g1995
sg76
(lp2002
S'http'
p2003
asbasbasbag69
(g85
g71
NtRp2004
(dp2005
g74
(dp2006
sg83
g1058
sg76
(lp2007
g69
(g90
g71
NtRp2008
(dp2009
g74
(dp2010
g94
g95
ssg83
g2004
sg76
(lp2011
S'wsgi_version'
p2012
asbag69
(g90
g71
NtRp2013
(dp2014
g74
(dp2015
g101
g102
ssg83
g2004
sg76
(lp2016
S':'
asbag69
(g90
g71
NtRp2017
(dp2018
g74
(dp2019
sg83
g2004
sg76
(lp2020
g69
(g70
g71
NtRp2021
(dp2022
g74
(dp2023
g82
I4
ssg83
g2017
sg76
(lp2024
g69
(g78
g71
NtRp2025
(dp2026
g74
(dp2027
g82
I3
ssg83
Nsg76
(lp2028
g69
(g85
g71
NtRp2029
(dp2030
g74
(dp2031
sg83
g2025
sg76
(lp2032
g69
(g90
g71
NtRp2033
(dp2034
g74
(dp2035
sg83
g2029
sg76
(lp2036
g69
(g70
g71
NtRp2037
(dp2038
g74
(dp2039
g82
I3
ssg83
g2033
sg76
(lp2040
S'1'
asbasbasbag69
(g85
g71
NtRp2041
(dp2042
g74
(dp2043
sg83
g2025
sg76
(lp2044
g69
(g90
g71
NtRp2045
(dp2046
g74
(dp2047
sg83
g2041
sg76
(lp2048
g69
(g70
g71
NtRp2049
(dp2050
g74
(dp2051
g82
I3
ssg83
g2045
sg76
(lp2052
S'0'
asbasbasbasbasbasbasbasbasbasbasbag69
(g85
g71
NtRp2053
(dp2054
g74
(dp2055
sg83
g79
sg76
(lp2056
g69
(g90
g71
NtRp2057
(dp2058
g74
(dp2059
g94
g95
ssg83
g2053
sg76
(lp2060
S'extension'
p2061
asbag69
(g90
g71
NtRp2062
(dp2063
g74
(dp2064
g101
g102
ssg83
g2053
sg76
(lp2065
S':'
asbag69
(g90
g71
NtRp2066
(dp2067
g74
(dp2068
sg83
g2053
sg76
(lp2069
g69
(g70
g71
NtRp2070
(dp2071
g74
(dp2072
g82
I5
ssg83
g2066
sg76
(lp2073
S'html'
p2074
asbasbasbag69
(g85
g71
NtRp2075
(dp2076
g74
(dp2077
sg83
g79
sg76
(lp2078
g69
(g90
g71
NtRp2079
(dp2080
g74
(dp2081
g94
g95
ssg83
g2075
sg76
(lp2082
S'folder'
p2083
asbag69
(g90
g71
NtRp2084
(dp2085
g74
(dp2086
g101
g102
ssg83
g2075
sg76
(lp2087
S':'
asbag69
(g90
g71
NtRp2088
(dp2089
g74
(dp2090
sg83
g2075
sg76
(lp2091
g69
(g70
g71
NtRp2092
(dp2093
g74
(dp2094
g82
I5
ssg83
g2088
sg76
(lp2095
S'/home/pankaj/web2py/applications/reddit/'
p2096
asbasbasbag69
(g85
g71
NtRp2097
(dp2098
g74
(dp2099
sg83
g79
sg76
(lp2100
g69
(g90
g71
NtRp2101
(dp2102
g74
(dp2103
g94
g95
ssg83
g2097
sg76
(lp2104
S'function'
p2105
asbag69
(g90
g71
NtRp2106
(dp2107
g74
(dp2108
g101
g102
ssg83
g2097
sg76
(lp2109
S':'
asbag69
(g90
g71
NtRp2110
(dp2111
g74
(dp2112
sg83
g2097
sg76
(lp2113
g69
(g70
g71
NtRp2114
(dp2115
g74
(dp2116
g82
I5
ssg83
g2110
sg76
(lp2117
S'user'
p2118
asbasbasbag69
(g85
g71
NtRp2119
(dp2120
g74
(dp2121
sg83
g79
sg76
(lp2122
g69
(g90
g71
NtRp2123
(dp2124
g74
(dp2125
g94
g95
ssg83
g2119
sg76
(lp2126
S'get_vars'
p2127
asbag69
(g90
g71
NtRp2128
(dp2129
g74
(dp2130
g101
g102
ssg83
g2119
sg76
(lp2131
S':'
asbag69
(g90
g71
NtRp2132
(dp2133
g74
(dp2134
sg83
g2119
sg76
(lp2135
g69
(g70
g71
NtRp2136
(dp2137
g74
(dp2138
g82
I5
ssg83
g2132
sg76
(lp2139
g69
(g78
g71
NtRp2140
(dp2141
g74
(dp2142
g82
I4
ssg83
Nsg76
(lp2143
sbasbasbasbag69
(g85
g71
NtRp2144
(dp2145
g74
(dp2146
sg83
g79
sg76
(lp2147
g69
(g90
g71
NtRp2148
(dp2149
g74
(dp2150
g94
g95
ssg83
g2144
sg76
(lp2151
S'global_settings'
p2152
asbag69
(g90
g71
NtRp2153
(dp2154
g74
(dp2155
g101
g102
ssg83
g2144
sg76
(lp2156
S':'
asbag69
(g90
g71
NtRp2157
(dp2158
g74
(dp2159
sg83
g2144
sg76
(lp2160
g69
(g70
g71
NtRp2161
(dp2162
g74
(dp2163
g82
I5
ssg83
g2157
sg76
(lp2164
g69
(g78
g71
NtRp2165
(dp2166
g74
(dp2167
g82
I4
ssg83
Nsg76
(lp2168
g69
(g85
g71
NtRp2169
(dp2170
g74
(dp2171
sg83
g2165
sg76
(lp2172
g69
(g90
g71
NtRp2173
(dp2174
g74
(dp2175
g94
g95
ssg83
g2169
sg76
(lp2176
g1070
asbag69
(g90
g71
NtRp2177
(dp2178
g74
(dp2179
g101
g102
ssg83
g2169
sg76
(lp2180
S':'
asbag69
(g90
g71
NtRp2181
(dp2182
g74
(dp2183
sg83
g2169
sg76
(lp2184
g69
(g70
g71
NtRp2185
(dp2186
g74
(dp2187
g82
I4
ssg83
g2181
sg76
(lp2188
S"set(['/home/pankaj/web2py/applications/admin/', '/home/pankaj/web2py/applications/welcome/', '/home/pankaj/web2py/applications/Cataminder/', '/home/pankaj/web2py/applications/reddit/'])"
p2189
asbasbasbag69
(g85
g71
NtRp2190
(dp2191
g74
(dp2192
sg83
g2165
sg76
(lp2193
g69
(g90
g71
NtRp2194
(dp2195
g74
(dp2196
g94
g95
ssg83
g2190
sg76
(lp2197
g1092
asbag69
(g90
g71
NtRp2198
(dp2199
g74
(dp2200
g101
g102
ssg83
g2190
sg76
(lp2201
S':'
asbag69
(g90
g71
NtRp2202
(dp2203
g74
(dp2204
sg83
g2190
sg76
(lp2205
g69
(g70
g71
NtRp2206
(dp2207
g74
(dp2208
g82
I4
ssg83
g2202
sg76
(lp2209
g1105
asbasbasbag69
(g85
g71
NtRp2210
(dp2211
g74
(dp2212
sg83
g2165
sg76
(lp2213
g69
(g90
g71
NtRp2214
(dp2215
g74
(dp2216
g94
g95
ssg83
g2210
sg76
(lp2217
g1114
asbag69
(g90
g71
NtRp2218
(dp2219
g74
(dp2220
g101
g102
ssg83
g2210
sg76
(lp2221
S':'
asbag69
(g90
g71
NtRp2222
(dp2223
g74
(dp2224
sg83
g2210
sg76
(lp2225
g69
(g70
g71
NtRp2226
(dp2227
g74
(dp2228
g82
I4
ssg83
g2222
sg76
(lp2229
g69
(g78
g71
NtRp2230
(dp2231
g74
(dp2232
g82
I3
ssg83
Nsg76
(lp2233
sbasbasbasbag69
(g85
g71
NtRp2234
(dp2235
g74
(dp2236
sg83
g2165
sg76
(lp2237
g69
(g90
g71
NtRp2238
(dp2239
g74
(dp2240
g94
g95
ssg83
g2234
sg76
(lp2241
g1139
asbag69
(g90
g71
NtRp2242
(dp2243
g74
(dp2244
g101
g102
ssg83
g2234
sg76
(lp2245
S':'
asbag69
(g90
g71
NtRp2246
(dp2247
g74
(dp2248
sg83
g2234
sg76
(lp2249
g69
(g70
g71
NtRp2250
(dp2251
g74
(dp2252
g82
I4
ssg83
g2246
sg76
(lp2253
S"<Values at 0x96dbdcc: {'verbose': False, 'ip': '127.0.0.1', 'with_scheduler': False, 'ips': [], 'shutdown_timeout': 5, 'taskbar': False, 'port': 8000, 'maxthreads': None, 'softcron': False, 'server_name': 'pankaj-HP-Pavilion-dv4-Notebook-PC', 'bpython': False, 'nogui': False, 'pid_filename': 'httpserver.pid', 'extcron': False, 'runcron': False, 'run_system_tests': False, 'test': None, 'folder': '/home/pankaj/web2py', 'config': '', 'import_models': False, 'winservice': '', 'shell': None, 'run': '', 'log_filename': 'httpserver.log', 'debuglevel': 30, 'args': [''], 'socket_timeout': 5, 'ssl_ca_certificate': None, 'scheduler': None, 'profiler_filename': None, 'ssl_private_key': '', 'scheduler_groups': None, 'password': '<ask>', 'request_queue_size': 5, 'ssl_certificate': '', 'cronjob': False, 'numthreads': None, 'quiet': False, 'interfaces': None, 'minthreads': None, 'timeout': 10, 'plain': False, 'nobanner': False}>"
p2254
asbasbasbag69
(g85
g71
NtRp2255
(dp2256
g74
(dp2257
sg83
g2165
sg76
(lp2258
g69
(g90
g71
NtRp2259
(dp2260
g74
(dp2261
g94
g95
ssg83
g2255
sg76
(lp2262
g1161
asbag69
(g90
g71
NtRp2263
(dp2264
g74
(dp2265
g101
g102
ssg83
g2255
sg76
(lp2266
S':'
asbag69
(g90
g71
NtRp2267
(dp2268
g74
(dp2269
sg83
g2255
sg76
(lp2270
g69
(g70
g71
NtRp2271
(dp2272
g74
(dp2273
g82
I4
ssg83
g2267
sg76
(lp2274
S'set([])'
p2275
asbasbasbag69
(g85
g71
NtRp2276
(dp2277
g74
(dp2278
sg83
g2165
sg76
(lp2279
g69
(g90
g71
NtRp2280
(dp2281
g74
(dp2282
g94
g95
ssg83
g2276
sg76
(lp2283
g1183
asbag69
(g90
g71
NtRp2284
(dp2285
g74
(dp2286
g101
g102
ssg83
g2276
sg76
(lp2287
S':'
asbag69
(g90
g71
NtRp2288
(dp2289
g74
(dp2290
sg83
g2276
sg76
(lp2291
g69
(g70
g71
NtRp2292
(dp2293
g74
(dp2294
g82
I4
ssg83
g2288
sg76
(lp2295
g112
asbasbasbag69
(g85
g71
NtRp2296
(dp2297
g74
(dp2298
sg83
g2165
sg76
(lp2299
g69
(g90
g71
NtRp2300
(dp2301
g74
(dp2302
g94
g95
ssg83
g2296
sg76
(lp2303
g1204
asbag69
(g90
g71
NtRp2304
(dp2305
g74
(dp2306
g101
g102
ssg83
g2296
sg76
(lp2307
S':'
asbag69
(g90
g71
NtRp2308
(dp2309
g74
(dp2310
sg83
g2296
sg76
(lp2311
g69
(g70
g71
NtRp2312
(dp2313
g74
(dp2314
g82
I4
ssg83
g2308
sg76
(lp2315
g1217
asbasbasbag69
(g85
g71
NtRp2316
(dp2317
g74
(dp2318
sg83
g2165
sg76
(lp2319
g69
(g90
g71
NtRp2320
(dp2321
g74
(dp2322
g94
g95
ssg83
g2316
sg76
(lp2323
g1380
asbag69
(g90
g71
NtRp2324
(dp2325
g74
(dp2326
g101
g102
ssg83
g2316
sg76
(lp2327
S':'
asbag69
(g90
g71
NtRp2328
(dp2329
g74
(dp2330
sg83
g2316
sg76
(lp2331
g69
(g70
g71
NtRp2332
(dp2333
g74
(dp2334
g82
I4
ssg83
g2328
sg76
(lp2335
g112
asbasbasbag69
(g85
g71
NtRp2336
(dp2337
g74
(dp2338
sg83
g2165
sg76
(lp2339
g69
(g90
g71
NtRp2340
(dp2341
g74
(dp2342
g94
g95
ssg83
g2336
sg76
(lp2343
g1401
asbag69
(g90
g71
NtRp2344
(dp2345
g74
(dp2346
g101
g102
ssg83
g2336
sg76
(lp2347
S':'
asbag69
(g90
g71
NtRp2348
(dp2349
g74
(dp2350
sg83
g2336
sg76
(lp2351
g69
(g70
g71
NtRp2352
(dp2353
g74
(dp2354
g82
I4
ssg83
g2348
sg76
(lp2355
g112
asbasbasbag69
(g85
g71
NtRp2356
(dp2357
g74
(dp2358
sg83
g2165
sg76
(lp2359
g69
(g90
g71
NtRp2360
(dp2361
g74
(dp2362
g94
g95
ssg83
g2356
sg76
(lp2363
g1422
asbag69
(g90
g71
NtRp2364
(dp2365
g74
(dp2366
g101
g102
ssg83
g2356
sg76
(lp2367
S':'
asbag69
(g90
g71
NtRp2368
(dp2369
g74
(dp2370
sg83
g2356
sg76
(lp2371
g69
(g70
g71
NtRp2372
(dp2373
g74
(dp2374
g82
I4
ssg83
g2368
sg76
(lp2375
g69
(g78
g71
NtRp2376
(dp2377
g74
(dp2378
g82
I3
ssg83
Nsg76
(lp2379
g69
(g85
g71
NtRp2380
(dp2381
g74
(dp2382
sg83
g2376
sg76
(lp2383
g69
(g90
g71
NtRp2384
(dp2385
g74
(dp2386
sg83
g2380
sg76
(lp2387
g69
(g70
g71
NtRp2388
(dp2389
g74
(dp2390
g82
I3
ssg83
g2384
sg76
(lp2391
g1451
asbasbasbag69
(g85
g71
NtRp2392
(dp2393
g74
(dp2394
sg83
g2376
sg76
(lp2395
g69
(g90
g71
NtRp2396
(dp2397
g74
(dp2398
sg83
g2392
sg76
(lp2399
g69
(g70
g71
NtRp2400
(dp2401
g74
(dp2402
g82
I3
ssg83
g2396
sg76
(lp2403
g1464
asbasbasbag69
(g85
g71
NtRp2404
(dp2405
g74
(dp2406
sg83
g2376
sg76
(lp2407
g69
(g90
g71
NtRp2408
(dp2409
g74
(dp2410
sg83
g2404
sg76
(lp2411
g69
(g70
g71
NtRp2412
(dp2413
g74
(dp2414
g82
I3
ssg83
g2408
sg76
(lp2415
g1477
asbasbasbag69
(g85
g71
NtRp2416
(dp2417
g74
(dp2418
sg83
g2376
sg76
(lp2419
g69
(g90
g71
NtRp2420
(dp2421
g74
(dp2422
sg83
g2416
sg76
(lp2423
g69
(g70
g71
NtRp2424
(dp2425
g74
(dp2426
g82
I3
ssg83
g2420
sg76
(lp2427
g1490
asbasbasbag69
(g85
g71
NtRp2428
(dp2429
g74
(dp2430
sg83
g2376
sg76
(lp2431
g69
(g90
g71
NtRp2432
(dp2433
g74
(dp2434
sg83
g2428
sg76
(lp2435
g69
(g70
g71
NtRp2436
(dp2437
g74
(dp2438
g82
I3
ssg83
g2432
sg76
(lp2439
g1503
asbasbasbasbasbasbasbag69
(g85
g71
NtRp2440
(dp2441
g74
(dp2442
sg83
g2165
sg76
(lp2443
g69
(g90
g71
NtRp2444
(dp2445
g74
(dp2446
g94
g95
ssg83
g2440
sg76
(lp2447
g1773
asbag69
(g90
g71
NtRp2448
(dp2449
g74
(dp2450
g101
g102
ssg83
g2440
sg76
(lp2451
S':'
asbag69
(g90
g71
NtRp2452
(dp2453
g74
(dp2454
sg83
g2440
sg76
(lp2455
g69
(g70
g71
NtRp2456
(dp2457
g74
(dp2458
g82
I4
ssg83
g2452
sg76
(lp2459
g69
(g78
g71
NtRp2460
(dp2461
g74
(dp2462
g82
I3
ssg83
Nsg76
(lp2463
g69
(g85
g71
NtRp2464
(dp2465
g74
(dp2466
sg83
g2460
sg76
(lp2467
g69
(g90
g71
NtRp2468
(dp2469
g74
(dp2470
sg83
g2464
sg76
(lp2471
g69
(g70
g71
NtRp2472
(dp2473
g74
(dp2474
g82
I3
ssg83
g2468
sg76
(lp2475
S'2'
asbasbasbag69
(g85
g71
NtRp2476
(dp2477
g74
(dp2478
sg83
g2460
sg76
(lp2479
g69
(g90
g71
NtRp2480
(dp2481
g74
(dp2482
sg83
g2476
sg76
(lp2483
g69
(g70
g71
NtRp2484
(dp2485
g74
(dp2486
g82
I3
ssg83
g2480
sg76
(lp2487
S'3'
asbasbasbag69
(g85
g71
NtRp2488
(dp2489
g74
(dp2490
sg83
g2460
sg76
(lp2491
g69
(g90
g71
NtRp2492
(dp2493
g74
(dp2494
sg83
g2488
sg76
(lp2495
g69
(g70
g71
NtRp2496
(dp2497
g74
(dp2498
g82
I3
ssg83
g2492
sg76
(lp2499
S'2'
asbasbasbag69
(g85
g71
NtRp2500
(dp2501
g74
(dp2502
sg83
g2460
sg76
(lp2503
g69
(g90
g71
NtRp2504
(dp2505
g74
(dp2506
sg83
g2500
sg76
(lp2507
g69
(g70
g71
NtRp2508
(dp2509
g74
(dp2510
g82
I3
ssg83
g2504
sg76
(lp2511
S'datetime.datetime(2012, 12, 17, 15, 3, 30)'
p2512
asbasbasbag69
(g85
g71
NtRp2513
(dp2514
g74
(dp2515
sg83
g2460
sg76
(lp2516
g69
(g90
g71
NtRp2517
(dp2518
g74
(dp2519
sg83
g2513
sg76
(lp2520
g69
(g70
g71
NtRp2521
(dp2522
g74
(dp2523
g82
I3
ssg83
g2517
sg76
(lp2524
g1851
asbasbasbasbasbasbasbasbasbasbasbag69
(g85
g71
NtRp2525
(dp2526
g74
(dp2527
sg83
g79
sg76
(lp2528
g69
(g90
g71
NtRp2529
(dp2530
g74
(dp2531
g94
g95
ssg83
g2525
sg76
(lp2532
S'is_https'
p2533
asbag69
(g90
g71
NtRp2534
(dp2535
g74
(dp2536
g101
g102
ssg83
g2525
sg76
(lp2537
S':'
asbag69
(g90
g71
NtRp2538
(dp2539
g74
(dp2540
sg83
g2525
sg76
(lp2541
g69
(g70
g71
NtRp2542
(dp2543
g74
(dp2544
g82
I5
ssg83
g2538
sg76
(lp2545
g112
asbasbasbag69
(g85
g71
NtRp2546
(dp2547
g74
(dp2548
sg83
g79
sg76
(lp2549
g69
(g90
g71
NtRp2550
(dp2551
g74
(dp2552
g94
g95
ssg83
g2546
sg76
(lp2553
S'is_local'
p2554
asbag69
(g90
g71
NtRp2555
(dp2556
g74
(dp2557
g101
g102
ssg83
g2546
sg76
(lp2558
S':'
asbag69
(g90
g71
NtRp2559
(dp2560
g74
(dp2561
sg83
g2546
sg76
(lp2562
g69
(g70
g71
NtRp2563
(dp2564
g74
(dp2565
g82
I5
ssg83
g2559
sg76
(lp2566
g1960
asbasbasbag69
(g85
g71
NtRp2567
(dp2568
g74
(dp2569
sg83
g79
sg76
(lp2570
g69
(g90
g71
NtRp2571
(dp2572
g74
(dp2573
g94
g95
ssg83
g2567
sg76
(lp2574
S'is_restful'
p2575
asbag69
(g90
g71
NtRp2576
(dp2577
g74
(dp2578
g101
g102
ssg83
g2567
sg76
(lp2579
S':'
asbag69
(g90
g71
NtRp2580
(dp2581
g74
(dp2582
sg83
g2567
sg76
(lp2583
g69
(g70
g71
NtRp2584
(dp2585
g74
(dp2586
g82
I5
ssg83
g2580
sg76
(lp2587
g112
asbasbasbag69
(g85
g71
NtRp2588
(dp2589
g74
(dp2590
sg83
g79
sg76
(lp2591
g69
(g90
g71
NtRp2592
(dp2593
g74
(dp2594
g94
g95
ssg83
g2588
sg76
(lp2595
S'now'
p2596
asbag69
(g90
g71
NtRp2597
(dp2598
g74
(dp2599
g101
g102
ssg83
g2588
sg76
(lp2600
S':'
asbag69
(g90
g71
NtRp2601
(dp2602
g74
(dp2603
sg83
g2588
sg76
(lp2604
g69
(g70
g71
NtRp2605
(dp2606
g74
(dp2607
g82
I5
ssg83
g2601
sg76
(lp2608
S'datetime.datetime(2013, 9, 1, 10, 55, 24, 174690)'
p2609
asbasbasbag69
(g85
g71
NtRp2610
(dp2611
g74
(dp2612
sg83
g79
sg76
(lp2613
g69
(g90
g71
NtRp2614
(dp2615
g74
(dp2616
g94
g95
ssg83
g2610
sg76
(lp2617
S'post_vars'
p2618
asbag69
(g90
g71
NtRp2619
(dp2620
g74
(dp2621
g101
g102
ssg83
g2610
sg76
(lp2622
S':'
asbag69
(g90
g71
NtRp2623
(dp2624
g74
(dp2625
sg83
g2610
sg76
(lp2626
g69
(g70
g71
NtRp2627
(dp2628
g74
(dp2629
g82
I5
ssg83
g2623
sg76
(lp2630
g69
(g78
g71
NtRp2631
(dp2632
g74
(dp2633
g82
I4
ssg83
Nsg76
(lp2634
sbasbasbasbag69
(g85
g71
NtRp2635
(dp2636
g74
(dp2637
sg83
g79
sg76
(lp2638
g69
(g90
g71
NtRp2639
(dp2640
g74
(dp2641
g94
g95
ssg83
g2635
sg76
(lp2642
S'raw_args'
p2643
asbag69
(g90
g71
NtRp2644
(dp2645
g74
(dp2646
g101
g102
ssg83
g2635
sg76
(lp2647
S':'
asbag69
(g90
g71
NtRp2648
(dp2649
g74
(dp2650
sg83
g2635
sg76
(lp2651
g69
(g70
g71
NtRp2652
(dp2653
g74
(dp2654
g82
I5
ssg83
g2648
sg76
(lp2655
g171
asbasbasbag69
(g85
g71
NtRp2656
(dp2657
g74
(dp2658
sg83
g79
sg76
(lp2659
g69
(g90
g71
NtRp2660
(dp2661
g74
(dp2662
g94
g95
ssg83
g2656
sg76
(lp2663
S'raw_extension'
p2664
asbag69
(g90
g71
NtRp2665
(dp2666
g74
(dp2667
g101
g102
ssg83
g2656
sg76
(lp2668
S':'
asbag69
(g90
g71
NtRp2669
(dp2670
g74
(dp2671
sg83
g2656
sg76
(lp2672
g69
(g70
g71
NtRp2673
(dp2674
g74
(dp2675
g82
I5
ssg83
g2669
sg76
(lp2676
S'None'
p2677
asbasbasbag69
(g85
g71
NtRp2678
(dp2679
g74
(dp2680
sg83
g79
sg76
(lp2681
g69
(g90
g71
NtRp2682
(dp2683
g74
(dp2684
g94
g95
ssg83
g2678
sg76
(lp2685
S'url'
p2686
asbag69
(g90
g71
NtRp2687
(dp2688
g74
(dp2689
g101
g102
ssg83
g2678
sg76
(lp2690
S':'
asbag69
(g90
g71
NtRp2691
(dp2692
g74
(dp2693
sg83
g2678
sg76
(lp2694
g69
(g70
g71
NtRp2695
(dp2696
g74
(dp2697
g82
I5
ssg83
g2691
sg76
(lp2698
g1525
asbasbasbag69
(g85
g71
NtRp2699
(dp2700
g74
(dp2701
sg83
g79
sg76
(lp2702
g69
(g90
g71
NtRp2703
(dp2704
g74
(dp2705
g94
g95
ssg83
g2699
sg76
(lp2706
S'utcnow'
p2707
asbag69
(g90
g71
NtRp2708
(dp2709
g74
(dp2710
g101
g102
ssg83
g2699
sg76
(lp2711
S':'
asbag69
(g90
g71
NtRp2712
(dp2713
g74
(dp2714
sg83
g2699
sg76
(lp2715
g69
(g70
g71
NtRp2716
(dp2717
g74
(dp2718
g82
I5
ssg83
g2712
sg76
(lp2719
S'datetime.datetime(2013, 9, 1, 5, 25, 24, 174720)'
p2720
asbasbasbag69
(g85
g71
NtRp2721
(dp2722
g74
(dp2723
sg83
g79
sg76
(lp2724
g69
(g90
g71
NtRp2725
(dp2726
g74
(dp2727
g94
g95
ssg83
g2721
sg76
(lp2728
S'uuid'
p2729
asbag69
(g90
g71
NtRp2730
(dp2731
g74
(dp2732
g101
g102
ssg83
g2721
sg76
(lp2733
S':'
asbag69
(g90
g71
NtRp2734
(dp2735
g74
(dp2736
sg83
g2721
sg76
(lp2737
g69
(g70
g71
NtRp2738
(dp2739
g74
(dp2740
g82
I5
ssg83
g2734
sg76
(lp2741
S'reddit/127.0.0.1.2013-09-01.10-55-24.d37043f3-ea5d-4b77-ad72-e8864720f310'
p2742
asbasbasbag69
(g85
g71
NtRp2743
(dp2744
g74
(dp2745
sg83
g79
sg76
(lp2746
g69
(g90
g71
NtRp2747
(dp2748
g74
(dp2749
g94
g95
ssg83
g2743
sg76
(lp2750
S'vars'
p2751
asbag69
(g90
g71
NtRp2752
(dp2753
g74
(dp2754
g101
g102
ssg83
g2743
sg76
(lp2755
S':'
asbag69
(g90
g71
NtRp2756
(dp2757
g74
(dp2758
sg83
g2743
sg76
(lp2759
g69
(g70
g71
NtRp2760
(dp2761
g74
(dp2762
g82
I5
ssg83
g2756
sg76
(lp2763
g69
(g78
g71
NtRp2764
(dp2765
g74
(dp2766
g82
I4
ssg83
Nsg76
(lp2767
sbasbasbasbag69
(g85
g71
NtRp2768
(dp2769
g74
(dp2770
sg83
g79
sg76
(lp2771
g69
(g90
g71
NtRp2772
(dp2773
g74
(dp2774
g94
g95
ssg83
g2768
sg76
(lp2775
S'wsgi'
p2776
asbag69
(g90
g71
NtRp2777
(dp2778
g74
(dp2779
g101
g102
ssg83
g2768
sg76
(lp2780
S':'
asbag69
(g90
g71
NtRp2781
(dp2782
g74
(dp2783
sg83
g2768
sg76
(lp2784
g69
(g70
g71
NtRp2785
(dp2786
g74
(dp2787
g82
I5
ssg83
g2781
sg76
(lp2788
g69
(g78
g71
NtRp2789
(dp2790
g74
(dp2791
g82
I4
ssg83
Nsg76
(lp2792
g69
(g85
g71
NtRp2793
(dp2794
g74
(dp2795
sg83
g2789
sg76
(lp2796
g69
(g90
g71
NtRp2797
(dp2798
g74
(dp2799
g94
g95
ssg83
g2793
sg76
(lp2800
S'environ'
p2801
asbag69
(g90
g71
NtRp2802
(dp2803
g74
(dp2804
g101
g102
ssg83
g2793
sg76
(lp2805
S':'
asbag69
(g90
g71
NtRp2806
(dp2807
g74
(dp2808
sg83
g2793
sg76
(lp2809
g69
(g70
g71
NtRp2810
(dp2811
g74
(dp2812
g82
I4
ssg83
g2806
sg76
(lp2813
g69
(g78
g71
NtRp2814
(dp2815
g74
(dp2816
g82
I3
ssg83
Nsg76
(lp2817
g69
(g85
g71
NtRp2818
(dp2819
g74
(dp2820
sg83
g2814
sg76
(lp2821
g69
(g90
g71
NtRp2822
(dp2823
g74
(dp2824
g94
g95
ssg83
g2818
sg76
(lp2825
S'HTTP_ACCEPT'
p2826
asbag69
(g90
g71
NtRp2827
(dp2828
g74
(dp2829
g101
g102
ssg83
g2818
sg76
(lp2830
S':'
asbag69
(g90
g71
NtRp2831
(dp2832
g74
(dp2833
sg83
g2818
sg76
(lp2834
g69
(g70
g71
NtRp2835
(dp2836
g74
(dp2837
g82
I3
ssg83
g2831
sg76
(lp2838
g1239
asbasbasbag69
(g85
g71
NtRp2839
(dp2840
g74
(dp2841
sg83
g2814
sg76
(lp2842
g69
(g90
g71
NtRp2843
(dp2844
g74
(dp2845
g94
g95
ssg83
g2839
sg76
(lp2846
S'HTTP_ACCEPT_ENCODING'
p2847
asbag69
(g90
g71
NtRp2848
(dp2849
g74
(dp2850
g101
g102
ssg83
g2839
sg76
(lp2851
S':'
asbag69
(g90
g71
NtRp2852
(dp2853
g74
(dp2854
sg83
g2839
sg76
(lp2855
g69
(g70
g71
NtRp2856
(dp2857
g74
(dp2858
g82
I3
ssg83
g2852
sg76
(lp2859
g1261
asbasbasbag69
(g85
g71
NtRp2860
(dp2861
g74
(dp2862
sg83
g2814
sg76
(lp2863
g69
(g90
g71
NtRp2864
(dp2865
g74
(dp2866
g94
g95
ssg83
g2860
sg76
(lp2867
S'HTTP_ACCEPT_LANGUAGE'
p2868
asbag69
(g90
g71
NtRp2869
(dp2870
g74
(dp2871
g101
g102
ssg83
g2860
sg76
(lp2872
S':'
asbag69
(g90
g71
NtRp2873
(dp2874
g74
(dp2875
sg83
g2860
sg76
(lp2876
g69
(g70
g71
NtRp2877
(dp2878
g74
(dp2879
g82
I3
ssg83
g2873
sg76
(lp2880
g1283
asbasbasbag69
(g85
g71
NtRp2881
(dp2882
g74
(dp2883
sg83
g2814
sg76
(lp2884
g69
(g90
g71
NtRp2885
(dp2886
g74
(dp2887
g94
g95
ssg83
g2881
sg76
(lp2888
S'HTTP_CONNECTION'
p2889
asbag69
(g90
g71
NtRp2890
(dp2891
g74
(dp2892
g101
g102
ssg83
g2881
sg76
(lp2893
S':'
asbag69
(g90
g71
NtRp2894
(dp2895
g74
(dp2896
sg83
g2881
sg76
(lp2897
g69
(g70
g71
NtRp2898
(dp2899
g74
(dp2900
g82
I3
ssg83
g2894
sg76
(lp2901
g1305
asbasbasbag69
(g85
g71
NtRp2902
(dp2903
g74
(dp2904
sg83
g2814
sg76
(lp2905
g69
(g90
g71
NtRp2906
(dp2907
g74
(dp2908
g94
g95
ssg83
g2902
sg76
(lp2909
S'HTTP_COOKIE'
p2910
asbag69
(g90
g71
NtRp2911
(dp2912
g74
(dp2913
g101
g102
ssg83
g2902
sg76
(lp2914
S':'
asbag69
(g90
g71
NtRp2915
(dp2916
g74
(dp2917
sg83
g2902
sg76
(lp2918
g69
(g70
g71
NtRp2919
(dp2920
g74
(dp2921
g82
I3
ssg83
g2915
sg76
(lp2922
g1327
asbasbasbag69
(g85
g71
NtRp2923
(dp2924
g74
(dp2925
sg83
g2814
sg76
(lp2926
g69
(g90
g71
NtRp2927
(dp2928
g74
(dp2929
g94
g95
ssg83
g2923
sg76
(lp2930
S'HTTP_HOST'
p2931
asbag69
(g90
g71
NtRp2932
(dp2933
g74
(dp2934
g101
g102
ssg83
g2923
sg76
(lp2935
S':'
asbag69
(g90
g71
NtRp2936
(dp2937
g74
(dp2938
sg83
g2923
sg76
(lp2939
g69
(g70
g71
NtRp2940
(dp2941
g74
(dp2942
g82
I3
ssg83
g2936
sg76
(lp2943
g1349
asbasbasbag69
(g85
g71
NtRp2944
(dp2945
g74
(dp2946
sg83
g2814
sg76
(lp2947
g69
(g90
g71
NtRp2948
(dp2949
g74
(dp2950
g94
g95
ssg83
g2944
sg76
(lp2951
S'HTTP_USER_AGENT'
p2952
asbag69
(g90
g71
NtRp2953
(dp2954
g74
(dp2955
g101
g102
ssg83
g2944
sg76
(lp2956
S':'
asbag69
(g90
g71
NtRp2957
(dp2958
g74
(dp2959
sg83
g2944
sg76
(lp2960
g69
(g70
g71
NtRp2961
(dp2962
g74
(dp2963
g82
I3
ssg83
g2957
sg76
(lp2964
g1371
asbasbasbag69
(g85
g71
NtRp2965
(dp2966
g74
(dp2967
sg83
g2814
sg76
(lp2968
g69
(g90
g71
NtRp2969
(dp2970
g74
(dp2971
g94
g95
ssg83
g2965
sg76
(lp2972
S'PATH_INFO'
p2973
asbag69
(g90
g71
NtRp2974
(dp2975
g74
(dp2976
g101
g102
ssg83
g2965
sg76
(lp2977
S':'
asbag69
(g90
g71
NtRp2978
(dp2979
g74
(dp2980
sg83
g2965
sg76
(lp2981
g69
(g70
g71
NtRp2982
(dp2983
g74
(dp2984
g82
I3
ssg83
g2978
sg76
(lp2985
g1525
asbasbasbag69
(g85
g71
NtRp2986
(dp2987
g74
(dp2988
sg83
g2814
sg76
(lp2989
g69
(g90
g71
NtRp2990
(dp2991
g74
(dp2992
g94
g95
ssg83
g2986
sg76
(lp2993
S'QUERY_STRING'
p2994
asbag69
(g90
g71
NtRp2995
(dp2996
g74
(dp2997
g101
g102
ssg83
g2986
sg76
(lp2998
S':'
asbag69
(g90
g71
NtRp2999
(dp3000
g74
(dp3001
sg83
g2986
sg76
(lp3002
g69
(g70
g71
NtRp3003
(dp3004
g74
(dp3005
g82
I3
ssg83
g2999
sg76
(lp3006
g1547
asbasbasbag69
(g85
g71
NtRp3007
(dp3008
g74
(dp3009
sg83
g2814
sg76
(lp3010
g69
(g90
g71
NtRp3011
(dp3012
g74
(dp3013
g94
g95
ssg83
g3007
sg76
(lp3014
S'REMOTE_ADDR'
p3015
asbag69
(g90
g71
NtRp3016
(dp3017
g74
(dp3018
g101
g102
ssg83
g3007
sg76
(lp3019
S':'
asbag69
(g90
g71
NtRp3020
(dp3021
g74
(dp3022
sg83
g3007
sg76
(lp3023
g69
(g70
g71
NtRp3024
(dp3025
g74
(dp3026
g82
I3
ssg83
g3020
sg76
(lp3027
g237
asbasbasbag69
(g85
g71
NtRp3028
(dp3029
g74
(dp3030
sg83
g2814
sg76
(lp3031
g69
(g90
g71
NtRp3032
(dp3033
g74
(dp3034
g94
g95
ssg83
g3028
sg76
(lp3035
S'REMOTE_PORT'
p3036
asbag69
(g90
g71
NtRp3037
(dp3038
g74
(dp3039
g101
g102
ssg83
g3028
sg76
(lp3040
S':'
asbag69
(g90
g71
NtRp3041
(dp3042
g74
(dp3043
sg83
g3028
sg76
(lp3044
g69
(g70
g71
NtRp3045
(dp3046
g74
(dp3047
g82
I3
ssg83
g3041
sg76
(lp3048
g1590
asbasbasbag69
(g85
g71
NtRp3049
(dp3050
g74
(dp3051
sg83
g2814
sg76
(lp3052
g69
(g90
g71
NtRp3053
(dp3054
g74
(dp3055
g94
g95
ssg83
g3049
sg76
(lp3056
S'REQUEST_METHOD'
p3057
asbag69
(g90
g71
NtRp3058
(dp3059
g74
(dp3060
g101
g102
ssg83
g3049
sg76
(lp3061
S':'
asbag69
(g90
g71
NtRp3062
(dp3063
g74
(dp3064
sg83
g3049
sg76
(lp3065
g69
(g70
g71
NtRp3066
(dp3067
g74
(dp3068
g82
I3
ssg83
g3062
sg76
(lp3069
g1612
asbasbasbag69
(g85
g71
NtRp3070
(dp3071
g74
(dp3072
sg83
g2814
sg76
(lp3073
g69
(g90
g71
NtRp3074
(dp3075
g74
(dp3076
g94
g95
ssg83
g3070
sg76
(lp3077
S'REQUEST_URI'
p3078
asbag69
(g90
g71
NtRp3079
(dp3080
g74
(dp3081
g101
g102
ssg83
g3070
sg76
(lp3082
S':'
asbag69
(g90
g71
NtRp3083
(dp3084
g74
(dp3085
sg83
g3070
sg76
(lp3086
g69
(g70
g71
NtRp3087
(dp3088
g74
(dp3089
g82
I3
ssg83
g3083
sg76
(lp3090
g1634
asbasbasbag69
(g85
g71
NtRp3091
(dp3092
g74
(dp3093
sg83
g2814
sg76
(lp3094
g69
(g90
g71
NtRp3095
(dp3096
g74
(dp3097
g94
g95
ssg83
g3091
sg76
(lp3098
S'SCRIPT_NAME'
p3099
asbag69
(g90
g71
NtRp3100
(dp3101
g74
(dp3102
g101
g102
ssg83
g3091
sg76
(lp3103
S':'
asbag69
(g90
g71
NtRp3104
(dp3105
g74
(dp3106
sg83
g3091
sg76
(lp3107
g69
(g70
g71
NtRp3108
(dp3109
g74
(dp3110
g82
I3
ssg83
g3104
sg76
(lp3111
S''
asbasbasbag69
(g85
g71
NtRp3112
(dp3113
g74
(dp3114
sg83
g2814
sg76
(lp3115
g69
(g90
g71
NtRp3116
(dp3117
g74
(dp3118
g94
g95
ssg83
g3112
sg76
(lp3119
S'SERVER_NAME'
p3120
asbag69
(g90
g71
NtRp3121
(dp3122
g74
(dp3123
g101
g102
ssg83
g3112
sg76
(lp3124
S':'
asbag69
(g90
g71
NtRp3125
(dp3126
g74
(dp3127
sg83
g3112
sg76
(lp3128
g69
(g70
g71
NtRp3129
(dp3130
g74
(dp3131
g82
I3
ssg83
g3125
sg76
(lp3132
g1677
asbasbasbag69
(g85
g71
NtRp3133
(dp3134
g74
(dp3135
sg83
g2814
sg76
(lp3136
g69
(g90
g71
NtRp3137
(dp3138
g74
(dp3139
g94
g95
ssg83
g3133
sg76
(lp3140
S'SERVER_PORT'
p3141
asbag69
(g90
g71
NtRp3142
(dp3143
g74
(dp3144
g101
g102
ssg83
g3133
sg76
(lp3145
S':'
asbag69
(g90
g71
NtRp3146
(dp3147
g74
(dp3148
sg83
g3133
sg76
(lp3149
g69
(g70
g71
NtRp3150
(dp3151
g74
(dp3152
g82
I3
ssg83
g3146
sg76
(lp3153
g1699
asbasbasbag69
(g85
g71
NtRp3154
(dp3155
g74
(dp3156
sg83
g2814
sg76
(lp3157
g69
(g90
g71
NtRp3158
(dp3159
g74
(dp3160
g94
g95
ssg83
g3154
sg76
(lp3161
S'SERVER_PROTOCOL'
p3162
asbag69
(g90
g71
NtRp3163
(dp3164
g74
(dp3165
g101
g102
ssg83
g3154
sg76
(lp3166
S':'
asbag69
(g90
g71
NtRp3167
(dp3168
g74
(dp3169
sg83
g3154
sg76
(lp3170
g69
(g70
g71
NtRp3171
(dp3172
g74
(dp3173
g82
I3
ssg83
g3167
sg76
(lp3174
g1721
asbasbasbag69
(g85
g71
NtRp3175
(dp3176
g74
(dp3177
sg83
g2814
sg76
(lp3178
g69
(g90
g71
NtRp3179
(dp3180
g74
(dp3181
g94
g95
ssg83
g3175
sg76
(lp3182
S'SERVER_SOFTWARE'
p3183
asbag69
(g90
g71
NtRp3184
(dp3185
g74
(dp3186
g101
g102
ssg83
g3175
sg76
(lp3187
S':'
asbag69
(g90
g71
NtRp3188
(dp3189
g74
(dp3190
sg83
g3175
sg76
(lp3191
g69
(g70
g71
NtRp3192
(dp3193
g74
(dp3194
g82
I3
ssg83
g3188
sg76
(lp3195
g1743
asbasbasbag69
(g85
g71
NtRp3196
(dp3197
g74
(dp3198
sg83
g2814
sg76
(lp3199
g69
(g90
g71
NtRp3200
(dp3201
g74
(dp3202
g94
g95
ssg83
g3196
sg76
(lp3203
S'wsgi.errors'
p3204
asbag69
(g90
g71
NtRp3205
(dp3206
g74
(dp3207
g101
g102
ssg83
g3196
sg76
(lp3208
S':'
asbag69
(g90
g71
NtRp3209
(dp3210
g74
(dp3211
sg83
g3196
sg76
(lp3212
g69
(g70
g71
NtRp3213
(dp3214
g74
(dp3215
g82
I3
ssg83
g3209
sg76
(lp3216
S"<open file '<stderr>', mode 'w' at 0xb735e0d0>"
p3217
asbasbasbag69
(g85
g71
NtRp3218
(dp3219
g74
(dp3220
sg83
g2814
sg76
(lp3221
g69
(g90
g71
NtRp3222
(dp3223
g74
(dp3224
g94
g95
ssg83
g3218
sg76
(lp3225
S'wsgi.file_wrapper'
p3226
asbag69
(g90
g71
NtRp3227
(dp3228
g74
(dp3229
g101
g102
ssg83
g3218
sg76
(lp3230
S':'
asbag69
(g90
g71
NtRp3231
(dp3232
g74
(dp3233
sg83
g3218
sg76
(lp3234
g69
(g70
g71
NtRp3235
(dp3236
g74
(dp3237
g82
I3
ssg83
g3231
sg76
(lp3238
S'<class wsgiref.util.FileWrapper at 0x96a105c>'
p3239
asbasbasbag69
(g85
g71
NtRp3240
(dp3241
g74
(dp3242
sg83
g2814
sg76
(lp3243
g69
(g90
g71
NtRp3244
(dp3245
g74
(dp3246
g94
g95
ssg83
g3240
sg76
(lp3247
S'wsgi.input'
p3248
asbag69
(g90
g71
NtRp3249
(dp3250
g74
(dp3251
g101
g102
ssg83
g3240
sg76
(lp3252
S':'
asbag69
(g90
g71
NtRp3253
(dp3254
g74
(dp3255
sg83
g3240
sg76
(lp3256
g69
(g70
g71
NtRp3257
(dp3258
g74
(dp3259
g82
I3
ssg83
g3253
sg76
(lp3260
S'<cStringIO.StringO object at 0xae14be80>'
p3261
asbasbasbag69
(g85
g71
NtRp3262
(dp3263
g74
(dp3264
sg83
g2814
sg76
(lp3265
g69
(g90
g71
NtRp3266
(dp3267
g74
(dp3268
g94
g95
ssg83
g3262
sg76
(lp3269
S'wsgi.multiprocess'
p3270
asbag69
(g90
g71
NtRp3271
(dp3272
g74
(dp3273
g101
g102
ssg83
g3262
sg76
(lp3274
S':'
asbag69
(g90
g71
NtRp3275
(dp3276
g74
(dp3277
sg83
g3262
sg76
(lp3278
g69
(g70
g71
NtRp3279
(dp3280
g74
(dp3281
g82
I3
ssg83
g3275
sg76
(lp3282
g112
asbasbasbag69
(g85
g71
NtRp3283
(dp3284
g74
(dp3285
sg83
g2814
sg76
(lp3286
g69
(g90
g71
NtRp3287
(dp3288
g74
(dp3289
g94
g95
ssg83
g3283
sg76
(lp3290
S'wsgi.multithread'
p3291
asbag69
(g90
g71
NtRp3292
(dp3293
g74
(dp3294
g101
g102
ssg83
g3283
sg76
(lp3295
S':'
asbag69
(g90
g71
NtRp3296
(dp3297
g74
(dp3298
sg83
g3283
sg76
(lp3299
g69
(g70
g71
NtRp3300
(dp3301
g74
(dp3302
g82
I3
ssg83
g3296
sg76
(lp3303
g1960
asbasbasbag69
(g85
g71
NtRp3304
(dp3305
g74
(dp3306
sg83
g2814
sg76
(lp3307
g69
(g90
g71
NtRp3308
(dp3309
g74
(dp3310
g94
g95
ssg83
g3304
sg76
(lp3311
S'wsgi.run_once'
p3312
asbag69
(g90
g71
NtRp3313
(dp3314
g74
(dp3315
g101
g102
ssg83
g3304
sg76
(lp3316
S':'
asbag69
(g90
g71
NtRp3317
(dp3318
g74
(dp3319
sg83
g3304
sg76
(lp3320
g69
(g70
g71
NtRp3321
(dp3322
g74
(dp3323
g82
I3
ssg83
g3317
sg76
(lp3324
g112
asbasbasbag69
(g85
g71
NtRp3325
(dp3326
g74
(dp3327
sg83
g2814
sg76
(lp3328
g69
(g90
g71
NtRp3329
(dp3330
g74
(dp3331
g94
g95
ssg83
g3325
sg76
(lp3332
S'wsgi.url_scheme'
p3333
asbag69
(g90
g71
NtRp3334
(dp3335
g74
(dp3336
g101
g102
ssg83
g3325
sg76
(lp3337
S':'
asbag69
(g90
g71
NtRp3338
(dp3339
g74
(dp3340
sg83
g3325
sg76
(lp3341
g69
(g70
g71
NtRp3342
(dp3343
g74
(dp3344
g82
I3
ssg83
g3338
sg76
(lp3345
g2003
asbasbasbag69
(g85
g71
NtRp3346
(dp3347
g74
(dp3348
sg83
g2814
sg76
(lp3349
g69
(g90
g71
NtRp3350
(dp3351
g74
(dp3352
g94
g95
ssg83
g3346
sg76
(lp3353
S'wsgi.version'
p3354
asbag69
(g90
g71
NtRp3355
(dp3356
g74
(dp3357
g101
g102
ssg83
g3346
sg76
(lp3358
S':'
asbag69
(g90
g71
NtRp3359
(dp3360
g74
(dp3361
sg83
g3346
sg76
(lp3362
g69
(g70
g71
NtRp3363
(dp3364
g74
(dp3365
g82
I3
ssg83
g3359
sg76
(lp3366
S'1'
asbasbasbasbasbasbasbasbasbasbasbasbasbsS'frames'
p3367
(lp3368
(dp3369
S'file'
p3370
S'/home/pankaj/web2py/gluon/restricted.py'
p3371
sS'dump'
p3372
(dp3373
S'code'
p3374
S"'# -*- coding: utf-8 -*-\\n# this file is released ...m=crud())\\n\\nresponse._vars=response._caller(user)\\n'"
p3375
sS'layer'
p3376
S"'/home/pankaj/web2py/applications/reddit/controllers/default.py'"
p3377
sS'global compile2'
p3378
S'<function compile2>'
p3379
sS'ccode'
p3380
S'undefined'
p3381
ssS'lnum'
p3382
I211
sS'lines'
p3383
(dp3384
I206
S"    environment['__name__'] = '__restricted__'"
p3385
sI207
S'    try:'
p3386
sI208
S'        if isinstance(code, types.CodeType):'
p3387
sI209
S'            ccode = code'
p3388
sI210
S'        else:'
p3389
sI211
S'            ccode = compile2(code, layer)'
p3390
sI212
S'        exec ccode in environment'
p3391
sI213
S'    except HTTP:'
p3392
sI214
S'        raise'
p3393
sI215
S'    except RestrictedError:'
p3394
ssS'call'
p3395
S"(code='# -*- coding: utf-8 -*-\\n# this file is released ...m=crud())\\n\\nresponse._vars=response._caller(user)\\n', environment={'A': <class 'gluon.html.A'>, 'Auth': <class 'gluon.tools.Auth'>, 'B': <class 'gluon.html.B'>, 'BEAUTIFY': <class 'gluon.html.BEAUTIFY'>, 'BODY': <class 'gluon.html.BODY'>, 'BR': <class 'gluon.html.BR'>, 'BUTTON': <class 'gluon.html.BUTTON'>, 'CAT': <class 'gluon.html.CAT'>, 'CENTER': <class 'gluon.html.CENTER'>, 'CLEANUP': <class 'gluon.validators.CLEANUP'>, ...}, layer='/home/pankaj/web2py/applications/reddit/controllers/default.py')"
p3396
sS'func'
p3397
S'restricted'
p3398
sa(dp3399
g3370
S'/home/pankaj/web2py/gluon/restricted.py'
p3400
sg3372
(dp3401
S'builtincompile'
p3402
S'<built-in function compile>'
p3403
sS'code'
p3404
S"'# -*- coding: utf-8 -*-\\n# this file is released ...m=crud())\\n\\nresponse._vars=response._caller(user)\\n'"
p3405
sS'code.rstrip'
p3406
S'<built-in method rstrip of str object>'
p3407
sS').replace'
p3408
g3381
sS'layer'
p3409
S"'/home/pankaj/web2py/applications/reddit/controllers/default.py'"
p3410
ssg3382
I194
sg3383
(dp3411
I192
S"    The +'\\n' is necessary else compile fails when code ends in a comment."
p3412
sI193
S'    """'
p3413
sI194
S"    return compile(code.rstrip().replace('\\r\\n', '\\n') + '\\n', layer, 'exec')"
p3414
sI195
S''
sI196
S''
sI197
S"def restricted(code, environment=None, layer='Unknown'):"
p3415
sI198
S'    """'
p3416
sI189
S''
sI190
S'def compile2(code, layer):'
p3417
sI191
S'    """'
p3418
ssg3395
S"(code='# -*- coding: utf-8 -*-\\n# this file is released ...m=crud())\\n\\nresponse._vars=response._caller(user)\\n', layer='/home/pankaj/web2py/applications/reddit/controllers/default.py')"
p3419
sg3397
S'compile2'
p3420
sasS'pyver'
p3421
S'Python 2.7.3: /usr/bin/python'
p3422
sS'session'
p3423
g69
(g70
g71
NtRp3424
(dp3425
g74
(dp3426
sg76
(lp3427
g69
(g78
g71
NtRp3428
(dp3429
g74
(dp3430
g82
I5
ssg83
Nsg76
(lp3431
g69
(g85
g71
NtRp3432
(dp3433
g74
(dp3434
sg83
g3428
sg76
(lp3435
g69
(g90
g71
NtRp3436
(dp3437
g74
(dp3438
g94
g95
ssg83
g3432
sg76
(lp3439
S'auth'
p3440
asbag69
(g90
g71
NtRp3441
(dp3442
g74
(dp3443
g101
g102
ssg83
g3432
sg76
(lp3444
S':'
asbag69
(g90
g71
NtRp3445
(dp3446
g74
(dp3447
sg83
g3432
sg76
(lp3448
g69
(g70
g71
NtRp3449
(dp3450
g74
(dp3451
g82
I5
ssg83
g3445
sg76
(lp3452
g69
(g78
g71
NtRp3453
(dp3454
g74
(dp3455
g82
I4
ssg83
Nsg76
(lp3456
g69
(g85
g71
NtRp3457
(dp3458
g74
(dp3459
sg83
g3453
sg76
(lp3460
g69
(g90
g71
NtRp3461
(dp3462
g74
(dp3463
g94
g95
ssg83
g3457
sg76
(lp3464
S'expiration'
p3465
asbag69
(g90
g71
NtRp3466
(dp3467
g74
(dp3468
g101
g102
ssg83
g3457
sg76
(lp3469
S':'
asbag69
(g90
g71
NtRp3470
(dp3471
g74
(dp3472
sg83
g3457
sg76
(lp3473
g69
(g70
g71
NtRp3474
(dp3475
g74
(dp3476
g82
I4
ssg83
g3470
sg76
(lp3477
S'2592000'
p3478
asbasbasbag69
(g85
g71
NtRp3479
(dp3480
g74
(dp3481
sg83
g3453
sg76
(lp3482
g69
(g90
g71
NtRp3483
(dp3484
g74
(dp3485
g94
g95
ssg83
g3479
sg76
(lp3486
S'hmac_key'
p3487
asbag69
(g90
g71
NtRp3488
(dp3489
g74
(dp3490
g101
g102
ssg83
g3479
sg76
(lp3491
S':'
asbag69
(g90
g71
NtRp3492
(dp3493
g74
(dp3494
sg83
g3479
sg76
(lp3495
g69
(g70
g71
NtRp3496
(dp3497
g74
(dp3498
g82
I4
ssg83
g3492
sg76
(lp3499
S'79797afd-14d9-4740-afa2-510ffa539618'
p3500
asbasbasbag69
(g85
g71
NtRp3501
(dp3502
g74
(dp3503
sg83
g3453
sg76
(lp3504
g69
(g90
g71
NtRp3505
(dp3506
g74
(dp3507
g94
g95
ssg83
g3501
sg76
(lp3508
S'last_visit'
p3509
asbag69
(g90
g71
NtRp3510
(dp3511
g74
(dp3512
g101
g102
ssg83
g3501
sg76
(lp3513
S':'
asbag69
(g90
g71
NtRp3514
(dp3515
g74
(dp3516
sg83
g3501
sg76
(lp3517
g69
(g70
g71
NtRp3518
(dp3519
g74
(dp3520
g82
I4
ssg83
g3514
sg76
(lp3521
S'datetime.datetime(2013, 9, 1, 10, 49, 15, 448827)'
p3522
asbasbasbag69
(g85
g71
NtRp3523
(dp3524
g74
(dp3525
sg83
g3453
sg76
(lp3526
g69
(g90
g71
NtRp3527
(dp3528
g74
(dp3529
g94
g95
ssg83
g3523
sg76
(lp3530
S'remember'
p3531
asbag69
(g90
g71
NtRp3532
(dp3533
g74
(dp3534
g101
g102
ssg83
g3523
sg76
(lp3535
S':'
asbag69
(g90
g71
NtRp3536
(dp3537
g74
(dp3538
sg83
g3523
sg76
(lp3539
g69
(g70
g71
NtRp3540
(dp3541
g74
(dp3542
g82
I4
ssg83
g3536
sg76
(lp3543
g1960
asbasbasbag69
(g85
g71
NtRp3544
(dp3545
g74
(dp3546
sg83
g3453
sg76
(lp3547
g69
(g90
g71
NtRp3548
(dp3549
g74
(dp3550
g94
g95
ssg83
g3544
sg76
(lp3551
S'user'
p3552
asbag69
(g90
g71
NtRp3553
(dp3554
g74
(dp3555
g101
g102
ssg83
g3544
sg76
(lp3556
S':'
asbag69
(g90
g71
NtRp3557
(dp3558
g74
(dp3559
sg83
g3544
sg76
(lp3560
g69
(g70
g71
NtRp3561
(dp3562
g74
(dp3563
g82
I4
ssg83
g3557
sg76
(lp3564
g69
(g78
g71
NtRp3565
(dp3566
g74
(dp3567
g82
I3
ssg83
Nsg76
(lp3568
g69
(g85
g71
NtRp3569
(dp3570
g74
(dp3571
sg83
g3565
sg76
(lp3572
g69
(g90
g71
NtRp3573
(dp3574
g74
(dp3575
g94
g95
ssg83
g3569
sg76
(lp3576
S'email'
p3577
asbag69
(g90
g71
NtRp3578
(dp3579
g74
(dp3580
g101
g102
ssg83
g3569
sg76
(lp3581
S':'
asbag69
(g90
g71
NtRp3582
(dp3583
g74
(dp3584
sg83
g3569
sg76
(lp3585
g69
(g70
g71
NtRp3586
(dp3587
g74
(dp3588
g82
I3
ssg83
g3582
sg76
(lp3589
S'pankaj@gmail.com'
p3590
asbasbasbag69
(g85
g71
NtRp3591
(dp3592
g74
(dp3593
sg83
g3565
sg76
(lp3594
g69
(g90
g71
NtRp3595
(dp3596
g74
(dp3597
g94
g95
ssg83
g3591
sg76
(lp3598
S'first_name'
p3599
asbag69
(g90
g71
NtRp3600
(dp3601
g74
(dp3602
g101
g102
ssg83
g3591
sg76
(lp3603
S':'
asbag69
(g90
g71
NtRp3604
(dp3605
g74
(dp3606
sg83
g3591
sg76
(lp3607
g69
(g70
g71
NtRp3608
(dp3609
g74
(dp3610
g82
I3
ssg83
g3604
sg76
(lp3611
S'pankaj'
p3612
asbasbasbag69
(g85
g71
NtRp3613
(dp3614
g74
(dp3615
sg83
g3565
sg76
(lp3616
g69
(g90
g71
NtRp3617
(dp3618
g74
(dp3619
g94
g95
ssg83
g3613
sg76
(lp3620
S'id'
p3621
asbag69
(g90
g71
NtRp3622
(dp3623
g74
(dp3624
g101
g102
ssg83
g3613
sg76
(lp3625
S':'
asbag69
(g90
g71
NtRp3626
(dp3627
g74
(dp3628
sg83
g3613
sg76
(lp3629
g69
(g70
g71
NtRp3630
(dp3631
g74
(dp3632
g82
I3
ssg83
g3626
sg76
(lp3633
S'1'
asbasbasbag69
(g85
g71
NtRp3634
(dp3635
g74
(dp3636
sg83
g3565
sg76
(lp3637
g69
(g90
g71
NtRp3638
(dp3639
g74
(dp3640
g94
g95
ssg83
g3634
sg76
(lp3641
S'last_name'
p3642
asbag69
(g90
g71
NtRp3643
(dp3644
g74
(dp3645
g101
g102
ssg83
g3634
sg76
(lp3646
S':'
asbag69
(g90
g71
NtRp3647
(dp3648
g74
(dp3649
sg83
g3634
sg76
(lp3650
g69
(g70
g71
NtRp3651
(dp3652
g74
(dp3653
g82
I3
ssg83
g3647
sg76
(lp3654
S'malhotra'
p3655
asbasbasbag69
(g85
g71
NtRp3656
(dp3657
g74
(dp3658
sg83
g3565
sg76
(lp3659
g69
(g90
g71
NtRp3660
(dp3661
g74
(dp3662
g94
g95
ssg83
g3656
sg76
(lp3663
S'registration_id'
p3664
asbag69
(g90
g71
NtRp3665
(dp3666
g74
(dp3667
g101
g102
ssg83
g3656
sg76
(lp3668
S':'
asbag69
(g90
g71
NtRp3669
(dp3670
g74
(dp3671
sg83
g3656
sg76
(lp3672
g69
(g70
g71
NtRp3673
(dp3674
g74
(dp3675
g82
I3
ssg83
g3669
sg76
(lp3676
S''
asbasbasbag69
(g85
g71
NtRp3677
(dp3678
g74
(dp3679
sg83
g3565
sg76
(lp3680
g69
(g90
g71
NtRp3681
(dp3682
g74
(dp3683
g94
g95
ssg83
g3677
sg76
(lp3684
S'registration_key'
p3685
asbag69
(g90
g71
NtRp3686
(dp3687
g74
(dp3688
g101
g102
ssg83
g3677
sg76
(lp3689
S':'
asbag69
(g90
g71
NtRp3690
(dp3691
g74
(dp3692
sg83
g3677
sg76
(lp3693
g69
(g70
g71
NtRp3694
(dp3695
g74
(dp3696
g82
I3
ssg83
g3690
sg76
(lp3697
S''
asbasbasbag69
(g85
g71
NtRp3698
(dp3699
g74
(dp3700
sg83
g3565
sg76
(lp3701
g69
(g90
g71
NtRp3702
(dp3703
g74
(dp3704
g94
g95
ssg83
g3698
sg76
(lp3705
S'reset_password_key'
p3706
asbag69
(g90
g71
NtRp3707
(dp3708
g74
(dp3709
g101
g102
ssg83
g3698
sg76
(lp3710
S':'
asbag69
(g90
g71
NtRp3711
(dp3712
g74
(dp3713
sg83
g3698
sg76
(lp3714
g69
(g70
g71
NtRp3715
(dp3716
g74
(dp3717
g82
I3
ssg83
g3711
sg76
(lp3718
S''
asbasbasbasbasbasbasbag69
(g85
g71
NtRp3719
(dp3720
g74
(dp3721
sg83
g3453
sg76
(lp3722
g69
(g90
g71
NtRp3723
(dp3724
g74
(dp3725
g94
g95
ssg83
g3719
sg76
(lp3726
S'user_groups'
p3727
asbag69
(g90
g71
NtRp3728
(dp3729
g74
(dp3730
g101
g102
ssg83
g3719
sg76
(lp3731
S':'
asbag69
(g90
g71
NtRp3732
(dp3733
g74
(dp3734
sg83
g3719
sg76
(lp3735
g69
(g70
g71
NtRp3736
(dp3737
g74
(dp3738
g82
I4
ssg83
g3732
sg76
(lp3739
g69
(g78
g71
NtRp3740
(dp3741
g74
(dp3742
g82
I3
ssg83
Nsg76
(lp3743
g69
(g85
g71
NtRp3744
(dp3745
g74
(dp3746
sg83
g3740
sg76
(lp3747
g69
(g90
g71
NtRp3748
(dp3749
g74
(dp3750
g94
g95
ssg83
g3744
sg76
(lp3751
S'1'
asbag69
(g90
g71
NtRp3752
(dp3753
g74
(dp3754
g101
g102
ssg83
g3744
sg76
(lp3755
S':'
asbag69
(g90
g71
NtRp3756
(dp3757
g74
(dp3758
sg83
g3744
sg76
(lp3759
g69
(g70
g71
NtRp3760
(dp3761
g74
(dp3762
g82
I3
ssg83
g3756
sg76
(lp3763
S'user_1'
p3764
asbasbasbasbasbasbasbasbasbasbasbag69
(g85
g71
NtRp3765
(dp3766
g74
(dp3767
sg83
g3428
sg76
(lp3768
g69
(g90
g71
NtRp3769
(dp3770
g74
(dp3771
g94
g95
ssg83
g3765
sg76
(lp3772
S'flash'
p3773
asbag69
(g90
g71
NtRp3774
(dp3775
g74
(dp3776
g101
g102
ssg83
g3765
sg76
(lp3777
S':'
asbag69
(g90
g71
NtRp3778
(dp3779
g74
(dp3780
sg83
g3765
sg76
(lp3781
g69
(g70
g71
NtRp3782
(dp3783
g74
(dp3784
g82
I5
ssg83
g3778
sg76
(lp3785
S'None'
p3786
asbasbasbag69
(g85
g71
NtRp3787
(dp3788
g74
(dp3789
sg83
g3428
sg76
(lp3790
g69
(g90
g71
NtRp3791
(dp3792
g74
(dp3793
g94
g95
ssg83
g3787
sg76
(lp3794
S'last_orderby'
p3795
asbag69
(g90
g71
NtRp3796
(dp3797
g74
(dp3798
g101
g102
ssg83
g3787
sg76
(lp3799
S':'
asbag69
(g90
g71
NtRp3800
(dp3801
g74
(dp3802
sg83
g3787
sg76
(lp3803
g69
(g70
g71
NtRp3804
(dp3805
g74
(dp3806
g82
I5
ssg83
g3800
sg76
(lp3807
S'None'
p3808
asbasbasbag69
(g85
g71
NtRp3809
(dp3810
g74
(dp3811
sg83
g3428
sg76
(lp3812
g69
(g90
g71
NtRp3813
(dp3814
g74
(dp3815
g94
g95
ssg83
g3809
sg76
(lp3816
S'last_query'
p3817
asbag69
(g90
g71
NtRp3818
(dp3819
g74
(dp3820
g101
g102
ssg83
g3809
sg76
(lp3821
S':'
asbag69
(g90
g71
NtRp3822
(dp3823
g74
(dp3824
sg83
g3809
sg76
(lp3825
g69
(g70
g71
NtRp3826
(dp3827
g74
(dp3828
g82
I5
ssg83
g3822
sg76
(lp3829
S'db.news.id>0'
p3830
asbasbasbag69
(g85
g71
NtRp3831
(dp3832
g74
(dp3833
sg83
g3428
sg76
(lp3834
g69
(g90
g71
NtRp3835
(dp3836
g74
(dp3837
g94
g95
ssg83
g3831
sg76
(lp3838
S'newid'
p3839
asbag69
(g90
g71
NtRp3840
(dp3841
g74
(dp3842
g101
g102
ssg83
g3831
sg76
(lp3843
S':'
asbag69
(g90
g71
NtRp3844
(dp3845
g74
(dp3846
sg83
g3831
sg76
(lp3847
g69
(g70
g71
NtRp3848
(dp3849
g74
(dp3850
g82
I5
ssg83
g3844
sg76
(lp3851
S'6'
asbasbasbag69
(g85
g71
NtRp3852
(dp3853
g74
(dp3854
sg83
g3428
sg76
(lp3855
g69
(g90
g71
NtRp3856
(dp3857
g74
(dp3858
g94
g95
ssg83
g3852
sg76
(lp3859
S'newsid'
p3860
asbag69
(g90
g71
NtRp3861
(dp3862
g74
(dp3863
g101
g102
ssg83
g3852
sg76
(lp3864
S':'
asbag69
(g90
g71
NtRp3865
(dp3866
g74
(dp3867
sg83
g3852
sg76
(lp3868
g69
(g70
g71
NtRp3869
(dp3870
g74
(dp3871
g82
I5
ssg83
g3865
sg76
(lp3872
S'6'
asbasbasbasbasbsS'etype'
p3873
S"<type 'exceptions.SyntaxError'>"
p3874
sS'date'
p3875
S'Sun Sep  1 10:55:24 2013'
p3876
sS'response'
p3877
g69
(g70
g71
NtRp3878
(dp3879
g74
(dp3880
sg76
(lp3881
g69
(g78
g71
NtRp3882
(dp3883
g74
(dp3884
g82
I5
ssg83
Nsg76
(lp3885
g69
(g85
g71
NtRp3886
(dp3887
g74
(dp3888
sg83
g3882
sg76
(lp3889
g69
(g90
g71
NtRp3890
(dp3891
g74
(dp3892
g94
g95
ssg83
g3886
sg76
(lp3893
g180
asbag69
(g90
g71
NtRp3894
(dp3895
g74
(dp3896
g101
g102
ssg83
g3886
sg76
(lp3897
S':'
asbag69
(g90
g71
NtRp3898
(dp3899
g74
(dp3900
sg83
g3886
sg76
(lp3901
g69
(g70
g71
NtRp3902
(dp3903
g74
(dp3904
g82
I5
ssg83
g3898
sg76
(lp3905
S'<cStringIO.StringO object at 0x995e0e0>'
p3906
asbasbasbag69
(g85
g71
NtRp3907
(dp3908
g74
(dp3909
sg83
g3882
sg76
(lp3910
g69
(g90
g71
NtRp3911
(dp3912
g74
(dp3913
g94
g95
ssg83
g3907
sg76
(lp3914
g268
asbag69
(g90
g71
NtRp3915
(dp3916
g74
(dp3917
g101
g102
ssg83
g3907
sg76
(lp3918
S':'
asbag69
(g90
g71
NtRp3919
(dp3920
g74
(dp3921
sg83
g3907
sg76
(lp3922
g69
(g70
g71
NtRp3923
(dp3924
g74
(dp3925
g82
I5
ssg83
g3919
sg76
(lp3926
g69
(g78
g71
NtRp3927
(dp3928
g74
(dp3929
g82
I4
ssg83
Nsg76
(lp3930
g69
(g85
g71
NtRp3931
(dp3932
g74
(dp3933
sg83
g3927
sg76
(lp3934
g69
(g90
g71
NtRp3935
(dp3936
g74
(dp3937
g94
g95
ssg83
g3931
sg76
(lp3938
S'session_id_reddit'
p3939
asbag69
(g90
g71
NtRp3940
(dp3941
g74
(dp3942
g101
g102
ssg83
g3931
sg76
(lp3943
S':'
asbag69
(g90
g71
NtRp3944
(dp3945
g74
(dp3946
sg83
g3931
sg76
(lp3947
g69
(g70
g71
NtRp3948
(dp3949
g74
(dp3950
g82
I4
ssg83
g3944
sg76
(lp3951
g686
ag69
(g78
g71
NtRp3952
(dp3953
g74
(dp3954
g82
I3
ssg83
Nsg76
(lp3955
g69
(g85
g71
NtRp3956
(dp3957
g74
(dp3958
sg83
g3952
sg76
(lp3959
g69
(g90
g71
NtRp3960
(dp3961
g74
(dp3962
g94
g95
ssg83
g3956
sg76
(lp3963
g319
asbag69
(g90
g71
NtRp3964
(dp3965
g74
(dp3966
g101
g102
ssg83
g3956
sg76
(lp3967
S':'
asbag69
(g90
g71
NtRp3968
(dp3969
g74
(dp3970
sg83
g3956
sg76
(lp3971
g69
(g70
g71
NtRp3972
(dp3973
g74
(dp3974
g82
I3
ssg83
g3968
sg76
(lp3975
S''
asbasbasbag69
(g85
g71
NtRp3976
(dp3977
g74
(dp3978
sg83
g3952
sg76
(lp3979
g69
(g90
g71
NtRp3980
(dp3981
g74
(dp3982
g94
g95
ssg83
g3976
sg76
(lp3983
g340
asbag69
(g90
g71
NtRp3984
(dp3985
g74
(dp3986
g101
g102
ssg83
g3976
sg76
(lp3987
S':'
asbag69
(g90
g71
NtRp3988
(dp3989
g74
(dp3990
sg83
g3976
sg76
(lp3991
g69
(g70
g71
NtRp3992
(dp3993
g74
(dp3994
g82
I3
ssg83
g3988
sg76
(lp3995
S''
asbasbasbag69
(g85
g71
NtRp3996
(dp3997
g74
(dp3998
sg83
g3952
sg76
(lp3999
g69
(g90
g71
NtRp4000
(dp4001
g74
(dp4002
g94
g95
ssg83
g3996
sg76
(lp4003
g361
asbag69
(g90
g71
NtRp4004
(dp4005
g74
(dp4006
g101
g102
ssg83
g3996
sg76
(lp4007
S':'
asbag69
(g90
g71
NtRp4008
(dp4009
g74
(dp4010
sg83
g3996
sg76
(lp4011
g69
(g70
g71
NtRp4012
(dp4013
g74
(dp4014
g82
I3
ssg83
g4008
sg76
(lp4015
S'2592000'
p4016
asbasbasbag69
(g85
g71
NtRp4017
(dp4018
g74
(dp4019
sg83
g3952
sg76
(lp4020
g69
(g90
g71
NtRp4021
(dp4022
g74
(dp4023
g94
g95
ssg83
g4017
sg76
(lp4024
g382
asbag69
(g90
g71
NtRp4025
(dp4026
g74
(dp4027
g101
g102
ssg83
g4017
sg76
(lp4028
S':'
asbag69
(g90
g71
NtRp4029
(dp4030
g74
(dp4031
sg83
g4017
sg76
(lp4032
g69
(g70
g71
NtRp4033
(dp4034
g74
(dp4035
g82
I3
ssg83
g4029
sg76
(lp4036
S''
asbasbasbag69
(g85
g71
NtRp4037
(dp4038
g74
(dp4039
sg83
g3952
sg76
(lp4040
g69
(g90
g71
NtRp4041
(dp4042
g74
(dp4043
g94
g95
ssg83
g4037
sg76
(lp4044
g403
asbag69
(g90
g71
NtRp4045
(dp4046
g74
(dp4047
g101
g102
ssg83
g4037
sg76
(lp4048
S':'
asbag69
(g90
g71
NtRp4049
(dp4050
g74
(dp4051
sg83
g4037
sg76
(lp4052
g69
(g70
g71
NtRp4053
(dp4054
g74
(dp4055
g82
I3
ssg83
g4049
sg76
(lp4056
S''
asbasbasbag69
(g85
g71
NtRp4057
(dp4058
g74
(dp4059
sg83
g3952
sg76
(lp4060
g69
(g90
g71
NtRp4061
(dp4062
g74
(dp4063
g94
g95
ssg83
g4057
sg76
(lp4064
g424
asbag69
(g90
g71
NtRp4065
(dp4066
g74
(dp4067
g101
g102
ssg83
g4057
sg76
(lp4068
S':'
asbag69
(g90
g71
NtRp4069
(dp4070
g74
(dp4071
sg83
g4057
sg76
(lp4072
g69
(g70
g71
NtRp4073
(dp4074
g74
(dp4075
g82
I3
ssg83
g4069
sg76
(lp4076
S'/'
asbasbasbag69
(g85
g71
NtRp4077
(dp4078
g74
(dp4079
sg83
g3952
sg76
(lp4080
g69
(g90
g71
NtRp4081
(dp4082
g74
(dp4083
g94
g95
ssg83
g4077
sg76
(lp4084
g445
asbag69
(g90
g71
NtRp4085
(dp4086
g74
(dp4087
g101
g102
ssg83
g4077
sg76
(lp4088
S':'
asbag69
(g90
g71
NtRp4089
(dp4090
g74
(dp4091
sg83
g4077
sg76
(lp4092
g69
(g70
g71
NtRp4093
(dp4094
g74
(dp4095
g82
I3
ssg83
g4089
sg76
(lp4096
S''
asbasbasbag69
(g85
g71
NtRp4097
(dp4098
g74
(dp4099
sg83
g3952
sg76
(lp4100
g69
(g90
g71
NtRp4101
(dp4102
g74
(dp4103
g94
g95
ssg83
g4097
sg76
(lp4104
g466
asbag69
(g90
g71
NtRp4105
(dp4106
g74
(dp4107
g101
g102
ssg83
g4097
sg76
(lp4108
S':'
asbag69
(g90
g71
NtRp4109
(dp4110
g74
(dp4111
sg83
g4097
sg76
(lp4112
g69
(g70
g71
NtRp4113
(dp4114
g74
(dp4115
g82
I3
ssg83
g4109
sg76
(lp4116
S''
asbasbasbasbasbasbasbasbasbasbasbag69
(g85
g71
NtRp4117
(dp4118
g74
(dp4119
sg83
g3882
sg76
(lp4120
g69
(g90
g71
NtRp4121
(dp4122
g74
(dp4123
g94
g95
ssg83
g4117
sg76
(lp4124
S'delimiters'
p4125
asbag69
(g90
g71
NtRp4126
(dp4127
g74
(dp4128
g101
g102
ssg83
g4117
sg76
(lp4129
S':'
asbag69
(g90
g71
NtRp4130
(dp4131
g74
(dp4132
sg83
g4117
sg76
(lp4133
g69
(g70
g71
NtRp4134
(dp4135
g74
(dp4136
g82
I5
ssg83
g4130
sg76
(lp4137
g69
(g78
g71
NtRp4138
(dp4139
g74
(dp4140
g82
I4
ssg83
Nsg76
(lp4141
g69
(g85
g71
NtRp4142
(dp4143
g74
(dp4144
sg83
g4138
sg76
(lp4145
g69
(g90
g71
NtRp4146
(dp4147
g74
(dp4148
sg83
g4142
sg76
(lp4149
g69
(g70
g71
NtRp4150
(dp4151
g74
(dp4152
g82
I4
ssg83
g4146
sg76
(lp4153
S'{{'
p4154
asbasbasbag69
(g85
g71
NtRp4155
(dp4156
g74
(dp4157
sg83
g4138
sg76
(lp4158
g69
(g90
g71
NtRp4159
(dp4160
g74
(dp4161
sg83
g4155
sg76
(lp4162
g69
(g70
g71
NtRp4163
(dp4164
g74
(dp4165
g82
I4
ssg83
g4159
sg76
(lp4166
S'}}'
p4167
asbasbasbasbasbasbasbag69
(g85
g71
NtRp4168
(dp4169
g74
(dp4170
sg83
g3882
sg76
(lp4171
g69
(g90
g71
NtRp4172
(dp4173
g74
(dp4174
g94
g95
ssg83
g4168
sg76
(lp4175
S'files'
p4176
asbag69
(g90
g71
NtRp4177
(dp4178
g74
(dp4179
g101
g102
ssg83
g4168
sg76
(lp4180
S':'
asbag69
(g90
g71
NtRp4181
(dp4182
g74
(dp4183
sg83
g4168
sg76
(lp4184
g69
(g70
g71
NtRp4185
(dp4186
g74
(dp4187
g82
I5
ssg83
g4181
sg76
(lp4188
g69
(g78
g71
NtRp4189
(dp4190
g74
(dp4191
g82
I4
ssg83
Nsg76
(lp4192
sbasbasbasbag69
(g85
g71
NtRp4193
(dp4194
g74
(dp4195
sg83
g3882
sg76
(lp4196
g69
(g90
g71
NtRp4197
(dp4198
g74
(dp4199
g94
g95
ssg83
g4193
sg76
(lp4200
S'flash'
p4201
asbag69
(g90
g71
NtRp4202
(dp4203
g74
(dp4204
g101
g102
ssg83
g4193
sg76
(lp4205
S':'
asbag69
(g90
g71
NtRp4206
(dp4207
g74
(dp4208
sg83
g4193
sg76
(lp4209
g69
(g70
g71
NtRp4210
(dp4211
g74
(dp4212
g82
I5
ssg83
g4206
sg76
(lp4213
S''
asbasbasbag69
(g85
g71
NtRp4214
(dp4215
g74
(dp4216
sg83
g3882
sg76
(lp4217
g69
(g90
g71
NtRp4218
(dp4219
g74
(dp4220
g94
g95
ssg83
g4214
sg76
(lp4221
S'generic_patterns'
p4222
asbag69
(g90
g71
NtRp4223
(dp4224
g74
(dp4225
g101
g102
ssg83
g4214
sg76
(lp4226
S':'
asbag69
(g90
g71
NtRp4227
(dp4228
g74
(dp4229
sg83
g4214
sg76
(lp4230
g69
(g70
g71
NtRp4231
(dp4232
g74
(dp4233
g82
I5
ssg83
g4227
sg76
(lp4234
g69
(g78
g71
NtRp4235
(dp4236
g74
(dp4237
g82
I4
ssg83
Nsg76
(lp4238
g69
(g85
g71
NtRp4239
(dp4240
g74
(dp4241
sg83
g4235
sg76
(lp4242
g69
(g90
g71
NtRp4243
(dp4244
g74
(dp4245
sg83
g4239
sg76
(lp4246
g69
(g70
g71
NtRp4247
(dp4248
g74
(dp4249
g82
I4
ssg83
g4243
sg76
(lp4250
S'*'
asbasbasbasbasbasbasbag69
(g85
g71
NtRp4251
(dp4252
g74
(dp4253
sg83
g3882
sg76
(lp4254
g69
(g90
g71
NtRp4255
(dp4256
g74
(dp4257
g94
g95
ssg83
g4251
sg76
(lp4258
S'google_analytics_id'
p4259
asbag69
(g90
g71
NtRp4260
(dp4261
g74
(dp4262
g101
g102
ssg83
g4251
sg76
(lp4263
S':'
asbag69
(g90
g71
NtRp4264
(dp4265
g74
(dp4266
sg83
g4251
sg76
(lp4267
g69
(g70
g71
NtRp4268
(dp4269
g74
(dp4270
g82
I5
ssg83
g4264
sg76
(lp4271
S'None'
p4272
asbasbasbag69
(g85
g71
NtRp4273
(dp4274
g74
(dp4275
sg83
g3882
sg76
(lp4276
g69
(g90
g71
NtRp4277
(dp4278
g74
(dp4279
g94
g95
ssg83
g4273
sg76
(lp4280
S'headers'
p4281
asbag69
(g90
g71
NtRp4282
(dp4283
g74
(dp4284
g101
g102
ssg83
g4273
sg76
(lp4285
S':'
asbag69
(g90
g71
NtRp4286
(dp4287
g74
(dp4288
sg83
g4273
sg76
(lp4289
g69
(g70
g71
NtRp4290
(dp4291
g74
(dp4292
g82
I5
ssg83
g4286
sg76
(lp4293
g69
(g78
g71
NtRp4294
(dp4295
g74
(dp4296
g82
I4
ssg83
Nsg76
(lp4297
g69
(g85
g71
NtRp4298
(dp4299
g74
(dp4300
sg83
g4294
sg76
(lp4301
g69
(g90
g71
NtRp4302
(dp4303
g74
(dp4304
g94
g95
ssg83
g4298
sg76
(lp4305
S'X-Powered-By'
p4306
asbag69
(g90
g71
NtRp4307
(dp4308
g74
(dp4309
g101
g102
ssg83
g4298
sg76
(lp4310
S':'
asbag69
(g90
g71
NtRp4311
(dp4312
g74
(dp4313
sg83
g4298
sg76
(lp4314
g69
(g70
g71
NtRp4315
(dp4316
g74
(dp4317
g82
I4
ssg83
g4311
sg76
(lp4318
S'web2py'
p4319
asbasbasbasbasbasbasbag69
(g85
g71
NtRp4320
(dp4321
g74
(dp4322
sg83
g3882
sg76
(lp4323
g69
(g90
g71
NtRp4324
(dp4325
g74
(dp4326
g94
g95
ssg83
g4320
sg76
(lp4327
S'logo'
p4328
asbag69
(g90
g71
NtRp4329
(dp4330
g74
(dp4331
g101
g102
ssg83
g4320
sg76
(lp4332
S':'
asbag69
(g90
g71
NtRp4333
(dp4334
g74
(dp4335
sg83
g4320
sg76
(lp4336
g69
(g70
g71
NtRp4337
(dp4338
g74
(dp4339
g82
I5
ssg83
g4333
sg76
(lp4340
g69
(cgluon.html
A
p4341
g71
NtRp4342
(dp4343
g74
(dp4344
S'_class'
p4345
S'brand'
p4346
sS'_href'
p4347
S'http://www.web2py.com/'
p4348
ssg83
Nsg76
(lp4349
g69
(cgluon.html
B
p4350
g71
NtRp4351
(dp4352
g74
(dp4353
sg83
g4342
sg76
(lp4354
S'web'
p4355
ag69
(cgluon.html
SPAN
p4356
g71
NtRp4357
(dp4358
g74
(dp4359
sg83
g4351
sg76
(lp4360
I2
asbaS'py'
p4361
asbacgluon.html
XML_unpickle
p4362
(S's\r\x00\x00\x00&trade;&nbsp;'
tRp4363
asbasbasbasbag69
(g85
g71
NtRp4364
(dp4365
g74
(dp4366
sg83
g3882
sg76
(lp4367
g69
(g90
g71
NtRp4368
(dp4369
g74
(dp4370
g94
g95
ssg83
g4364
sg76
(lp4371
S'menu'
p4372
asbag69
(g90
g71
NtRp4373
(dp4374
g74
(dp4375
g101
g102
ssg83
g4364
sg76
(lp4376
S':'
asbag69
(g90
g71
NtRp4377
(dp4378
g74
(dp4379
sg83
g4364
sg76
(lp4380
g69
(g70
g71
NtRp4381
(dp4382
g74
(dp4383
g82
I5
ssg83
g4377
sg76
(lp4384
g69
(g78
g71
NtRp4385
(dp4386
g74
(dp4387
g82
I4
ssg83
Nsg76
(lp4388
g69
(g85
g71
NtRp4389
(dp4390
g74
(dp4391
sg83
g4385
sg76
(lp4392
g69
(g90
g71
NtRp4393
(dp4394
g74
(dp4395
sg83
g4389
sg76
(lp4396
g69
(g70
g71
NtRp4397
(dp4398
g74
(dp4399
g82
I4
ssg83
g4393
sg76
(lp4400
g69
(g78
g71
NtRp4401
(dp4402
g74
(dp4403
g82
I3
ssg83
Nsg76
(lp4404
g69
(g85
g71
NtRp4405
(dp4406
g74
(dp4407
sg83
g4401
sg76
(lp4408
g69
(g90
g71
NtRp4409
(dp4410
g74
(dp4411
sg83
g4405
sg76
(lp4412
g69
(g70
g71
NtRp4413
(dp4414
g74
(dp4415
g82
I3
ssg83
g4409
sg76
(lp4416
cgluon.languages
lazyT_unpickle
p4417
(S's\x04\x00\x00\x00Home'
tRp4418
asbasbasbag69
(g85
g71
NtRp4419
(dp4420
g74
(dp4421
sg83
g4401
sg76
(lp4422
g69
(g90
g71
NtRp4423
(dp4424
g74
(dp4425
sg83
g4419
sg76
(lp4426
g69
(g70
g71
NtRp4427
(dp4428
g74
(dp4429
g82
I3
ssg83
g4423
sg76
(lp4430
g112
asbasbasbag69
(g85
g71
NtRp4431
(dp4432
g74
(dp4433
sg83
g4401
sg76
(lp4434
g69
(g90
g71
NtRp4435
(dp4436
g74
(dp4437
sg83
g4431
sg76
(lp4438
g69
(g70
g71
NtRp4439
(dp4440
g74
(dp4441
g82
I3
ssg83
g4435
sg76
(lp4442
S'/reddit/default/index'
p4443
asbasbasbag69
(g85
g71
NtRp4444
(dp4445
g74
(dp4446
sg83
g4401
sg76
(lp4447
g69
(g90
g71
NtRp4448
(dp4449
g74
(dp4450
sg83
g4444
sg76
(lp4451
g69
(g70
g71
NtRp4452
(dp4453
g74
(dp4454
g82
I3
ssg83
g4448
sg76
(lp4455
g69
(g78
g71
NtRp4456
(dp4457
g74
(dp4458
g82
I2
ssg83
Nsg76
(lp4459
sbasbasbasbasbasbasbasbag69
(g85
g71
NtRp4460
(dp4461
g74
(dp4462
sg83
g4385
sg76
(lp4463
g69
(g90
g71
NtRp4464
(dp4465
g74
(dp4466
sg83
g4460
sg76
(lp4467
g69
(g70
g71
NtRp4468
(dp4469
g74
(dp4470
g82
I4
ssg83
g4464
sg76
(lp4471
g69
(g78
g71
NtRp4472
(dp4473
g74
(dp4474
g82
I3
ssg83
Nsg76
(lp4475
g69
(g85
g71
NtRp4476
(dp4477
g74
(dp4478
sg83
g4472
sg76
(lp4479
g69
(g90
g71
NtRp4480
(dp4481
g74
(dp4482
sg83
g4476
sg76
(lp4483
g69
(g70
g71
NtRp4484
(dp4485
g74
(dp4486
g82
I3
ssg83
g4480
sg76
(lp4487
g69
(g4356
g71
NtRp4488
(dp4489
g74
(dp4490
g4345
S'highlighted'
p4491
ssg83
Nsg76
(lp4492
g4319
asbasbasbasbag69
(g85
g71
NtRp4493
(dp4494
g74
(dp4495
sg83
g4472
sg76
(lp4496
g69
(g90
g71
NtRp4497
(dp4498
g74
(dp4499
sg83
g4493
sg76
(lp4500
g69
(g70
g71
NtRp4501
(dp4502
g74
(dp4503
g82
I3
ssg83
g4497
sg76
(lp4504
g112
asbasbasbag69
(g85
g71
NtRp4505
(dp4506
g74
(dp4507
sg83
g4472
sg76
(lp4508
g69
(g90
g71
NtRp4509
(dp4510
g74
(dp4511
sg83
g4505
sg76
(lp4512
g69
(g70
g71
NtRp4513
(dp4514
g74
(dp4515
g82
I3
ssg83
g4509
sg76
(lp4516
S'http://web2py.com'
p4517
asbasbasbag69
(g85
g71
NtRp4518
(dp4519
g74
(dp4520
sg83
g4472
sg76
(lp4521
g69
(g90
g71
NtRp4522
(dp4523
g74
(dp4524
sg83
g4518
sg76
(lp4525
g69
(g70
g71
NtRp4526
(dp4527
g74
(dp4528
g82
I3
ssg83
g4522
sg76
(lp4529
g69
(g78
g71
NtRp4530
(dp4531
g74
(dp4532
g82
I2
ssg83
Nsg76
(lp4533
g69
(g85
g71
NtRp4534
(dp4535
g74
(dp4536
sg83
g4530
sg76
(lp4537
g69
(g90
g71
NtRp4538
(dp4539
g74
(dp4540
sg83
g4534
sg76
(lp4541
g69
(g70
g71
NtRp4542
(dp4543
g74
(dp4544
g82
I2
ssg83
g4538
sg76
(lp4545
g69
(g78
g71
NtRp4546
(dp4547
g74
(dp4548
g82
I1
ssg83
Nsg76
(lp4549
g69
(g85
g71
NtRp4550
(dp4551
g74
(dp4552
sg83
g4546
sg76
(lp4553
g69
(g90
g71
NtRp4554
(dp4555
g74
(dp4556
sg83
g4550
sg76
(lp4557
g69
(g70
g71
NtRp4558
(dp4559
g74
(dp4560
g82
I1
ssg83
g4554
sg76
(lp4561
g4417
(S's\x08\x00\x00\x00My Sites'
tRp4562
asbasbasbag69
(g85
g71
NtRp4563
(dp4564
g74
(dp4565
sg83
g4546
sg76
(lp4566
g69
(g90
g71
NtRp4567
(dp4568
g74
(dp4569
sg83
g4563
sg76
(lp4570
g69
(g70
g71
NtRp4571
(dp4572
g74
(dp4573
g82
I1
ssg83
g4567
sg76
(lp4574
I00
asbasbasbag69
(g85
g71
NtRp4575
(dp4576
g74
(dp4577
sg83
g4546
sg76
(lp4578
g69
(g90
g71
NtRp4579
(dp4580
g74
(dp4581
sg83
g4575
sg76
(lp4582
g69
(g70
g71
NtRp4583
(dp4584
g74
(dp4585
g82
I1
ssg83
g4579
sg76
(lp4586
S'/admin/default/site'
p4587
asbasbasbasbasbasbasbag69
(g85
g71
NtRp4588
(dp4589
g74
(dp4590
sg83
g4530
sg76
(lp4591
g69
(g90
g71
NtRp4592
(dp4593
g74
(dp4594
sg83
g4588
sg76
(lp4595
g69
(g70
g71
NtRp4596
(dp4597
g74
(dp4598
g82
I2
ssg83
g4592
sg76
(lp4599
g69
(g78
g71
NtRp4600
(dp4601
g74
(dp4602
g82
I1
ssg83
Nsg76
(lp4603
g69
(g85
g71
NtRp4604
(dp4605
g74
(dp4606
sg83
g4600
sg76
(lp4607
g69
(g90
g71
NtRp4608
(dp4609
g74
(dp4610
sg83
g4604
sg76
(lp4611
g69
(g70
g71
NtRp4612
(dp4613
g74
(dp4614
g82
I1
ssg83
g4608
sg76
(lp4615
g4417
(S's\x08\x00\x00\x00This App'
tRp4616
asbasbasbag69
(g85
g71
NtRp4617
(dp4618
g74
(dp4619
sg83
g4600
sg76
(lp4620
g69
(g90
g71
NtRp4621
(dp4622
g74
(dp4623
sg83
g4617
sg76
(lp4624
g69
(g70
g71
NtRp4625
(dp4626
g74
(dp4627
g82
I1
ssg83
g4621
sg76
(lp4628
I00
asbasbasbag69
(g85
g71
NtRp4629
(dp4630
g74
(dp4631
sg83
g4600
sg76
(lp4632
g69
(g90
g71
NtRp4633
(dp4634
g74
(dp4635
sg83
g4629
sg76
(lp4636
g69
(g70
g71
NtRp4637
(dp4638
g74
(dp4639
g82
I1
ssg83
g4633
sg76
(lp4640
S'/admin/default/design/reddit'
p4641
asbasbasbag69
(g85
g71
NtRp4642
(dp4643
g74
(dp4644
sg83
g4600
sg76
(lp4645
g69
(g90
g71
NtRp4646
(dp4647
g74
(dp4648
sg83
g4642
sg76
(lp4649
g69
(g70
g71
NtRp4650
(dp4651
g74
(dp4652
g82
I1
ssg83
g4646
sg76
(lp4653
(lp4654
(g4417
(S's\n\x00\x00\x00Controller'
tRp4655
I00
S'/admin/default/edit/reddit/controllers/default.py'
tp4656
a(g4417
(S's\x04\x00\x00\x00View'
tRp4657
I00
S'/admin/default/edit/reddit/views/default/user.html'
tp4658
a(g4417
(S's\x06\x00\x00\x00Layout'
tRp4659
I00
S'/admin/default/edit/reddit/views/layout.html'
tp4660
a(g4417
(S's\n\x00\x00\x00Stylesheet'
tRp4661
I00
S'/admin/default/edit/reddit/static/css/web2py.css'
tp4662
a(g4417
(S's\x08\x00\x00\x00DB Model'
tRp4663
I00
S'/admin/default/edit/reddit/models/db.py'
tp4664
a(g4417
(S's\n\x00\x00\x00Menu Model'
tRp4665
I00
S'/admin/default/edit/reddit/models/menu.py'
tp4666
a(g4417
(S's\x08\x00\x00\x00Database'
tRp4667
I00
S'/reddit/appadmin/index'
tp4668
a(g4417
(S's\x06\x00\x00\x00Errors'
tRp4669
I00
S'/admin/default/errors/reddit'
tp4670
a(g4417
(S's\x05\x00\x00\x00About'
tRp4671
I00
S'/admin/default/about/reddit'
tp4672
aasbasbasbasbasbasbasbag69
(g85
g71
NtRp4673
(dp4674
g74
(dp4675
sg83
g4530
sg76
(lp4676
g69
(g90
g71
NtRp4677
(dp4678
g74
(dp4679
sg83
g4673
sg76
(lp4680
g69
(g70
g71
NtRp4681
(dp4682
g74
(dp4683
g82
I2
ssg83
g4677
sg76
(lp4684
g69
(g78
g71
NtRp4685
(dp4686
g74
(dp4687
g82
I1
ssg83
Nsg76
(lp4688
g69
(g85
g71
NtRp4689
(dp4690
g74
(dp4691
sg83
g4685
sg76
(lp4692
g69
(g90
g71
NtRp4693
(dp4694
g74
(dp4695
sg83
g4689
sg76
(lp4696
g69
(g70
g71
NtRp4697
(dp4698
g74
(dp4699
g82
I1
ssg83
g4693
sg76
(lp4700
S'web2py.com'
p4701
asbasbasbag69
(g85
g71
NtRp4702
(dp4703
g74
(dp4704
sg83
g4685
sg76
(lp4705
g69
(g90
g71
NtRp4706
(dp4707
g74
(dp4708
sg83
g4702
sg76
(lp4709
g69
(g70
g71
NtRp4710
(dp4711
g74
(dp4712
g82
I1
ssg83
g4706
sg76
(lp4713
I00
asbasbasbag69
(g85
g71
NtRp4714
(dp4715
g74
(dp4716
sg83
g4685
sg76
(lp4717
g69
(g90
g71
NtRp4718
(dp4719
g74
(dp4720
sg83
g4714
sg76
(lp4721
g69
(g70
g71
NtRp4722
(dp4723
g74
(dp4724
g82
I1
ssg83
g4718
sg76
(lp4725
S'http://www.web2py.com'
p4726
asbasbasbag69
(g85
g71
NtRp4727
(dp4728
g74
(dp4729
sg83
g4685
sg76
(lp4730
g69
(g90
g71
NtRp4731
(dp4732
g74
(dp4733
sg83
g4727
sg76
(lp4734
g69
(g70
g71
NtRp4735
(dp4736
g74
(dp4737
g82
I1
ssg83
g4731
sg76
(lp4738
(lp4739
(g4417
(S's\x08\x00\x00\x00Download'
tRp4740
I00
S'http://www.web2py.com/examples/default/download'
p4741
tp4742
a(g4417
(S's\x07\x00\x00\x00Support'
tRp4743
I00
S'http://www.web2py.com/examples/default/support'
p4744
tp4745
a(g4417
(S's\x04\x00\x00\x00Demo'
tRp4746
I00
S'http://web2py.com/demo_admin'
p4747
tp4748
a(g4417
(S's\x0e\x00\x00\x00Quick Examples'
tRp4749
I00
S'http://web2py.com/examples/default/examples'
p4750
tp4751
a(g4417
(S's\x03\x00\x00\x00FAQ'
tRp4752
I00
S'http://web2py.com/AlterEgo'
p4753
tp4754
a(g4417
(S's\x06\x00\x00\x00Videos'
tRp4755
I00
S'http://www.web2py.com/examples/default/videos/'
p4756
tp4757
a(g4417
(S's\x11\x00\x00\x00Free Applications'
tRp4758
I00
S'http://web2py.com/appliances'
p4759
tp4760
a(g4417
(S's\x07\x00\x00\x00Plugins'
tRp4761
I00
S'http://web2py.com/plugins'
p4762
tp4763
a(g4417
(S's\x07\x00\x00\x00Layouts'
tRp4764
I00
S'http://web2py.com/layouts'
p4765
tp4766
a(g4417
(S's\x07\x00\x00\x00Recipes'
tRp4767
I00
S'http://web2pyslices.com/'
p4768
tp4769
a(g4417
(S's\x08\x00\x00\x00Semantic'
tRp4770
I00
S'http://web2py.com/semantic'
p4771
tp4772
aasbasbasbasbasbasbasbag69
(g85
g71
NtRp4773
(dp4774
g74
(dp4775
sg83
g4530
sg76
(lp4776
g69
(g90
g71
NtRp4777
(dp4778
g74
(dp4779
sg83
g4773
sg76
(lp4780
g69
(g70
g71
NtRp4781
(dp4782
g74
(dp4783
g82
I2
ssg83
g4777
sg76
(lp4784
g69
(g78
g71
NtRp4785
(dp4786
g74
(dp4787
g82
I1
ssg83
Nsg76
(lp4788
g69
(g85
g71
NtRp4789
(dp4790
g74
(dp4791
sg83
g4785
sg76
(lp4792
g69
(g90
g71
NtRp4793
(dp4794
g74
(dp4795
sg83
g4789
sg76
(lp4796
g69
(g70
g71
NtRp4797
(dp4798
g74
(dp4799
g82
I1
ssg83
g4793
sg76
(lp4800
g4417
(S's\r\x00\x00\x00Documentation'
tRp4801
asbasbasbag69
(g85
g71
NtRp4802
(dp4803
g74
(dp4804
sg83
g4785
sg76
(lp4805
g69
(g90
g71
NtRp4806
(dp4807
g74
(dp4808
sg83
g4802
sg76
(lp4809
g69
(g70
g71
NtRp4810
(dp4811
g74
(dp4812
g82
I1
ssg83
g4806
sg76
(lp4813
I00
asbasbasbag69
(g85
g71
NtRp4814
(dp4815
g74
(dp4816
sg83
g4785
sg76
(lp4817
g69
(g90
g71
NtRp4818
(dp4819
g74
(dp4820
sg83
g4814
sg76
(lp4821
g69
(g70
g71
NtRp4822
(dp4823
g74
(dp4824
g82
I1
ssg83
g4818
sg76
(lp4825
S'http://www.web2py.com/book'
p4826
asbasbasbag69
(g85
g71
NtRp4827
(dp4828
g74
(dp4829
sg83
g4785
sg76
(lp4830
g69
(g90
g71
NtRp4831
(dp4832
g74
(dp4833
sg83
g4827
sg76
(lp4834
g69
(g70
g71
NtRp4835
(dp4836
g74
(dp4837
g82
I1
ssg83
g4831
sg76
(lp4838
(lp4839
(g4417
(S's\x07\x00\x00\x00Preface'
tRp4840
I00
S'http://www.web2py.com/book/default/chapter/00'
p4841
tp4842
a(g4417
(S's\x0c\x00\x00\x00Introduction'
tRp4843
I00
S'http://www.web2py.com/book/default/chapter/01'
p4844
tp4845
a(g4417
(S's\x06\x00\x00\x00Python'
tRp4846
I00
S'http://www.web2py.com/book/default/chapter/02'
p4847
tp4848
a(g4417
(S's\x08\x00\x00\x00Overview'
tRp4849
I00
S'http://www.web2py.com/book/default/chapter/03'
p4850
tp4851
a(g4417
(S's\x08\x00\x00\x00The Core'
tRp4852
I00
S'http://www.web2py.com/book/default/chapter/04'
p4853
tp4854
a(g4417
(S's\t\x00\x00\x00The Views'
tRp4855
I00
S'http://www.web2py.com/book/default/chapter/05'
p4856
tp4857
a(g4417
(S's\x08\x00\x00\x00Database'
tRp4858
I00
S'http://www.web2py.com/book/default/chapter/06'
p4859
tp4860
a(g4417
(S's\x14\x00\x00\x00Forms and Validators'
tRp4861
I00
S'http://www.web2py.com/book/default/chapter/07'
p4862
tp4863
a(g4417
(S's\r\x00\x00\x00Email and SMS'
tRp4864
I00
S'http://www.web2py.com/book/default/chapter/08'
p4865
tp4866
a(g4417
(S's\x0e\x00\x00\x00Access Control'
tRp4867
I00
S'http://www.web2py.com/book/default/chapter/09'
p4868
tp4869
a(g4417
(S's\x08\x00\x00\x00Services'
tRp4870
I00
S'http://www.web2py.com/book/default/chapter/10'
p4871
tp4872
a(g4417
(S's\x0c\x00\x00\x00Ajax Recipes'
tRp4873
I00
S'http://www.web2py.com/book/default/chapter/11'
p4874
tp4875
a(g4417
(S's\x16\x00\x00\x00Components and Plugins'
tRp4876
I00
S'http://www.web2py.com/book/default/chapter/12'
p4877
tp4878
a(g4417
(S's\x12\x00\x00\x00Deployment Recipes'
tRp4879
I00
S'http://www.web2py.com/book/default/chapter/13'
p4880
tp4881
a(g4417
(S's\r\x00\x00\x00Other Recipes'
tRp4882
I00
S'http://www.web2py.com/book/default/chapter/14'
p4883
tp4884
a(g4417
(S's\r\x00\x00\x00Buy this book'
tRp4885
I00
S'http://stores.lulu.com/web2py'
p4886
tp4887
aasbasbasbasbasbasbasbag69
(g85
g71
NtRp4888
(dp4889
g74
(dp4890
sg83
g4530
sg76
(lp4891
g69
(g90
g71
NtRp4892
(dp4893
g74
(dp4894
sg83
g4888
sg76
(lp4895
g69
(g70
g71
NtRp4896
(dp4897
g74
(dp4898
g82
I2
ssg83
g4892
sg76
(lp4899
g69
(g78
g71
NtRp4900
(dp4901
g74
(dp4902
g82
I1
ssg83
Nsg76
(lp4903
g69
(g85
g71
NtRp4904
(dp4905
g74
(dp4906
sg83
g4900
sg76
(lp4907
g69
(g90
g71
NtRp4908
(dp4909
g74
(dp4910
sg83
g4904
sg76
(lp4911
g69
(g70
g71
NtRp4912
(dp4913
g74
(dp4914
g82
I1
ssg83
g4908
sg76
(lp4915
g4417
(S's\t\x00\x00\x00Community'
tRp4916
asbasbasbag69
(g85
g71
NtRp4917
(dp4918
g74
(dp4919
sg83
g4900
sg76
(lp4920
g69
(g90
g71
NtRp4921
(dp4922
g74
(dp4923
sg83
g4917
sg76
(lp4924
g69
(g70
g71
NtRp4925
(dp4926
g74
(dp4927
g82
I1
ssg83
g4921
sg76
(lp4928
I00
asbasbasbag69
(g85
g71
NtRp4929
(dp4930
g74
(dp4931
sg83
g4900
sg76
(lp4932
g69
(g90
g71
NtRp4933
(dp4934
g74
(dp4935
sg83
g4929
sg76
(lp4936
g69
(g70
g71
NtRp4937
(dp4938
g74
(dp4939
g82
I1
ssg83
g4933
sg76
(lp4940
Nasbasbasbag69
(g85
g71
NtRp4941
(dp4942
g74
(dp4943
sg83
g4900
sg76
(lp4944
g69
(g90
g71
NtRp4945
(dp4946
g74
(dp4947
sg83
g4941
sg76
(lp4948
g69
(g70
g71
NtRp4949
(dp4950
g74
(dp4951
g82
I1
ssg83
g4945
sg76
(lp4952
(lp4953
(g4417
(S's\x06\x00\x00\x00Groups'
tRp4954
I00
S'http://www.web2py.com/examples/default/usergroups'
p4955
tp4956
a(g4417
(S's\x07\x00\x00\x00Twitter'
tRp4957
I00
S'http://twitter.com/web2py'
p4958
tp4959
a(g4417
(S's\t\x00\x00\x00Live Chat'
tRp4960
I00
S'http://webchat.freenode.net/?channels=web2py'
p4961
tp4962
aasbasbasbasbasbasbasbag69
(g85
g71
NtRp4963
(dp4964
g74
(dp4965
sg83
g4530
sg76
(lp4966
g69
(g90
g71
NtRp4967
(dp4968
g74
(dp4969
sg83
g4963
sg76
(lp4970
g69
(g70
g71
NtRp4971
(dp4972
g74
(dp4973
g82
I2
ssg83
g4967
sg76
(lp4974
g69
(g78
g71
NtRp4975
(dp4976
g74
(dp4977
g82
I1
ssg83
Nsg76
(lp4978
g69
(g85
g71
NtRp4979
(dp4980
g74
(dp4981
sg83
g4975
sg76
(lp4982
g69
(g90
g71
NtRp4983
(dp4984
g74
(dp4985
sg83
g4979
sg76
(lp4986
g69
(g70
g71
NtRp4987
(dp4988
g74
(dp4989
g82
I1
ssg83
g4983
sg76
(lp4990
g4417
(S's\x07\x00\x00\x00Plugins'
tRp4991
asbasbasbag69
(g85
g71
NtRp4992
(dp4993
g74
(dp4994
sg83
g4975
sg76
(lp4995
g69
(g90
g71
NtRp4996
(dp4997
g74
(dp4998
sg83
g4992
sg76
(lp4999
g69
(g70
g71
NtRp5000
(dp5001
g74
(dp5002
g82
I1
ssg83
g4996
sg76
(lp5003
I00
asbasbasbag69
(g85
g71
NtRp5004
(dp5005
g74
(dp5006
sg83
g4975
sg76
(lp5007
g69
(g90
g71
NtRp5008
(dp5009
g74
(dp5010
sg83
g5004
sg76
(lp5011
g69
(g70
g71
NtRp5012
(dp5013
g74
(dp5014
g82
I1
ssg83
g5008
sg76
(lp5015
Nasbasbasbag69
(g85
g71
NtRp5016
(dp5017
g74
(dp5018
sg83
g4975
sg76
(lp5019
g69
(g90
g71
NtRp5020
(dp5021
g74
(dp5022
sg83
g5016
sg76
(lp5023
g69
(g70
g71
NtRp5024
(dp5025
g74
(dp5026
g82
I1
ssg83
g5020
sg76
(lp5027
(lp5028
(S'plugin_wiki'
p5029
I00
S'http://web2py.com/examples/default/download'
p5030
tp5031
a(g4417
(S's\r\x00\x00\x00Other Plugins'
tRp5032
I00
g4762
tp5033
a(g4417
(S's\x0e\x00\x00\x00Layout Plugins'
tRp5034
I00
g4765
tp5035
aasbasbasbasbasbasbasbasbasbasbasbasbasbasbasbasbasbasbasbag69
(g85
g71
NtRp5036
(dp5037
g74
(dp5038
sg83
g3882
sg76
(lp5039
g69
(g90
g71
NtRp5040
(dp5041
g74
(dp5042
g94
g95
ssg83
g5036
sg76
(lp5043
S'meta'
p5044
asbag69
(g90
g71
NtRp5045
(dp5046
g74
(dp5047
g101
g102
ssg83
g5036
sg76
(lp5048
S':'
asbag69
(g90
g71
NtRp5049
(dp5050
g74
(dp5051
sg83
g5036
sg76
(lp5052
g69
(g70
g71
NtRp5053
(dp5054
g74
(dp5055
g82
I5
ssg83
g5049
sg76
(lp5056
g69
(g78
g71
NtRp5057
(dp5058
g74
(dp5059
g82
I4
ssg83
Nsg76
(lp5060
g69
(g85
g71
NtRp5061
(dp5062
g74
(dp5063
sg83
g5057
sg76
(lp5064
g69
(g90
g71
NtRp5065
(dp5066
g74
(dp5067
g94
g95
ssg83
g5061
sg76
(lp5068
S'author'
p5069
asbag69
(g90
g71
NtRp5070
(dp5071
g74
(dp5072
g101
g102
ssg83
g5061
sg76
(lp5073
S':'
asbag69
(g90
g71
NtRp5074
(dp5075
g74
(dp5076
sg83
g5061
sg76
(lp5077
g69
(g70
g71
NtRp5078
(dp5079
g74
(dp5080
g82
I4
ssg83
g5074
sg76
(lp5081
S'Your Name <you@example.com>'
p5082
asbasbasbag69
(g85
g71
NtRp5083
(dp5084
g74
(dp5085
sg83
g5057
sg76
(lp5086
g69
(g90
g71
NtRp5087
(dp5088
g74
(dp5089
g94
g95
ssg83
g5083
sg76
(lp5090
S'description'
p5091
asbag69
(g90
g71
NtRp5092
(dp5093
g74
(dp5094
g101
g102
ssg83
g5083
sg76
(lp5095
S':'
asbag69
(g90
g71
NtRp5096
(dp5097
g74
(dp5098
sg83
g5083
sg76
(lp5099
g69
(g70
g71
NtRp5100
(dp5101
g74
(dp5102
g82
I4
ssg83
g5096
sg76
(lp5103
S'a cool new app'
p5104
asbasbasbag69
(g85
g71
NtRp5105
(dp5106
g74
(dp5107
sg83
g5057
sg76
(lp5108
g69
(g90
g71
NtRp5109
(dp5110
g74
(dp5111
g94
g95
ssg83
g5105
sg76
(lp5112
S'generator'
p5113
asbag69
(g90
g71
NtRp5114
(dp5115
g74
(dp5116
g101
g102
ssg83
g5105
sg76
(lp5117
S':'
asbag69
(g90
g71
NtRp5118
(dp5119
g74
(dp5120
sg83
g5105
sg76
(lp5121
g69
(g70
g71
NtRp5122
(dp5123
g74
(dp5124
g82
I4
ssg83
g5118
sg76
(lp5125
S'Web2py Web Framework'
p5126
asbasbasbag69
(g85
g71
NtRp5127
(dp5128
g74
(dp5129
sg83
g5057
sg76
(lp5130
g69
(g90
g71
NtRp5131
(dp5132
g74
(dp5133
g94
g95
ssg83
g5127
sg76
(lp5134
S'keywords'
p5135
asbag69
(g90
g71
NtRp5136
(dp5137
g74
(dp5138
g101
g102
ssg83
g5127
sg76
(lp5139
S':'
asbag69
(g90
g71
NtRp5140
(dp5141
g74
(dp5142
sg83
g5127
sg76
(lp5143
g69
(g70
g71
NtRp5144
(dp5145
g74
(dp5146
g82
I4
ssg83
g5140
sg76
(lp5147
S'web2py, python, framework'
p5148
asbasbasbasbasbasbasbag69
(g85
g71
NtRp5149
(dp5150
g74
(dp5151
sg83
g3882
sg76
(lp5152
g69
(g90
g71
NtRp5153
(dp5154
g74
(dp5155
g94
g95
ssg83
g5149
sg76
(lp5156
S'models_to_run'
p5157
asbag69
(g90
g71
NtRp5158
(dp5159
g74
(dp5160
g101
g102
ssg83
g5149
sg76
(lp5161
S':'
asbag69
(g90
g71
NtRp5162
(dp5163
g74
(dp5164
sg83
g5149
sg76
(lp5165
g69
(g70
g71
NtRp5166
(dp5167
g74
(dp5168
g82
I5
ssg83
g5162
sg76
(lp5169
g69
(g78
g71
NtRp5170
(dp5171
g74
(dp5172
g82
I4
ssg83
Nsg76
(lp5173
g69
(g85
g71
NtRp5174
(dp5175
g74
(dp5176
sg83
g5170
sg76
(lp5177
g69
(g90
g71
NtRp5178
(dp5179
g74
(dp5180
sg83
g5174
sg76
(lp5181
g69
(g70
g71
NtRp5182
(dp5183
g74
(dp5184
g82
I4
ssg83
g5178
sg76
(lp5185
S'^\\w+\\.py$'
p5186
asbasbasbag69
(g85
g71
NtRp5187
(dp5188
g74
(dp5189
sg83
g5170
sg76
(lp5190
g69
(g90
g71
NtRp5191
(dp5192
g74
(dp5193
sg83
g5187
sg76
(lp5194
g69
(g70
g71
NtRp5195
(dp5196
g74
(dp5197
g82
I4
ssg83
g5191
sg76
(lp5198
S'^default/\\w+\\.py$'
p5199
asbasbasbag69
(g85
g71
NtRp5200
(dp5201
g74
(dp5202
sg83
g5170
sg76
(lp5203
g69
(g90
g71
NtRp5204
(dp5205
g74
(dp5206
sg83
g5200
sg76
(lp5207
g69
(g70
g71
NtRp5208
(dp5209
g74
(dp5210
g82
I4
ssg83
g5204
sg76
(lp5211
S'^default/user/\\w+\\.py$'
p5212
asbasbasbasbasbasbasbag69
(g85
g71
NtRp5213
(dp5214
g74
(dp5215
sg83
g3882
sg76
(lp5216
g69
(g90
g71
NtRp5217
(dp5218
g74
(dp5219
g94
g95
ssg83
g5213
sg76
(lp5220
S'postprocessing'
p5221
asbag69
(g90
g71
NtRp5222
(dp5223
g74
(dp5224
g101
g102
ssg83
g5213
sg76
(lp5225
S':'
asbag69
(g90
g71
NtRp5226
(dp5227
g74
(dp5228
sg83
g5213
sg76
(lp5229
g69
(g70
g71
NtRp5230
(dp5231
g74
(dp5232
g82
I5
ssg83
g5226
sg76
(lp5233
g69
(g78
g71
NtRp5234
(dp5235
g74
(dp5236
g82
I4
ssg83
Nsg76
(lp5237
sbasbasbasbag69
(g85
g71
NtRp5238
(dp5239
g74
(dp5240
sg83
g3882
sg76
(lp5241
g69
(g90
g71
NtRp5242
(dp5243
g74
(dp5244
g94
g95
ssg83
g5238
sg76
(lp5245
S'session_cookie_expires'
p5246
asbag69
(g90
g71
NtRp5247
(dp5248
g74
(dp5249
g101
g102
ssg83
g5238
sg76
(lp5250
S':'
asbag69
(g90
g71
NtRp5251
(dp5252
g74
(dp5253
sg83
g5238
sg76
(lp5254
g69
(g70
g71
NtRp5255
(dp5256
g74
(dp5257
g82
I5
ssg83
g5251
sg76
(lp5258
S'None'
p5259
asbasbasbag69
(g85
g71
NtRp5260
(dp5261
g74
(dp5262
sg83
g3882
sg76
(lp5263
g69
(g90
g71
NtRp5264
(dp5265
g74
(dp5266
g94
g95
ssg83
g5260
sg76
(lp5267
S'session_data_name'
p5268
asbag69
(g90
g71
NtRp5269
(dp5270
g74
(dp5271
g101
g102
ssg83
g5260
sg76
(lp5272
S':'
asbag69
(g90
g71
NtRp5273
(dp5274
g74
(dp5275
sg83
g5260
sg76
(lp5276
g69
(g70
g71
NtRp5277
(dp5278
g74
(dp5279
g82
I5
ssg83
g5273
sg76
(lp5280
S'session_data_reddit'
p5281
asbasbasbag69
(g85
g71
NtRp5282
(dp5283
g74
(dp5284
sg83
g3882
sg76
(lp5285
g69
(g90
g71
NtRp5286
(dp5287
g74
(dp5288
g94
g95
ssg83
g5282
sg76
(lp5289
S'session_file'
p5290
asbag69
(g90
g71
NtRp5291
(dp5292
g74
(dp5293
g101
g102
ssg83
g5282
sg76
(lp5294
S':'
asbag69
(g90
g71
NtRp5295
(dp5296
g74
(dp5297
sg83
g5282
sg76
(lp5298
g69
(g70
g71
NtRp5299
(dp5300
g74
(dp5301
g82
I5
ssg83
g5295
sg76
(lp5302
S"<open file '/home/pankaj/web2py/applications/reddit/sessions/127.0.0.1-24289f39-32a1-48fb-a367-22792fb8b813', mode 'rb+' at 0x9b536a8>"
p5303
asbasbasbag69
(g85
g71
NtRp5304
(dp5305
g74
(dp5306
sg83
g3882
sg76
(lp5307
g69
(g90
g71
NtRp5308
(dp5309
g74
(dp5310
g94
g95
ssg83
g5304
sg76
(lp5311
S'session_filename'
p5312
asbag69
(g90
g71
NtRp5313
(dp5314
g74
(dp5315
g101
g102
ssg83
g5304
sg76
(lp5316
S':'
asbag69
(g90
g71
NtRp5317
(dp5318
g74
(dp5319
sg83
g5304
sg76
(lp5320
g69
(g70
g71
NtRp5321
(dp5322
g74
(dp5323
g82
I5
ssg83
g5317
sg76
(lp5324
S'/home/pankaj/web2py/applications/reddit/sessions/127.0.0.1-24289f39-32a1-48fb-a367-22792fb8b813'
p5325
asbasbasbag69
(g85
g71
NtRp5326
(dp5327
g74
(dp5328
sg83
g3882
sg76
(lp5329
g69
(g90
g71
NtRp5330
(dp5331
g74
(dp5332
g94
g95
ssg83
g5326
sg76
(lp5333
S'session_id'
p5334
asbag69
(g90
g71
NtRp5335
(dp5336
g74
(dp5337
g101
g102
ssg83
g5326
sg76
(lp5338
S':'
asbag69
(g90
g71
NtRp5339
(dp5340
g74
(dp5341
sg83
g5326
sg76
(lp5342
g69
(g70
g71
NtRp5343
(dp5344
g74
(dp5345
g82
I5
ssg83
g5339
sg76
(lp5346
g686
asbasbasbag69
(g85
g71
NtRp5347
(dp5348
g74
(dp5349
sg83
g3882
sg76
(lp5350
g69
(g90
g71
NtRp5351
(dp5352
g74
(dp5353
g94
g95
ssg83
g5347
sg76
(lp5354
S'session_id_name'
p5355
asbag69
(g90
g71
NtRp5356
(dp5357
g74
(dp5358
g101
g102
ssg83
g5347
sg76
(lp5359
S':'
asbag69
(g90
g71
NtRp5360
(dp5361
g74
(dp5362
sg83
g5347
sg76
(lp5363
g69
(g70
g71
NtRp5364
(dp5365
g74
(dp5366
g82
I5
ssg83
g5360
sg76
(lp5367
g3939
asbasbasbag69
(g85
g71
NtRp5368
(dp5369
g74
(dp5370
sg83
g3882
sg76
(lp5371
g69
(g90
g71
NtRp5372
(dp5373
g74
(dp5374
g94
g95
ssg83
g5368
sg76
(lp5375
S'session_locked'
p5376
asbag69
(g90
g71
NtRp5377
(dp5378
g74
(dp5379
g101
g102
ssg83
g5368
sg76
(lp5380
S':'
asbag69
(g90
g71
NtRp5381
(dp5382
g74
(dp5383
sg83
g5368
sg76
(lp5384
g69
(g70
g71
NtRp5385
(dp5386
g74
(dp5387
g82
I5
ssg83
g5381
sg76
(lp5388
g1960
asbasbasbag69
(g85
g71
NtRp5389
(dp5390
g74
(dp5391
sg83
g3882
sg76
(lp5392
g69
(g90
g71
NtRp5393
(dp5394
g74
(dp5395
g94
g95
ssg83
g5389
sg76
(lp5396
S'session_new'
p5397
asbag69
(g90
g71
NtRp5398
(dp5399
g74
(dp5400
g101
g102
ssg83
g5389
sg76
(lp5401
S':'
asbag69
(g90
g71
NtRp5402
(dp5403
g74
(dp5404
sg83
g5389
sg76
(lp5405
g69
(g70
g71
NtRp5406
(dp5407
g74
(dp5408
g82
I5
ssg83
g5402
sg76
(lp5409
g112
asbasbasbag69
(g85
g71
NtRp5410
(dp5411
g74
(dp5412
sg83
g3882
sg76
(lp5413
g69
(g90
g71
NtRp5414
(dp5415
g74
(dp5416
g94
g95
ssg83
g5410
sg76
(lp5417
S'session_storage_type'
p5418
asbag69
(g90
g71
NtRp5419
(dp5420
g74
(dp5421
g101
g102
ssg83
g5410
sg76
(lp5422
S':'
asbag69
(g90
g71
NtRp5423
(dp5424
g74
(dp5425
sg83
g5410
sg76
(lp5426
g69
(g70
g71
NtRp5427
(dp5428
g74
(dp5429
g82
I5
ssg83
g5423
sg76
(lp5430
g3370
asbasbasbag69
(g85
g71
NtRp5431
(dp5432
g74
(dp5433
sg83
g3882
sg76
(lp5434
g69
(g90
g71
NtRp5435
(dp5436
g74
(dp5437
g94
g95
ssg83
g5431
sg76
(lp5438
S'status'
p5439
asbag69
(g90
g71
NtRp5440
(dp5441
g74
(dp5442
g101
g102
ssg83
g5431
sg76
(lp5443
S':'
asbag69
(g90
g71
NtRp5444
(dp5445
g74
(dp5446
sg83
g5431
sg76
(lp5447
g69
(g70
g71
NtRp5448
(dp5449
g74
(dp5450
g82
I5
ssg83
g5444
sg76
(lp5451
S'200'
p5452
asbasbasbag69
(g85
g71
NtRp5453
(dp5454
g74
(dp5455
sg83
g3882
sg76
(lp5456
g69
(g90
g71
NtRp5457
(dp5458
g74
(dp5459
g94
g95
ssg83
g5453
sg76
(lp5460
S'subtitle'
p5461
asbag69
(g90
g71
NtRp5462
(dp5463
g74
(dp5464
g101
g102
ssg83
g5453
sg76
(lp5465
S':'
asbag69
(g90
g71
NtRp5466
(dp5467
g74
(dp5468
sg83
g5453
sg76
(lp5469
g69
(g70
g71
NtRp5470
(dp5471
g74
(dp5472
g82
I5
ssg83
g5466
sg76
(lp5473
g4417
(S's\r\x00\x00\x00customize me!'
tRp5474
asbasbasbag69
(g85
g71
NtRp5475
(dp5476
g74
(dp5477
sg83
g3882
sg76
(lp5478
g69
(g90
g71
NtRp5479
(dp5480
g74
(dp5481
g94
g95
ssg83
g5475
sg76
(lp5482
S'title'
p5483
asbag69
(g90
g71
NtRp5484
(dp5485
g74
(dp5486
g101
g102
ssg83
g5475
sg76
(lp5487
S':'
asbag69
(g90
g71
NtRp5488
(dp5489
g74
(dp5490
sg83
g5475
sg76
(lp5491
g69
(g70
g71
NtRp5492
(dp5493
g74
(dp5494
g82
I5
ssg83
g5488
sg76
(lp5495
S'Reddit'
p5496
asbasbasbag69
(g85
g71
NtRp5497
(dp5498
g74
(dp5499
sg83
g3882
sg76
(lp5500
g69
(g90
g71
NtRp5501
(dp5502
g74
(dp5503
g94
g95
ssg83
g5497
sg76
(lp5504
S'view'
p5505
asbag69
(g90
g71
NtRp5506
(dp5507
g74
(dp5508
g101
g102
ssg83
g5497
sg76
(lp5509
S':'
asbag69
(g90
g71
NtRp5510
(dp5511
g74
(dp5512
sg83
g5497
sg76
(lp5513
g69
(g70
g71
NtRp5514
(dp5515
g74
(dp5516
g82
I5
ssg83
g5510
sg76
(lp5517
S'default/user.html'
p5518
asbasbasbasbasbsS'locals'
p5519
(dp5520
g4
S"'/home/pankaj/web2py/applications/reddit/controllers/default.py'"
p5521
sg6
S"'# -*- coding: utf-8 -*-\\n# this file is released ...m=crud())\\n\\nresponse._vars=response._caller(user)\\n'"
p5522
sssS'traceback'
p5523
S'Traceback (most recent call last):\n  File "/home/pankaj/web2py/gluon/restricted.py", line 211, in restricted\n    ccode = compile2(code, layer)\n  File "/home/pankaj/web2py/gluon/restricted.py", line 194, in compile2\n    return compile(code.rstrip().replace(\'\\r\\n\', \'\\n\') + \'\\n\', layer, \'exec\')\n  File "/home/pankaj/web2py/applications/reddit/controllers/default.py", line 96\n    temp=request.vars[\'nid\'])\n                            ^\nSyntaxError: invalid syntax\n'
p5524
s.