(dp1
S'output'
p2
S"<type 'exceptions.SyntaxError'> invalid syntax (adminpage.html, line 1)"
p3
sS'layer'
p4
S'/home/pankaj/web2py/applications/reddit/views/default/adminpage.html'
p5
sS'code'
p6
S'extends \'layout.html\'\nresponse.write(\'\\n<a href="deleteuser.html">Manage Users</a>\\n<a href="deletenews.html">Manage News</a>\\n\', escape=False)'
p7
sS'snapshot'
p8
(dp9
S'exception'
p10
(dp11
S'__getslice__'
p12
S"<method-wrapper '__getslice__' of exceptions.SyntaxError object>"
p13
sS'text'
p14
S'"extends \'layout.html\'\\n"'
p15
sS'__str__'
p16
S"<method-wrapper '__str__' of exceptions.SyntaxError object>"
p17
sS'__reduce__'
p18
S'<built-in method __reduce__ of exceptions.SyntaxError object>'
p19
sS'__dict__'
p20
S'{}'
p21
sS'__sizeof__'
p22
S'<built-in method __sizeof__ of exceptions.SyntaxError object>'
p23
sS'__init__'
p24
S"<method-wrapper '__init__' of exceptions.SyntaxError object>"
p25
sS'__setattr__'
p26
S"<method-wrapper '__setattr__' of exceptions.SyntaxError object>"
p27
sS'__reduce_ex__'
p28
S'<built-in method __reduce_ex__ of exceptions.SyntaxError object>'
p29
sS'__new__'
p30
S'<built-in method __new__ of type object>'
p31
sS'__format__'
p32
S'<built-in method __format__ of exceptions.SyntaxError object>'
p33
sS'__class__'
p34
S"<type 'exceptions.SyntaxError'>"
p35
sS'filename'
p36
S"'/home/pankaj/web2py/applications/reddit/views/default/adminpage.html'"
p37
sS'lineno'
p38
S'1'
sS'msg'
p39
S"'invalid syntax'"
p40
sS'__doc__'
p41
S"'Invalid syntax.'"
p42
sS'__getitem__'
p43
S"<method-wrapper '__getitem__' of exceptions.SyntaxError object>"
p44
sS'__setstate__'
p45
S'<built-in method __setstate__ of exceptions.SyntaxError object>'
p46
sS'__getattribute__'
p47
S"<method-wrapper '__getattribute__' of exceptions.SyntaxError object>"
p48
sS'print_file_and_line'
p49
S'None'
p50
sS'args'
p51
S'(\'invalid syntax\', (\'/home/pankaj/web2py/applications/reddit/views/default/adminpage.html\', 1, 21, "extends \'layout.html\'\\n"))'
p52
sS'__subclasshook__'
p53
S'<built-in method __subclasshook__ of type object>'
p54
sS'offset'
p55
S'21'
p56
sS'__unicode__'
p57
S'<built-in method __unicode__ of exceptions.SyntaxError object>'
p58
sS'__delattr__'
p59
S"<method-wrapper '__delattr__' of exceptions.SyntaxError object>"
p60
sS'__repr__'
p61
S"<method-wrapper '__repr__' of exceptions.SyntaxError object>"
p62
sS'__hash__'
p63
S"<method-wrapper '__hash__' of exceptions.SyntaxError object>"
p64
ssS'evalue'
p65
S'invalid syntax (adminpage.html, line 1)'
p66
sS'request'
p67
ccopy_reg
_reconstructor
p68
(cgluon.html
BEAUTIFY
p69
c__builtin__
object
p70
NtRp71
(dp72
S'attributes'
p73
(dp74
sS'components'
p75
(lp76
g68
(cgluon.html
TABLE
p77
g70
NtRp78
(dp79
g73
(dp80
S'level'
p81
I5
ssS'parent'
p82
Nsg75
(lp83
g68
(cgluon.html
TR
p84
g70
NtRp85
(dp86
g73
(dp87
sg82
g78
sg75
(lp88
g68
(cgluon.html
TD
p89
g70
NtRp90
(dp91
g73
(dp92
S'_style'
p93
S'font-weight:bold;vertical-align:top'
p94
ssg82
g85
sg75
(lp95
S'ajax'
p96
asbag68
(g89
g70
NtRp97
(dp98
g73
(dp99
S'_valign'
p100
S'top'
p101
ssg82
g85
sg75
(lp102
S':'
asbag68
(g89
g70
NtRp103
(dp104
g73
(dp105
sg82
g85
sg75
(lp106
g68
(g69
g70
NtRp107
(dp108
g73
(dp109
g81
I5
ssg82
g103
sg75
(lp110
S'False'
p111
asbasbasbag68
(g84
g70
NtRp112
(dp113
g73
(dp114
sg82
g78
sg75
(lp115
g68
(g89
g70
NtRp116
(dp117
g73
(dp118
g93
g94
ssg82
g112
sg75
(lp119
S'application'
p120
asbag68
(g89
g70
NtRp121
(dp122
g73
(dp123
g100
g101
ssg82
g112
sg75
(lp124
S':'
asbag68
(g89
g70
NtRp125
(dp126
g73
(dp127
sg82
g112
sg75
(lp128
g68
(g69
g70
NtRp129
(dp130
g73
(dp131
g81
I5
ssg82
g125
sg75
(lp132
S'reddit'
p133
asbasbasbag68
(g84
g70
NtRp134
(dp135
g73
(dp136
sg82
g78
sg75
(lp137
g68
(g89
g70
NtRp138
(dp139
g73
(dp140
g93
g94
ssg82
g134
sg75
(lp141
g51
asbag68
(g89
g70
NtRp142
(dp143
g73
(dp144
g100
g101
ssg82
g134
sg75
(lp145
S':'
asbag68
(g89
g70
NtRp146
(dp147
g73
(dp148
sg82
g134
sg75
(lp149
g68
(g69
g70
NtRp150
(dp151
g73
(dp152
g81
I5
ssg82
g146
sg75
(lp153
g68
(g77
g70
NtRp154
(dp155
g73
(dp156
g81
I4
ssg82
Nsg75
(lp157
sbasbasbasbag68
(g84
g70
NtRp158
(dp159
g73
(dp160
sg82
g78
sg75
(lp161
g68
(g89
g70
NtRp162
(dp163
g73
(dp164
g93
g94
ssg82
g158
sg75
(lp165
S'body'
p166
asbag68
(g89
g70
NtRp167
(dp168
g73
(dp169
g100
g101
ssg82
g158
sg75
(lp170
S':'
asbag68
(g89
g70
NtRp171
(dp172
g73
(dp173
sg82
g158
sg75
(lp174
g68
(g69
g70
NtRp175
(dp176
g73
(dp177
g81
I5
ssg82
g171
sg75
(lp178
S'<cStringIO.StringO object at 0xae224de0>'
p179
asbasbasbag68
(g84
g70
NtRp180
(dp181
g73
(dp182
sg82
g78
sg75
(lp183
g68
(g89
g70
NtRp184
(dp185
g73
(dp186
g93
g94
ssg82
g180
sg75
(lp187
S'cid'
p188
asbag68
(g89
g70
NtRp189
(dp190
g73
(dp191
g100
g101
ssg82
g180
sg75
(lp192
S':'
asbag68
(g89
g70
NtRp193
(dp194
g73
(dp195
sg82
g180
sg75
(lp196
g68
(g69
g70
NtRp197
(dp198
g73
(dp199
g81
I5
ssg82
g193
sg75
(lp200
S'None'
p201
asbasbasbag68
(g84
g70
NtRp202
(dp203
g73
(dp204
sg82
g78
sg75
(lp205
g68
(g89
g70
NtRp206
(dp207
g73
(dp208
g93
g94
ssg82
g202
sg75
(lp209
S'client'
p210
asbag68
(g89
g70
NtRp211
(dp212
g73
(dp213
g100
g101
ssg82
g202
sg75
(lp214
S':'
asbag68
(g89
g70
NtRp215
(dp216
g73
(dp217
sg82
g202
sg75
(lp218
g68
(g69
g70
NtRp219
(dp220
g73
(dp221
g81
I5
ssg82
g215
sg75
(lp222
S'127.0.0.1'
p223
asbasbasbag68
(g84
g70
NtRp224
(dp225
g73
(dp226
sg82
g78
sg75
(lp227
g68
(g89
g70
NtRp228
(dp229
g73
(dp230
g93
g94
ssg82
g224
sg75
(lp231
S'controller'
p232
asbag68
(g89
g70
NtRp233
(dp234
g73
(dp235
g100
g101
ssg82
g224
sg75
(lp236
S':'
asbag68
(g89
g70
NtRp237
(dp238
g73
(dp239
sg82
g224
sg75
(lp240
g68
(g69
g70
NtRp241
(dp242
g73
(dp243
g81
I5
ssg82
g237
sg75
(lp244
S'default'
p245
asbasbasbag68
(g84
g70
NtRp246
(dp247
g73
(dp248
sg82
g78
sg75
(lp249
g68
(g89
g70
NtRp250
(dp251
g73
(dp252
g93
g94
ssg82
g246
sg75
(lp253
S'cookies'
p254
asbag68
(g89
g70
NtRp255
(dp256
g73
(dp257
g100
g101
ssg82
g246
sg75
(lp258
S':'
asbag68
(g89
g70
NtRp259
(dp260
g73
(dp261
sg82
g246
sg75
(lp262
g68
(g69
g70
NtRp263
(dp264
g73
(dp265
g81
I5
ssg82
g259
sg75
(lp266
g68
(g77
g70
NtRp267
(dp268
g73
(dp269
g81
I4
ssg82
Nsg75
(lp270
g68
(g84
g70
NtRp271
(dp272
g73
(dp273
sg82
g267
sg75
(lp274
g68
(g89
g70
NtRp275
(dp276
g73
(dp277
g93
g94
ssg82
g271
sg75
(lp278
S'session_id_admin'
p279
asbag68
(g89
g70
NtRp280
(dp281
g73
(dp282
g100
g101
ssg82
g271
sg75
(lp283
S':'
asbag68
(g89
g70
NtRp284
(dp285
g73
(dp286
sg82
g271
sg75
(lp287
g68
(g69
g70
NtRp288
(dp289
g73
(dp290
g81
I4
ssg82
g284
sg75
(lp291
S'127.0.0.1-b12d36e5-38f3-46ab-bf33-377848bfeca4'
p292
ag68
(g77
g70
NtRp293
(dp294
g73
(dp295
g81
I3
ssg82
Nsg75
(lp296
g68
(g84
g70
NtRp297
(dp298
g73
(dp299
sg82
g293
sg75
(lp300
g68
(g89
g70
NtRp301
(dp302
g73
(dp303
g93
g94
ssg82
g297
sg75
(lp304
S'comment'
p305
asbag68
(g89
g70
NtRp306
(dp307
g73
(dp308
g100
g101
ssg82
g297
sg75
(lp309
S':'
asbag68
(g89
g70
NtRp310
(dp311
g73
(dp312
sg82
g297
sg75
(lp313
g68
(g69
g70
NtRp314
(dp315
g73
(dp316
g81
I3
ssg82
g310
sg75
(lp317
S''
asbasbasbag68
(g84
g70
NtRp318
(dp319
g73
(dp320
sg82
g293
sg75
(lp321
g68
(g89
g70
NtRp322
(dp323
g73
(dp324
g93
g94
ssg82
g318
sg75
(lp325
S'domain'
p326
asbag68
(g89
g70
NtRp327
(dp328
g73
(dp329
g100
g101
ssg82
g318
sg75
(lp330
S':'
asbag68
(g89
g70
NtRp331
(dp332
g73
(dp333
sg82
g318
sg75
(lp334
g68
(g69
g70
NtRp335
(dp336
g73
(dp337
g81
I3
ssg82
g331
sg75
(lp338
S''
asbasbasbag68
(g84
g70
NtRp339
(dp340
g73
(dp341
sg82
g293
sg75
(lp342
g68
(g89
g70
NtRp343
(dp344
g73
(dp345
g93
g94
ssg82
g339
sg75
(lp346
S'expires'
p347
asbag68
(g89
g70
NtRp348
(dp349
g73
(dp350
g100
g101
ssg82
g339
sg75
(lp351
S':'
asbag68
(g89
g70
NtRp352
(dp353
g73
(dp354
sg82
g339
sg75
(lp355
g68
(g69
g70
NtRp356
(dp357
g73
(dp358
g81
I3
ssg82
g352
sg75
(lp359
S''
asbasbasbag68
(g84
g70
NtRp360
(dp361
g73
(dp362
sg82
g293
sg75
(lp363
g68
(g89
g70
NtRp364
(dp365
g73
(dp366
g93
g94
ssg82
g360
sg75
(lp367
S'httponly'
p368
asbag68
(g89
g70
NtRp369
(dp370
g73
(dp371
g100
g101
ssg82
g360
sg75
(lp372
S':'
asbag68
(g89
g70
NtRp373
(dp374
g73
(dp375
sg82
g360
sg75
(lp376
g68
(g69
g70
NtRp377
(dp378
g73
(dp379
g81
I3
ssg82
g373
sg75
(lp380
S''
asbasbasbag68
(g84
g70
NtRp381
(dp382
g73
(dp383
sg82
g293
sg75
(lp384
g68
(g89
g70
NtRp385
(dp386
g73
(dp387
g93
g94
ssg82
g381
sg75
(lp388
S'max-age'
p389
asbag68
(g89
g70
NtRp390
(dp391
g73
(dp392
g100
g101
ssg82
g381
sg75
(lp393
S':'
asbag68
(g89
g70
NtRp394
(dp395
g73
(dp396
sg82
g381
sg75
(lp397
g68
(g69
g70
NtRp398
(dp399
g73
(dp400
g81
I3
ssg82
g394
sg75
(lp401
S''
asbasbasbag68
(g84
g70
NtRp402
(dp403
g73
(dp404
sg82
g293
sg75
(lp405
g68
(g89
g70
NtRp406
(dp407
g73
(dp408
g93
g94
ssg82
g402
sg75
(lp409
S'path'
p410
asbag68
(g89
g70
NtRp411
(dp412
g73
(dp413
g100
g101
ssg82
g402
sg75
(lp414
S':'
asbag68
(g89
g70
NtRp415
(dp416
g73
(dp417
sg82
g402
sg75
(lp418
g68
(g69
g70
NtRp419
(dp420
g73
(dp421
g81
I3
ssg82
g415
sg75
(lp422
S''
asbasbasbag68
(g84
g70
NtRp423
(dp424
g73
(dp425
sg82
g293
sg75
(lp426
g68
(g89
g70
NtRp427
(dp428
g73
(dp429
g93
g94
ssg82
g423
sg75
(lp430
S'secure'
p431
asbag68
(g89
g70
NtRp432
(dp433
g73
(dp434
g100
g101
ssg82
g423
sg75
(lp435
S':'
asbag68
(g89
g70
NtRp436
(dp437
g73
(dp438
sg82
g423
sg75
(lp439
g68
(g69
g70
NtRp440
(dp441
g73
(dp442
g81
I3
ssg82
g436
sg75
(lp443
S''
asbasbasbag68
(g84
g70
NtRp444
(dp445
g73
(dp446
sg82
g293
sg75
(lp447
g68
(g89
g70
NtRp448
(dp449
g73
(dp450
g93
g94
ssg82
g444
sg75
(lp451
S'version'
p452
asbag68
(g89
g70
NtRp453
(dp454
g73
(dp455
g100
g101
ssg82
g444
sg75
(lp456
S':'
asbag68
(g89
g70
NtRp457
(dp458
g73
(dp459
sg82
g444
sg75
(lp460
g68
(g69
g70
NtRp461
(dp462
g73
(dp463
g81
I3
ssg82
g457
sg75
(lp464
S''
asbasbasbasbasbasbasbag68
(g84
g70
NtRp465
(dp466
g73
(dp467
sg82
g267
sg75
(lp468
g68
(g89
g70
NtRp469
(dp470
g73
(dp471
g93
g94
ssg82
g465
sg75
(lp472
S'session_id_cataminder'
p473
asbag68
(g89
g70
NtRp474
(dp475
g73
(dp476
g100
g101
ssg82
g465
sg75
(lp477
S':'
asbag68
(g89
g70
NtRp478
(dp479
g73
(dp480
sg82
g465
sg75
(lp481
g68
(g69
g70
NtRp482
(dp483
g73
(dp484
g81
I4
ssg82
g478
sg75
(lp485
S'127.0.0.1-f68dfbc3-e46b-4d7f-ad40-351d31d2febb'
p486
ag68
(g77
g70
NtRp487
(dp488
g73
(dp489
g81
I3
ssg82
Nsg75
(lp490
g68
(g84
g70
NtRp491
(dp492
g73
(dp493
sg82
g487
sg75
(lp494
g68
(g89
g70
NtRp495
(dp496
g73
(dp497
g93
g94
ssg82
g491
sg75
(lp498
g305
asbag68
(g89
g70
NtRp499
(dp500
g73
(dp501
g100
g101
ssg82
g491
sg75
(lp502
S':'
asbag68
(g89
g70
NtRp503
(dp504
g73
(dp505
sg82
g491
sg75
(lp506
g68
(g69
g70
NtRp507
(dp508
g73
(dp509
g81
I3
ssg82
g503
sg75
(lp510
S''
asbasbasbag68
(g84
g70
NtRp511
(dp512
g73
(dp513
sg82
g487
sg75
(lp514
g68
(g89
g70
NtRp515
(dp516
g73
(dp517
g93
g94
ssg82
g511
sg75
(lp518
g326
asbag68
(g89
g70
NtRp519
(dp520
g73
(dp521
g100
g101
ssg82
g511
sg75
(lp522
S':'
asbag68
(g89
g70
NtRp523
(dp524
g73
(dp525
sg82
g511
sg75
(lp526
g68
(g69
g70
NtRp527
(dp528
g73
(dp529
g81
I3
ssg82
g523
sg75
(lp530
S''
asbasbasbag68
(g84
g70
NtRp531
(dp532
g73
(dp533
sg82
g487
sg75
(lp534
g68
(g89
g70
NtRp535
(dp536
g73
(dp537
g93
g94
ssg82
g531
sg75
(lp538
g347
asbag68
(g89
g70
NtRp539
(dp540
g73
(dp541
g100
g101
ssg82
g531
sg75
(lp542
S':'
asbag68
(g89
g70
NtRp543
(dp544
g73
(dp545
sg82
g531
sg75
(lp546
g68
(g69
g70
NtRp547
(dp548
g73
(dp549
g81
I3
ssg82
g543
sg75
(lp550
S''
asbasbasbag68
(g84
g70
NtRp551
(dp552
g73
(dp553
sg82
g487
sg75
(lp554
g68
(g89
g70
NtRp555
(dp556
g73
(dp557
g93
g94
ssg82
g551
sg75
(lp558
g368
asbag68
(g89
g70
NtRp559
(dp560
g73
(dp561
g100
g101
ssg82
g551
sg75
(lp562
S':'
asbag68
(g89
g70
NtRp563
(dp564
g73
(dp565
sg82
g551
sg75
(lp566
g68
(g69
g70
NtRp567
(dp568
g73
(dp569
g81
I3
ssg82
g563
sg75
(lp570
S''
asbasbasbag68
(g84
g70
NtRp571
(dp572
g73
(dp573
sg82
g487
sg75
(lp574
g68
(g89
g70
NtRp575
(dp576
g73
(dp577
g93
g94
ssg82
g571
sg75
(lp578
g389
asbag68
(g89
g70
NtRp579
(dp580
g73
(dp581
g100
g101
ssg82
g571
sg75
(lp582
S':'
asbag68
(g89
g70
NtRp583
(dp584
g73
(dp585
sg82
g571
sg75
(lp586
g68
(g69
g70
NtRp587
(dp588
g73
(dp589
g81
I3
ssg82
g583
sg75
(lp590
S''
asbasbasbag68
(g84
g70
NtRp591
(dp592
g73
(dp593
sg82
g487
sg75
(lp594
g68
(g89
g70
NtRp595
(dp596
g73
(dp597
g93
g94
ssg82
g591
sg75
(lp598
g410
asbag68
(g89
g70
NtRp599
(dp600
g73
(dp601
g100
g101
ssg82
g591
sg75
(lp602
S':'
asbag68
(g89
g70
NtRp603
(dp604
g73
(dp605
sg82
g591
sg75
(lp606
g68
(g69
g70
NtRp607
(dp608
g73
(dp609
g81
I3
ssg82
g603
sg75
(lp610
S''
asbasbasbag68
(g84
g70
NtRp611
(dp612
g73
(dp613
sg82
g487
sg75
(lp614
g68
(g89
g70
NtRp615
(dp616
g73
(dp617
g93
g94
ssg82
g611
sg75
(lp618
g431
asbag68
(g89
g70
NtRp619
(dp620
g73
(dp621
g100
g101
ssg82
g611
sg75
(lp622
S':'
asbag68
(g89
g70
NtRp623
(dp624
g73
(dp625
sg82
g611
sg75
(lp626
g68
(g69
g70
NtRp627
(dp628
g73
(dp629
g81
I3
ssg82
g623
sg75
(lp630
S''
asbasbasbag68
(g84
g70
NtRp631
(dp632
g73
(dp633
sg82
g487
sg75
(lp634
g68
(g89
g70
NtRp635
(dp636
g73
(dp637
g93
g94
ssg82
g631
sg75
(lp638
g452
asbag68
(g89
g70
NtRp639
(dp640
g73
(dp641
g100
g101
ssg82
g631
sg75
(lp642
S':'
asbag68
(g89
g70
NtRp643
(dp644
g73
(dp645
sg82
g631
sg75
(lp646
g68
(g69
g70
NtRp647
(dp648
g73
(dp649
g81
I3
ssg82
g643
sg75
(lp650
S''
asbasbasbasbasbasbasbag68
(g84
g70
NtRp651
(dp652
g73
(dp653
sg82
g267
sg75
(lp654
g68
(g89
g70
NtRp655
(dp656
g73
(dp657
g93
g94
ssg82
g651
sg75
(lp658
S'session_id_reddit'
p659
asbag68
(g89
g70
NtRp660
(dp661
g73
(dp662
g100
g101
ssg82
g651
sg75
(lp663
S':'
asbag68
(g89
g70
NtRp664
(dp665
g73
(dp666
sg82
g651
sg75
(lp667
g68
(g69
g70
NtRp668
(dp669
g73
(dp670
g81
I4
ssg82
g664
sg75
(lp671
S'127.0.0.1-24289f39-32a1-48fb-a367-22792fb8b813'
p672
ag68
(g77
g70
NtRp673
(dp674
g73
(dp675
g81
I3
ssg82
Nsg75
(lp676
g68
(g84
g70
NtRp677
(dp678
g73
(dp679
sg82
g673
sg75
(lp680
g68
(g89
g70
NtRp681
(dp682
g73
(dp683
g93
g94
ssg82
g677
sg75
(lp684
g305
asbag68
(g89
g70
NtRp685
(dp686
g73
(dp687
g100
g101
ssg82
g677
sg75
(lp688
S':'
asbag68
(g89
g70
NtRp689
(dp690
g73
(dp691
sg82
g677
sg75
(lp692
g68
(g69
g70
NtRp693
(dp694
g73
(dp695
g81
I3
ssg82
g689
sg75
(lp696
S''
asbasbasbag68
(g84
g70
NtRp697
(dp698
g73
(dp699
sg82
g673
sg75
(lp700
g68
(g89
g70
NtRp701
(dp702
g73
(dp703
g93
g94
ssg82
g697
sg75
(lp704
g326
asbag68
(g89
g70
NtRp705
(dp706
g73
(dp707
g100
g101
ssg82
g697
sg75
(lp708
S':'
asbag68
(g89
g70
NtRp709
(dp710
g73
(dp711
sg82
g697
sg75
(lp712
g68
(g69
g70
NtRp713
(dp714
g73
(dp715
g81
I3
ssg82
g709
sg75
(lp716
S''
asbasbasbag68
(g84
g70
NtRp717
(dp718
g73
(dp719
sg82
g673
sg75
(lp720
g68
(g89
g70
NtRp721
(dp722
g73
(dp723
g93
g94
ssg82
g717
sg75
(lp724
g347
asbag68
(g89
g70
NtRp725
(dp726
g73
(dp727
g100
g101
ssg82
g717
sg75
(lp728
S':'
asbag68
(g89
g70
NtRp729
(dp730
g73
(dp731
sg82
g717
sg75
(lp732
g68
(g69
g70
NtRp733
(dp734
g73
(dp735
g81
I3
ssg82
g729
sg75
(lp736
S''
asbasbasbag68
(g84
g70
NtRp737
(dp738
g73
(dp739
sg82
g673
sg75
(lp740
g68
(g89
g70
NtRp741
(dp742
g73
(dp743
g93
g94
ssg82
g737
sg75
(lp744
g368
asbag68
(g89
g70
NtRp745
(dp746
g73
(dp747
g100
g101
ssg82
g737
sg75
(lp748
S':'
asbag68
(g89
g70
NtRp749
(dp750
g73
(dp751
sg82
g737
sg75
(lp752
g68
(g69
g70
NtRp753
(dp754
g73
(dp755
g81
I3
ssg82
g749
sg75
(lp756
S''
asbasbasbag68
(g84
g70
NtRp757
(dp758
g73
(dp759
sg82
g673
sg75
(lp760
g68
(g89
g70
NtRp761
(dp762
g73
(dp763
g93
g94
ssg82
g757
sg75
(lp764
g389
asbag68
(g89
g70
NtRp765
(dp766
g73
(dp767
g100
g101
ssg82
g757
sg75
(lp768
S':'
asbag68
(g89
g70
NtRp769
(dp770
g73
(dp771
sg82
g757
sg75
(lp772
g68
(g69
g70
NtRp773
(dp774
g73
(dp775
g81
I3
ssg82
g769
sg75
(lp776
S''
asbasbasbag68
(g84
g70
NtRp777
(dp778
g73
(dp779
sg82
g673
sg75
(lp780
g68
(g89
g70
NtRp781
(dp782
g73
(dp783
g93
g94
ssg82
g777
sg75
(lp784
g410
asbag68
(g89
g70
NtRp785
(dp786
g73
(dp787
g100
g101
ssg82
g777
sg75
(lp788
S':'
asbag68
(g89
g70
NtRp789
(dp790
g73
(dp791
sg82
g777
sg75
(lp792
g68
(g69
g70
NtRp793
(dp794
g73
(dp795
g81
I3
ssg82
g789
sg75
(lp796
S''
asbasbasbag68
(g84
g70
NtRp797
(dp798
g73
(dp799
sg82
g673
sg75
(lp800
g68
(g89
g70
NtRp801
(dp802
g73
(dp803
g93
g94
ssg82
g797
sg75
(lp804
g431
asbag68
(g89
g70
NtRp805
(dp806
g73
(dp807
g100
g101
ssg82
g797
sg75
(lp808
S':'
asbag68
(g89
g70
NtRp809
(dp810
g73
(dp811
sg82
g797
sg75
(lp812
g68
(g69
g70
NtRp813
(dp814
g73
(dp815
g81
I3
ssg82
g809
sg75
(lp816
S''
asbasbasbag68
(g84
g70
NtRp817
(dp818
g73
(dp819
sg82
g673
sg75
(lp820
g68
(g89
g70
NtRp821
(dp822
g73
(dp823
g93
g94
ssg82
g817
sg75
(lp824
g452
asbag68
(g89
g70
NtRp825
(dp826
g73
(dp827
g100
g101
ssg82
g817
sg75
(lp828
S':'
asbag68
(g89
g70
NtRp829
(dp830
g73
(dp831
sg82
g817
sg75
(lp832
g68
(g69
g70
NtRp833
(dp834
g73
(dp835
g81
I3
ssg82
g829
sg75
(lp836
S''
asbasbasbasbasbasbasbag68
(g84
g70
NtRp837
(dp838
g73
(dp839
sg82
g267
sg75
(lp840
g68
(g89
g70
NtRp841
(dp842
g73
(dp843
g93
g94
ssg82
g837
sg75
(lp844
S'session_id_welcome'
p845
asbag68
(g89
g70
NtRp846
(dp847
g73
(dp848
g100
g101
ssg82
g837
sg75
(lp849
S':'
asbag68
(g89
g70
NtRp850
(dp851
g73
(dp852
sg82
g837
sg75
(lp853
g68
(g69
g70
NtRp854
(dp855
g73
(dp856
g81
I4
ssg82
g850
sg75
(lp857
S'127.0.0.1-6c6acb01-dab7-498a-a6cb-f847f2ae3337'
p858
ag68
(g77
g70
NtRp859
(dp860
g73
(dp861
g81
I3
ssg82
Nsg75
(lp862
g68
(g84
g70
NtRp863
(dp864
g73
(dp865
sg82
g859
sg75
(lp866
g68
(g89
g70
NtRp867
(dp868
g73
(dp869
g93
g94
ssg82
g863
sg75
(lp870
g305
asbag68
(g89
g70
NtRp871
(dp872
g73
(dp873
g100
g101
ssg82
g863
sg75
(lp874
S':'
asbag68
(g89
g70
NtRp875
(dp876
g73
(dp877
sg82
g863
sg75
(lp878
g68
(g69
g70
NtRp879
(dp880
g73
(dp881
g81
I3
ssg82
g875
sg75
(lp882
S''
asbasbasbag68
(g84
g70
NtRp883
(dp884
g73
(dp885
sg82
g859
sg75
(lp886
g68
(g89
g70
NtRp887
(dp888
g73
(dp889
g93
g94
ssg82
g883
sg75
(lp890
g326
asbag68
(g89
g70
NtRp891
(dp892
g73
(dp893
g100
g101
ssg82
g883
sg75
(lp894
S':'
asbag68
(g89
g70
NtRp895
(dp896
g73
(dp897
sg82
g883
sg75
(lp898
g68
(g69
g70
NtRp899
(dp900
g73
(dp901
g81
I3
ssg82
g895
sg75
(lp902
S''
asbasbasbag68
(g84
g70
NtRp903
(dp904
g73
(dp905
sg82
g859
sg75
(lp906
g68
(g89
g70
NtRp907
(dp908
g73
(dp909
g93
g94
ssg82
g903
sg75
(lp910
g347
asbag68
(g89
g70
NtRp911
(dp912
g73
(dp913
g100
g101
ssg82
g903
sg75
(lp914
S':'
asbag68
(g89
g70
NtRp915
(dp916
g73
(dp917
sg82
g903
sg75
(lp918
g68
(g69
g70
NtRp919
(dp920
g73
(dp921
g81
I3
ssg82
g915
sg75
(lp922
S''
asbasbasbag68
(g84
g70
NtRp923
(dp924
g73
(dp925
sg82
g859
sg75
(lp926
g68
(g89
g70
NtRp927
(dp928
g73
(dp929
g93
g94
ssg82
g923
sg75
(lp930
g368
asbag68
(g89
g70
NtRp931
(dp932
g73
(dp933
g100
g101
ssg82
g923
sg75
(lp934
S':'
asbag68
(g89
g70
NtRp935
(dp936
g73
(dp937
sg82
g923
sg75
(lp938
g68
(g69
g70
NtRp939
(dp940
g73
(dp941
g81
I3
ssg82
g935
sg75
(lp942
S''
asbasbasbag68
(g84
g70
NtRp943
(dp944
g73
(dp945
sg82
g859
sg75
(lp946
g68
(g89
g70
NtRp947
(dp948
g73
(dp949
g93
g94
ssg82
g943
sg75
(lp950
g389
asbag68
(g89
g70
NtRp951
(dp952
g73
(dp953
g100
g101
ssg82
g943
sg75
(lp954
S':'
asbag68
(g89
g70
NtRp955
(dp956
g73
(dp957
sg82
g943
sg75
(lp958
g68
(g69
g70
NtRp959
(dp960
g73
(dp961
g81
I3
ssg82
g955
sg75
(lp962
S''
asbasbasbag68
(g84
g70
NtRp963
(dp964
g73
(dp965
sg82
g859
sg75
(lp966
g68
(g89
g70
NtRp967
(dp968
g73
(dp969
g93
g94
ssg82
g963
sg75
(lp970
g410
asbag68
(g89
g70
NtRp971
(dp972
g73
(dp973
g100
g101
ssg82
g963
sg75
(lp974
S':'
asbag68
(g89
g70
NtRp975
(dp976
g73
(dp977
sg82
g963
sg75
(lp978
g68
(g69
g70
NtRp979
(dp980
g73
(dp981
g81
I3
ssg82
g975
sg75
(lp982
S''
asbasbasbag68
(g84
g70
NtRp983
(dp984
g73
(dp985
sg82
g859
sg75
(lp986
g68
(g89
g70
NtRp987
(dp988
g73
(dp989
g93
g94
ssg82
g983
sg75
(lp990
g431
asbag68
(g89
g70
NtRp991
(dp992
g73
(dp993
g100
g101
ssg82
g983
sg75
(lp994
S':'
asbag68
(g89
g70
NtRp995
(dp996
g73
(dp997
sg82
g983
sg75
(lp998
g68
(g69
g70
NtRp999
(dp1000
g73
(dp1001
g81
I3
ssg82
g995
sg75
(lp1002
S''
asbasbasbag68
(g84
g70
NtRp1003
(dp1004
g73
(dp1005
sg82
g859
sg75
(lp1006
g68
(g89
g70
NtRp1007
(dp1008
g73
(dp1009
g93
g94
ssg82
g1003
sg75
(lp1010
g452
asbag68
(g89
g70
NtRp1011
(dp1012
g73
(dp1013
g100
g101
ssg82
g1003
sg75
(lp1014
S':'
asbag68
(g89
g70
NtRp1015
(dp1016
g73
(dp1017
sg82
g1003
sg75
(lp1018
g68
(g69
g70
NtRp1019
(dp1020
g73
(dp1021
g81
I3
ssg82
g1015
sg75
(lp1022
S''
asbasbasbasbasbasbasbasbasbasbasbag68
(g84
g70
NtRp1023
(dp1024
g73
(dp1025
sg82
g78
sg75
(lp1026
g68
(g89
g70
NtRp1027
(dp1028
g73
(dp1029
g93
g94
ssg82
g1023
sg75
(lp1030
S'env'
p1031
asbag68
(g89
g70
NtRp1032
(dp1033
g73
(dp1034
g100
g101
ssg82
g1023
sg75
(lp1035
S':'
asbag68
(g89
g70
NtRp1036
(dp1037
g73
(dp1038
sg82
g1023
sg75
(lp1039
g68
(g69
g70
NtRp1040
(dp1041
g73
(dp1042
g81
I5
ssg82
g1036
sg75
(lp1043
g68
(g77
g70
NtRp1044
(dp1045
g73
(dp1046
g81
I4
ssg82
Nsg75
(lp1047
g68
(g84
g70
NtRp1048
(dp1049
g73
(dp1050
sg82
g1044
sg75
(lp1051
g68
(g89
g70
NtRp1052
(dp1053
g73
(dp1054
g93
g94
ssg82
g1048
sg75
(lp1055
S'app_folders'
p1056
asbag68
(g89
g70
NtRp1057
(dp1058
g73
(dp1059
g100
g101
ssg82
g1048
sg75
(lp1060
S':'
asbag68
(g89
g70
NtRp1061
(dp1062
g73
(dp1063
sg82
g1048
sg75
(lp1064
g68
(g69
g70
NtRp1065
(dp1066
g73
(dp1067
g81
I4
ssg82
g1061
sg75
(lp1068
S"set(['/home/pankaj/web2py/applications/admin/', '/home/pankaj/web2py/applications/welcome/', '/home/pankaj/web2py/applications/reddit/'])"
p1069
asbasbasbag68
(g84
g70
NtRp1070
(dp1071
g73
(dp1072
sg82
g1044
sg75
(lp1073
g68
(g89
g70
NtRp1074
(dp1075
g73
(dp1076
g93
g94
ssg82
g1070
sg75
(lp1077
S'applications_parent'
p1078
asbag68
(g89
g70
NtRp1079
(dp1080
g73
(dp1081
g100
g101
ssg82
g1070
sg75
(lp1082
S':'
asbag68
(g89
g70
NtRp1083
(dp1084
g73
(dp1085
sg82
g1070
sg75
(lp1086
g68
(g69
g70
NtRp1087
(dp1088
g73
(dp1089
g81
I4
ssg82
g1083
sg75
(lp1090
S'/home/pankaj/web2py'
p1091
asbasbasbag68
(g84
g70
NtRp1092
(dp1093
g73
(dp1094
sg82
g1044
sg75
(lp1095
g68
(g89
g70
NtRp1096
(dp1097
g73
(dp1098
g93
g94
ssg82
g1092
sg75
(lp1099
S'cmd_args'
p1100
asbag68
(g89
g70
NtRp1101
(dp1102
g73
(dp1103
g100
g101
ssg82
g1092
sg75
(lp1104
S':'
asbag68
(g89
g70
NtRp1105
(dp1106
g73
(dp1107
sg82
g1092
sg75
(lp1108
g68
(g69
g70
NtRp1109
(dp1110
g73
(dp1111
g81
I4
ssg82
g1105
sg75
(lp1112
g68
(g77
g70
NtRp1113
(dp1114
g73
(dp1115
g81
I3
ssg82
Nsg75
(lp1116
sbasbasbasbag68
(g84
g70
NtRp1117
(dp1118
g73
(dp1119
sg82
g1044
sg75
(lp1120
g68
(g89
g70
NtRp1121
(dp1122
g73
(dp1123
g93
g94
ssg82
g1117
sg75
(lp1124
S'cmd_options'
p1125
asbag68
(g89
g70
NtRp1126
(dp1127
g73
(dp1128
g100
g101
ssg82
g1117
sg75
(lp1129
S':'
asbag68
(g89
g70
NtRp1130
(dp1131
g73
(dp1132
sg82
g1117
sg75
(lp1133
g68
(g69
g70
NtRp1134
(dp1135
g73
(dp1136
g81
I4
ssg82
g1130
sg75
(lp1137
S"<Values at 0x92f4dcc: {'verbose': False, 'ip': '127.0.0.1', 'with_scheduler': False, 'ips': [], 'shutdown_timeout': 5, 'taskbar': False, 'port': 8000, 'maxthreads': None, 'softcron': False, 'server_name': 'pankaj-HP-Pavilion-dv4-Notebook-PC', 'bpython': False, 'nogui': False, 'pid_filename': 'httpserver.pid', 'extcron': False, 'runcron': False, 'run_system_tests': False, 'test': None, 'folder': '/home/pankaj/web2py', 'config': '', 'import_models': False, 'winservice': '', 'shell': None, 'run': '', 'log_filename': 'httpserver.log', 'debuglevel': 30, 'args': [''], 'socket_timeout': 5, 'ssl_ca_certificate': None, 'scheduler': None, 'profiler_filename': None, 'ssl_private_key': '', 'scheduler_groups': None, 'password': '<ask>', 'request_queue_size': 5, 'ssl_certificate': '', 'cronjob': False, 'numthreads': None, 'quiet': False, 'interfaces': None, 'minthreads': None, 'timeout': 10, 'plain': False, 'nobanner': False}>"
p1138
asbasbasbag68
(g84
g70
NtRp1139
(dp1140
g73
(dp1141
sg82
g1044
sg75
(lp1142
g68
(g89
g70
NtRp1143
(dp1144
g73
(dp1145
g93
g94
ssg82
g1139
sg75
(lp1146
S'db_sessions'
p1147
asbag68
(g89
g70
NtRp1148
(dp1149
g73
(dp1150
g100
g101
ssg82
g1139
sg75
(lp1151
S':'
asbag68
(g89
g70
NtRp1152
(dp1153
g73
(dp1154
sg82
g1139
sg75
(lp1155
g68
(g69
g70
NtRp1156
(dp1157
g73
(dp1158
g81
I4
ssg82
g1152
sg75
(lp1159
S'set([])'
p1160
asbasbasbag68
(g84
g70
NtRp1161
(dp1162
g73
(dp1163
sg82
g1044
sg75
(lp1164
g68
(g89
g70
NtRp1165
(dp1166
g73
(dp1167
g93
g94
ssg82
g1161
sg75
(lp1168
S'debugging'
p1169
asbag68
(g89
g70
NtRp1170
(dp1171
g73
(dp1172
g100
g101
ssg82
g1161
sg75
(lp1173
S':'
asbag68
(g89
g70
NtRp1174
(dp1175
g73
(dp1176
sg82
g1161
sg75
(lp1177
g68
(g69
g70
NtRp1178
(dp1179
g73
(dp1180
g81
I4
ssg82
g1174
sg75
(lp1181
g111
asbasbasbag68
(g84
g70
NtRp1182
(dp1183
g73
(dp1184
sg82
g1044
sg75
(lp1185
g68
(g89
g70
NtRp1186
(dp1187
g73
(dp1188
g93
g94
ssg82
g1182
sg75
(lp1189
S'gluon_parent'
p1190
asbag68
(g89
g70
NtRp1191
(dp1192
g73
(dp1193
g100
g101
ssg82
g1182
sg75
(lp1194
S':'
asbag68
(g89
g70
NtRp1195
(dp1196
g73
(dp1197
sg82
g1182
sg75
(lp1198
g68
(g69
g70
NtRp1199
(dp1200
g73
(dp1201
g81
I4
ssg82
g1195
sg75
(lp1202
S'/home/pankaj/web2py'
p1203
asbasbasbag68
(g84
g70
NtRp1204
(dp1205
g73
(dp1206
sg82
g1044
sg75
(lp1207
g68
(g89
g70
NtRp1208
(dp1209
g73
(dp1210
g93
g94
ssg82
g1204
sg75
(lp1211
S'http_accept'
p1212
asbag68
(g89
g70
NtRp1213
(dp1214
g73
(dp1215
g100
g101
ssg82
g1204
sg75
(lp1216
S':'
asbag68
(g89
g70
NtRp1217
(dp1218
g73
(dp1219
sg82
g1204
sg75
(lp1220
g68
(g69
g70
NtRp1221
(dp1222
g73
(dp1223
g81
I4
ssg82
g1217
sg75
(lp1224
S'text/html,application/xhtml+xml,application/xml;q=0.9,*/*;q=0.8'
p1225
asbasbasbag68
(g84
g70
NtRp1226
(dp1227
g73
(dp1228
sg82
g1044
sg75
(lp1229
g68
(g89
g70
NtRp1230
(dp1231
g73
(dp1232
g93
g94
ssg82
g1226
sg75
(lp1233
S'http_accept_encoding'
p1234
asbag68
(g89
g70
NtRp1235
(dp1236
g73
(dp1237
g100
g101
ssg82
g1226
sg75
(lp1238
S':'
asbag68
(g89
g70
NtRp1239
(dp1240
g73
(dp1241
sg82
g1226
sg75
(lp1242
g68
(g69
g70
NtRp1243
(dp1244
g73
(dp1245
g81
I4
ssg82
g1239
sg75
(lp1246
S'gzip, deflate'
p1247
asbasbasbag68
(g84
g70
NtRp1248
(dp1249
g73
(dp1250
sg82
g1044
sg75
(lp1251
g68
(g89
g70
NtRp1252
(dp1253
g73
(dp1254
g93
g94
ssg82
g1248
sg75
(lp1255
S'http_accept_language'
p1256
asbag68
(g89
g70
NtRp1257
(dp1258
g73
(dp1259
g100
g101
ssg82
g1248
sg75
(lp1260
S':'
asbag68
(g89
g70
NtRp1261
(dp1262
g73
(dp1263
sg82
g1248
sg75
(lp1264
g68
(g69
g70
NtRp1265
(dp1266
g73
(dp1267
g81
I4
ssg82
g1261
sg75
(lp1268
S'en-US,en;q=0.5'
p1269
asbasbasbag68
(g84
g70
NtRp1270
(dp1271
g73
(dp1272
sg82
g1044
sg75
(lp1273
g68
(g89
g70
NtRp1274
(dp1275
g73
(dp1276
g93
g94
ssg82
g1270
sg75
(lp1277
S'http_connection'
p1278
asbag68
(g89
g70
NtRp1279
(dp1280
g73
(dp1281
g100
g101
ssg82
g1270
sg75
(lp1282
S':'
asbag68
(g89
g70
NtRp1283
(dp1284
g73
(dp1285
sg82
g1270
sg75
(lp1286
g68
(g69
g70
NtRp1287
(dp1288
g73
(dp1289
g81
I4
ssg82
g1283
sg75
(lp1290
S'keep-alive'
p1291
asbasbasbag68
(g84
g70
NtRp1292
(dp1293
g73
(dp1294
sg82
g1044
sg75
(lp1295
g68
(g89
g70
NtRp1296
(dp1297
g73
(dp1298
g93
g94
ssg82
g1292
sg75
(lp1299
S'http_cookie'
p1300
asbag68
(g89
g70
NtRp1301
(dp1302
g73
(dp1303
g100
g101
ssg82
g1292
sg75
(lp1304
S':'
asbag68
(g89
g70
NtRp1305
(dp1306
g73
(dp1307
sg82
g1292
sg75
(lp1308
g68
(g69
g70
NtRp1309
(dp1310
g73
(dp1311
g81
I4
ssg82
g1305
sg75
(lp1312
S'session_id_reddit=127.0.0.1-24289f39-32a1-48fb-a367-22792fb8b813; session_id_welcome=127.0.0.1-6c6acb01-dab7-498a-a6cb-f847f2ae3337; session_id_admin=127.0.0.1-b12d36e5-38f3-46ab-bf33-377848bfeca4; session_id_cataminder=127.0.0.1-f68dfbc3-e46b-4d7f-ad40-351d31d2febb'
p1313
asbasbasbag68
(g84
g70
NtRp1314
(dp1315
g73
(dp1316
sg82
g1044
sg75
(lp1317
g68
(g89
g70
NtRp1318
(dp1319
g73
(dp1320
g93
g94
ssg82
g1314
sg75
(lp1321
S'http_host'
p1322
asbag68
(g89
g70
NtRp1323
(dp1324
g73
(dp1325
g100
g101
ssg82
g1314
sg75
(lp1326
S':'
asbag68
(g89
g70
NtRp1327
(dp1328
g73
(dp1329
sg82
g1314
sg75
(lp1330
g68
(g69
g70
NtRp1331
(dp1332
g73
(dp1333
g81
I4
ssg82
g1327
sg75
(lp1334
S'127.0.0.1:8000'
p1335
asbasbasbag68
(g84
g70
NtRp1336
(dp1337
g73
(dp1338
sg82
g1044
sg75
(lp1339
g68
(g89
g70
NtRp1340
(dp1341
g73
(dp1342
g93
g94
ssg82
g1336
sg75
(lp1343
S'http_referer'
p1344
asbag68
(g89
g70
NtRp1345
(dp1346
g73
(dp1347
g100
g101
ssg82
g1336
sg75
(lp1348
S':'
asbag68
(g89
g70
NtRp1349
(dp1350
g73
(dp1351
sg82
g1336
sg75
(lp1352
g68
(g69
g70
NtRp1353
(dp1354
g73
(dp1355
g81
I4
ssg82
g1349
sg75
(lp1356
S'http://127.0.0.1:8000/reddit/default/index'
p1357
asbasbasbag68
(g84
g70
NtRp1358
(dp1359
g73
(dp1360
sg82
g1044
sg75
(lp1361
g68
(g89
g70
NtRp1362
(dp1363
g73
(dp1364
g93
g94
ssg82
g1358
sg75
(lp1365
S'http_user_agent'
p1366
asbag68
(g89
g70
NtRp1367
(dp1368
g73
(dp1369
g100
g101
ssg82
g1358
sg75
(lp1370
S':'
asbag68
(g89
g70
NtRp1371
(dp1372
g73
(dp1373
sg82
g1358
sg75
(lp1374
g68
(g69
g70
NtRp1375
(dp1376
g73
(dp1377
g81
I4
ssg82
g1371
sg75
(lp1378
S'Mozilla/5.0 (X11; Ubuntu; Linux i686; rv:23.0) Gecko/20100101 Firefox/23.0'
p1379
asbasbasbag68
(g84
g70
NtRp1380
(dp1381
g73
(dp1382
sg82
g1044
sg75
(lp1383
g68
(g89
g70
NtRp1384
(dp1385
g73
(dp1386
g93
g94
ssg82
g1380
sg75
(lp1387
S'is_jython'
p1388
asbag68
(g89
g70
NtRp1389
(dp1390
g73
(dp1391
g100
g101
ssg82
g1380
sg75
(lp1392
S':'
asbag68
(g89
g70
NtRp1393
(dp1394
g73
(dp1395
sg82
g1380
sg75
(lp1396
g68
(g69
g70
NtRp1397
(dp1398
g73
(dp1399
g81
I4
ssg82
g1393
sg75
(lp1400
g111
asbasbasbag68
(g84
g70
NtRp1401
(dp1402
g73
(dp1403
sg82
g1044
sg75
(lp1404
g68
(g89
g70
NtRp1405
(dp1406
g73
(dp1407
g93
g94
ssg82
g1401
sg75
(lp1408
S'is_pypy'
p1409
asbag68
(g89
g70
NtRp1410
(dp1411
g73
(dp1412
g100
g101
ssg82
g1401
sg75
(lp1413
S':'
asbag68
(g89
g70
NtRp1414
(dp1415
g73
(dp1416
sg82
g1401
sg75
(lp1417
g68
(g69
g70
NtRp1418
(dp1419
g73
(dp1420
g81
I4
ssg82
g1414
sg75
(lp1421
g111
asbasbasbag68
(g84
g70
NtRp1422
(dp1423
g73
(dp1424
sg82
g1044
sg75
(lp1425
g68
(g89
g70
NtRp1426
(dp1427
g73
(dp1428
g93
g94
ssg82
g1422
sg75
(lp1429
S'local_hosts'
p1430
asbag68
(g89
g70
NtRp1431
(dp1432
g73
(dp1433
g100
g101
ssg82
g1422
sg75
(lp1434
S':'
asbag68
(g89
g70
NtRp1435
(dp1436
g73
(dp1437
sg82
g1422
sg75
(lp1438
g68
(g69
g70
NtRp1439
(dp1440
g73
(dp1441
g81
I4
ssg82
g1435
sg75
(lp1442
g68
(g77
g70
NtRp1443
(dp1444
g73
(dp1445
g81
I3
ssg82
Nsg75
(lp1446
g68
(g84
g70
NtRp1447
(dp1448
g73
(dp1449
sg82
g1443
sg75
(lp1450
g68
(g89
g70
NtRp1451
(dp1452
g73
(dp1453
sg82
g1447
sg75
(lp1454
g68
(g69
g70
NtRp1455
(dp1456
g73
(dp1457
g81
I3
ssg82
g1451
sg75
(lp1458
S'pankaj-HP-Pavilion-dv4-Notebook-PC'
p1459
asbasbasbag68
(g84
g70
NtRp1460
(dp1461
g73
(dp1462
sg82
g1443
sg75
(lp1463
g68
(g89
g70
NtRp1464
(dp1465
g73
(dp1466
sg82
g1460
sg75
(lp1467
g68
(g69
g70
NtRp1468
(dp1469
g73
(dp1470
g81
I3
ssg82
g1464
sg75
(lp1471
S'::1'
p1472
asbasbasbag68
(g84
g70
NtRp1473
(dp1474
g73
(dp1475
sg82
g1443
sg75
(lp1476
g68
(g89
g70
NtRp1477
(dp1478
g73
(dp1479
sg82
g1473
sg75
(lp1480
g68
(g69
g70
NtRp1481
(dp1482
g73
(dp1483
g81
I3
ssg82
g1477
sg75
(lp1484
S'127.0.1.1'
p1485
asbasbasbag68
(g84
g70
NtRp1486
(dp1487
g73
(dp1488
sg82
g1443
sg75
(lp1489
g68
(g89
g70
NtRp1490
(dp1491
g73
(dp1492
sg82
g1486
sg75
(lp1493
g68
(g69
g70
NtRp1494
(dp1495
g73
(dp1496
g81
I3
ssg82
g1490
sg75
(lp1497
S'::ffff:127.0.0.1'
p1498
asbasbasbag68
(g84
g70
NtRp1499
(dp1500
g73
(dp1501
sg82
g1443
sg75
(lp1502
g68
(g89
g70
NtRp1503
(dp1504
g73
(dp1505
sg82
g1499
sg75
(lp1506
g68
(g69
g70
NtRp1507
(dp1508
g73
(dp1509
g81
I3
ssg82
g1503
sg75
(lp1510
S'127.0.0.1'
p1511
asbasbasbasbasbasbasbag68
(g84
g70
NtRp1512
(dp1513
g73
(dp1514
sg82
g1044
sg75
(lp1515
g68
(g89
g70
NtRp1516
(dp1517
g73
(dp1518
g93
g94
ssg82
g1512
sg75
(lp1519
S'path_info'
p1520
asbag68
(g89
g70
NtRp1521
(dp1522
g73
(dp1523
g100
g101
ssg82
g1512
sg75
(lp1524
S':'
asbag68
(g89
g70
NtRp1525
(dp1526
g73
(dp1527
sg82
g1512
sg75
(lp1528
g68
(g69
g70
NtRp1529
(dp1530
g73
(dp1531
g81
I4
ssg82
g1525
sg75
(lp1532
S'/reddit/default/adminpage.html'
p1533
asbasbasbag68
(g84
g70
NtRp1534
(dp1535
g73
(dp1536
sg82
g1044
sg75
(lp1537
g68
(g89
g70
NtRp1538
(dp1539
g73
(dp1540
g93
g94
ssg82
g1534
sg75
(lp1541
S'query_string'
p1542
asbag68
(g89
g70
NtRp1543
(dp1544
g73
(dp1545
g100
g101
ssg82
g1534
sg75
(lp1546
S':'
asbag68
(g89
g70
NtRp1547
(dp1548
g73
(dp1549
sg82
g1534
sg75
(lp1550
g68
(g69
g70
NtRp1551
(dp1552
g73
(dp1553
g81
I4
ssg82
g1547
sg75
(lp1554
S''
asbasbasbag68
(g84
g70
NtRp1555
(dp1556
g73
(dp1557
sg82
g1044
sg75
(lp1558
g68
(g89
g70
NtRp1559
(dp1560
g73
(dp1561
g93
g94
ssg82
g1555
sg75
(lp1562
S'remote_addr'
p1563
asbag68
(g89
g70
NtRp1564
(dp1565
g73
(dp1566
g100
g101
ssg82
g1555
sg75
(lp1567
S':'
asbag68
(g89
g70
NtRp1568
(dp1569
g73
(dp1570
sg82
g1555
sg75
(lp1571
g68
(g69
g70
NtRp1572
(dp1573
g73
(dp1574
g81
I4
ssg82
g1568
sg75
(lp1575
g223
asbasbasbag68
(g84
g70
NtRp1576
(dp1577
g73
(dp1578
sg82
g1044
sg75
(lp1579
g68
(g89
g70
NtRp1580
(dp1581
g73
(dp1582
g93
g94
ssg82
g1576
sg75
(lp1583
S'remote_port'
p1584
asbag68
(g89
g70
NtRp1585
(dp1586
g73
(dp1587
g100
g101
ssg82
g1576
sg75
(lp1588
S':'
asbag68
(g89
g70
NtRp1589
(dp1590
g73
(dp1591
sg82
g1576
sg75
(lp1592
g68
(g69
g70
NtRp1593
(dp1594
g73
(dp1595
g81
I4
ssg82
g1589
sg75
(lp1596
S'47147'
p1597
asbasbasbag68
(g84
g70
NtRp1598
(dp1599
g73
(dp1600
sg82
g1044
sg75
(lp1601
g68
(g89
g70
NtRp1602
(dp1603
g73
(dp1604
g93
g94
ssg82
g1598
sg75
(lp1605
S'request_method'
p1606
asbag68
(g89
g70
NtRp1607
(dp1608
g73
(dp1609
g100
g101
ssg82
g1598
sg75
(lp1610
S':'
asbag68
(g89
g70
NtRp1611
(dp1612
g73
(dp1613
sg82
g1598
sg75
(lp1614
g68
(g69
g70
NtRp1615
(dp1616
g73
(dp1617
g81
I4
ssg82
g1611
sg75
(lp1618
S'GET'
p1619
asbasbasbag68
(g84
g70
NtRp1620
(dp1621
g73
(dp1622
sg82
g1044
sg75
(lp1623
g68
(g89
g70
NtRp1624
(dp1625
g73
(dp1626
g93
g94
ssg82
g1620
sg75
(lp1627
S'request_uri'
p1628
asbag68
(g89
g70
NtRp1629
(dp1630
g73
(dp1631
g100
g101
ssg82
g1620
sg75
(lp1632
S':'
asbag68
(g89
g70
NtRp1633
(dp1634
g73
(dp1635
sg82
g1620
sg75
(lp1636
g68
(g69
g70
NtRp1637
(dp1638
g73
(dp1639
g81
I4
ssg82
g1633
sg75
(lp1640
g1533
asbasbasbag68
(g84
g70
NtRp1641
(dp1642
g73
(dp1643
sg82
g1044
sg75
(lp1644
g68
(g89
g70
NtRp1645
(dp1646
g73
(dp1647
g93
g94
ssg82
g1641
sg75
(lp1648
S'script_name'
p1649
asbag68
(g89
g70
NtRp1650
(dp1651
g73
(dp1652
g100
g101
ssg82
g1641
sg75
(lp1653
S':'
asbag68
(g89
g70
NtRp1654
(dp1655
g73
(dp1656
sg82
g1641
sg75
(lp1657
g68
(g69
g70
NtRp1658
(dp1659
g73
(dp1660
g81
I4
ssg82
g1654
sg75
(lp1661
S''
asbasbasbag68
(g84
g70
NtRp1662
(dp1663
g73
(dp1664
sg82
g1044
sg75
(lp1665
g68
(g89
g70
NtRp1666
(dp1667
g73
(dp1668
g93
g94
ssg82
g1662
sg75
(lp1669
S'server_name'
p1670
asbag68
(g89
g70
NtRp1671
(dp1672
g73
(dp1673
g100
g101
ssg82
g1662
sg75
(lp1674
S':'
asbag68
(g89
g70
NtRp1675
(dp1676
g73
(dp1677
sg82
g1662
sg75
(lp1678
g68
(g69
g70
NtRp1679
(dp1680
g73
(dp1681
g81
I4
ssg82
g1675
sg75
(lp1682
S'pankaj-HP-Pavilion-dv4-Notebook-PC'
p1683
asbasbasbag68
(g84
g70
NtRp1684
(dp1685
g73
(dp1686
sg82
g1044
sg75
(lp1687
g68
(g89
g70
NtRp1688
(dp1689
g73
(dp1690
g93
g94
ssg82
g1684
sg75
(lp1691
S'server_port'
p1692
asbag68
(g89
g70
NtRp1693
(dp1694
g73
(dp1695
g100
g101
ssg82
g1684
sg75
(lp1696
S':'
asbag68
(g89
g70
NtRp1697
(dp1698
g73
(dp1699
sg82
g1684
sg75
(lp1700
g68
(g69
g70
NtRp1701
(dp1702
g73
(dp1703
g81
I4
ssg82
g1697
sg75
(lp1704
S'8000'
p1705
asbasbasbag68
(g84
g70
NtRp1706
(dp1707
g73
(dp1708
sg82
g1044
sg75
(lp1709
g68
(g89
g70
NtRp1710
(dp1711
g73
(dp1712
g93
g94
ssg82
g1706
sg75
(lp1713
S'server_protocol'
p1714
asbag68
(g89
g70
NtRp1715
(dp1716
g73
(dp1717
g100
g101
ssg82
g1706
sg75
(lp1718
S':'
asbag68
(g89
g70
NtRp1719
(dp1720
g73
(dp1721
sg82
g1706
sg75
(lp1722
g68
(g69
g70
NtRp1723
(dp1724
g73
(dp1725
g81
I4
ssg82
g1719
sg75
(lp1726
S'HTTP/1.1'
p1727
asbasbasbag68
(g84
g70
NtRp1728
(dp1729
g73
(dp1730
sg82
g1044
sg75
(lp1731
g68
(g89
g70
NtRp1732
(dp1733
g73
(dp1734
g93
g94
ssg82
g1728
sg75
(lp1735
S'server_software'
p1736
asbag68
(g89
g70
NtRp1737
(dp1738
g73
(dp1739
g100
g101
ssg82
g1728
sg75
(lp1740
S':'
asbag68
(g89
g70
NtRp1741
(dp1742
g73
(dp1743
sg82
g1728
sg75
(lp1744
g68
(g69
g70
NtRp1745
(dp1746
g73
(dp1747
g81
I4
ssg82
g1741
sg75
(lp1748
S'Rocket 1.2.6'
p1749
asbasbasbag68
(g84
g70
NtRp1750
(dp1751
g73
(dp1752
sg82
g1044
sg75
(lp1753
g68
(g89
g70
NtRp1754
(dp1755
g73
(dp1756
g93
g94
ssg82
g1750
sg75
(lp1757
S'web2py_path'
p1758
asbag68
(g89
g70
NtRp1759
(dp1760
g73
(dp1761
g100
g101
ssg82
g1750
sg75
(lp1762
S':'
asbag68
(g89
g70
NtRp1763
(dp1764
g73
(dp1765
sg82
g1750
sg75
(lp1766
g68
(g69
g70
NtRp1767
(dp1768
g73
(dp1769
g81
I4
ssg82
g1763
sg75
(lp1770
g1091
asbasbasbag68
(g84
g70
NtRp1771
(dp1772
g73
(dp1773
sg82
g1044
sg75
(lp1774
g68
(g89
g70
NtRp1775
(dp1776
g73
(dp1777
g93
g94
ssg82
g1771
sg75
(lp1778
S'web2py_version'
p1779
asbag68
(g89
g70
NtRp1780
(dp1781
g73
(dp1782
g100
g101
ssg82
g1771
sg75
(lp1783
S':'
asbag68
(g89
g70
NtRp1784
(dp1785
g73
(dp1786
sg82
g1771
sg75
(lp1787
g68
(g69
g70
NtRp1788
(dp1789
g73
(dp1790
g81
I4
ssg82
g1784
sg75
(lp1791
g68
(g77
g70
NtRp1792
(dp1793
g73
(dp1794
g81
I3
ssg82
Nsg75
(lp1795
g68
(g84
g70
NtRp1796
(dp1797
g73
(dp1798
sg82
g1792
sg75
(lp1799
g68
(g89
g70
NtRp1800
(dp1801
g73
(dp1802
sg82
g1796
sg75
(lp1803
g68
(g69
g70
NtRp1804
(dp1805
g73
(dp1806
g81
I3
ssg82
g1800
sg75
(lp1807
S'2'
asbasbasbag68
(g84
g70
NtRp1808
(dp1809
g73
(dp1810
sg82
g1792
sg75
(lp1811
g68
(g89
g70
NtRp1812
(dp1813
g73
(dp1814
sg82
g1808
sg75
(lp1815
g68
(g69
g70
NtRp1816
(dp1817
g73
(dp1818
g81
I3
ssg82
g1812
sg75
(lp1819
S'3'
asbasbasbag68
(g84
g70
NtRp1820
(dp1821
g73
(dp1822
sg82
g1792
sg75
(lp1823
g68
(g89
g70
NtRp1824
(dp1825
g73
(dp1826
sg82
g1820
sg75
(lp1827
g68
(g69
g70
NtRp1828
(dp1829
g73
(dp1830
g81
I3
ssg82
g1824
sg75
(lp1831
S'2'
asbasbasbag68
(g84
g70
NtRp1832
(dp1833
g73
(dp1834
sg82
g1792
sg75
(lp1835
g68
(g89
g70
NtRp1836
(dp1837
g73
(dp1838
sg82
g1832
sg75
(lp1839
g68
(g69
g70
NtRp1840
(dp1841
g73
(dp1842
g81
I3
ssg82
g1836
sg75
(lp1843
S'datetime.datetime(2012, 12, 17, 15, 3, 30)'
p1844
asbasbasbag68
(g84
g70
NtRp1845
(dp1846
g73
(dp1847
sg82
g1792
sg75
(lp1848
g68
(g89
g70
NtRp1849
(dp1850
g73
(dp1851
sg82
g1845
sg75
(lp1852
g68
(g69
g70
NtRp1853
(dp1854
g73
(dp1855
g81
I3
ssg82
g1849
sg75
(lp1856
S'stable'
p1857
asbasbasbasbasbasbasbag68
(g84
g70
NtRp1858
(dp1859
g73
(dp1860
sg82
g1044
sg75
(lp1861
g68
(g89
g70
NtRp1862
(dp1863
g73
(dp1864
g93
g94
ssg82
g1858
sg75
(lp1865
S'wsgi_errors'
p1866
asbag68
(g89
g70
NtRp1867
(dp1868
g73
(dp1869
g100
g101
ssg82
g1858
sg75
(lp1870
S':'
asbag68
(g89
g70
NtRp1871
(dp1872
g73
(dp1873
sg82
g1858
sg75
(lp1874
g68
(g69
g70
NtRp1875
(dp1876
g73
(dp1877
g81
I4
ssg82
g1871
sg75
(lp1878
S"<open file '<stderr>', mode 'w' at 0xb73630d0>"
p1879
asbasbasbag68
(g84
g70
NtRp1880
(dp1881
g73
(dp1882
sg82
g1044
sg75
(lp1883
g68
(g89
g70
NtRp1884
(dp1885
g73
(dp1886
g93
g94
ssg82
g1880
sg75
(lp1887
S'wsgi_file_wrapper'
p1888
asbag68
(g89
g70
NtRp1889
(dp1890
g73
(dp1891
g100
g101
ssg82
g1880
sg75
(lp1892
S':'
asbag68
(g89
g70
NtRp1893
(dp1894
g73
(dp1895
sg82
g1880
sg75
(lp1896
g68
(g69
g70
NtRp1897
(dp1898
g73
(dp1899
g81
I4
ssg82
g1893
sg75
(lp1900
S'<class wsgiref.util.FileWrapper at 0x92ba05c>'
p1901
asbasbasbag68
(g84
g70
NtRp1902
(dp1903
g73
(dp1904
sg82
g1044
sg75
(lp1905
g68
(g89
g70
NtRp1906
(dp1907
g73
(dp1908
g93
g94
ssg82
g1902
sg75
(lp1909
S'wsgi_input'
p1910
asbag68
(g89
g70
NtRp1911
(dp1912
g73
(dp1913
g100
g101
ssg82
g1902
sg75
(lp1914
S':'
asbag68
(g89
g70
NtRp1915
(dp1916
g73
(dp1917
sg82
g1902
sg75
(lp1918
g68
(g69
g70
NtRp1919
(dp1920
g73
(dp1921
g81
I4
ssg82
g1915
sg75
(lp1922
S'<socket._fileobject object at 0xae7b2bac>'
p1923
asbasbasbag68
(g84
g70
NtRp1924
(dp1925
g73
(dp1926
sg82
g1044
sg75
(lp1927
g68
(g89
g70
NtRp1928
(dp1929
g73
(dp1930
g93
g94
ssg82
g1924
sg75
(lp1931
S'wsgi_multiprocess'
p1932
asbag68
(g89
g70
NtRp1933
(dp1934
g73
(dp1935
g100
g101
ssg82
g1924
sg75
(lp1936
S':'
asbag68
(g89
g70
NtRp1937
(dp1938
g73
(dp1939
sg82
g1924
sg75
(lp1940
g68
(g69
g70
NtRp1941
(dp1942
g73
(dp1943
g81
I4
ssg82
g1937
sg75
(lp1944
g111
asbasbasbag68
(g84
g70
NtRp1945
(dp1946
g73
(dp1947
sg82
g1044
sg75
(lp1948
g68
(g89
g70
NtRp1949
(dp1950
g73
(dp1951
g93
g94
ssg82
g1945
sg75
(lp1952
S'wsgi_multithread'
p1953
asbag68
(g89
g70
NtRp1954
(dp1955
g73
(dp1956
g100
g101
ssg82
g1945
sg75
(lp1957
S':'
asbag68
(g89
g70
NtRp1958
(dp1959
g73
(dp1960
sg82
g1945
sg75
(lp1961
g68
(g69
g70
NtRp1962
(dp1963
g73
(dp1964
g81
I4
ssg82
g1958
sg75
(lp1965
S'True'
p1966
asbasbasbag68
(g84
g70
NtRp1967
(dp1968
g73
(dp1969
sg82
g1044
sg75
(lp1970
g68
(g89
g70
NtRp1971
(dp1972
g73
(dp1973
g93
g94
ssg82
g1967
sg75
(lp1974
S'wsgi_run_once'
p1975
asbag68
(g89
g70
NtRp1976
(dp1977
g73
(dp1978
g100
g101
ssg82
g1967
sg75
(lp1979
S':'
asbag68
(g89
g70
NtRp1980
(dp1981
g73
(dp1982
sg82
g1967
sg75
(lp1983
g68
(g69
g70
NtRp1984
(dp1985
g73
(dp1986
g81
I4
ssg82
g1980
sg75
(lp1987
g111
asbasbasbag68
(g84
g70
NtRp1988
(dp1989
g73
(dp1990
sg82
g1044
sg75
(lp1991
g68
(g89
g70
NtRp1992
(dp1993
g73
(dp1994
g93
g94
ssg82
g1988
sg75
(lp1995
S'wsgi_url_scheme'
p1996
asbag68
(g89
g70
NtRp1997
(dp1998
g73
(dp1999
g100
g101
ssg82
g1988
sg75
(lp2000
S':'
asbag68
(g89
g70
NtRp2001
(dp2002
g73
(dp2003
sg82
g1988
sg75
(lp2004
g68
(g69
g70
NtRp2005
(dp2006
g73
(dp2007
g81
I4
ssg82
g2001
sg75
(lp2008
S'http'
p2009
asbasbasbag68
(g84
g70
NtRp2010
(dp2011
g73
(dp2012
sg82
g1044
sg75
(lp2013
g68
(g89
g70
NtRp2014
(dp2015
g73
(dp2016
g93
g94
ssg82
g2010
sg75
(lp2017
S'wsgi_version'
p2018
asbag68
(g89
g70
NtRp2019
(dp2020
g73
(dp2021
g100
g101
ssg82
g2010
sg75
(lp2022
S':'
asbag68
(g89
g70
NtRp2023
(dp2024
g73
(dp2025
sg82
g2010
sg75
(lp2026
g68
(g69
g70
NtRp2027
(dp2028
g73
(dp2029
g81
I4
ssg82
g2023
sg75
(lp2030
g68
(g77
g70
NtRp2031
(dp2032
g73
(dp2033
g81
I3
ssg82
Nsg75
(lp2034
g68
(g84
g70
NtRp2035
(dp2036
g73
(dp2037
sg82
g2031
sg75
(lp2038
g68
(g89
g70
NtRp2039
(dp2040
g73
(dp2041
sg82
g2035
sg75
(lp2042
g68
(g69
g70
NtRp2043
(dp2044
g73
(dp2045
g81
I3
ssg82
g2039
sg75
(lp2046
S'1'
asbasbasbag68
(g84
g70
NtRp2047
(dp2048
g73
(dp2049
sg82
g2031
sg75
(lp2050
g68
(g89
g70
NtRp2051
(dp2052
g73
(dp2053
sg82
g2047
sg75
(lp2054
g68
(g69
g70
NtRp2055
(dp2056
g73
(dp2057
g81
I3
ssg82
g2051
sg75
(lp2058
S'0'
asbasbasbasbasbasbasbasbasbasbasbag68
(g84
g70
NtRp2059
(dp2060
g73
(dp2061
sg82
g78
sg75
(lp2062
g68
(g89
g70
NtRp2063
(dp2064
g73
(dp2065
g93
g94
ssg82
g2059
sg75
(lp2066
S'extension'
p2067
asbag68
(g89
g70
NtRp2068
(dp2069
g73
(dp2070
g100
g101
ssg82
g2059
sg75
(lp2071
S':'
asbag68
(g89
g70
NtRp2072
(dp2073
g73
(dp2074
sg82
g2059
sg75
(lp2075
g68
(g69
g70
NtRp2076
(dp2077
g73
(dp2078
g81
I5
ssg82
g2072
sg75
(lp2079
S'html'
p2080
asbasbasbag68
(g84
g70
NtRp2081
(dp2082
g73
(dp2083
sg82
g78
sg75
(lp2084
g68
(g89
g70
NtRp2085
(dp2086
g73
(dp2087
g93
g94
ssg82
g2081
sg75
(lp2088
S'folder'
p2089
asbag68
(g89
g70
NtRp2090
(dp2091
g73
(dp2092
g100
g101
ssg82
g2081
sg75
(lp2093
S':'
asbag68
(g89
g70
NtRp2094
(dp2095
g73
(dp2096
sg82
g2081
sg75
(lp2097
g68
(g69
g70
NtRp2098
(dp2099
g73
(dp2100
g81
I5
ssg82
g2094
sg75
(lp2101
S'/home/pankaj/web2py/applications/reddit/'
p2102
asbasbasbag68
(g84
g70
NtRp2103
(dp2104
g73
(dp2105
sg82
g78
sg75
(lp2106
g68
(g89
g70
NtRp2107
(dp2108
g73
(dp2109
g93
g94
ssg82
g2103
sg75
(lp2110
S'function'
p2111
asbag68
(g89
g70
NtRp2112
(dp2113
g73
(dp2114
g100
g101
ssg82
g2103
sg75
(lp2115
S':'
asbag68
(g89
g70
NtRp2116
(dp2117
g73
(dp2118
sg82
g2103
sg75
(lp2119
g68
(g69
g70
NtRp2120
(dp2121
g73
(dp2122
g81
I5
ssg82
g2116
sg75
(lp2123
S'adminpage'
p2124
asbasbasbag68
(g84
g70
NtRp2125
(dp2126
g73
(dp2127
sg82
g78
sg75
(lp2128
g68
(g89
g70
NtRp2129
(dp2130
g73
(dp2131
g93
g94
ssg82
g2125
sg75
(lp2132
S'get_vars'
p2133
asbag68
(g89
g70
NtRp2134
(dp2135
g73
(dp2136
g100
g101
ssg82
g2125
sg75
(lp2137
S':'
asbag68
(g89
g70
NtRp2138
(dp2139
g73
(dp2140
sg82
g2125
sg75
(lp2141
g68
(g69
g70
NtRp2142
(dp2143
g73
(dp2144
g81
I5
ssg82
g2138
sg75
(lp2145
g68
(g77
g70
NtRp2146
(dp2147
g73
(dp2148
g81
I4
ssg82
Nsg75
(lp2149
sbasbasbasbag68
(g84
g70
NtRp2150
(dp2151
g73
(dp2152
sg82
g78
sg75
(lp2153
g68
(g89
g70
NtRp2154
(dp2155
g73
(dp2156
g93
g94
ssg82
g2150
sg75
(lp2157
S'global_settings'
p2158
asbag68
(g89
g70
NtRp2159
(dp2160
g73
(dp2161
g100
g101
ssg82
g2150
sg75
(lp2162
S':'
asbag68
(g89
g70
NtRp2163
(dp2164
g73
(dp2165
sg82
g2150
sg75
(lp2166
g68
(g69
g70
NtRp2167
(dp2168
g73
(dp2169
g81
I5
ssg82
g2163
sg75
(lp2170
g68
(g77
g70
NtRp2171
(dp2172
g73
(dp2173
g81
I4
ssg82
Nsg75
(lp2174
g68
(g84
g70
NtRp2175
(dp2176
g73
(dp2177
sg82
g2171
sg75
(lp2178
g68
(g89
g70
NtRp2179
(dp2180
g73
(dp2181
g93
g94
ssg82
g2175
sg75
(lp2182
g1056
asbag68
(g89
g70
NtRp2183
(dp2184
g73
(dp2185
g100
g101
ssg82
g2175
sg75
(lp2186
S':'
asbag68
(g89
g70
NtRp2187
(dp2188
g73
(dp2189
sg82
g2175
sg75
(lp2190
g68
(g69
g70
NtRp2191
(dp2192
g73
(dp2193
g81
I4
ssg82
g2187
sg75
(lp2194
S"set(['/home/pankaj/web2py/applications/admin/', '/home/pankaj/web2py/applications/welcome/', '/home/pankaj/web2py/applications/reddit/'])"
p2195
asbasbasbag68
(g84
g70
NtRp2196
(dp2197
g73
(dp2198
sg82
g2171
sg75
(lp2199
g68
(g89
g70
NtRp2200
(dp2201
g73
(dp2202
g93
g94
ssg82
g2196
sg75
(lp2203
g1078
asbag68
(g89
g70
NtRp2204
(dp2205
g73
(dp2206
g100
g101
ssg82
g2196
sg75
(lp2207
S':'
asbag68
(g89
g70
NtRp2208
(dp2209
g73
(dp2210
sg82
g2196
sg75
(lp2211
g68
(g69
g70
NtRp2212
(dp2213
g73
(dp2214
g81
I4
ssg82
g2208
sg75
(lp2215
g1091
asbasbasbag68
(g84
g70
NtRp2216
(dp2217
g73
(dp2218
sg82
g2171
sg75
(lp2219
g68
(g89
g70
NtRp2220
(dp2221
g73
(dp2222
g93
g94
ssg82
g2216
sg75
(lp2223
g1100
asbag68
(g89
g70
NtRp2224
(dp2225
g73
(dp2226
g100
g101
ssg82
g2216
sg75
(lp2227
S':'
asbag68
(g89
g70
NtRp2228
(dp2229
g73
(dp2230
sg82
g2216
sg75
(lp2231
g68
(g69
g70
NtRp2232
(dp2233
g73
(dp2234
g81
I4
ssg82
g2228
sg75
(lp2235
g68
(g77
g70
NtRp2236
(dp2237
g73
(dp2238
g81
I3
ssg82
Nsg75
(lp2239
sbasbasbasbag68
(g84
g70
NtRp2240
(dp2241
g73
(dp2242
sg82
g2171
sg75
(lp2243
g68
(g89
g70
NtRp2244
(dp2245
g73
(dp2246
g93
g94
ssg82
g2240
sg75
(lp2247
g1125
asbag68
(g89
g70
NtRp2248
(dp2249
g73
(dp2250
g100
g101
ssg82
g2240
sg75
(lp2251
S':'
asbag68
(g89
g70
NtRp2252
(dp2253
g73
(dp2254
sg82
g2240
sg75
(lp2255
g68
(g69
g70
NtRp2256
(dp2257
g73
(dp2258
g81
I4
ssg82
g2252
sg75
(lp2259
S"<Values at 0x92f4dcc: {'verbose': False, 'ip': '127.0.0.1', 'with_scheduler': False, 'ips': [], 'shutdown_timeout': 5, 'taskbar': False, 'port': 8000, 'maxthreads': None, 'softcron': False, 'server_name': 'pankaj-HP-Pavilion-dv4-Notebook-PC', 'bpython': False, 'nogui': False, 'pid_filename': 'httpserver.pid', 'extcron': False, 'runcron': False, 'run_system_tests': False, 'test': None, 'folder': '/home/pankaj/web2py', 'config': '', 'import_models': False, 'winservice': '', 'shell': None, 'run': '', 'log_filename': 'httpserver.log', 'debuglevel': 30, 'args': [''], 'socket_timeout': 5, 'ssl_ca_certificate': None, 'scheduler': None, 'profiler_filename': None, 'ssl_private_key': '', 'scheduler_groups': None, 'password': '<ask>', 'request_queue_size': 5, 'ssl_certificate': '', 'cronjob': False, 'numthreads': None, 'quiet': False, 'interfaces': None, 'minthreads': None, 'timeout': 10, 'plain': False, 'nobanner': False}>"
p2260
asbasbasbag68
(g84
g70
NtRp2261
(dp2262
g73
(dp2263
sg82
g2171
sg75
(lp2264
g68
(g89
g70
NtRp2265
(dp2266
g73
(dp2267
g93
g94
ssg82
g2261
sg75
(lp2268
g1147
asbag68
(g89
g70
NtRp2269
(dp2270
g73
(dp2271
g100
g101
ssg82
g2261
sg75
(lp2272
S':'
asbag68
(g89
g70
NtRp2273
(dp2274
g73
(dp2275
sg82
g2261
sg75
(lp2276
g68
(g69
g70
NtRp2277
(dp2278
g73
(dp2279
g81
I4
ssg82
g2273
sg75
(lp2280
S'set([])'
p2281
asbasbasbag68
(g84
g70
NtRp2282
(dp2283
g73
(dp2284
sg82
g2171
sg75
(lp2285
g68
(g89
g70
NtRp2286
(dp2287
g73
(dp2288
g93
g94
ssg82
g2282
sg75
(lp2289
g1169
asbag68
(g89
g70
NtRp2290
(dp2291
g73
(dp2292
g100
g101
ssg82
g2282
sg75
(lp2293
S':'
asbag68
(g89
g70
NtRp2294
(dp2295
g73
(dp2296
sg82
g2282
sg75
(lp2297
g68
(g69
g70
NtRp2298
(dp2299
g73
(dp2300
g81
I4
ssg82
g2294
sg75
(lp2301
g111
asbasbasbag68
(g84
g70
NtRp2302
(dp2303
g73
(dp2304
sg82
g2171
sg75
(lp2305
g68
(g89
g70
NtRp2306
(dp2307
g73
(dp2308
g93
g94
ssg82
g2302
sg75
(lp2309
g1190
asbag68
(g89
g70
NtRp2310
(dp2311
g73
(dp2312
g100
g101
ssg82
g2302
sg75
(lp2313
S':'
asbag68
(g89
g70
NtRp2314
(dp2315
g73
(dp2316
sg82
g2302
sg75
(lp2317
g68
(g69
g70
NtRp2318
(dp2319
g73
(dp2320
g81
I4
ssg82
g2314
sg75
(lp2321
g1203
asbasbasbag68
(g84
g70
NtRp2322
(dp2323
g73
(dp2324
sg82
g2171
sg75
(lp2325
g68
(g89
g70
NtRp2326
(dp2327
g73
(dp2328
g93
g94
ssg82
g2322
sg75
(lp2329
g1388
asbag68
(g89
g70
NtRp2330
(dp2331
g73
(dp2332
g100
g101
ssg82
g2322
sg75
(lp2333
S':'
asbag68
(g89
g70
NtRp2334
(dp2335
g73
(dp2336
sg82
g2322
sg75
(lp2337
g68
(g69
g70
NtRp2338
(dp2339
g73
(dp2340
g81
I4
ssg82
g2334
sg75
(lp2341
g111
asbasbasbag68
(g84
g70
NtRp2342
(dp2343
g73
(dp2344
sg82
g2171
sg75
(lp2345
g68
(g89
g70
NtRp2346
(dp2347
g73
(dp2348
g93
g94
ssg82
g2342
sg75
(lp2349
g1409
asbag68
(g89
g70
NtRp2350
(dp2351
g73
(dp2352
g100
g101
ssg82
g2342
sg75
(lp2353
S':'
asbag68
(g89
g70
NtRp2354
(dp2355
g73
(dp2356
sg82
g2342
sg75
(lp2357
g68
(g69
g70
NtRp2358
(dp2359
g73
(dp2360
g81
I4
ssg82
g2354
sg75
(lp2361
g111
asbasbasbag68
(g84
g70
NtRp2362
(dp2363
g73
(dp2364
sg82
g2171
sg75
(lp2365
g68
(g89
g70
NtRp2366
(dp2367
g73
(dp2368
g93
g94
ssg82
g2362
sg75
(lp2369
g1430
asbag68
(g89
g70
NtRp2370
(dp2371
g73
(dp2372
g100
g101
ssg82
g2362
sg75
(lp2373
S':'
asbag68
(g89
g70
NtRp2374
(dp2375
g73
(dp2376
sg82
g2362
sg75
(lp2377
g68
(g69
g70
NtRp2378
(dp2379
g73
(dp2380
g81
I4
ssg82
g2374
sg75
(lp2381
g68
(g77
g70
NtRp2382
(dp2383
g73
(dp2384
g81
I3
ssg82
Nsg75
(lp2385
g68
(g84
g70
NtRp2386
(dp2387
g73
(dp2388
sg82
g2382
sg75
(lp2389
g68
(g89
g70
NtRp2390
(dp2391
g73
(dp2392
sg82
g2386
sg75
(lp2393
g68
(g69
g70
NtRp2394
(dp2395
g73
(dp2396
g81
I3
ssg82
g2390
sg75
(lp2397
g1459
asbasbasbag68
(g84
g70
NtRp2398
(dp2399
g73
(dp2400
sg82
g2382
sg75
(lp2401
g68
(g89
g70
NtRp2402
(dp2403
g73
(dp2404
sg82
g2398
sg75
(lp2405
g68
(g69
g70
NtRp2406
(dp2407
g73
(dp2408
g81
I3
ssg82
g2402
sg75
(lp2409
g1472
asbasbasbag68
(g84
g70
NtRp2410
(dp2411
g73
(dp2412
sg82
g2382
sg75
(lp2413
g68
(g89
g70
NtRp2414
(dp2415
g73
(dp2416
sg82
g2410
sg75
(lp2417
g68
(g69
g70
NtRp2418
(dp2419
g73
(dp2420
g81
I3
ssg82
g2414
sg75
(lp2421
g1485
asbasbasbag68
(g84
g70
NtRp2422
(dp2423
g73
(dp2424
sg82
g2382
sg75
(lp2425
g68
(g89
g70
NtRp2426
(dp2427
g73
(dp2428
sg82
g2422
sg75
(lp2429
g68
(g69
g70
NtRp2430
(dp2431
g73
(dp2432
g81
I3
ssg82
g2426
sg75
(lp2433
g1498
asbasbasbag68
(g84
g70
NtRp2434
(dp2435
g73
(dp2436
sg82
g2382
sg75
(lp2437
g68
(g89
g70
NtRp2438
(dp2439
g73
(dp2440
sg82
g2434
sg75
(lp2441
g68
(g69
g70
NtRp2442
(dp2443
g73
(dp2444
g81
I3
ssg82
g2438
sg75
(lp2445
g1511
asbasbasbasbasbasbasbag68
(g84
g70
NtRp2446
(dp2447
g73
(dp2448
sg82
g2171
sg75
(lp2449
g68
(g89
g70
NtRp2450
(dp2451
g73
(dp2452
g93
g94
ssg82
g2446
sg75
(lp2453
g1779
asbag68
(g89
g70
NtRp2454
(dp2455
g73
(dp2456
g100
g101
ssg82
g2446
sg75
(lp2457
S':'
asbag68
(g89
g70
NtRp2458
(dp2459
g73
(dp2460
sg82
g2446
sg75
(lp2461
g68
(g69
g70
NtRp2462
(dp2463
g73
(dp2464
g81
I4
ssg82
g2458
sg75
(lp2465
g68
(g77
g70
NtRp2466
(dp2467
g73
(dp2468
g81
I3
ssg82
Nsg75
(lp2469
g68
(g84
g70
NtRp2470
(dp2471
g73
(dp2472
sg82
g2466
sg75
(lp2473
g68
(g89
g70
NtRp2474
(dp2475
g73
(dp2476
sg82
g2470
sg75
(lp2477
g68
(g69
g70
NtRp2478
(dp2479
g73
(dp2480
g81
I3
ssg82
g2474
sg75
(lp2481
S'2'
asbasbasbag68
(g84
g70
NtRp2482
(dp2483
g73
(dp2484
sg82
g2466
sg75
(lp2485
g68
(g89
g70
NtRp2486
(dp2487
g73
(dp2488
sg82
g2482
sg75
(lp2489
g68
(g69
g70
NtRp2490
(dp2491
g73
(dp2492
g81
I3
ssg82
g2486
sg75
(lp2493
S'3'
asbasbasbag68
(g84
g70
NtRp2494
(dp2495
g73
(dp2496
sg82
g2466
sg75
(lp2497
g68
(g89
g70
NtRp2498
(dp2499
g73
(dp2500
sg82
g2494
sg75
(lp2501
g68
(g69
g70
NtRp2502
(dp2503
g73
(dp2504
g81
I3
ssg82
g2498
sg75
(lp2505
S'2'
asbasbasbag68
(g84
g70
NtRp2506
(dp2507
g73
(dp2508
sg82
g2466
sg75
(lp2509
g68
(g89
g70
NtRp2510
(dp2511
g73
(dp2512
sg82
g2506
sg75
(lp2513
g68
(g69
g70
NtRp2514
(dp2515
g73
(dp2516
g81
I3
ssg82
g2510
sg75
(lp2517
S'datetime.datetime(2012, 12, 17, 15, 3, 30)'
p2518
asbasbasbag68
(g84
g70
NtRp2519
(dp2520
g73
(dp2521
sg82
g2466
sg75
(lp2522
g68
(g89
g70
NtRp2523
(dp2524
g73
(dp2525
sg82
g2519
sg75
(lp2526
g68
(g69
g70
NtRp2527
(dp2528
g73
(dp2529
g81
I3
ssg82
g2523
sg75
(lp2530
g1857
asbasbasbasbasbasbasbasbasbasbasbag68
(g84
g70
NtRp2531
(dp2532
g73
(dp2533
sg82
g78
sg75
(lp2534
g68
(g89
g70
NtRp2535
(dp2536
g73
(dp2537
g93
g94
ssg82
g2531
sg75
(lp2538
S'is_https'
p2539
asbag68
(g89
g70
NtRp2540
(dp2541
g73
(dp2542
g100
g101
ssg82
g2531
sg75
(lp2543
S':'
asbag68
(g89
g70
NtRp2544
(dp2545
g73
(dp2546
sg82
g2531
sg75
(lp2547
g68
(g69
g70
NtRp2548
(dp2549
g73
(dp2550
g81
I5
ssg82
g2544
sg75
(lp2551
g111
asbasbasbag68
(g84
g70
NtRp2552
(dp2553
g73
(dp2554
sg82
g78
sg75
(lp2555
g68
(g89
g70
NtRp2556
(dp2557
g73
(dp2558
g93
g94
ssg82
g2552
sg75
(lp2559
S'is_local'
p2560
asbag68
(g89
g70
NtRp2561
(dp2562
g73
(dp2563
g100
g101
ssg82
g2552
sg75
(lp2564
S':'
asbag68
(g89
g70
NtRp2565
(dp2566
g73
(dp2567
sg82
g2552
sg75
(lp2568
g68
(g69
g70
NtRp2569
(dp2570
g73
(dp2571
g81
I5
ssg82
g2565
sg75
(lp2572
g1966
asbasbasbag68
(g84
g70
NtRp2573
(dp2574
g73
(dp2575
sg82
g78
sg75
(lp2576
g68
(g89
g70
NtRp2577
(dp2578
g73
(dp2579
g93
g94
ssg82
g2573
sg75
(lp2580
S'is_restful'
p2581
asbag68
(g89
g70
NtRp2582
(dp2583
g73
(dp2584
g100
g101
ssg82
g2573
sg75
(lp2585
S':'
asbag68
(g89
g70
NtRp2586
(dp2587
g73
(dp2588
sg82
g2573
sg75
(lp2589
g68
(g69
g70
NtRp2590
(dp2591
g73
(dp2592
g81
I5
ssg82
g2586
sg75
(lp2593
g111
asbasbasbag68
(g84
g70
NtRp2594
(dp2595
g73
(dp2596
sg82
g78
sg75
(lp2597
g68
(g89
g70
NtRp2598
(dp2599
g73
(dp2600
g93
g94
ssg82
g2594
sg75
(lp2601
S'now'
p2602
asbag68
(g89
g70
NtRp2603
(dp2604
g73
(dp2605
g100
g101
ssg82
g2594
sg75
(lp2606
S':'
asbag68
(g89
g70
NtRp2607
(dp2608
g73
(dp2609
sg82
g2594
sg75
(lp2610
g68
(g69
g70
NtRp2611
(dp2612
g73
(dp2613
g81
I5
ssg82
g2607
sg75
(lp2614
S'datetime.datetime(2013, 9, 2, 6, 9, 58, 903054)'
p2615
asbasbasbag68
(g84
g70
NtRp2616
(dp2617
g73
(dp2618
sg82
g78
sg75
(lp2619
g68
(g89
g70
NtRp2620
(dp2621
g73
(dp2622
g93
g94
ssg82
g2616
sg75
(lp2623
S'post_vars'
p2624
asbag68
(g89
g70
NtRp2625
(dp2626
g73
(dp2627
g100
g101
ssg82
g2616
sg75
(lp2628
S':'
asbag68
(g89
g70
NtRp2629
(dp2630
g73
(dp2631
sg82
g2616
sg75
(lp2632
g68
(g69
g70
NtRp2633
(dp2634
g73
(dp2635
g81
I5
ssg82
g2629
sg75
(lp2636
g68
(g77
g70
NtRp2637
(dp2638
g73
(dp2639
g81
I4
ssg82
Nsg75
(lp2640
sbasbasbasbag68
(g84
g70
NtRp2641
(dp2642
g73
(dp2643
sg82
g78
sg75
(lp2644
g68
(g89
g70
NtRp2645
(dp2646
g73
(dp2647
g93
g94
ssg82
g2641
sg75
(lp2648
S'raw_args'
p2649
asbag68
(g89
g70
NtRp2650
(dp2651
g73
(dp2652
g100
g101
ssg82
g2641
sg75
(lp2653
S':'
asbag68
(g89
g70
NtRp2654
(dp2655
g73
(dp2656
sg82
g2641
sg75
(lp2657
g68
(g69
g70
NtRp2658
(dp2659
g73
(dp2660
g81
I5
ssg82
g2654
sg75
(lp2661
S''
asbasbasbag68
(g84
g70
NtRp2662
(dp2663
g73
(dp2664
sg82
g78
sg75
(lp2665
g68
(g89
g70
NtRp2666
(dp2667
g73
(dp2668
g93
g94
ssg82
g2662
sg75
(lp2669
S'raw_extension'
p2670
asbag68
(g89
g70
NtRp2671
(dp2672
g73
(dp2673
g100
g101
ssg82
g2662
sg75
(lp2674
S':'
asbag68
(g89
g70
NtRp2675
(dp2676
g73
(dp2677
sg82
g2662
sg75
(lp2678
g68
(g69
g70
NtRp2679
(dp2680
g73
(dp2681
g81
I5
ssg82
g2675
sg75
(lp2682
g2080
asbasbasbag68
(g84
g70
NtRp2683
(dp2684
g73
(dp2685
sg82
g78
sg75
(lp2686
g68
(g89
g70
NtRp2687
(dp2688
g73
(dp2689
g93
g94
ssg82
g2683
sg75
(lp2690
S'url'
p2691
asbag68
(g89
g70
NtRp2692
(dp2693
g73
(dp2694
g100
g101
ssg82
g2683
sg75
(lp2695
S':'
asbag68
(g89
g70
NtRp2696
(dp2697
g73
(dp2698
sg82
g2683
sg75
(lp2699
g68
(g69
g70
NtRp2700
(dp2701
g73
(dp2702
g81
I5
ssg82
g2696
sg75
(lp2703
g1533
asbasbasbag68
(g84
g70
NtRp2704
(dp2705
g73
(dp2706
sg82
g78
sg75
(lp2707
g68
(g89
g70
NtRp2708
(dp2709
g73
(dp2710
g93
g94
ssg82
g2704
sg75
(lp2711
S'utcnow'
p2712
asbag68
(g89
g70
NtRp2713
(dp2714
g73
(dp2715
g100
g101
ssg82
g2704
sg75
(lp2716
S':'
asbag68
(g89
g70
NtRp2717
(dp2718
g73
(dp2719
sg82
g2704
sg75
(lp2720
g68
(g69
g70
NtRp2721
(dp2722
g73
(dp2723
g81
I5
ssg82
g2717
sg75
(lp2724
S'datetime.datetime(2013, 9, 2, 0, 39, 58, 903088)'
p2725
asbasbasbag68
(g84
g70
NtRp2726
(dp2727
g73
(dp2728
sg82
g78
sg75
(lp2729
g68
(g89
g70
NtRp2730
(dp2731
g73
(dp2732
g93
g94
ssg82
g2726
sg75
(lp2733
S'uuid'
p2734
asbag68
(g89
g70
NtRp2735
(dp2736
g73
(dp2737
g100
g101
ssg82
g2726
sg75
(lp2738
S':'
asbag68
(g89
g70
NtRp2739
(dp2740
g73
(dp2741
sg82
g2726
sg75
(lp2742
g68
(g69
g70
NtRp2743
(dp2744
g73
(dp2745
g81
I5
ssg82
g2739
sg75
(lp2746
S'reddit/127.0.0.1.2013-09-02.06-09-58.7719e702-848a-4301-8cc3-935c1926e771'
p2747
asbasbasbag68
(g84
g70
NtRp2748
(dp2749
g73
(dp2750
sg82
g78
sg75
(lp2751
g68
(g89
g70
NtRp2752
(dp2753
g73
(dp2754
g93
g94
ssg82
g2748
sg75
(lp2755
S'vars'
p2756
asbag68
(g89
g70
NtRp2757
(dp2758
g73
(dp2759
g100
g101
ssg82
g2748
sg75
(lp2760
S':'
asbag68
(g89
g70
NtRp2761
(dp2762
g73
(dp2763
sg82
g2748
sg75
(lp2764
g68
(g69
g70
NtRp2765
(dp2766
g73
(dp2767
g81
I5
ssg82
g2761
sg75
(lp2768
g68
(g77
g70
NtRp2769
(dp2770
g73
(dp2771
g81
I4
ssg82
Nsg75
(lp2772
sbasbasbasbag68
(g84
g70
NtRp2773
(dp2774
g73
(dp2775
sg82
g78
sg75
(lp2776
g68
(g89
g70
NtRp2777
(dp2778
g73
(dp2779
g93
g94
ssg82
g2773
sg75
(lp2780
S'wsgi'
p2781
asbag68
(g89
g70
NtRp2782
(dp2783
g73
(dp2784
g100
g101
ssg82
g2773
sg75
(lp2785
S':'
asbag68
(g89
g70
NtRp2786
(dp2787
g73
(dp2788
sg82
g2773
sg75
(lp2789
g68
(g69
g70
NtRp2790
(dp2791
g73
(dp2792
g81
I5
ssg82
g2786
sg75
(lp2793
g68
(g77
g70
NtRp2794
(dp2795
g73
(dp2796
g81
I4
ssg82
Nsg75
(lp2797
g68
(g84
g70
NtRp2798
(dp2799
g73
(dp2800
sg82
g2794
sg75
(lp2801
g68
(g89
g70
NtRp2802
(dp2803
g73
(dp2804
g93
g94
ssg82
g2798
sg75
(lp2805
S'environ'
p2806
asbag68
(g89
g70
NtRp2807
(dp2808
g73
(dp2809
g100
g101
ssg82
g2798
sg75
(lp2810
S':'
asbag68
(g89
g70
NtRp2811
(dp2812
g73
(dp2813
sg82
g2798
sg75
(lp2814
g68
(g69
g70
NtRp2815
(dp2816
g73
(dp2817
g81
I4
ssg82
g2811
sg75
(lp2818
g68
(g77
g70
NtRp2819
(dp2820
g73
(dp2821
g81
I3
ssg82
Nsg75
(lp2822
g68
(g84
g70
NtRp2823
(dp2824
g73
(dp2825
sg82
g2819
sg75
(lp2826
g68
(g89
g70
NtRp2827
(dp2828
g73
(dp2829
g93
g94
ssg82
g2823
sg75
(lp2830
S'HTTP_ACCEPT'
p2831
asbag68
(g89
g70
NtRp2832
(dp2833
g73
(dp2834
g100
g101
ssg82
g2823
sg75
(lp2835
S':'
asbag68
(g89
g70
NtRp2836
(dp2837
g73
(dp2838
sg82
g2823
sg75
(lp2839
g68
(g69
g70
NtRp2840
(dp2841
g73
(dp2842
g81
I3
ssg82
g2836
sg75
(lp2843
g1225
asbasbasbag68
(g84
g70
NtRp2844
(dp2845
g73
(dp2846
sg82
g2819
sg75
(lp2847
g68
(g89
g70
NtRp2848
(dp2849
g73
(dp2850
g93
g94
ssg82
g2844
sg75
(lp2851
S'HTTP_ACCEPT_ENCODING'
p2852
asbag68
(g89
g70
NtRp2853
(dp2854
g73
(dp2855
g100
g101
ssg82
g2844
sg75
(lp2856
S':'
asbag68
(g89
g70
NtRp2857
(dp2858
g73
(dp2859
sg82
g2844
sg75
(lp2860
g68
(g69
g70
NtRp2861
(dp2862
g73
(dp2863
g81
I3
ssg82
g2857
sg75
(lp2864
g1247
asbasbasbag68
(g84
g70
NtRp2865
(dp2866
g73
(dp2867
sg82
g2819
sg75
(lp2868
g68
(g89
g70
NtRp2869
(dp2870
g73
(dp2871
g93
g94
ssg82
g2865
sg75
(lp2872
S'HTTP_ACCEPT_LANGUAGE'
p2873
asbag68
(g89
g70
NtRp2874
(dp2875
g73
(dp2876
g100
g101
ssg82
g2865
sg75
(lp2877
S':'
asbag68
(g89
g70
NtRp2878
(dp2879
g73
(dp2880
sg82
g2865
sg75
(lp2881
g68
(g69
g70
NtRp2882
(dp2883
g73
(dp2884
g81
I3
ssg82
g2878
sg75
(lp2885
g1269
asbasbasbag68
(g84
g70
NtRp2886
(dp2887
g73
(dp2888
sg82
g2819
sg75
(lp2889
g68
(g89
g70
NtRp2890
(dp2891
g73
(dp2892
g93
g94
ssg82
g2886
sg75
(lp2893
S'HTTP_CONNECTION'
p2894
asbag68
(g89
g70
NtRp2895
(dp2896
g73
(dp2897
g100
g101
ssg82
g2886
sg75
(lp2898
S':'
asbag68
(g89
g70
NtRp2899
(dp2900
g73
(dp2901
sg82
g2886
sg75
(lp2902
g68
(g69
g70
NtRp2903
(dp2904
g73
(dp2905
g81
I3
ssg82
g2899
sg75
(lp2906
g1291
asbasbasbag68
(g84
g70
NtRp2907
(dp2908
g73
(dp2909
sg82
g2819
sg75
(lp2910
g68
(g89
g70
NtRp2911
(dp2912
g73
(dp2913
g93
g94
ssg82
g2907
sg75
(lp2914
S'HTTP_COOKIE'
p2915
asbag68
(g89
g70
NtRp2916
(dp2917
g73
(dp2918
g100
g101
ssg82
g2907
sg75
(lp2919
S':'
asbag68
(g89
g70
NtRp2920
(dp2921
g73
(dp2922
sg82
g2907
sg75
(lp2923
g68
(g69
g70
NtRp2924
(dp2925
g73
(dp2926
g81
I3
ssg82
g2920
sg75
(lp2927
g1313
asbasbasbag68
(g84
g70
NtRp2928
(dp2929
g73
(dp2930
sg82
g2819
sg75
(lp2931
g68
(g89
g70
NtRp2932
(dp2933
g73
(dp2934
g93
g94
ssg82
g2928
sg75
(lp2935
S'HTTP_HOST'
p2936
asbag68
(g89
g70
NtRp2937
(dp2938
g73
(dp2939
g100
g101
ssg82
g2928
sg75
(lp2940
S':'
asbag68
(g89
g70
NtRp2941
(dp2942
g73
(dp2943
sg82
g2928
sg75
(lp2944
g68
(g69
g70
NtRp2945
(dp2946
g73
(dp2947
g81
I3
ssg82
g2941
sg75
(lp2948
g1335
asbasbasbag68
(g84
g70
NtRp2949
(dp2950
g73
(dp2951
sg82
g2819
sg75
(lp2952
g68
(g89
g70
NtRp2953
(dp2954
g73
(dp2955
g93
g94
ssg82
g2949
sg75
(lp2956
S'HTTP_REFERER'
p2957
asbag68
(g89
g70
NtRp2958
(dp2959
g73
(dp2960
g100
g101
ssg82
g2949
sg75
(lp2961
S':'
asbag68
(g89
g70
NtRp2962
(dp2963
g73
(dp2964
sg82
g2949
sg75
(lp2965
g68
(g69
g70
NtRp2966
(dp2967
g73
(dp2968
g81
I3
ssg82
g2962
sg75
(lp2969
g1357
asbasbasbag68
(g84
g70
NtRp2970
(dp2971
g73
(dp2972
sg82
g2819
sg75
(lp2973
g68
(g89
g70
NtRp2974
(dp2975
g73
(dp2976
g93
g94
ssg82
g2970
sg75
(lp2977
S'HTTP_USER_AGENT'
p2978
asbag68
(g89
g70
NtRp2979
(dp2980
g73
(dp2981
g100
g101
ssg82
g2970
sg75
(lp2982
S':'
asbag68
(g89
g70
NtRp2983
(dp2984
g73
(dp2985
sg82
g2970
sg75
(lp2986
g68
(g69
g70
NtRp2987
(dp2988
g73
(dp2989
g81
I3
ssg82
g2983
sg75
(lp2990
g1379
asbasbasbag68
(g84
g70
NtRp2991
(dp2992
g73
(dp2993
sg82
g2819
sg75
(lp2994
g68
(g89
g70
NtRp2995
(dp2996
g73
(dp2997
g93
g94
ssg82
g2991
sg75
(lp2998
S'PATH_INFO'
p2999
asbag68
(g89
g70
NtRp3000
(dp3001
g73
(dp3002
g100
g101
ssg82
g2991
sg75
(lp3003
S':'
asbag68
(g89
g70
NtRp3004
(dp3005
g73
(dp3006
sg82
g2991
sg75
(lp3007
g68
(g69
g70
NtRp3008
(dp3009
g73
(dp3010
g81
I3
ssg82
g3004
sg75
(lp3011
g1533
asbasbasbag68
(g84
g70
NtRp3012
(dp3013
g73
(dp3014
sg82
g2819
sg75
(lp3015
g68
(g89
g70
NtRp3016
(dp3017
g73
(dp3018
g93
g94
ssg82
g3012
sg75
(lp3019
S'QUERY_STRING'
p3020
asbag68
(g89
g70
NtRp3021
(dp3022
g73
(dp3023
g100
g101
ssg82
g3012
sg75
(lp3024
S':'
asbag68
(g89
g70
NtRp3025
(dp3026
g73
(dp3027
sg82
g3012
sg75
(lp3028
g68
(g69
g70
NtRp3029
(dp3030
g73
(dp3031
g81
I3
ssg82
g3025
sg75
(lp3032
S''
asbasbasbag68
(g84
g70
NtRp3033
(dp3034
g73
(dp3035
sg82
g2819
sg75
(lp3036
g68
(g89
g70
NtRp3037
(dp3038
g73
(dp3039
g93
g94
ssg82
g3033
sg75
(lp3040
S'REMOTE_ADDR'
p3041
asbag68
(g89
g70
NtRp3042
(dp3043
g73
(dp3044
g100
g101
ssg82
g3033
sg75
(lp3045
S':'
asbag68
(g89
g70
NtRp3046
(dp3047
g73
(dp3048
sg82
g3033
sg75
(lp3049
g68
(g69
g70
NtRp3050
(dp3051
g73
(dp3052
g81
I3
ssg82
g3046
sg75
(lp3053
g223
asbasbasbag68
(g84
g70
NtRp3054
(dp3055
g73
(dp3056
sg82
g2819
sg75
(lp3057
g68
(g89
g70
NtRp3058
(dp3059
g73
(dp3060
g93
g94
ssg82
g3054
sg75
(lp3061
S'REMOTE_PORT'
p3062
asbag68
(g89
g70
NtRp3063
(dp3064
g73
(dp3065
g100
g101
ssg82
g3054
sg75
(lp3066
S':'
asbag68
(g89
g70
NtRp3067
(dp3068
g73
(dp3069
sg82
g3054
sg75
(lp3070
g68
(g69
g70
NtRp3071
(dp3072
g73
(dp3073
g81
I3
ssg82
g3067
sg75
(lp3074
g1597
asbasbasbag68
(g84
g70
NtRp3075
(dp3076
g73
(dp3077
sg82
g2819
sg75
(lp3078
g68
(g89
g70
NtRp3079
(dp3080
g73
(dp3081
g93
g94
ssg82
g3075
sg75
(lp3082
S'REQUEST_METHOD'
p3083
asbag68
(g89
g70
NtRp3084
(dp3085
g73
(dp3086
g100
g101
ssg82
g3075
sg75
(lp3087
S':'
asbag68
(g89
g70
NtRp3088
(dp3089
g73
(dp3090
sg82
g3075
sg75
(lp3091
g68
(g69
g70
NtRp3092
(dp3093
g73
(dp3094
g81
I3
ssg82
g3088
sg75
(lp3095
g1619
asbasbasbag68
(g84
g70
NtRp3096
(dp3097
g73
(dp3098
sg82
g2819
sg75
(lp3099
g68
(g89
g70
NtRp3100
(dp3101
g73
(dp3102
g93
g94
ssg82
g3096
sg75
(lp3103
S'REQUEST_URI'
p3104
asbag68
(g89
g70
NtRp3105
(dp3106
g73
(dp3107
g100
g101
ssg82
g3096
sg75
(lp3108
S':'
asbag68
(g89
g70
NtRp3109
(dp3110
g73
(dp3111
sg82
g3096
sg75
(lp3112
g68
(g69
g70
NtRp3113
(dp3114
g73
(dp3115
g81
I3
ssg82
g3109
sg75
(lp3116
g1533
asbasbasbag68
(g84
g70
NtRp3117
(dp3118
g73
(dp3119
sg82
g2819
sg75
(lp3120
g68
(g89
g70
NtRp3121
(dp3122
g73
(dp3123
g93
g94
ssg82
g3117
sg75
(lp3124
S'SCRIPT_NAME'
p3125
asbag68
(g89
g70
NtRp3126
(dp3127
g73
(dp3128
g100
g101
ssg82
g3117
sg75
(lp3129
S':'
asbag68
(g89
g70
NtRp3130
(dp3131
g73
(dp3132
sg82
g3117
sg75
(lp3133
g68
(g69
g70
NtRp3134
(dp3135
g73
(dp3136
g81
I3
ssg82
g3130
sg75
(lp3137
S''
asbasbasbag68
(g84
g70
NtRp3138
(dp3139
g73
(dp3140
sg82
g2819
sg75
(lp3141
g68
(g89
g70
NtRp3142
(dp3143
g73
(dp3144
g93
g94
ssg82
g3138
sg75
(lp3145
S'SERVER_NAME'
p3146
asbag68
(g89
g70
NtRp3147
(dp3148
g73
(dp3149
g100
g101
ssg82
g3138
sg75
(lp3150
S':'
asbag68
(g89
g70
NtRp3151
(dp3152
g73
(dp3153
sg82
g3138
sg75
(lp3154
g68
(g69
g70
NtRp3155
(dp3156
g73
(dp3157
g81
I3
ssg82
g3151
sg75
(lp3158
g1683
asbasbasbag68
(g84
g70
NtRp3159
(dp3160
g73
(dp3161
sg82
g2819
sg75
(lp3162
g68
(g89
g70
NtRp3163
(dp3164
g73
(dp3165
g93
g94
ssg82
g3159
sg75
(lp3166
S'SERVER_PORT'
p3167
asbag68
(g89
g70
NtRp3168
(dp3169
g73
(dp3170
g100
g101
ssg82
g3159
sg75
(lp3171
S':'
asbag68
(g89
g70
NtRp3172
(dp3173
g73
(dp3174
sg82
g3159
sg75
(lp3175
g68
(g69
g70
NtRp3176
(dp3177
g73
(dp3178
g81
I3
ssg82
g3172
sg75
(lp3179
g1705
asbasbasbag68
(g84
g70
NtRp3180
(dp3181
g73
(dp3182
sg82
g2819
sg75
(lp3183
g68
(g89
g70
NtRp3184
(dp3185
g73
(dp3186
g93
g94
ssg82
g3180
sg75
(lp3187
S'SERVER_PROTOCOL'
p3188
asbag68
(g89
g70
NtRp3189
(dp3190
g73
(dp3191
g100
g101
ssg82
g3180
sg75
(lp3192
S':'
asbag68
(g89
g70
NtRp3193
(dp3194
g73
(dp3195
sg82
g3180
sg75
(lp3196
g68
(g69
g70
NtRp3197
(dp3198
g73
(dp3199
g81
I3
ssg82
g3193
sg75
(lp3200
g1727
asbasbasbag68
(g84
g70
NtRp3201
(dp3202
g73
(dp3203
sg82
g2819
sg75
(lp3204
g68
(g89
g70
NtRp3205
(dp3206
g73
(dp3207
g93
g94
ssg82
g3201
sg75
(lp3208
S'SERVER_SOFTWARE'
p3209
asbag68
(g89
g70
NtRp3210
(dp3211
g73
(dp3212
g100
g101
ssg82
g3201
sg75
(lp3213
S':'
asbag68
(g89
g70
NtRp3214
(dp3215
g73
(dp3216
sg82
g3201
sg75
(lp3217
g68
(g69
g70
NtRp3218
(dp3219
g73
(dp3220
g81
I3
ssg82
g3214
sg75
(lp3221
g1749
asbasbasbag68
(g84
g70
NtRp3222
(dp3223
g73
(dp3224
sg82
g2819
sg75
(lp3225
g68
(g89
g70
NtRp3226
(dp3227
g73
(dp3228
g93
g94
ssg82
g3222
sg75
(lp3229
S'wsgi.errors'
p3230
asbag68
(g89
g70
NtRp3231
(dp3232
g73
(dp3233
g100
g101
ssg82
g3222
sg75
(lp3234
S':'
asbag68
(g89
g70
NtRp3235
(dp3236
g73
(dp3237
sg82
g3222
sg75
(lp3238
g68
(g69
g70
NtRp3239
(dp3240
g73
(dp3241
g81
I3
ssg82
g3235
sg75
(lp3242
S"<open file '<stderr>', mode 'w' at 0xb73630d0>"
p3243
asbasbasbag68
(g84
g70
NtRp3244
(dp3245
g73
(dp3246
sg82
g2819
sg75
(lp3247
g68
(g89
g70
NtRp3248
(dp3249
g73
(dp3250
g93
g94
ssg82
g3244
sg75
(lp3251
S'wsgi.file_wrapper'
p3252
asbag68
(g89
g70
NtRp3253
(dp3254
g73
(dp3255
g100
g101
ssg82
g3244
sg75
(lp3256
S':'
asbag68
(g89
g70
NtRp3257
(dp3258
g73
(dp3259
sg82
g3244
sg75
(lp3260
g68
(g69
g70
NtRp3261
(dp3262
g73
(dp3263
g81
I3
ssg82
g3257
sg75
(lp3264
S'<class wsgiref.util.FileWrapper at 0x92ba05c>'
p3265
asbasbasbag68
(g84
g70
NtRp3266
(dp3267
g73
(dp3268
sg82
g2819
sg75
(lp3269
g68
(g89
g70
NtRp3270
(dp3271
g73
(dp3272
g93
g94
ssg82
g3266
sg75
(lp3273
S'wsgi.input'
p3274
asbag68
(g89
g70
NtRp3275
(dp3276
g73
(dp3277
g100
g101
ssg82
g3266
sg75
(lp3278
S':'
asbag68
(g89
g70
NtRp3279
(dp3280
g73
(dp3281
sg82
g3266
sg75
(lp3282
g68
(g69
g70
NtRp3283
(dp3284
g73
(dp3285
g81
I3
ssg82
g3279
sg75
(lp3286
S'<cStringIO.StringO object at 0xae224de0>'
p3287
asbasbasbag68
(g84
g70
NtRp3288
(dp3289
g73
(dp3290
sg82
g2819
sg75
(lp3291
g68
(g89
g70
NtRp3292
(dp3293
g73
(dp3294
g93
g94
ssg82
g3288
sg75
(lp3295
S'wsgi.multiprocess'
p3296
asbag68
(g89
g70
NtRp3297
(dp3298
g73
(dp3299
g100
g101
ssg82
g3288
sg75
(lp3300
S':'
asbag68
(g89
g70
NtRp3301
(dp3302
g73
(dp3303
sg82
g3288
sg75
(lp3304
g68
(g69
g70
NtRp3305
(dp3306
g73
(dp3307
g81
I3
ssg82
g3301
sg75
(lp3308
g111
asbasbasbag68
(g84
g70
NtRp3309
(dp3310
g73
(dp3311
sg82
g2819
sg75
(lp3312
g68
(g89
g70
NtRp3313
(dp3314
g73
(dp3315
g93
g94
ssg82
g3309
sg75
(lp3316
S'wsgi.multithread'
p3317
asbag68
(g89
g70
NtRp3318
(dp3319
g73
(dp3320
g100
g101
ssg82
g3309
sg75
(lp3321
S':'
asbag68
(g89
g70
NtRp3322
(dp3323
g73
(dp3324
sg82
g3309
sg75
(lp3325
g68
(g69
g70
NtRp3326
(dp3327
g73
(dp3328
g81
I3
ssg82
g3322
sg75
(lp3329
g1966
asbasbasbag68
(g84
g70
NtRp3330
(dp3331
g73
(dp3332
sg82
g2819
sg75
(lp3333
g68
(g89
g70
NtRp3334
(dp3335
g73
(dp3336
g93
g94
ssg82
g3330
sg75
(lp3337
S'wsgi.run_once'
p3338
asbag68
(g89
g70
NtRp3339
(dp3340
g73
(dp3341
g100
g101
ssg82
g3330
sg75
(lp3342
S':'
asbag68
(g89
g70
NtRp3343
(dp3344
g73
(dp3345
sg82
g3330
sg75
(lp3346
g68
(g69
g70
NtRp3347
(dp3348
g73
(dp3349
g81
I3
ssg82
g3343
sg75
(lp3350
g111
asbasbasbag68
(g84
g70
NtRp3351
(dp3352
g73
(dp3353
sg82
g2819
sg75
(lp3354
g68
(g89
g70
NtRp3355
(dp3356
g73
(dp3357
g93
g94
ssg82
g3351
sg75
(lp3358
S'wsgi.url_scheme'
p3359
asbag68
(g89
g70
NtRp3360
(dp3361
g73
(dp3362
g100
g101
ssg82
g3351
sg75
(lp3363
S':'
asbag68
(g89
g70
NtRp3364
(dp3365
g73
(dp3366
sg82
g3351
sg75
(lp3367
g68
(g69
g70
NtRp3368
(dp3369
g73
(dp3370
g81
I3
ssg82
g3364
sg75
(lp3371
g2009
asbasbasbag68
(g84
g70
NtRp3372
(dp3373
g73
(dp3374
sg82
g2819
sg75
(lp3375
g68
(g89
g70
NtRp3376
(dp3377
g73
(dp3378
g93
g94
ssg82
g3372
sg75
(lp3379
S'wsgi.version'
p3380
asbag68
(g89
g70
NtRp3381
(dp3382
g73
(dp3383
g100
g101
ssg82
g3372
sg75
(lp3384
S':'
asbag68
(g89
g70
NtRp3385
(dp3386
g73
(dp3387
sg82
g3372
sg75
(lp3388
g68
(g69
g70
NtRp3389
(dp3390
g73
(dp3391
g81
I3
ssg82
g3385
sg75
(lp3392
S'1'
asbasbasbasbasbasbasbasbasbasbasbasbasbsS'frames'
p3393
(lp3394
(dp3395
S'file'
p3396
S'/home/pankaj/web2py/gluon/restricted.py'
p3397
sS'dump'
p3398
(dp3399
S'code'
p3400
S'\'extends \\\'layout.html\\\'\\nresponse.write(\\\'\\\\n<a href=...eletenews.html">Manage News</a>\\\\n\\\', escape=False)\''
p3401
sS'layer'
p3402
S"'/home/pankaj/web2py/applications/reddit/views/default/adminpage.html'"
p3403
sS'global compile2'
p3404
S'<function compile2>'
p3405
sS'ccode'
p3406
S'undefined'
p3407
ssS'lnum'
p3408
I211
sS'lines'
p3409
(dp3410
I206
S"    environment['__name__'] = '__restricted__'"
p3411
sI207
S'    try:'
p3412
sI208
S'        if isinstance(code, types.CodeType):'
p3413
sI209
S'            ccode = code'
p3414
sI210
S'        else:'
p3415
sI211
S'            ccode = compile2(code, layer)'
p3416
sI212
S'        exec ccode in environment'
p3417
sI213
S'    except HTTP:'
p3418
sI214
S'        raise'
p3419
sI215
S'    except RestrictedError:'
p3420
ssS'call'
p3421
S'(code=\'extends \\\'layout.html\\\'\\nresponse.write(\\\'\\\\n<a href=...eletenews.html">Manage News</a>\\\\n\\\', escape=False)\', environment={\'A\': <class \'gluon.html.A\'>, \'Auth\': <class \'gluon.tools.Auth\'>, \'B\': <class \'gluon.html.B\'>, \'BEAUTIFY\': <class \'gluon.html.BEAUTIFY\'>, \'BODY\': <class \'gluon.html.BODY\'>, \'BR\': <class \'gluon.html.BR\'>, \'BUTTON\': <class \'gluon.html.BUTTON\'>, \'CAT\': <class \'gluon.html.CAT\'>, \'CENTER\': <class \'gluon.html.CENTER\'>, \'CLEANUP\': <class \'gluon.validators.CLEANUP\'>, ...}, layer=\'/home/pankaj/web2py/applications/reddit/views/default/adminpage.html\')'
p3422
sS'func'
p3423
S'restricted'
p3424
sa(dp3425
g3396
S'/home/pankaj/web2py/gluon/restricted.py'
p3426
sg3398
(dp3427
S'builtincompile'
p3428
S'<built-in function compile>'
p3429
sS'code'
p3430
S'\'extends \\\'layout.html\\\'\\nresponse.write(\\\'\\\\n<a href=...eletenews.html">Manage News</a>\\\\n\\\', escape=False)\''
p3431
sS'code.rstrip'
p3432
S'<built-in method rstrip of str object>'
p3433
sS').replace'
p3434
g3407
sS'layer'
p3435
S"'/home/pankaj/web2py/applications/reddit/views/default/adminpage.html'"
p3436
ssg3408
I194
sg3409
(dp3437
I192
S"    The +'\\n' is necessary else compile fails when code ends in a comment."
p3438
sI193
S'    """'
p3439
sI194
S"    return compile(code.rstrip().replace('\\r\\n', '\\n') + '\\n', layer, 'exec')"
p3440
sI195
S''
sI196
S''
sI197
S"def restricted(code, environment=None, layer='Unknown'):"
p3441
sI198
S'    """'
p3442
sI189
S''
sI190
S'def compile2(code, layer):'
p3443
sI191
S'    """'
p3444
ssg3421
S'(code=\'extends \\\'layout.html\\\'\\nresponse.write(\\\'\\\\n<a href=...eletenews.html">Manage News</a>\\\\n\\\', escape=False)\', layer=\'/home/pankaj/web2py/applications/reddit/views/default/adminpage.html\')'
p3445
sg3423
S'compile2'
p3446
sasS'pyver'
p3447
S'Python 2.7.3: /usr/bin/python'
p3448
sS'session'
p3449
g68
(g69
g70
NtRp3450
(dp3451
g73
(dp3452
sg75
(lp3453
g68
(g77
g70
NtRp3454
(dp3455
g73
(dp3456
g81
I5
ssg82
Nsg75
(lp3457
g68
(g84
g70
NtRp3458
(dp3459
g73
(dp3460
sg82
g3454
sg75
(lp3461
g68
(g89
g70
NtRp3462
(dp3463
g73
(dp3464
g93
g94
ssg82
g3458
sg75
(lp3465
S'auth'
p3466
asbag68
(g89
g70
NtRp3467
(dp3468
g73
(dp3469
g100
g101
ssg82
g3458
sg75
(lp3470
S':'
asbag68
(g89
g70
NtRp3471
(dp3472
g73
(dp3473
sg82
g3458
sg75
(lp3474
g68
(g69
g70
NtRp3475
(dp3476
g73
(dp3477
g81
I5
ssg82
g3471
sg75
(lp3478
g68
(g77
g70
NtRp3479
(dp3480
g73
(dp3481
g81
I4
ssg82
Nsg75
(lp3482
g68
(g84
g70
NtRp3483
(dp3484
g73
(dp3485
sg82
g3479
sg75
(lp3486
g68
(g89
g70
NtRp3487
(dp3488
g73
(dp3489
g93
g94
ssg82
g3483
sg75
(lp3490
S'expiration'
p3491
asbag68
(g89
g70
NtRp3492
(dp3493
g73
(dp3494
g100
g101
ssg82
g3483
sg75
(lp3495
S':'
asbag68
(g89
g70
NtRp3496
(dp3497
g73
(dp3498
sg82
g3483
sg75
(lp3499
g68
(g69
g70
NtRp3500
(dp3501
g73
(dp3502
g81
I4
ssg82
g3496
sg75
(lp3503
S'2592000'
p3504
asbasbasbag68
(g84
g70
NtRp3505
(dp3506
g73
(dp3507
sg82
g3479
sg75
(lp3508
g68
(g89
g70
NtRp3509
(dp3510
g73
(dp3511
g93
g94
ssg82
g3505
sg75
(lp3512
S'hmac_key'
p3513
asbag68
(g89
g70
NtRp3514
(dp3515
g73
(dp3516
g100
g101
ssg82
g3505
sg75
(lp3517
S':'
asbag68
(g89
g70
NtRp3518
(dp3519
g73
(dp3520
sg82
g3505
sg75
(lp3521
g68
(g69
g70
NtRp3522
(dp3523
g73
(dp3524
g81
I4
ssg82
g3518
sg75
(lp3525
S'79797afd-14d9-4740-afa2-510ffa539618'
p3526
asbasbasbag68
(g84
g70
NtRp3527
(dp3528
g73
(dp3529
sg82
g3479
sg75
(lp3530
g68
(g89
g70
NtRp3531
(dp3532
g73
(dp3533
g93
g94
ssg82
g3527
sg75
(lp3534
S'last_visit'
p3535
asbag68
(g89
g70
NtRp3536
(dp3537
g73
(dp3538
g100
g101
ssg82
g3527
sg75
(lp3539
S':'
asbag68
(g89
g70
NtRp3540
(dp3541
g73
(dp3542
sg82
g3527
sg75
(lp3543
g68
(g69
g70
NtRp3544
(dp3545
g73
(dp3546
g81
I4
ssg82
g3540
sg75
(lp3547
S'datetime.datetime(2013, 9, 1, 10, 49, 15, 448827)'
p3548
asbasbasbag68
(g84
g70
NtRp3549
(dp3550
g73
(dp3551
sg82
g3479
sg75
(lp3552
g68
(g89
g70
NtRp3553
(dp3554
g73
(dp3555
g93
g94
ssg82
g3549
sg75
(lp3556
S'remember'
p3557
asbag68
(g89
g70
NtRp3558
(dp3559
g73
(dp3560
g100
g101
ssg82
g3549
sg75
(lp3561
S':'
asbag68
(g89
g70
NtRp3562
(dp3563
g73
(dp3564
sg82
g3549
sg75
(lp3565
g68
(g69
g70
NtRp3566
(dp3567
g73
(dp3568
g81
I4
ssg82
g3562
sg75
(lp3569
g1966
asbasbasbag68
(g84
g70
NtRp3570
(dp3571
g73
(dp3572
sg82
g3479
sg75
(lp3573
g68
(g89
g70
NtRp3574
(dp3575
g73
(dp3576
g93
g94
ssg82
g3570
sg75
(lp3577
S'user'
p3578
asbag68
(g89
g70
NtRp3579
(dp3580
g73
(dp3581
g100
g101
ssg82
g3570
sg75
(lp3582
S':'
asbag68
(g89
g70
NtRp3583
(dp3584
g73
(dp3585
sg82
g3570
sg75
(lp3586
g68
(g69
g70
NtRp3587
(dp3588
g73
(dp3589
g81
I4
ssg82
g3583
sg75
(lp3590
g68
(g77
g70
NtRp3591
(dp3592
g73
(dp3593
g81
I3
ssg82
Nsg75
(lp3594
g68
(g84
g70
NtRp3595
(dp3596
g73
(dp3597
sg82
g3591
sg75
(lp3598
g68
(g89
g70
NtRp3599
(dp3600
g73
(dp3601
g93
g94
ssg82
g3595
sg75
(lp3602
S'email'
p3603
asbag68
(g89
g70
NtRp3604
(dp3605
g73
(dp3606
g100
g101
ssg82
g3595
sg75
(lp3607
S':'
asbag68
(g89
g70
NtRp3608
(dp3609
g73
(dp3610
sg82
g3595
sg75
(lp3611
g68
(g69
g70
NtRp3612
(dp3613
g73
(dp3614
g81
I3
ssg82
g3608
sg75
(lp3615
S'pankaj@gmail.com'
p3616
asbasbasbag68
(g84
g70
NtRp3617
(dp3618
g73
(dp3619
sg82
g3591
sg75
(lp3620
g68
(g89
g70
NtRp3621
(dp3622
g73
(dp3623
g93
g94
ssg82
g3617
sg75
(lp3624
S'first_name'
p3625
asbag68
(g89
g70
NtRp3626
(dp3627
g73
(dp3628
g100
g101
ssg82
g3617
sg75
(lp3629
S':'
asbag68
(g89
g70
NtRp3630
(dp3631
g73
(dp3632
sg82
g3617
sg75
(lp3633
g68
(g69
g70
NtRp3634
(dp3635
g73
(dp3636
g81
I3
ssg82
g3630
sg75
(lp3637
S'pankaj'
p3638
asbasbasbag68
(g84
g70
NtRp3639
(dp3640
g73
(dp3641
sg82
g3591
sg75
(lp3642
g68
(g89
g70
NtRp3643
(dp3644
g73
(dp3645
g93
g94
ssg82
g3639
sg75
(lp3646
S'id'
p3647
asbag68
(g89
g70
NtRp3648
(dp3649
g73
(dp3650
g100
g101
ssg82
g3639
sg75
(lp3651
S':'
asbag68
(g89
g70
NtRp3652
(dp3653
g73
(dp3654
sg82
g3639
sg75
(lp3655
g68
(g69
g70
NtRp3656
(dp3657
g73
(dp3658
g81
I3
ssg82
g3652
sg75
(lp3659
S'1'
asbasbasbag68
(g84
g70
NtRp3660
(dp3661
g73
(dp3662
sg82
g3591
sg75
(lp3663
g68
(g89
g70
NtRp3664
(dp3665
g73
(dp3666
g93
g94
ssg82
g3660
sg75
(lp3667
S'last_name'
p3668
asbag68
(g89
g70
NtRp3669
(dp3670
g73
(dp3671
g100
g101
ssg82
g3660
sg75
(lp3672
S':'
asbag68
(g89
g70
NtRp3673
(dp3674
g73
(dp3675
sg82
g3660
sg75
(lp3676
g68
(g69
g70
NtRp3677
(dp3678
g73
(dp3679
g81
I3
ssg82
g3673
sg75
(lp3680
S'malhotra'
p3681
asbasbasbag68
(g84
g70
NtRp3682
(dp3683
g73
(dp3684
sg82
g3591
sg75
(lp3685
g68
(g89
g70
NtRp3686
(dp3687
g73
(dp3688
g93
g94
ssg82
g3682
sg75
(lp3689
S'registration_id'
p3690
asbag68
(g89
g70
NtRp3691
(dp3692
g73
(dp3693
g100
g101
ssg82
g3682
sg75
(lp3694
S':'
asbag68
(g89
g70
NtRp3695
(dp3696
g73
(dp3697
sg82
g3682
sg75
(lp3698
g68
(g69
g70
NtRp3699
(dp3700
g73
(dp3701
g81
I3
ssg82
g3695
sg75
(lp3702
S''
asbasbasbag68
(g84
g70
NtRp3703
(dp3704
g73
(dp3705
sg82
g3591
sg75
(lp3706
g68
(g89
g70
NtRp3707
(dp3708
g73
(dp3709
g93
g94
ssg82
g3703
sg75
(lp3710
S'registration_key'
p3711
asbag68
(g89
g70
NtRp3712
(dp3713
g73
(dp3714
g100
g101
ssg82
g3703
sg75
(lp3715
S':'
asbag68
(g89
g70
NtRp3716
(dp3717
g73
(dp3718
sg82
g3703
sg75
(lp3719
g68
(g69
g70
NtRp3720
(dp3721
g73
(dp3722
g81
I3
ssg82
g3716
sg75
(lp3723
S''
asbasbasbag68
(g84
g70
NtRp3724
(dp3725
g73
(dp3726
sg82
g3591
sg75
(lp3727
g68
(g89
g70
NtRp3728
(dp3729
g73
(dp3730
g93
g94
ssg82
g3724
sg75
(lp3731
S'reset_password_key'
p3732
asbag68
(g89
g70
NtRp3733
(dp3734
g73
(dp3735
g100
g101
ssg82
g3724
sg75
(lp3736
S':'
asbag68
(g89
g70
NtRp3737
(dp3738
g73
(dp3739
sg82
g3724
sg75
(lp3740
g68
(g69
g70
NtRp3741
(dp3742
g73
(dp3743
g81
I3
ssg82
g3737
sg75
(lp3744
S''
asbasbasbasbasbasbasbag68
(g84
g70
NtRp3745
(dp3746
g73
(dp3747
sg82
g3479
sg75
(lp3748
g68
(g89
g70
NtRp3749
(dp3750
g73
(dp3751
g93
g94
ssg82
g3745
sg75
(lp3752
S'user_groups'
p3753
asbag68
(g89
g70
NtRp3754
(dp3755
g73
(dp3756
g100
g101
ssg82
g3745
sg75
(lp3757
S':'
asbag68
(g89
g70
NtRp3758
(dp3759
g73
(dp3760
sg82
g3745
sg75
(lp3761
g68
(g69
g70
NtRp3762
(dp3763
g73
(dp3764
g81
I4
ssg82
g3758
sg75
(lp3765
g68
(g77
g70
NtRp3766
(dp3767
g73
(dp3768
g81
I3
ssg82
Nsg75
(lp3769
g68
(g84
g70
NtRp3770
(dp3771
g73
(dp3772
sg82
g3766
sg75
(lp3773
g68
(g89
g70
NtRp3774
(dp3775
g73
(dp3776
g93
g94
ssg82
g3770
sg75
(lp3777
S'1'
asbag68
(g89
g70
NtRp3778
(dp3779
g73
(dp3780
g100
g101
ssg82
g3770
sg75
(lp3781
S':'
asbag68
(g89
g70
NtRp3782
(dp3783
g73
(dp3784
sg82
g3770
sg75
(lp3785
g68
(g69
g70
NtRp3786
(dp3787
g73
(dp3788
g81
I3
ssg82
g3782
sg75
(lp3789
S'user_1'
p3790
asbasbasbasbasbasbasbasbasbasbasbag68
(g84
g70
NtRp3791
(dp3792
g73
(dp3793
sg82
g3454
sg75
(lp3794
g68
(g89
g70
NtRp3795
(dp3796
g73
(dp3797
g93
g94
ssg82
g3791
sg75
(lp3798
S'flash'
p3799
asbag68
(g89
g70
NtRp3800
(dp3801
g73
(dp3802
g100
g101
ssg82
g3791
sg75
(lp3803
S':'
asbag68
(g89
g70
NtRp3804
(dp3805
g73
(dp3806
sg82
g3791
sg75
(lp3807
g68
(g69
g70
NtRp3808
(dp3809
g73
(dp3810
g81
I5
ssg82
g3804
sg75
(lp3811
S'None'
p3812
asbasbasbag68
(g84
g70
NtRp3813
(dp3814
g73
(dp3815
sg82
g3454
sg75
(lp3816
g68
(g89
g70
NtRp3817
(dp3818
g73
(dp3819
g93
g94
ssg82
g3813
sg75
(lp3820
S'last_orderby'
p3821
asbag68
(g89
g70
NtRp3822
(dp3823
g73
(dp3824
g100
g101
ssg82
g3813
sg75
(lp3825
S':'
asbag68
(g89
g70
NtRp3826
(dp3827
g73
(dp3828
sg82
g3813
sg75
(lp3829
g68
(g69
g70
NtRp3830
(dp3831
g73
(dp3832
g81
I5
ssg82
g3826
sg75
(lp3833
S'None'
p3834
asbasbasbag68
(g84
g70
NtRp3835
(dp3836
g73
(dp3837
sg82
g3454
sg75
(lp3838
g68
(g89
g70
NtRp3839
(dp3840
g73
(dp3841
g93
g94
ssg82
g3835
sg75
(lp3842
S'last_query'
p3843
asbag68
(g89
g70
NtRp3844
(dp3845
g73
(dp3846
g100
g101
ssg82
g3835
sg75
(lp3847
S':'
asbag68
(g89
g70
NtRp3848
(dp3849
g73
(dp3850
sg82
g3835
sg75
(lp3851
g68
(g69
g70
NtRp3852
(dp3853
g73
(dp3854
g81
I5
ssg82
g3848
sg75
(lp3855
S'db.auth_membership.id>0'
p3856
asbasbasbag68
(g84
g70
NtRp3857
(dp3858
g73
(dp3859
sg82
g3454
sg75
(lp3860
g68
(g89
g70
NtRp3861
(dp3862
g73
(dp3863
g93
g94
ssg82
g3857
sg75
(lp3864
S'newid'
p3865
asbag68
(g89
g70
NtRp3866
(dp3867
g73
(dp3868
g100
g101
ssg82
g3857
sg75
(lp3869
S':'
asbag68
(g89
g70
NtRp3870
(dp3871
g73
(dp3872
sg82
g3857
sg75
(lp3873
g68
(g69
g70
NtRp3874
(dp3875
g73
(dp3876
g81
I5
ssg82
g3870
sg75
(lp3877
S'6'
asbasbasbag68
(g84
g70
NtRp3878
(dp3879
g73
(dp3880
sg82
g3454
sg75
(lp3881
g68
(g89
g70
NtRp3882
(dp3883
g73
(dp3884
g93
g94
ssg82
g3878
sg75
(lp3885
S'newsid'
p3886
asbag68
(g89
g70
NtRp3887
(dp3888
g73
(dp3889
g100
g101
ssg82
g3878
sg75
(lp3890
S':'
asbag68
(g89
g70
NtRp3891
(dp3892
g73
(dp3893
sg82
g3878
sg75
(lp3894
g68
(g69
g70
NtRp3895
(dp3896
g73
(dp3897
g81
I5
ssg82
g3891
sg75
(lp3898
S'6'
asbasbasbasbasbsS'etype'
p3899
S"<type 'exceptions.SyntaxError'>"
p3900
sS'date'
p3901
S'Mon Sep  2 06:09:58 2013'
p3902
sS'response'
p3903
g68
(g69
g70
NtRp3904
(dp3905
g73
(dp3906
sg75
(lp3907
g68
(g77
g70
NtRp3908
(dp3909
g73
(dp3910
g81
I5
ssg82
Nsg75
(lp3911
g68
(g84
g70
NtRp3912
(dp3913
g73
(dp3914
sg82
g3908
sg75
(lp3915
g68
(g89
g70
NtRp3916
(dp3917
g73
(dp3918
g93
g94
ssg82
g3912
sg75
(lp3919
g166
asbag68
(g89
g70
NtRp3920
(dp3921
g73
(dp3922
g100
g101
ssg82
g3912
sg75
(lp3923
S':'
asbag68
(g89
g70
NtRp3924
(dp3925
g73
(dp3926
sg82
g3912
sg75
(lp3927
g68
(g69
g70
NtRp3928
(dp3929
g73
(dp3930
g81
I5
ssg82
g3924
sg75
(lp3931
S'<cStringIO.StringO object at 0xae5b2fc0>'
p3932
asbasbasbag68
(g84
g70
NtRp3933
(dp3934
g73
(dp3935
sg82
g3908
sg75
(lp3936
g68
(g89
g70
NtRp3937
(dp3938
g73
(dp3939
g93
g94
ssg82
g3933
sg75
(lp3940
g254
asbag68
(g89
g70
NtRp3941
(dp3942
g73
(dp3943
g100
g101
ssg82
g3933
sg75
(lp3944
S':'
asbag68
(g89
g70
NtRp3945
(dp3946
g73
(dp3947
sg82
g3933
sg75
(lp3948
g68
(g69
g70
NtRp3949
(dp3950
g73
(dp3951
g81
I5
ssg82
g3945
sg75
(lp3952
g68
(g77
g70
NtRp3953
(dp3954
g73
(dp3955
g81
I4
ssg82
Nsg75
(lp3956
g68
(g84
g70
NtRp3957
(dp3958
g73
(dp3959
sg82
g3953
sg75
(lp3960
g68
(g89
g70
NtRp3961
(dp3962
g73
(dp3963
g93
g94
ssg82
g3957
sg75
(lp3964
S'session_id_reddit'
p3965
asbag68
(g89
g70
NtRp3966
(dp3967
g73
(dp3968
g100
g101
ssg82
g3957
sg75
(lp3969
S':'
asbag68
(g89
g70
NtRp3970
(dp3971
g73
(dp3972
sg82
g3957
sg75
(lp3973
g68
(g69
g70
NtRp3974
(dp3975
g73
(dp3976
g81
I4
ssg82
g3970
sg75
(lp3977
g672
ag68
(g77
g70
NtRp3978
(dp3979
g73
(dp3980
g81
I3
ssg82
Nsg75
(lp3981
g68
(g84
g70
NtRp3982
(dp3983
g73
(dp3984
sg82
g3978
sg75
(lp3985
g68
(g89
g70
NtRp3986
(dp3987
g73
(dp3988
g93
g94
ssg82
g3982
sg75
(lp3989
g305
asbag68
(g89
g70
NtRp3990
(dp3991
g73
(dp3992
g100
g101
ssg82
g3982
sg75
(lp3993
S':'
asbag68
(g89
g70
NtRp3994
(dp3995
g73
(dp3996
sg82
g3982
sg75
(lp3997
g68
(g69
g70
NtRp3998
(dp3999
g73
(dp4000
g81
I3
ssg82
g3994
sg75
(lp4001
S''
asbasbasbag68
(g84
g70
NtRp4002
(dp4003
g73
(dp4004
sg82
g3978
sg75
(lp4005
g68
(g89
g70
NtRp4006
(dp4007
g73
(dp4008
g93
g94
ssg82
g4002
sg75
(lp4009
g326
asbag68
(g89
g70
NtRp4010
(dp4011
g73
(dp4012
g100
g101
ssg82
g4002
sg75
(lp4013
S':'
asbag68
(g89
g70
NtRp4014
(dp4015
g73
(dp4016
sg82
g4002
sg75
(lp4017
g68
(g69
g70
NtRp4018
(dp4019
g73
(dp4020
g81
I3
ssg82
g4014
sg75
(lp4021
S''
asbasbasbag68
(g84
g70
NtRp4022
(dp4023
g73
(dp4024
sg82
g3978
sg75
(lp4025
g68
(g89
g70
NtRp4026
(dp4027
g73
(dp4028
g93
g94
ssg82
g4022
sg75
(lp4029
g347
asbag68
(g89
g70
NtRp4030
(dp4031
g73
(dp4032
g100
g101
ssg82
g4022
sg75
(lp4033
S':'
asbag68
(g89
g70
NtRp4034
(dp4035
g73
(dp4036
sg82
g4022
sg75
(lp4037
g68
(g69
g70
NtRp4038
(dp4039
g73
(dp4040
g81
I3
ssg82
g4034
sg75
(lp4041
S'2592000'
p4042
asbasbasbag68
(g84
g70
NtRp4043
(dp4044
g73
(dp4045
sg82
g3978
sg75
(lp4046
g68
(g89
g70
NtRp4047
(dp4048
g73
(dp4049
g93
g94
ssg82
g4043
sg75
(lp4050
g368
asbag68
(g89
g70
NtRp4051
(dp4052
g73
(dp4053
g100
g101
ssg82
g4043
sg75
(lp4054
S':'
asbag68
(g89
g70
NtRp4055
(dp4056
g73
(dp4057
sg82
g4043
sg75
(lp4058
g68
(g69
g70
NtRp4059
(dp4060
g73
(dp4061
g81
I3
ssg82
g4055
sg75
(lp4062
S''
asbasbasbag68
(g84
g70
NtRp4063
(dp4064
g73
(dp4065
sg82
g3978
sg75
(lp4066
g68
(g89
g70
NtRp4067
(dp4068
g73
(dp4069
g93
g94
ssg82
g4063
sg75
(lp4070
g389
asbag68
(g89
g70
NtRp4071
(dp4072
g73
(dp4073
g100
g101
ssg82
g4063
sg75
(lp4074
S':'
asbag68
(g89
g70
NtRp4075
(dp4076
g73
(dp4077
sg82
g4063
sg75
(lp4078
g68
(g69
g70
NtRp4079
(dp4080
g73
(dp4081
g81
I3
ssg82
g4075
sg75
(lp4082
S''
asbasbasbag68
(g84
g70
NtRp4083
(dp4084
g73
(dp4085
sg82
g3978
sg75
(lp4086
g68
(g89
g70
NtRp4087
(dp4088
g73
(dp4089
g93
g94
ssg82
g4083
sg75
(lp4090
g410
asbag68
(g89
g70
NtRp4091
(dp4092
g73
(dp4093
g100
g101
ssg82
g4083
sg75
(lp4094
S':'
asbag68
(g89
g70
NtRp4095
(dp4096
g73
(dp4097
sg82
g4083
sg75
(lp4098
g68
(g69
g70
NtRp4099
(dp4100
g73
(dp4101
g81
I3
ssg82
g4095
sg75
(lp4102
S'/'
asbasbasbag68
(g84
g70
NtRp4103
(dp4104
g73
(dp4105
sg82
g3978
sg75
(lp4106
g68
(g89
g70
NtRp4107
(dp4108
g73
(dp4109
g93
g94
ssg82
g4103
sg75
(lp4110
g431
asbag68
(g89
g70
NtRp4111
(dp4112
g73
(dp4113
g100
g101
ssg82
g4103
sg75
(lp4114
S':'
asbag68
(g89
g70
NtRp4115
(dp4116
g73
(dp4117
sg82
g4103
sg75
(lp4118
g68
(g69
g70
NtRp4119
(dp4120
g73
(dp4121
g81
I3
ssg82
g4115
sg75
(lp4122
S''
asbasbasbag68
(g84
g70
NtRp4123
(dp4124
g73
(dp4125
sg82
g3978
sg75
(lp4126
g68
(g89
g70
NtRp4127
(dp4128
g73
(dp4129
g93
g94
ssg82
g4123
sg75
(lp4130
g452
asbag68
(g89
g70
NtRp4131
(dp4132
g73
(dp4133
g100
g101
ssg82
g4123
sg75
(lp4134
S':'
asbag68
(g89
g70
NtRp4135
(dp4136
g73
(dp4137
sg82
g4123
sg75
(lp4138
g68
(g69
g70
NtRp4139
(dp4140
g73
(dp4141
g81
I3
ssg82
g4135
sg75
(lp4142
S''
asbasbasbasbasbasbasbasbasbasbasbag68
(g84
g70
NtRp4143
(dp4144
g73
(dp4145
sg82
g3908
sg75
(lp4146
g68
(g89
g70
NtRp4147
(dp4148
g73
(dp4149
g93
g94
ssg82
g4143
sg75
(lp4150
S'delimiters'
p4151
asbag68
(g89
g70
NtRp4152
(dp4153
g73
(dp4154
g100
g101
ssg82
g4143
sg75
(lp4155
S':'
asbag68
(g89
g70
NtRp4156
(dp4157
g73
(dp4158
sg82
g4143
sg75
(lp4159
g68
(g69
g70
NtRp4160
(dp4161
g73
(dp4162
g81
I5
ssg82
g4156
sg75
(lp4163
g68
(g77
g70
NtRp4164
(dp4165
g73
(dp4166
g81
I4
ssg82
Nsg75
(lp4167
g68
(g84
g70
NtRp4168
(dp4169
g73
(dp4170
sg82
g4164
sg75
(lp4171
g68
(g89
g70
NtRp4172
(dp4173
g73
(dp4174
sg82
g4168
sg75
(lp4175
g68
(g69
g70
NtRp4176
(dp4177
g73
(dp4178
g81
I4
ssg82
g4172
sg75
(lp4179
S'{{'
p4180
asbasbasbag68
(g84
g70
NtRp4181
(dp4182
g73
(dp4183
sg82
g4164
sg75
(lp4184
g68
(g89
g70
NtRp4185
(dp4186
g73
(dp4187
sg82
g4181
sg75
(lp4188
g68
(g69
g70
NtRp4189
(dp4190
g73
(dp4191
g81
I4
ssg82
g4185
sg75
(lp4192
S'}}'
p4193
asbasbasbasbasbasbasbag68
(g84
g70
NtRp4194
(dp4195
g73
(dp4196
sg82
g3908
sg75
(lp4197
g68
(g89
g70
NtRp4198
(dp4199
g73
(dp4200
g93
g94
ssg82
g4194
sg75
(lp4201
S'files'
p4202
asbag68
(g89
g70
NtRp4203
(dp4204
g73
(dp4205
g100
g101
ssg82
g4194
sg75
(lp4206
S':'
asbag68
(g89
g70
NtRp4207
(dp4208
g73
(dp4209
sg82
g4194
sg75
(lp4210
g68
(g69
g70
NtRp4211
(dp4212
g73
(dp4213
g81
I5
ssg82
g4207
sg75
(lp4214
g68
(g77
g70
NtRp4215
(dp4216
g73
(dp4217
g81
I4
ssg82
Nsg75
(lp4218
sbasbasbasbag68
(g84
g70
NtRp4219
(dp4220
g73
(dp4221
sg82
g3908
sg75
(lp4222
g68
(g89
g70
NtRp4223
(dp4224
g73
(dp4225
g93
g94
ssg82
g4219
sg75
(lp4226
S'flash'
p4227
asbag68
(g89
g70
NtRp4228
(dp4229
g73
(dp4230
g100
g101
ssg82
g4219
sg75
(lp4231
S':'
asbag68
(g89
g70
NtRp4232
(dp4233
g73
(dp4234
sg82
g4219
sg75
(lp4235
g68
(g69
g70
NtRp4236
(dp4237
g73
(dp4238
g81
I5
ssg82
g4232
sg75
(lp4239
S''
asbasbasbag68
(g84
g70
NtRp4240
(dp4241
g73
(dp4242
sg82
g3908
sg75
(lp4243
g68
(g89
g70
NtRp4244
(dp4245
g73
(dp4246
g93
g94
ssg82
g4240
sg75
(lp4247
S'generic_patterns'
p4248
asbag68
(g89
g70
NtRp4249
(dp4250
g73
(dp4251
g100
g101
ssg82
g4240
sg75
(lp4252
S':'
asbag68
(g89
g70
NtRp4253
(dp4254
g73
(dp4255
sg82
g4240
sg75
(lp4256
g68
(g69
g70
NtRp4257
(dp4258
g73
(dp4259
g81
I5
ssg82
g4253
sg75
(lp4260
g68
(g77
g70
NtRp4261
(dp4262
g73
(dp4263
g81
I4
ssg82
Nsg75
(lp4264
g68
(g84
g70
NtRp4265
(dp4266
g73
(dp4267
sg82
g4261
sg75
(lp4268
g68
(g89
g70
NtRp4269
(dp4270
g73
(dp4271
sg82
g4265
sg75
(lp4272
g68
(g69
g70
NtRp4273
(dp4274
g73
(dp4275
g81
I4
ssg82
g4269
sg75
(lp4276
S'*'
asbasbasbasbasbasbasbag68
(g84
g70
NtRp4277
(dp4278
g73
(dp4279
sg82
g3908
sg75
(lp4280
g68
(g89
g70
NtRp4281
(dp4282
g73
(dp4283
g93
g94
ssg82
g4277
sg75
(lp4284
S'google_analytics_id'
p4285
asbag68
(g89
g70
NtRp4286
(dp4287
g73
(dp4288
g100
g101
ssg82
g4277
sg75
(lp4289
S':'
asbag68
(g89
g70
NtRp4290
(dp4291
g73
(dp4292
sg82
g4277
sg75
(lp4293
g68
(g69
g70
NtRp4294
(dp4295
g73
(dp4296
g81
I5
ssg82
g4290
sg75
(lp4297
S'None'
p4298
asbasbasbag68
(g84
g70
NtRp4299
(dp4300
g73
(dp4301
sg82
g3908
sg75
(lp4302
g68
(g89
g70
NtRp4303
(dp4304
g73
(dp4305
g93
g94
ssg82
g4299
sg75
(lp4306
S'headers'
p4307
asbag68
(g89
g70
NtRp4308
(dp4309
g73
(dp4310
g100
g101
ssg82
g4299
sg75
(lp4311
S':'
asbag68
(g89
g70
NtRp4312
(dp4313
g73
(dp4314
sg82
g4299
sg75
(lp4315
g68
(g69
g70
NtRp4316
(dp4317
g73
(dp4318
g81
I5
ssg82
g4312
sg75
(lp4319
g68
(g77
g70
NtRp4320
(dp4321
g73
(dp4322
g81
I4
ssg82
Nsg75
(lp4323
g68
(g84
g70
NtRp4324
(dp4325
g73
(dp4326
sg82
g4320
sg75
(lp4327
g68
(g89
g70
NtRp4328
(dp4329
g73
(dp4330
g93
g94
ssg82
g4324
sg75
(lp4331
S'X-Powered-By'
p4332
asbag68
(g89
g70
NtRp4333
(dp4334
g73
(dp4335
g100
g101
ssg82
g4324
sg75
(lp4336
S':'
asbag68
(g89
g70
NtRp4337
(dp4338
g73
(dp4339
sg82
g4324
sg75
(lp4340
g68
(g69
g70
NtRp4341
(dp4342
g73
(dp4343
g81
I4
ssg82
g4337
sg75
(lp4344
S'web2py'
p4345
asbasbasbasbasbasbasbag68
(g84
g70
NtRp4346
(dp4347
g73
(dp4348
sg82
g3908
sg75
(lp4349
g68
(g89
g70
NtRp4350
(dp4351
g73
(dp4352
g93
g94
ssg82
g4346
sg75
(lp4353
S'logo'
p4354
asbag68
(g89
g70
NtRp4355
(dp4356
g73
(dp4357
g100
g101
ssg82
g4346
sg75
(lp4358
S':'
asbag68
(g89
g70
NtRp4359
(dp4360
g73
(dp4361
sg82
g4346
sg75
(lp4362
g68
(g69
g70
NtRp4363
(dp4364
g73
(dp4365
g81
I5
ssg82
g4359
sg75
(lp4366
g68
(cgluon.html
A
p4367
g70
NtRp4368
(dp4369
g73
(dp4370
S'_class'
p4371
S'brand'
p4372
sS'_href'
p4373
S'http://www.web2py.com/'
p4374
ssg82
Nsg75
(lp4375
g68
(cgluon.html
B
p4376
g70
NtRp4377
(dp4378
g73
(dp4379
sg82
g4368
sg75
(lp4380
S'web'
p4381
ag68
(cgluon.html
SPAN
p4382
g70
NtRp4383
(dp4384
g73
(dp4385
sg82
g4377
sg75
(lp4386
I2
asbaS'py'
p4387
asbacgluon.html
XML_unpickle
p4388
(S's\r\x00\x00\x00&trade;&nbsp;'
tRp4389
asbasbasbasbag68
(g84
g70
NtRp4390
(dp4391
g73
(dp4392
sg82
g3908
sg75
(lp4393
g68
(g89
g70
NtRp4394
(dp4395
g73
(dp4396
g93
g94
ssg82
g4390
sg75
(lp4397
S'menu'
p4398
asbag68
(g89
g70
NtRp4399
(dp4400
g73
(dp4401
g100
g101
ssg82
g4390
sg75
(lp4402
S':'
asbag68
(g89
g70
NtRp4403
(dp4404
g73
(dp4405
sg82
g4390
sg75
(lp4406
g68
(g69
g70
NtRp4407
(dp4408
g73
(dp4409
g81
I5
ssg82
g4403
sg75
(lp4410
g68
(g77
g70
NtRp4411
(dp4412
g73
(dp4413
g81
I4
ssg82
Nsg75
(lp4414
g68
(g84
g70
NtRp4415
(dp4416
g73
(dp4417
sg82
g4411
sg75
(lp4418
g68
(g89
g70
NtRp4419
(dp4420
g73
(dp4421
sg82
g4415
sg75
(lp4422
g68
(g69
g70
NtRp4423
(dp4424
g73
(dp4425
g81
I4
ssg82
g4419
sg75
(lp4426
g68
(g77
g70
NtRp4427
(dp4428
g73
(dp4429
g81
I3
ssg82
Nsg75
(lp4430
g68
(g84
g70
NtRp4431
(dp4432
g73
(dp4433
sg82
g4427
sg75
(lp4434
g68
(g89
g70
NtRp4435
(dp4436
g73
(dp4437
sg82
g4431
sg75
(lp4438
g68
(g69
g70
NtRp4439
(dp4440
g73
(dp4441
g81
I3
ssg82
g4435
sg75
(lp4442
cgluon.languages
lazyT_unpickle
p4443
(S's\x04\x00\x00\x00Home'
tRp4444
asbasbasbag68
(g84
g70
NtRp4445
(dp4446
g73
(dp4447
sg82
g4427
sg75
(lp4448
g68
(g89
g70
NtRp4449
(dp4450
g73
(dp4451
sg82
g4445
sg75
(lp4452
g68
(g69
g70
NtRp4453
(dp4454
g73
(dp4455
g81
I3
ssg82
g4449
sg75
(lp4456
g111
asbasbasbag68
(g84
g70
NtRp4457
(dp4458
g73
(dp4459
sg82
g4427
sg75
(lp4460
g68
(g89
g70
NtRp4461
(dp4462
g73
(dp4463
sg82
g4457
sg75
(lp4464
g68
(g69
g70
NtRp4465
(dp4466
g73
(dp4467
g81
I3
ssg82
g4461
sg75
(lp4468
S'/reddit/default/index'
p4469
asbasbasbag68
(g84
g70
NtRp4470
(dp4471
g73
(dp4472
sg82
g4427
sg75
(lp4473
g68
(g89
g70
NtRp4474
(dp4475
g73
(dp4476
sg82
g4470
sg75
(lp4477
g68
(g69
g70
NtRp4478
(dp4479
g73
(dp4480
g81
I3
ssg82
g4474
sg75
(lp4481
g68
(g77
g70
NtRp4482
(dp4483
g73
(dp4484
g81
I2
ssg82
Nsg75
(lp4485
sbasbasbasbasbasbasbasbag68
(g84
g70
NtRp4486
(dp4487
g73
(dp4488
sg82
g4411
sg75
(lp4489
g68
(g89
g70
NtRp4490
(dp4491
g73
(dp4492
sg82
g4486
sg75
(lp4493
g68
(g69
g70
NtRp4494
(dp4495
g73
(dp4496
g81
I4
ssg82
g4490
sg75
(lp4497
g68
(g77
g70
NtRp4498
(dp4499
g73
(dp4500
g81
I3
ssg82
Nsg75
(lp4501
g68
(g84
g70
NtRp4502
(dp4503
g73
(dp4504
sg82
g4498
sg75
(lp4505
g68
(g89
g70
NtRp4506
(dp4507
g73
(dp4508
sg82
g4502
sg75
(lp4509
g68
(g69
g70
NtRp4510
(dp4511
g73
(dp4512
g81
I3
ssg82
g4506
sg75
(lp4513
g68
(g4382
g70
NtRp4514
(dp4515
g73
(dp4516
g4371
S'highlighted'
p4517
ssg82
Nsg75
(lp4518
g4345
asbasbasbasbag68
(g84
g70
NtRp4519
(dp4520
g73
(dp4521
sg82
g4498
sg75
(lp4522
g68
(g89
g70
NtRp4523
(dp4524
g73
(dp4525
sg82
g4519
sg75
(lp4526
g68
(g69
g70
NtRp4527
(dp4528
g73
(dp4529
g81
I3
ssg82
g4523
sg75
(lp4530
g111
asbasbasbag68
(g84
g70
NtRp4531
(dp4532
g73
(dp4533
sg82
g4498
sg75
(lp4534
g68
(g89
g70
NtRp4535
(dp4536
g73
(dp4537
sg82
g4531
sg75
(lp4538
g68
(g69
g70
NtRp4539
(dp4540
g73
(dp4541
g81
I3
ssg82
g4535
sg75
(lp4542
S'http://web2py.com'
p4543
asbasbasbag68
(g84
g70
NtRp4544
(dp4545
g73
(dp4546
sg82
g4498
sg75
(lp4547
g68
(g89
g70
NtRp4548
(dp4549
g73
(dp4550
sg82
g4544
sg75
(lp4551
g68
(g69
g70
NtRp4552
(dp4553
g73
(dp4554
g81
I3
ssg82
g4548
sg75
(lp4555
g68
(g77
g70
NtRp4556
(dp4557
g73
(dp4558
g81
I2
ssg82
Nsg75
(lp4559
g68
(g84
g70
NtRp4560
(dp4561
g73
(dp4562
sg82
g4556
sg75
(lp4563
g68
(g89
g70
NtRp4564
(dp4565
g73
(dp4566
sg82
g4560
sg75
(lp4567
g68
(g69
g70
NtRp4568
(dp4569
g73
(dp4570
g81
I2
ssg82
g4564
sg75
(lp4571
g68
(g77
g70
NtRp4572
(dp4573
g73
(dp4574
g81
I1
ssg82
Nsg75
(lp4575
g68
(g84
g70
NtRp4576
(dp4577
g73
(dp4578
sg82
g4572
sg75
(lp4579
g68
(g89
g70
NtRp4580
(dp4581
g73
(dp4582
sg82
g4576
sg75
(lp4583
g68
(g69
g70
NtRp4584
(dp4585
g73
(dp4586
g81
I1
ssg82
g4580
sg75
(lp4587
g4443
(S's\x08\x00\x00\x00My Sites'
tRp4588
asbasbasbag68
(g84
g70
NtRp4589
(dp4590
g73
(dp4591
sg82
g4572
sg75
(lp4592
g68
(g89
g70
NtRp4593
(dp4594
g73
(dp4595
sg82
g4589
sg75
(lp4596
g68
(g69
g70
NtRp4597
(dp4598
g73
(dp4599
g81
I1
ssg82
g4593
sg75
(lp4600
I00
asbasbasbag68
(g84
g70
NtRp4601
(dp4602
g73
(dp4603
sg82
g4572
sg75
(lp4604
g68
(g89
g70
NtRp4605
(dp4606
g73
(dp4607
sg82
g4601
sg75
(lp4608
g68
(g69
g70
NtRp4609
(dp4610
g73
(dp4611
g81
I1
ssg82
g4605
sg75
(lp4612
S'/admin/default/site'
p4613
asbasbasbasbasbasbasbag68
(g84
g70
NtRp4614
(dp4615
g73
(dp4616
sg82
g4556
sg75
(lp4617
g68
(g89
g70
NtRp4618
(dp4619
g73
(dp4620
sg82
g4614
sg75
(lp4621
g68
(g69
g70
NtRp4622
(dp4623
g73
(dp4624
g81
I2
ssg82
g4618
sg75
(lp4625
g68
(g77
g70
NtRp4626
(dp4627
g73
(dp4628
g81
I1
ssg82
Nsg75
(lp4629
g68
(g84
g70
NtRp4630
(dp4631
g73
(dp4632
sg82
g4626
sg75
(lp4633
g68
(g89
g70
NtRp4634
(dp4635
g73
(dp4636
sg82
g4630
sg75
(lp4637
g68
(g69
g70
NtRp4638
(dp4639
g73
(dp4640
g81
I1
ssg82
g4634
sg75
(lp4641
g4443
(S's\x08\x00\x00\x00This App'
tRp4642
asbasbasbag68
(g84
g70
NtRp4643
(dp4644
g73
(dp4645
sg82
g4626
sg75
(lp4646
g68
(g89
g70
NtRp4647
(dp4648
g73
(dp4649
sg82
g4643
sg75
(lp4650
g68
(g69
g70
NtRp4651
(dp4652
g73
(dp4653
g81
I1
ssg82
g4647
sg75
(lp4654
I00
asbasbasbag68
(g84
g70
NtRp4655
(dp4656
g73
(dp4657
sg82
g4626
sg75
(lp4658
g68
(g89
g70
NtRp4659
(dp4660
g73
(dp4661
sg82
g4655
sg75
(lp4662
g68
(g69
g70
NtRp4663
(dp4664
g73
(dp4665
g81
I1
ssg82
g4659
sg75
(lp4666
S'/admin/default/design/reddit'
p4667
asbasbasbag68
(g84
g70
NtRp4668
(dp4669
g73
(dp4670
sg82
g4626
sg75
(lp4671
g68
(g89
g70
NtRp4672
(dp4673
g73
(dp4674
sg82
g4668
sg75
(lp4675
g68
(g69
g70
NtRp4676
(dp4677
g73
(dp4678
g81
I1
ssg82
g4672
sg75
(lp4679
(lp4680
(g4443
(S's\n\x00\x00\x00Controller'
tRp4681
I00
S'/admin/default/edit/reddit/controllers/default.py'
tp4682
a(g4443
(S's\x04\x00\x00\x00View'
tRp4683
I00
S'/admin/default/edit/reddit/views/default/adminpage.html'
tp4684
a(g4443
(S's\x06\x00\x00\x00Layout'
tRp4685
I00
S'/admin/default/edit/reddit/views/layout.html'
tp4686
a(g4443
(S's\n\x00\x00\x00Stylesheet'
tRp4687
I00
S'/admin/default/edit/reddit/static/css/web2py.css'
tp4688
a(g4443
(S's\x08\x00\x00\x00DB Model'
tRp4689
I00
S'/admin/default/edit/reddit/models/db.py'
tp4690
a(g4443
(S's\n\x00\x00\x00Menu Model'
tRp4691
I00
S'/admin/default/edit/reddit/models/menu.py'
tp4692
a(g4443
(S's\x08\x00\x00\x00Database'
tRp4693
I00
S'/reddit/appadmin/index'
tp4694
a(g4443
(S's\x06\x00\x00\x00Errors'
tRp4695
I00
S'/admin/default/errors/reddit'
tp4696
a(g4443
(S's\x05\x00\x00\x00About'
tRp4697
I00
S'/admin/default/about/reddit'
tp4698
aasbasbasbasbasbasbasbag68
(g84
g70
NtRp4699
(dp4700
g73
(dp4701
sg82
g4556
sg75
(lp4702
g68
(g89
g70
NtRp4703
(dp4704
g73
(dp4705
sg82
g4699
sg75
(lp4706
g68
(g69
g70
NtRp4707
(dp4708
g73
(dp4709
g81
I2
ssg82
g4703
sg75
(lp4710
g68
(g77
g70
NtRp4711
(dp4712
g73
(dp4713
g81
I1
ssg82
Nsg75
(lp4714
g68
(g84
g70
NtRp4715
(dp4716
g73
(dp4717
sg82
g4711
sg75
(lp4718
g68
(g89
g70
NtRp4719
(dp4720
g73
(dp4721
sg82
g4715
sg75
(lp4722
g68
(g69
g70
NtRp4723
(dp4724
g73
(dp4725
g81
I1
ssg82
g4719
sg75
(lp4726
S'web2py.com'
p4727
asbasbasbag68
(g84
g70
NtRp4728
(dp4729
g73
(dp4730
sg82
g4711
sg75
(lp4731
g68
(g89
g70
NtRp4732
(dp4733
g73
(dp4734
sg82
g4728
sg75
(lp4735
g68
(g69
g70
NtRp4736
(dp4737
g73
(dp4738
g81
I1
ssg82
g4732
sg75
(lp4739
I00
asbasbasbag68
(g84
g70
NtRp4740
(dp4741
g73
(dp4742
sg82
g4711
sg75
(lp4743
g68
(g89
g70
NtRp4744
(dp4745
g73
(dp4746
sg82
g4740
sg75
(lp4747
g68
(g69
g70
NtRp4748
(dp4749
g73
(dp4750
g81
I1
ssg82
g4744
sg75
(lp4751
S'http://www.web2py.com'
p4752
asbasbasbag68
(g84
g70
NtRp4753
(dp4754
g73
(dp4755
sg82
g4711
sg75
(lp4756
g68
(g89
g70
NtRp4757
(dp4758
g73
(dp4759
sg82
g4753
sg75
(lp4760
g68
(g69
g70
NtRp4761
(dp4762
g73
(dp4763
g81
I1
ssg82
g4757
sg75
(lp4764
(lp4765
(g4443
(S's\x08\x00\x00\x00Download'
tRp4766
I00
S'http://www.web2py.com/examples/default/download'
p4767
tp4768
a(g4443
(S's\x07\x00\x00\x00Support'
tRp4769
I00
S'http://www.web2py.com/examples/default/support'
p4770
tp4771
a(g4443
(S's\x04\x00\x00\x00Demo'
tRp4772
I00
S'http://web2py.com/demo_admin'
p4773
tp4774
a(g4443
(S's\x0e\x00\x00\x00Quick Examples'
tRp4775
I00
S'http://web2py.com/examples/default/examples'
p4776
tp4777
a(g4443
(S's\x03\x00\x00\x00FAQ'
tRp4778
I00
S'http://web2py.com/AlterEgo'
p4779
tp4780
a(g4443
(S's\x06\x00\x00\x00Videos'
tRp4781
I00
S'http://www.web2py.com/examples/default/videos/'
p4782
tp4783
a(g4443
(S's\x11\x00\x00\x00Free Applications'
tRp4784
I00
S'http://web2py.com/appliances'
p4785
tp4786
a(g4443
(S's\x07\x00\x00\x00Plugins'
tRp4787
I00
S'http://web2py.com/plugins'
p4788
tp4789
a(g4443
(S's\x07\x00\x00\x00Layouts'
tRp4790
I00
S'http://web2py.com/layouts'
p4791
tp4792
a(g4443
(S's\x07\x00\x00\x00Recipes'
tRp4793
I00
S'http://web2pyslices.com/'
p4794
tp4795
a(g4443
(S's\x08\x00\x00\x00Semantic'
tRp4796
I00
S'http://web2py.com/semantic'
p4797
tp4798
aasbasbasbasbasbasbasbag68
(g84
g70
NtRp4799
(dp4800
g73
(dp4801
sg82
g4556
sg75
(lp4802
g68
(g89
g70
NtRp4803
(dp4804
g73
(dp4805
sg82
g4799
sg75
(lp4806
g68
(g69
g70
NtRp4807
(dp4808
g73
(dp4809
g81
I2
ssg82
g4803
sg75
(lp4810
g68
(g77
g70
NtRp4811
(dp4812
g73
(dp4813
g81
I1
ssg82
Nsg75
(lp4814
g68
(g84
g70
NtRp4815
(dp4816
g73
(dp4817
sg82
g4811
sg75
(lp4818
g68
(g89
g70
NtRp4819
(dp4820
g73
(dp4821
sg82
g4815
sg75
(lp4822
g68
(g69
g70
NtRp4823
(dp4824
g73
(dp4825
g81
I1
ssg82
g4819
sg75
(lp4826
g4443
(S's\r\x00\x00\x00Documentation'
tRp4827
asbasbasbag68
(g84
g70
NtRp4828
(dp4829
g73
(dp4830
sg82
g4811
sg75
(lp4831
g68
(g89
g70
NtRp4832
(dp4833
g73
(dp4834
sg82
g4828
sg75
(lp4835
g68
(g69
g70
NtRp4836
(dp4837
g73
(dp4838
g81
I1
ssg82
g4832
sg75
(lp4839
I00
asbasbasbag68
(g84
g70
NtRp4840
(dp4841
g73
(dp4842
sg82
g4811
sg75
(lp4843
g68
(g89
g70
NtRp4844
(dp4845
g73
(dp4846
sg82
g4840
sg75
(lp4847
g68
(g69
g70
NtRp4848
(dp4849
g73
(dp4850
g81
I1
ssg82
g4844
sg75
(lp4851
S'http://www.web2py.com/book'
p4852
asbasbasbag68
(g84
g70
NtRp4853
(dp4854
g73
(dp4855
sg82
g4811
sg75
(lp4856
g68
(g89
g70
NtRp4857
(dp4858
g73
(dp4859
sg82
g4853
sg75
(lp4860
g68
(g69
g70
NtRp4861
(dp4862
g73
(dp4863
g81
I1
ssg82
g4857
sg75
(lp4864
(lp4865
(g4443
(S's\x07\x00\x00\x00Preface'
tRp4866
I00
S'http://www.web2py.com/book/default/chapter/00'
p4867
tp4868
a(g4443
(S's\x0c\x00\x00\x00Introduction'
tRp4869
I00
S'http://www.web2py.com/book/default/chapter/01'
p4870
tp4871
a(g4443
(S's\x06\x00\x00\x00Python'
tRp4872
I00
S'http://www.web2py.com/book/default/chapter/02'
p4873
tp4874
a(g4443
(S's\x08\x00\x00\x00Overview'
tRp4875
I00
S'http://www.web2py.com/book/default/chapter/03'
p4876
tp4877
a(g4443
(S's\x08\x00\x00\x00The Core'
tRp4878
I00
S'http://www.web2py.com/book/default/chapter/04'
p4879
tp4880
a(g4443
(S's\t\x00\x00\x00The Views'
tRp4881
I00
S'http://www.web2py.com/book/default/chapter/05'
p4882
tp4883
a(g4443
(S's\x08\x00\x00\x00Database'
tRp4884
I00
S'http://www.web2py.com/book/default/chapter/06'
p4885
tp4886
a(g4443
(S's\x14\x00\x00\x00Forms and Validators'
tRp4887
I00
S'http://www.web2py.com/book/default/chapter/07'
p4888
tp4889
a(g4443
(S's\r\x00\x00\x00Email and SMS'
tRp4890
I00
S'http://www.web2py.com/book/default/chapter/08'
p4891
tp4892
a(g4443
(S's\x0e\x00\x00\x00Access Control'
tRp4893
I00
S'http://www.web2py.com/book/default/chapter/09'
p4894
tp4895
a(g4443
(S's\x08\x00\x00\x00Services'
tRp4896
I00
S'http://www.web2py.com/book/default/chapter/10'
p4897
tp4898
a(g4443
(S's\x0c\x00\x00\x00Ajax Recipes'
tRp4899
I00
S'http://www.web2py.com/book/default/chapter/11'
p4900
tp4901
a(g4443
(S's\x16\x00\x00\x00Components and Plugins'
tRp4902
I00
S'http://www.web2py.com/book/default/chapter/12'
p4903
tp4904
a(g4443
(S's\x12\x00\x00\x00Deployment Recipes'
tRp4905
I00
S'http://www.web2py.com/book/default/chapter/13'
p4906
tp4907
a(g4443
(S's\r\x00\x00\x00Other Recipes'
tRp4908
I00
S'http://www.web2py.com/book/default/chapter/14'
p4909
tp4910
a(g4443
(S's\r\x00\x00\x00Buy this book'
tRp4911
I00
S'http://stores.lulu.com/web2py'
p4912
tp4913
aasbasbasbasbasbasbasbag68
(g84
g70
NtRp4914
(dp4915
g73
(dp4916
sg82
g4556
sg75
(lp4917
g68
(g89
g70
NtRp4918
(dp4919
g73
(dp4920
sg82
g4914
sg75
(lp4921
g68
(g69
g70
NtRp4922
(dp4923
g73
(dp4924
g81
I2
ssg82
g4918
sg75
(lp4925
g68
(g77
g70
NtRp4926
(dp4927
g73
(dp4928
g81
I1
ssg82
Nsg75
(lp4929
g68
(g84
g70
NtRp4930
(dp4931
g73
(dp4932
sg82
g4926
sg75
(lp4933
g68
(g89
g70
NtRp4934
(dp4935
g73
(dp4936
sg82
g4930
sg75
(lp4937
g68
(g69
g70
NtRp4938
(dp4939
g73
(dp4940
g81
I1
ssg82
g4934
sg75
(lp4941
g4443
(S's\t\x00\x00\x00Community'
tRp4942
asbasbasbag68
(g84
g70
NtRp4943
(dp4944
g73
(dp4945
sg82
g4926
sg75
(lp4946
g68
(g89
g70
NtRp4947
(dp4948
g73
(dp4949
sg82
g4943
sg75
(lp4950
g68
(g69
g70
NtRp4951
(dp4952
g73
(dp4953
g81
I1
ssg82
g4947
sg75
(lp4954
I00
asbasbasbag68
(g84
g70
NtRp4955
(dp4956
g73
(dp4957
sg82
g4926
sg75
(lp4958
g68
(g89
g70
NtRp4959
(dp4960
g73
(dp4961
sg82
g4955
sg75
(lp4962
g68
(g69
g70
NtRp4963
(dp4964
g73
(dp4965
g81
I1
ssg82
g4959
sg75
(lp4966
Nasbasbasbag68
(g84
g70
NtRp4967
(dp4968
g73
(dp4969
sg82
g4926
sg75
(lp4970
g68
(g89
g70
NtRp4971
(dp4972
g73
(dp4973
sg82
g4967
sg75
(lp4974
g68
(g69
g70
NtRp4975
(dp4976
g73
(dp4977
g81
I1
ssg82
g4971
sg75
(lp4978
(lp4979
(g4443
(S's\x06\x00\x00\x00Groups'
tRp4980
I00
S'http://www.web2py.com/examples/default/usergroups'
p4981
tp4982
a(g4443
(S's\x07\x00\x00\x00Twitter'
tRp4983
I00
S'http://twitter.com/web2py'
p4984
tp4985
a(g4443
(S's\t\x00\x00\x00Live Chat'
tRp4986
I00
S'http://webchat.freenode.net/?channels=web2py'
p4987
tp4988
aasbasbasbasbasbasbasbag68
(g84
g70
NtRp4989
(dp4990
g73
(dp4991
sg82
g4556
sg75
(lp4992
g68
(g89
g70
NtRp4993
(dp4994
g73
(dp4995
sg82
g4989
sg75
(lp4996
g68
(g69
g70
NtRp4997
(dp4998
g73
(dp4999
g81
I2
ssg82
g4993
sg75
(lp5000
g68
(g77
g70
NtRp5001
(dp5002
g73
(dp5003
g81
I1
ssg82
Nsg75
(lp5004
g68
(g84
g70
NtRp5005
(dp5006
g73
(dp5007
sg82
g5001
sg75
(lp5008
g68
(g89
g70
NtRp5009
(dp5010
g73
(dp5011
sg82
g5005
sg75
(lp5012
g68
(g69
g70
NtRp5013
(dp5014
g73
(dp5015
g81
I1
ssg82
g5009
sg75
(lp5016
g4443
(S's\x07\x00\x00\x00Plugins'
tRp5017
asbasbasbag68
(g84
g70
NtRp5018
(dp5019
g73
(dp5020
sg82
g5001
sg75
(lp5021
g68
(g89
g70
NtRp5022
(dp5023
g73
(dp5024
sg82
g5018
sg75
(lp5025
g68
(g69
g70
NtRp5026
(dp5027
g73
(dp5028
g81
I1
ssg82
g5022
sg75
(lp5029
I00
asbasbasbag68
(g84
g70
NtRp5030
(dp5031
g73
(dp5032
sg82
g5001
sg75
(lp5033
g68
(g89
g70
NtRp5034
(dp5035
g73
(dp5036
sg82
g5030
sg75
(lp5037
g68
(g69
g70
NtRp5038
(dp5039
g73
(dp5040
g81
I1
ssg82
g5034
sg75
(lp5041
Nasbasbasbag68
(g84
g70
NtRp5042
(dp5043
g73
(dp5044
sg82
g5001
sg75
(lp5045
g68
(g89
g70
NtRp5046
(dp5047
g73
(dp5048
sg82
g5042
sg75
(lp5049
g68
(g69
g70
NtRp5050
(dp5051
g73
(dp5052
g81
I1
ssg82
g5046
sg75
(lp5053
(lp5054
(S'plugin_wiki'
p5055
I00
S'http://web2py.com/examples/default/download'
p5056
tp5057
a(g4443
(S's\r\x00\x00\x00Other Plugins'
tRp5058
I00
g4788
tp5059
a(g4443
(S's\x0e\x00\x00\x00Layout Plugins'
tRp5060
I00
g4791
tp5061
aasbasbasbasbasbasbasbasbasbasbasbasbasbasbasbasbasbasbasbag68
(g84
g70
NtRp5062
(dp5063
g73
(dp5064
sg82
g3908
sg75
(lp5065
g68
(g89
g70
NtRp5066
(dp5067
g73
(dp5068
g93
g94
ssg82
g5062
sg75
(lp5069
S'meta'
p5070
asbag68
(g89
g70
NtRp5071
(dp5072
g73
(dp5073
g100
g101
ssg82
g5062
sg75
(lp5074
S':'
asbag68
(g89
g70
NtRp5075
(dp5076
g73
(dp5077
sg82
g5062
sg75
(lp5078
g68
(g69
g70
NtRp5079
(dp5080
g73
(dp5081
g81
I5
ssg82
g5075
sg75
(lp5082
g68
(g77
g70
NtRp5083
(dp5084
g73
(dp5085
g81
I4
ssg82
Nsg75
(lp5086
g68
(g84
g70
NtRp5087
(dp5088
g73
(dp5089
sg82
g5083
sg75
(lp5090
g68
(g89
g70
NtRp5091
(dp5092
g73
(dp5093
g93
g94
ssg82
g5087
sg75
(lp5094
S'author'
p5095
asbag68
(g89
g70
NtRp5096
(dp5097
g73
(dp5098
g100
g101
ssg82
g5087
sg75
(lp5099
S':'
asbag68
(g89
g70
NtRp5100
(dp5101
g73
(dp5102
sg82
g5087
sg75
(lp5103
g68
(g69
g70
NtRp5104
(dp5105
g73
(dp5106
g81
I4
ssg82
g5100
sg75
(lp5107
S'Your Name <you@example.com>'
p5108
asbasbasbag68
(g84
g70
NtRp5109
(dp5110
g73
(dp5111
sg82
g5083
sg75
(lp5112
g68
(g89
g70
NtRp5113
(dp5114
g73
(dp5115
g93
g94
ssg82
g5109
sg75
(lp5116
S'description'
p5117
asbag68
(g89
g70
NtRp5118
(dp5119
g73
(dp5120
g100
g101
ssg82
g5109
sg75
(lp5121
S':'
asbag68
(g89
g70
NtRp5122
(dp5123
g73
(dp5124
sg82
g5109
sg75
(lp5125
g68
(g69
g70
NtRp5126
(dp5127
g73
(dp5128
g81
I4
ssg82
g5122
sg75
(lp5129
S'a cool new app'
p5130
asbasbasbag68
(g84
g70
NtRp5131
(dp5132
g73
(dp5133
sg82
g5083
sg75
(lp5134
g68
(g89
g70
NtRp5135
(dp5136
g73
(dp5137
g93
g94
ssg82
g5131
sg75
(lp5138
S'generator'
p5139
asbag68
(g89
g70
NtRp5140
(dp5141
g73
(dp5142
g100
g101
ssg82
g5131
sg75
(lp5143
S':'
asbag68
(g89
g70
NtRp5144
(dp5145
g73
(dp5146
sg82
g5131
sg75
(lp5147
g68
(g69
g70
NtRp5148
(dp5149
g73
(dp5150
g81
I4
ssg82
g5144
sg75
(lp5151
S'Web2py Web Framework'
p5152
asbasbasbag68
(g84
g70
NtRp5153
(dp5154
g73
(dp5155
sg82
g5083
sg75
(lp5156
g68
(g89
g70
NtRp5157
(dp5158
g73
(dp5159
g93
g94
ssg82
g5153
sg75
(lp5160
S'keywords'
p5161
asbag68
(g89
g70
NtRp5162
(dp5163
g73
(dp5164
g100
g101
ssg82
g5153
sg75
(lp5165
S':'
asbag68
(g89
g70
NtRp5166
(dp5167
g73
(dp5168
sg82
g5153
sg75
(lp5169
g68
(g69
g70
NtRp5170
(dp5171
g73
(dp5172
g81
I4
ssg82
g5166
sg75
(lp5173
S'web2py, python, framework'
p5174
asbasbasbasbasbasbasbag68
(g84
g70
NtRp5175
(dp5176
g73
(dp5177
sg82
g3908
sg75
(lp5178
g68
(g89
g70
NtRp5179
(dp5180
g73
(dp5181
g93
g94
ssg82
g5175
sg75
(lp5182
S'models_to_run'
p5183
asbag68
(g89
g70
NtRp5184
(dp5185
g73
(dp5186
g100
g101
ssg82
g5175
sg75
(lp5187
S':'
asbag68
(g89
g70
NtRp5188
(dp5189
g73
(dp5190
sg82
g5175
sg75
(lp5191
g68
(g69
g70
NtRp5192
(dp5193
g73
(dp5194
g81
I5
ssg82
g5188
sg75
(lp5195
g68
(g77
g70
NtRp5196
(dp5197
g73
(dp5198
g81
I4
ssg82
Nsg75
(lp5199
g68
(g84
g70
NtRp5200
(dp5201
g73
(dp5202
sg82
g5196
sg75
(lp5203
g68
(g89
g70
NtRp5204
(dp5205
g73
(dp5206
sg82
g5200
sg75
(lp5207
g68
(g69
g70
NtRp5208
(dp5209
g73
(dp5210
g81
I4
ssg82
g5204
sg75
(lp5211
S'^\\w+\\.py$'
p5212
asbasbasbag68
(g84
g70
NtRp5213
(dp5214
g73
(dp5215
sg82
g5196
sg75
(lp5216
g68
(g89
g70
NtRp5217
(dp5218
g73
(dp5219
sg82
g5213
sg75
(lp5220
g68
(g69
g70
NtRp5221
(dp5222
g73
(dp5223
g81
I4
ssg82
g5217
sg75
(lp5224
S'^default/\\w+\\.py$'
p5225
asbasbasbag68
(g84
g70
NtRp5226
(dp5227
g73
(dp5228
sg82
g5196
sg75
(lp5229
g68
(g89
g70
NtRp5230
(dp5231
g73
(dp5232
sg82
g5226
sg75
(lp5233
g68
(g69
g70
NtRp5234
(dp5235
g73
(dp5236
g81
I4
ssg82
g5230
sg75
(lp5237
S'^default/adminpage/\\w+\\.py$'
p5238
asbasbasbasbasbasbasbag68
(g84
g70
NtRp5239
(dp5240
g73
(dp5241
sg82
g3908
sg75
(lp5242
g68
(g89
g70
NtRp5243
(dp5244
g73
(dp5245
g93
g94
ssg82
g5239
sg75
(lp5246
S'postprocessing'
p5247
asbag68
(g89
g70
NtRp5248
(dp5249
g73
(dp5250
g100
g101
ssg82
g5239
sg75
(lp5251
S':'
asbag68
(g89
g70
NtRp5252
(dp5253
g73
(dp5254
sg82
g5239
sg75
(lp5255
g68
(g69
g70
NtRp5256
(dp5257
g73
(dp5258
g81
I5
ssg82
g5252
sg75
(lp5259
g68
(g77
g70
NtRp5260
(dp5261
g73
(dp5262
g81
I4
ssg82
Nsg75
(lp5263
sbasbasbasbag68
(g84
g70
NtRp5264
(dp5265
g73
(dp5266
sg82
g3908
sg75
(lp5267
g68
(g89
g70
NtRp5268
(dp5269
g73
(dp5270
g93
g94
ssg82
g5264
sg75
(lp5271
S'session_cookie_expires'
p5272
asbag68
(g89
g70
NtRp5273
(dp5274
g73
(dp5275
g100
g101
ssg82
g5264
sg75
(lp5276
S':'
asbag68
(g89
g70
NtRp5277
(dp5278
g73
(dp5279
sg82
g5264
sg75
(lp5280
g68
(g69
g70
NtRp5281
(dp5282
g73
(dp5283
g81
I5
ssg82
g5277
sg75
(lp5284
S'None'
p5285
asbasbasbag68
(g84
g70
NtRp5286
(dp5287
g73
(dp5288
sg82
g3908
sg75
(lp5289
g68
(g89
g70
NtRp5290
(dp5291
g73
(dp5292
g93
g94
ssg82
g5286
sg75
(lp5293
S'session_data_name'
p5294
asbag68
(g89
g70
NtRp5295
(dp5296
g73
(dp5297
g100
g101
ssg82
g5286
sg75
(lp5298
S':'
asbag68
(g89
g70
NtRp5299
(dp5300
g73
(dp5301
sg82
g5286
sg75
(lp5302
g68
(g69
g70
NtRp5303
(dp5304
g73
(dp5305
g81
I5
ssg82
g5299
sg75
(lp5306
S'session_data_reddit'
p5307
asbasbasbag68
(g84
g70
NtRp5308
(dp5309
g73
(dp5310
sg82
g3908
sg75
(lp5311
g68
(g89
g70
NtRp5312
(dp5313
g73
(dp5314
g93
g94
ssg82
g5308
sg75
(lp5315
S'session_file'
p5316
asbag68
(g89
g70
NtRp5317
(dp5318
g73
(dp5319
g100
g101
ssg82
g5308
sg75
(lp5320
S':'
asbag68
(g89
g70
NtRp5321
(dp5322
g73
(dp5323
sg82
g5308
sg75
(lp5324
g68
(g69
g70
NtRp5325
(dp5326
g73
(dp5327
g81
I5
ssg82
g5321
sg75
(lp5328
S"<open file '/home/pankaj/web2py/applications/reddit/sessions/127.0.0.1-24289f39-32a1-48fb-a367-22792fb8b813', mode 'rb+' at 0xae7e6498>"
p5329
asbasbasbag68
(g84
g70
NtRp5330
(dp5331
g73
(dp5332
sg82
g3908
sg75
(lp5333
g68
(g89
g70
NtRp5334
(dp5335
g73
(dp5336
g93
g94
ssg82
g5330
sg75
(lp5337
S'session_filename'
p5338
asbag68
(g89
g70
NtRp5339
(dp5340
g73
(dp5341
g100
g101
ssg82
g5330
sg75
(lp5342
S':'
asbag68
(g89
g70
NtRp5343
(dp5344
g73
(dp5345
sg82
g5330
sg75
(lp5346
g68
(g69
g70
NtRp5347
(dp5348
g73
(dp5349
g81
I5
ssg82
g5343
sg75
(lp5350
S'/home/pankaj/web2py/applications/reddit/sessions/127.0.0.1-24289f39-32a1-48fb-a367-22792fb8b813'
p5351
asbasbasbag68
(g84
g70
NtRp5352
(dp5353
g73
(dp5354
sg82
g3908
sg75
(lp5355
g68
(g89
g70
NtRp5356
(dp5357
g73
(dp5358
g93
g94
ssg82
g5352
sg75
(lp5359
S'session_id'
p5360
asbag68
(g89
g70
NtRp5361
(dp5362
g73
(dp5363
g100
g101
ssg82
g5352
sg75
(lp5364
S':'
asbag68
(g89
g70
NtRp5365
(dp5366
g73
(dp5367
sg82
g5352
sg75
(lp5368
g68
(g69
g70
NtRp5369
(dp5370
g73
(dp5371
g81
I5
ssg82
g5365
sg75
(lp5372
g672
asbasbasbag68
(g84
g70
NtRp5373
(dp5374
g73
(dp5375
sg82
g3908
sg75
(lp5376
g68
(g89
g70
NtRp5377
(dp5378
g73
(dp5379
g93
g94
ssg82
g5373
sg75
(lp5380
S'session_id_name'
p5381
asbag68
(g89
g70
NtRp5382
(dp5383
g73
(dp5384
g100
g101
ssg82
g5373
sg75
(lp5385
S':'
asbag68
(g89
g70
NtRp5386
(dp5387
g73
(dp5388
sg82
g5373
sg75
(lp5389
g68
(g69
g70
NtRp5390
(dp5391
g73
(dp5392
g81
I5
ssg82
g5386
sg75
(lp5393
g3965
asbasbasbag68
(g84
g70
NtRp5394
(dp5395
g73
(dp5396
sg82
g3908
sg75
(lp5397
g68
(g89
g70
NtRp5398
(dp5399
g73
(dp5400
g93
g94
ssg82
g5394
sg75
(lp5401
S'session_locked'
p5402
asbag68
(g89
g70
NtRp5403
(dp5404
g73
(dp5405
g100
g101
ssg82
g5394
sg75
(lp5406
S':'
asbag68
(g89
g70
NtRp5407
(dp5408
g73
(dp5409
sg82
g5394
sg75
(lp5410
g68
(g69
g70
NtRp5411
(dp5412
g73
(dp5413
g81
I5
ssg82
g5407
sg75
(lp5414
g1966
asbasbasbag68
(g84
g70
NtRp5415
(dp5416
g73
(dp5417
sg82
g3908
sg75
(lp5418
g68
(g89
g70
NtRp5419
(dp5420
g73
(dp5421
g93
g94
ssg82
g5415
sg75
(lp5422
S'session_new'
p5423
asbag68
(g89
g70
NtRp5424
(dp5425
g73
(dp5426
g100
g101
ssg82
g5415
sg75
(lp5427
S':'
asbag68
(g89
g70
NtRp5428
(dp5429
g73
(dp5430
sg82
g5415
sg75
(lp5431
g68
(g69
g70
NtRp5432
(dp5433
g73
(dp5434
g81
I5
ssg82
g5428
sg75
(lp5435
g111
asbasbasbag68
(g84
g70
NtRp5436
(dp5437
g73
(dp5438
sg82
g3908
sg75
(lp5439
g68
(g89
g70
NtRp5440
(dp5441
g73
(dp5442
g93
g94
ssg82
g5436
sg75
(lp5443
S'session_storage_type'
p5444
asbag68
(g89
g70
NtRp5445
(dp5446
g73
(dp5447
g100
g101
ssg82
g5436
sg75
(lp5448
S':'
asbag68
(g89
g70
NtRp5449
(dp5450
g73
(dp5451
sg82
g5436
sg75
(lp5452
g68
(g69
g70
NtRp5453
(dp5454
g73
(dp5455
g81
I5
ssg82
g5449
sg75
(lp5456
g3396
asbasbasbag68
(g84
g70
NtRp5457
(dp5458
g73
(dp5459
sg82
g3908
sg75
(lp5460
g68
(g89
g70
NtRp5461
(dp5462
g73
(dp5463
g93
g94
ssg82
g5457
sg75
(lp5464
S'status'
p5465
asbag68
(g89
g70
NtRp5466
(dp5467
g73
(dp5468
g100
g101
ssg82
g5457
sg75
(lp5469
S':'
asbag68
(g89
g70
NtRp5470
(dp5471
g73
(dp5472
sg82
g5457
sg75
(lp5473
g68
(g69
g70
NtRp5474
(dp5475
g73
(dp5476
g81
I5
ssg82
g5470
sg75
(lp5477
S'200'
p5478
asbasbasbag68
(g84
g70
NtRp5479
(dp5480
g73
(dp5481
sg82
g3908
sg75
(lp5482
g68
(g89
g70
NtRp5483
(dp5484
g73
(dp5485
g93
g94
ssg82
g5479
sg75
(lp5486
S'subtitle'
p5487
asbag68
(g89
g70
NtRp5488
(dp5489
g73
(dp5490
g100
g101
ssg82
g5479
sg75
(lp5491
S':'
asbag68
(g89
g70
NtRp5492
(dp5493
g73
(dp5494
sg82
g5479
sg75
(lp5495
g68
(g69
g70
NtRp5496
(dp5497
g73
(dp5498
g81
I5
ssg82
g5492
sg75
(lp5499
g4443
(S's\r\x00\x00\x00customize me!'
tRp5500
asbasbasbag68
(g84
g70
NtRp5501
(dp5502
g73
(dp5503
sg82
g3908
sg75
(lp5504
g68
(g89
g70
NtRp5505
(dp5506
g73
(dp5507
g93
g94
ssg82
g5501
sg75
(lp5508
S'title'
p5509
asbag68
(g89
g70
NtRp5510
(dp5511
g73
(dp5512
g100
g101
ssg82
g5501
sg75
(lp5513
S':'
asbag68
(g89
g70
NtRp5514
(dp5515
g73
(dp5516
sg82
g5501
sg75
(lp5517
g68
(g69
g70
NtRp5518
(dp5519
g73
(dp5520
g81
I5
ssg82
g5514
sg75
(lp5521
S'Reddit'
p5522
asbasbasbag68
(g84
g70
NtRp5523
(dp5524
g73
(dp5525
sg82
g3908
sg75
(lp5526
g68
(g89
g70
NtRp5527
(dp5528
g73
(dp5529
g93
g94
ssg82
g5523
sg75
(lp5530
S'view'
p5531
asbag68
(g89
g70
NtRp5532
(dp5533
g73
(dp5534
g100
g101
ssg82
g5523
sg75
(lp5535
S':'
asbag68
(g89
g70
NtRp5536
(dp5537
g73
(dp5538
sg82
g5523
sg75
(lp5539
g68
(g69
g70
NtRp5540
(dp5541
g73
(dp5542
g81
I5
ssg82
g5536
sg75
(lp5543
S'default/adminpage.html'
p5544
asbasbasbasbasbsS'locals'
p5545
(dp5546
g4
S"'/home/pankaj/web2py/applications/reddit/views/default/adminpage.html'"
p5547
sg6
S'\'extends \\\'layout.html\\\'\\nresponse.write(\\\'\\\\n<a href=...eletenews.html">Manage News</a>\\\\n\\\', escape=False)\''
p5548
sssS'traceback'
p5549
S'Traceback (most recent call last):\n  File "/home/pankaj/web2py/gluon/restricted.py", line 211, in restricted\n    ccode = compile2(code, layer)\n  File "/home/pankaj/web2py/gluon/restricted.py", line 194, in compile2\n    return compile(code.rstrip().replace(\'\\r\\n\', \'\\n\') + \'\\n\', layer, \'exec\')\n  File "/home/pankaj/web2py/applications/reddit/views/default/adminpage.html", line 1\n    extends \'layout.html\'\n                        ^\nSyntaxError: invalid syntax\n'
p5550
s.