(dp1
S'output'
p2
S"<type 'exceptions.SyntaxError'> invalid syntax (db.py, line 81)"
p3
sS'layer'
p4
S'/home/pankaj/web2py/applications/reddit/models/db.py'
p5
sS'code'
p6
S"# -*- coding: utf-8 -*-\n\n#########################################################################\n## This scaffolding model makes your app work on Google App Engine too\n## File is released under public domain and you can use without limitations\n#########################################################################\n\n## if SSL/HTTPS is properly configured and you want all HTTP requests to\n## be redirected to HTTPS, uncomment the line below:\n# request.requires_https()\n\nif not request.env.web2py_runtime_gae:\n    ## if NOT running on Google App Engine use SQLite or other DB\n    db = DAL('sqlite://storage.sqlite',pool_size=1,check_reserved=['all'])\nelse:\n    ## connect to Google BigTable (optional 'google:datastore://namespace')\n    db = DAL('google:datastore')\n    ## store sessions and tickets there\n    session.connect(request, response, db=db)\n    ## or store session in Memcache, Redis, etc.\n    ## from gluon.contrib.memdb import MEMDB\n    ## from google.appengine.api.memcache import Client\n    ## session.connect(request, response, db = MEMDB(Client()))\n\n## by default give a view/generic.extension to all actions from localhost\n## none otherwise. a pattern can be 'controller/function.extension'\nresponse.generic_patterns = ['*'] if request.is_local else []\n## (optional) optimize handling of static files\n# response.optimize_css = 'concat,minify,inline'\n# response.optimize_js = 'concat,minify,inline'\n\n#########################################################################\n## Here is sample code if you need for\n## - email capabilities\n## - authentication (registration, login, logout, ... )\n## - authorization (role based authorization)\n## - services (xml, csv, json, xmlrpc, jsonrpc, amf, rss)\n## - old style crud actions\n## (more options discussed in gluon/tools.py)\n#########################################################################\n\nfrom gluon.tools import Auth, Crud, Service, PluginManager, prettydate\nauth = Auth(db)\ncrud, service, plugins = Crud(db), Service(), PluginManager()\n\n## create all tables needed by auth if not custom tables\nauth.define_tables(username=False, signature=False)\n\n## configure email\nmail = auth.settings.mailer\nmail.settings.server = 'logging' or 'smtp.gmail.com:587'\nmail.settings.sender = 'you@gmail.com'\nmail.settings.login = 'username:password'\n\n## configure auth policy\nauth.settings.registration_requires_verification = False\nauth.settings.registration_requires_approval = False\nauth.settings.reset_password_requires_verification = True\n\n## if you need to use OpenID, Facebook, MySpace, Twitter, Linkedin, etc.\n## register with janrain.com, write your domain:api_key in private/janrain.key\nfrom gluon.contrib.login_methods.rpx_account import use_janrain\nuse_janrain(auth, filename='private/janrain.key')\n\n#########################################################################\n## Define your tables below (or better in another model file) for example\n##\n## >>> db.define_table('mytable',Field('myfield','string'))\n##\n## Fields can be 'string','text','password','integer','double','boolean'\n##       'date','time','datetime','blob','upload', 'reference TABLENAME'\n## There is an implicit 'id integer autoincrement' field\n## Consult manual for more options, validators, etc.\n##\n## More API examples for controllers:\n##\n## >>> db.mytable.insert(myfield='value')\n## >>> rows=db(db.mytable.myfield=='value').select(db.mytable.ALL)\n## >>> for row in rows: print row.id, row.myfield\n#########################################################################\ndb.define_table('news',db.Field('head','string',requires=IS_NOT_    EMPTY(),label='Heading'),db.Field('url','string',requires=IS_URL(),label='Link'),db.Field('cat','string',db.category,IS_IN_DB(db,'category.name'),label='Category'),db.Field('username','string',requires=IS_IN_DB(db,'auth_user.username'),label='Username'),db.Field('date','datetime',default=request.now,writable=False,label='Date'),db.Field('rating','integer',default=100,label='Rating'))\n\ndb.define_table('comments',db.Field('comment','text',requires=IS_NOT_EMPTY()),db.Field('username','string',requires=IS_IN_DB(db,'auth_user.username'),label='Username'),db.Field('date','datetime',default=request.now,writable=False,label='Date'),db.Field('rating','integer',default=100,label='Rating'))\n\ndb.define_table('category',db.Field('name','string',requires=IS_NOT_EMPTY(),label='Category'))\n\n\n\n## after defining tables, uncomment below to enable auditing\n# auth.enable_record_versioning(db)\n"
p7
sS'snapshot'
p8
(dp9
S'exception'
p10
(dp11
S'__getslice__'
p12
S"<method-wrapper '__getslice__' of exceptions.SyntaxError object>"
p13
sS'text'
p14
S'"db.define_table(\'news\',db.Field(\'head\',\'string\',...(\'rating\',\'integer\',default=100,label=\'Rating\'))\\n"'
p15
sS'__str__'
p16
S"<method-wrapper '__str__' of exceptions.SyntaxError object>"
p17
sS'__reduce__'
p18
S'<built-in method __reduce__ of exceptions.SyntaxError object>'
p19
sS'__dict__'
p20
S'{}'
p21
sS'__sizeof__'
p22
S'<built-in method __sizeof__ of exceptions.SyntaxError object>'
p23
sS'__init__'
p24
S"<method-wrapper '__init__' of exceptions.SyntaxError object>"
p25
sS'__setattr__'
p26
S"<method-wrapper '__setattr__' of exceptions.SyntaxError object>"
p27
sS'__reduce_ex__'
p28
S'<built-in method __reduce_ex__ of exceptions.SyntaxError object>'
p29
sS'__new__'
p30
S'<built-in method __new__ of type object>'
p31
sS'__format__'
p32
S'<built-in method __format__ of exceptions.SyntaxError object>'
p33
sS'__class__'
p34
S"<type 'exceptions.SyntaxError'>"
p35
sS'filename'
p36
S"'/home/pankaj/web2py/applications/reddit/models/db.py'"
p37
sS'lineno'
p38
S'81'
p39
sS'msg'
p40
S"'invalid syntax'"
p41
sS'__doc__'
p42
S"'Invalid syntax.'"
p43
sS'__getitem__'
p44
S"<method-wrapper '__getitem__' of exceptions.SyntaxError object>"
p45
sS'__setstate__'
p46
S'<built-in method __setstate__ of exceptions.SyntaxError object>'
p47
sS'__getattribute__'
p48
S"<method-wrapper '__getattribute__' of exceptions.SyntaxError object>"
p49
sS'print_file_and_line'
p50
S'None'
p51
sS'args'
p52
S'(\'invalid syntax\', (\'/home/pankaj/web2py/applications/reddit/models/db.py\', 81, 73, "db.define_table(\'news\',db.Field(\'head\',\'string\',...(\'rating\',\'integer\',default=100,label=\'Rating\'))\\n"))'
p53
sS'__subclasshook__'
p54
S'<built-in method __subclasshook__ of type object>'
p55
sS'offset'
p56
S'73'
p57
sS'__unicode__'
p58
S'<built-in method __unicode__ of exceptions.SyntaxError object>'
p59
sS'__delattr__'
p60
S"<method-wrapper '__delattr__' of exceptions.SyntaxError object>"
p61
sS'__repr__'
p62
S"<method-wrapper '__repr__' of exceptions.SyntaxError object>"
p63
sS'__hash__'
p64
S"<method-wrapper '__hash__' of exceptions.SyntaxError object>"
p65
ssS'evalue'
p66
S'invalid syntax (db.py, line 81)'
p67
sS'request'
p68
ccopy_reg
_reconstructor
p69
(cgluon.html
BEAUTIFY
p70
c__builtin__
object
p71
NtRp72
(dp73
S'attributes'
p74
(dp75
sS'components'
p76
(lp77
g69
(cgluon.html
TABLE
p78
g71
NtRp79
(dp80
g74
(dp81
S'level'
p82
I5
ssS'parent'
p83
Nsg76
(lp84
g69
(cgluon.html
TR
p85
g71
NtRp86
(dp87
g74
(dp88
sg83
g79
sg76
(lp89
g69
(cgluon.html
TD
p90
g71
NtRp91
(dp92
g74
(dp93
S'_style'
p94
S'font-weight:bold;vertical-align:top'
p95
ssg83
g86
sg76
(lp96
S'ajax'
p97
asbag69
(g90
g71
NtRp98
(dp99
g74
(dp100
S'_valign'
p101
S'top'
p102
ssg83
g86
sg76
(lp103
S':'
asbag69
(g90
g71
NtRp104
(dp105
g74
(dp106
sg83
g86
sg76
(lp107
g69
(g70
g71
NtRp108
(dp109
g74
(dp110
g82
I5
ssg83
g104
sg76
(lp111
S'False'
p112
asbasbasbag69
(g85
g71
NtRp113
(dp114
g74
(dp115
sg83
g79
sg76
(lp116
g69
(g90
g71
NtRp117
(dp118
g74
(dp119
g94
g95
ssg83
g113
sg76
(lp120
S'application'
p121
asbag69
(g90
g71
NtRp122
(dp123
g74
(dp124
g101
g102
ssg83
g113
sg76
(lp125
S':'
asbag69
(g90
g71
NtRp126
(dp127
g74
(dp128
sg83
g113
sg76
(lp129
g69
(g70
g71
NtRp130
(dp131
g74
(dp132
g82
I5
ssg83
g126
sg76
(lp133
S'reddit'
p134
asbasbasbag69
(g85
g71
NtRp135
(dp136
g74
(dp137
sg83
g79
sg76
(lp138
g69
(g90
g71
NtRp139
(dp140
g74
(dp141
g94
g95
ssg83
g135
sg76
(lp142
g52
asbag69
(g90
g71
NtRp143
(dp144
g74
(dp145
g101
g102
ssg83
g135
sg76
(lp146
S':'
asbag69
(g90
g71
NtRp147
(dp148
g74
(dp149
sg83
g135
sg76
(lp150
g69
(g70
g71
NtRp151
(dp152
g74
(dp153
g82
I5
ssg83
g147
sg76
(lp154
g69
(g78
g71
NtRp155
(dp156
g74
(dp157
g82
I4
ssg83
Nsg76
(lp158
sbasbasbasbag69
(g85
g71
NtRp159
(dp160
g74
(dp161
sg83
g79
sg76
(lp162
g69
(g90
g71
NtRp163
(dp164
g74
(dp165
g94
g95
ssg83
g159
sg76
(lp166
S'body'
p167
asbag69
(g90
g71
NtRp168
(dp169
g74
(dp170
g101
g102
ssg83
g159
sg76
(lp171
S':'
asbag69
(g90
g71
NtRp172
(dp173
g74
(dp174
sg83
g159
sg76
(lp175
g69
(g70
g71
NtRp176
(dp177
g74
(dp178
g82
I5
ssg83
g172
sg76
(lp179
S'<cStringIO.StringO object at 0x8bc46a0>'
p180
asbasbasbag69
(g85
g71
NtRp181
(dp182
g74
(dp183
sg83
g79
sg76
(lp184
g69
(g90
g71
NtRp185
(dp186
g74
(dp187
g94
g95
ssg83
g181
sg76
(lp188
S'cid'
p189
asbag69
(g90
g71
NtRp190
(dp191
g74
(dp192
g101
g102
ssg83
g181
sg76
(lp193
S':'
asbag69
(g90
g71
NtRp194
(dp195
g74
(dp196
sg83
g181
sg76
(lp197
g69
(g70
g71
NtRp198
(dp199
g74
(dp200
g82
I5
ssg83
g194
sg76
(lp201
S'None'
p202
asbasbasbag69
(g85
g71
NtRp203
(dp204
g74
(dp205
sg83
g79
sg76
(lp206
g69
(g90
g71
NtRp207
(dp208
g74
(dp209
g94
g95
ssg83
g203
sg76
(lp210
S'client'
p211
asbag69
(g90
g71
NtRp212
(dp213
g74
(dp214
g101
g102
ssg83
g203
sg76
(lp215
S':'
asbag69
(g90
g71
NtRp216
(dp217
g74
(dp218
sg83
g203
sg76
(lp219
g69
(g70
g71
NtRp220
(dp221
g74
(dp222
g82
I5
ssg83
g216
sg76
(lp223
S'127.0.0.1'
p224
asbasbasbag69
(g85
g71
NtRp225
(dp226
g74
(dp227
sg83
g79
sg76
(lp228
g69
(g90
g71
NtRp229
(dp230
g74
(dp231
g94
g95
ssg83
g225
sg76
(lp232
S'controller'
p233
asbag69
(g90
g71
NtRp234
(dp235
g74
(dp236
g101
g102
ssg83
g225
sg76
(lp237
S':'
asbag69
(g90
g71
NtRp238
(dp239
g74
(dp240
sg83
g225
sg76
(lp241
g69
(g70
g71
NtRp242
(dp243
g74
(dp244
g82
I5
ssg83
g238
sg76
(lp245
S'default'
p246
asbasbasbag69
(g85
g71
NtRp247
(dp248
g74
(dp249
sg83
g79
sg76
(lp250
g69
(g90
g71
NtRp251
(dp252
g74
(dp253
g94
g95
ssg83
g247
sg76
(lp254
S'cookies'
p255
asbag69
(g90
g71
NtRp256
(dp257
g74
(dp258
g101
g102
ssg83
g247
sg76
(lp259
S':'
asbag69
(g90
g71
NtRp260
(dp261
g74
(dp262
sg83
g247
sg76
(lp263
g69
(g70
g71
NtRp264
(dp265
g74
(dp266
g82
I5
ssg83
g260
sg76
(lp267
g69
(g78
g71
NtRp268
(dp269
g74
(dp270
g82
I4
ssg83
Nsg76
(lp271
g69
(g85
g71
NtRp272
(dp273
g74
(dp274
sg83
g268
sg76
(lp275
g69
(g90
g71
NtRp276
(dp277
g74
(dp278
g94
g95
ssg83
g272
sg76
(lp279
S'session_id_20120156_assignment_1'
p280
asbag69
(g90
g71
NtRp281
(dp282
g74
(dp283
g101
g102
ssg83
g272
sg76
(lp284
S':'
asbag69
(g90
g71
NtRp285
(dp286
g74
(dp287
sg83
g272
sg76
(lp288
g69
(g70
g71
NtRp289
(dp290
g74
(dp291
g82
I4
ssg83
g285
sg76
(lp292
S'127.0.0.1-6cad324c-0572-4be8-8f41-6fcaca863c93'
p293
ag69
(g78
g71
NtRp294
(dp295
g74
(dp296
g82
I3
ssg83
Nsg76
(lp297
g69
(g85
g71
NtRp298
(dp299
g74
(dp300
sg83
g294
sg76
(lp301
g69
(g90
g71
NtRp302
(dp303
g74
(dp304
g94
g95
ssg83
g298
sg76
(lp305
S'comment'
p306
asbag69
(g90
g71
NtRp307
(dp308
g74
(dp309
g101
g102
ssg83
g298
sg76
(lp310
S':'
asbag69
(g90
g71
NtRp311
(dp312
g74
(dp313
sg83
g298
sg76
(lp314
g69
(g70
g71
NtRp315
(dp316
g74
(dp317
g82
I3
ssg83
g311
sg76
(lp318
S''
asbasbasbag69
(g85
g71
NtRp319
(dp320
g74
(dp321
sg83
g294
sg76
(lp322
g69
(g90
g71
NtRp323
(dp324
g74
(dp325
g94
g95
ssg83
g319
sg76
(lp326
S'domain'
p327
asbag69
(g90
g71
NtRp328
(dp329
g74
(dp330
g101
g102
ssg83
g319
sg76
(lp331
S':'
asbag69
(g90
g71
NtRp332
(dp333
g74
(dp334
sg83
g319
sg76
(lp335
g69
(g70
g71
NtRp336
(dp337
g74
(dp338
g82
I3
ssg83
g332
sg76
(lp339
S''
asbasbasbag69
(g85
g71
NtRp340
(dp341
g74
(dp342
sg83
g294
sg76
(lp343
g69
(g90
g71
NtRp344
(dp345
g74
(dp346
g94
g95
ssg83
g340
sg76
(lp347
S'expires'
p348
asbag69
(g90
g71
NtRp349
(dp350
g74
(dp351
g101
g102
ssg83
g340
sg76
(lp352
S':'
asbag69
(g90
g71
NtRp353
(dp354
g74
(dp355
sg83
g340
sg76
(lp356
g69
(g70
g71
NtRp357
(dp358
g74
(dp359
g82
I3
ssg83
g353
sg76
(lp360
S''
asbasbasbag69
(g85
g71
NtRp361
(dp362
g74
(dp363
sg83
g294
sg76
(lp364
g69
(g90
g71
NtRp365
(dp366
g74
(dp367
g94
g95
ssg83
g361
sg76
(lp368
S'httponly'
p369
asbag69
(g90
g71
NtRp370
(dp371
g74
(dp372
g101
g102
ssg83
g361
sg76
(lp373
S':'
asbag69
(g90
g71
NtRp374
(dp375
g74
(dp376
sg83
g361
sg76
(lp377
g69
(g70
g71
NtRp378
(dp379
g74
(dp380
g82
I3
ssg83
g374
sg76
(lp381
S''
asbasbasbag69
(g85
g71
NtRp382
(dp383
g74
(dp384
sg83
g294
sg76
(lp385
g69
(g90
g71
NtRp386
(dp387
g74
(dp388
g94
g95
ssg83
g382
sg76
(lp389
S'max-age'
p390
asbag69
(g90
g71
NtRp391
(dp392
g74
(dp393
g101
g102
ssg83
g382
sg76
(lp394
S':'
asbag69
(g90
g71
NtRp395
(dp396
g74
(dp397
sg83
g382
sg76
(lp398
g69
(g70
g71
NtRp399
(dp400
g74
(dp401
g82
I3
ssg83
g395
sg76
(lp402
S''
asbasbasbag69
(g85
g71
NtRp403
(dp404
g74
(dp405
sg83
g294
sg76
(lp406
g69
(g90
g71
NtRp407
(dp408
g74
(dp409
g94
g95
ssg83
g403
sg76
(lp410
S'path'
p411
asbag69
(g90
g71
NtRp412
(dp413
g74
(dp414
g101
g102
ssg83
g403
sg76
(lp415
S':'
asbag69
(g90
g71
NtRp416
(dp417
g74
(dp418
sg83
g403
sg76
(lp419
g69
(g70
g71
NtRp420
(dp421
g74
(dp422
g82
I3
ssg83
g416
sg76
(lp423
S''
asbasbasbag69
(g85
g71
NtRp424
(dp425
g74
(dp426
sg83
g294
sg76
(lp427
g69
(g90
g71
NtRp428
(dp429
g74
(dp430
g94
g95
ssg83
g424
sg76
(lp431
S'secure'
p432
asbag69
(g90
g71
NtRp433
(dp434
g74
(dp435
g101
g102
ssg83
g424
sg76
(lp436
S':'
asbag69
(g90
g71
NtRp437
(dp438
g74
(dp439
sg83
g424
sg76
(lp440
g69
(g70
g71
NtRp441
(dp442
g74
(dp443
g82
I3
ssg83
g437
sg76
(lp444
S''
asbasbasbag69
(g85
g71
NtRp445
(dp446
g74
(dp447
sg83
g294
sg76
(lp448
g69
(g90
g71
NtRp449
(dp450
g74
(dp451
g94
g95
ssg83
g445
sg76
(lp452
S'version'
p453
asbag69
(g90
g71
NtRp454
(dp455
g74
(dp456
g101
g102
ssg83
g445
sg76
(lp457
S':'
asbag69
(g90
g71
NtRp458
(dp459
g74
(dp460
sg83
g445
sg76
(lp461
g69
(g70
g71
NtRp462
(dp463
g74
(dp464
g82
I3
ssg83
g458
sg76
(lp465
S''
asbasbasbasbasbasbasbag69
(g85
g71
NtRp466
(dp467
g74
(dp468
sg83
g268
sg76
(lp469
g69
(g90
g71
NtRp470
(dp471
g74
(dp472
g94
g95
ssg83
g466
sg76
(lp473
S'session_id_admin'
p474
asbag69
(g90
g71
NtRp475
(dp476
g74
(dp477
g101
g102
ssg83
g466
sg76
(lp478
S':'
asbag69
(g90
g71
NtRp479
(dp480
g74
(dp481
sg83
g466
sg76
(lp482
g69
(g70
g71
NtRp483
(dp484
g74
(dp485
g82
I4
ssg83
g479
sg76
(lp486
S'127.0.0.1-eea59e1b-9257-4df1-8c44-da77bf9e4ec2'
p487
ag69
(g78
g71
NtRp488
(dp489
g74
(dp490
g82
I3
ssg83
Nsg76
(lp491
g69
(g85
g71
NtRp492
(dp493
g74
(dp494
sg83
g488
sg76
(lp495
g69
(g90
g71
NtRp496
(dp497
g74
(dp498
g94
g95
ssg83
g492
sg76
(lp499
g306
asbag69
(g90
g71
NtRp500
(dp501
g74
(dp502
g101
g102
ssg83
g492
sg76
(lp503
S':'
asbag69
(g90
g71
NtRp504
(dp505
g74
(dp506
sg83
g492
sg76
(lp507
g69
(g70
g71
NtRp508
(dp509
g74
(dp510
g82
I3
ssg83
g504
sg76
(lp511
S''
asbasbasbag69
(g85
g71
NtRp512
(dp513
g74
(dp514
sg83
g488
sg76
(lp515
g69
(g90
g71
NtRp516
(dp517
g74
(dp518
g94
g95
ssg83
g512
sg76
(lp519
g327
asbag69
(g90
g71
NtRp520
(dp521
g74
(dp522
g101
g102
ssg83
g512
sg76
(lp523
S':'
asbag69
(g90
g71
NtRp524
(dp525
g74
(dp526
sg83
g512
sg76
(lp527
g69
(g70
g71
NtRp528
(dp529
g74
(dp530
g82
I3
ssg83
g524
sg76
(lp531
S''
asbasbasbag69
(g85
g71
NtRp532
(dp533
g74
(dp534
sg83
g488
sg76
(lp535
g69
(g90
g71
NtRp536
(dp537
g74
(dp538
g94
g95
ssg83
g532
sg76
(lp539
g348
asbag69
(g90
g71
NtRp540
(dp541
g74
(dp542
g101
g102
ssg83
g532
sg76
(lp543
S':'
asbag69
(g90
g71
NtRp544
(dp545
g74
(dp546
sg83
g532
sg76
(lp547
g69
(g70
g71
NtRp548
(dp549
g74
(dp550
g82
I3
ssg83
g544
sg76
(lp551
S''
asbasbasbag69
(g85
g71
NtRp552
(dp553
g74
(dp554
sg83
g488
sg76
(lp555
g69
(g90
g71
NtRp556
(dp557
g74
(dp558
g94
g95
ssg83
g552
sg76
(lp559
g369
asbag69
(g90
g71
NtRp560
(dp561
g74
(dp562
g101
g102
ssg83
g552
sg76
(lp563
S':'
asbag69
(g90
g71
NtRp564
(dp565
g74
(dp566
sg83
g552
sg76
(lp567
g69
(g70
g71
NtRp568
(dp569
g74
(dp570
g82
I3
ssg83
g564
sg76
(lp571
S''
asbasbasbag69
(g85
g71
NtRp572
(dp573
g74
(dp574
sg83
g488
sg76
(lp575
g69
(g90
g71
NtRp576
(dp577
g74
(dp578
g94
g95
ssg83
g572
sg76
(lp579
g390
asbag69
(g90
g71
NtRp580
(dp581
g74
(dp582
g101
g102
ssg83
g572
sg76
(lp583
S':'
asbag69
(g90
g71
NtRp584
(dp585
g74
(dp586
sg83
g572
sg76
(lp587
g69
(g70
g71
NtRp588
(dp589
g74
(dp590
g82
I3
ssg83
g584
sg76
(lp591
S''
asbasbasbag69
(g85
g71
NtRp592
(dp593
g74
(dp594
sg83
g488
sg76
(lp595
g69
(g90
g71
NtRp596
(dp597
g74
(dp598
g94
g95
ssg83
g592
sg76
(lp599
g411
asbag69
(g90
g71
NtRp600
(dp601
g74
(dp602
g101
g102
ssg83
g592
sg76
(lp603
S':'
asbag69
(g90
g71
NtRp604
(dp605
g74
(dp606
sg83
g592
sg76
(lp607
g69
(g70
g71
NtRp608
(dp609
g74
(dp610
g82
I3
ssg83
g604
sg76
(lp611
S''
asbasbasbag69
(g85
g71
NtRp612
(dp613
g74
(dp614
sg83
g488
sg76
(lp615
g69
(g90
g71
NtRp616
(dp617
g74
(dp618
g94
g95
ssg83
g612
sg76
(lp619
g432
asbag69
(g90
g71
NtRp620
(dp621
g74
(dp622
g101
g102
ssg83
g612
sg76
(lp623
S':'
asbag69
(g90
g71
NtRp624
(dp625
g74
(dp626
sg83
g612
sg76
(lp627
g69
(g70
g71
NtRp628
(dp629
g74
(dp630
g82
I3
ssg83
g624
sg76
(lp631
S''
asbasbasbag69
(g85
g71
NtRp632
(dp633
g74
(dp634
sg83
g488
sg76
(lp635
g69
(g90
g71
NtRp636
(dp637
g74
(dp638
g94
g95
ssg83
g632
sg76
(lp639
g453
asbag69
(g90
g71
NtRp640
(dp641
g74
(dp642
g101
g102
ssg83
g632
sg76
(lp643
S':'
asbag69
(g90
g71
NtRp644
(dp645
g74
(dp646
sg83
g632
sg76
(lp647
g69
(g70
g71
NtRp648
(dp649
g74
(dp650
g82
I3
ssg83
g644
sg76
(lp651
S''
asbasbasbasbasbasbasbag69
(g85
g71
NtRp652
(dp653
g74
(dp654
sg83
g268
sg76
(lp655
g69
(g90
g71
NtRp656
(dp657
g74
(dp658
g94
g95
ssg83
g652
sg76
(lp659
S'session_id_arihant'
p660
asbag69
(g90
g71
NtRp661
(dp662
g74
(dp663
g101
g102
ssg83
g652
sg76
(lp664
S':'
asbag69
(g90
g71
NtRp665
(dp666
g74
(dp667
sg83
g652
sg76
(lp668
g69
(g70
g71
NtRp669
(dp670
g74
(dp671
g82
I4
ssg83
g665
sg76
(lp672
S'127.0.0.1-fa99deb6-5977-491c-864a-b5d79c0d1842'
p673
ag69
(g78
g71
NtRp674
(dp675
g74
(dp676
g82
I3
ssg83
Nsg76
(lp677
g69
(g85
g71
NtRp678
(dp679
g74
(dp680
sg83
g674
sg76
(lp681
g69
(g90
g71
NtRp682
(dp683
g74
(dp684
g94
g95
ssg83
g678
sg76
(lp685
g306
asbag69
(g90
g71
NtRp686
(dp687
g74
(dp688
g101
g102
ssg83
g678
sg76
(lp689
S':'
asbag69
(g90
g71
NtRp690
(dp691
g74
(dp692
sg83
g678
sg76
(lp693
g69
(g70
g71
NtRp694
(dp695
g74
(dp696
g82
I3
ssg83
g690
sg76
(lp697
S''
asbasbasbag69
(g85
g71
NtRp698
(dp699
g74
(dp700
sg83
g674
sg76
(lp701
g69
(g90
g71
NtRp702
(dp703
g74
(dp704
g94
g95
ssg83
g698
sg76
(lp705
g327
asbag69
(g90
g71
NtRp706
(dp707
g74
(dp708
g101
g102
ssg83
g698
sg76
(lp709
S':'
asbag69
(g90
g71
NtRp710
(dp711
g74
(dp712
sg83
g698
sg76
(lp713
g69
(g70
g71
NtRp714
(dp715
g74
(dp716
g82
I3
ssg83
g710
sg76
(lp717
S''
asbasbasbag69
(g85
g71
NtRp718
(dp719
g74
(dp720
sg83
g674
sg76
(lp721
g69
(g90
g71
NtRp722
(dp723
g74
(dp724
g94
g95
ssg83
g718
sg76
(lp725
g348
asbag69
(g90
g71
NtRp726
(dp727
g74
(dp728
g101
g102
ssg83
g718
sg76
(lp729
S':'
asbag69
(g90
g71
NtRp730
(dp731
g74
(dp732
sg83
g718
sg76
(lp733
g69
(g70
g71
NtRp734
(dp735
g74
(dp736
g82
I3
ssg83
g730
sg76
(lp737
S''
asbasbasbag69
(g85
g71
NtRp738
(dp739
g74
(dp740
sg83
g674
sg76
(lp741
g69
(g90
g71
NtRp742
(dp743
g74
(dp744
g94
g95
ssg83
g738
sg76
(lp745
g369
asbag69
(g90
g71
NtRp746
(dp747
g74
(dp748
g101
g102
ssg83
g738
sg76
(lp749
S':'
asbag69
(g90
g71
NtRp750
(dp751
g74
(dp752
sg83
g738
sg76
(lp753
g69
(g70
g71
NtRp754
(dp755
g74
(dp756
g82
I3
ssg83
g750
sg76
(lp757
S''
asbasbasbag69
(g85
g71
NtRp758
(dp759
g74
(dp760
sg83
g674
sg76
(lp761
g69
(g90
g71
NtRp762
(dp763
g74
(dp764
g94
g95
ssg83
g758
sg76
(lp765
g390
asbag69
(g90
g71
NtRp766
(dp767
g74
(dp768
g101
g102
ssg83
g758
sg76
(lp769
S':'
asbag69
(g90
g71
NtRp770
(dp771
g74
(dp772
sg83
g758
sg76
(lp773
g69
(g70
g71
NtRp774
(dp775
g74
(dp776
g82
I3
ssg83
g770
sg76
(lp777
S''
asbasbasbag69
(g85
g71
NtRp778
(dp779
g74
(dp780
sg83
g674
sg76
(lp781
g69
(g90
g71
NtRp782
(dp783
g74
(dp784
g94
g95
ssg83
g778
sg76
(lp785
g411
asbag69
(g90
g71
NtRp786
(dp787
g74
(dp788
g101
g102
ssg83
g778
sg76
(lp789
S':'
asbag69
(g90
g71
NtRp790
(dp791
g74
(dp792
sg83
g778
sg76
(lp793
g69
(g70
g71
NtRp794
(dp795
g74
(dp796
g82
I3
ssg83
g790
sg76
(lp797
S''
asbasbasbag69
(g85
g71
NtRp798
(dp799
g74
(dp800
sg83
g674
sg76
(lp801
g69
(g90
g71
NtRp802
(dp803
g74
(dp804
g94
g95
ssg83
g798
sg76
(lp805
g432
asbag69
(g90
g71
NtRp806
(dp807
g74
(dp808
g101
g102
ssg83
g798
sg76
(lp809
S':'
asbag69
(g90
g71
NtRp810
(dp811
g74
(dp812
sg83
g798
sg76
(lp813
g69
(g70
g71
NtRp814
(dp815
g74
(dp816
g82
I3
ssg83
g810
sg76
(lp817
S''
asbasbasbag69
(g85
g71
NtRp818
(dp819
g74
(dp820
sg83
g674
sg76
(lp821
g69
(g90
g71
NtRp822
(dp823
g74
(dp824
g94
g95
ssg83
g818
sg76
(lp825
g453
asbag69
(g90
g71
NtRp826
(dp827
g74
(dp828
g101
g102
ssg83
g818
sg76
(lp829
S':'
asbag69
(g90
g71
NtRp830
(dp831
g74
(dp832
sg83
g818
sg76
(lp833
g69
(g70
g71
NtRp834
(dp835
g74
(dp836
g82
I3
ssg83
g830
sg76
(lp837
S''
asbasbasbasbasbasbasbag69
(g85
g71
NtRp838
(dp839
g74
(dp840
sg83
g268
sg76
(lp841
g69
(g90
g71
NtRp842
(dp843
g74
(dp844
g94
g95
ssg83
g838
sg76
(lp845
S'session_id_cataminder'
p846
asbag69
(g90
g71
NtRp847
(dp848
g74
(dp849
g101
g102
ssg83
g838
sg76
(lp850
S':'
asbag69
(g90
g71
NtRp851
(dp852
g74
(dp853
sg83
g838
sg76
(lp854
g69
(g70
g71
NtRp855
(dp856
g74
(dp857
g82
I4
ssg83
g851
sg76
(lp858
S'127.0.0.1-81b628a7-34a5-4e70-a95c-79ef710dcdbb'
p859
ag69
(g78
g71
NtRp860
(dp861
g74
(dp862
g82
I3
ssg83
Nsg76
(lp863
g69
(g85
g71
NtRp864
(dp865
g74
(dp866
sg83
g860
sg76
(lp867
g69
(g90
g71
NtRp868
(dp869
g74
(dp870
g94
g95
ssg83
g864
sg76
(lp871
g306
asbag69
(g90
g71
NtRp872
(dp873
g74
(dp874
g101
g102
ssg83
g864
sg76
(lp875
S':'
asbag69
(g90
g71
NtRp876
(dp877
g74
(dp878
sg83
g864
sg76
(lp879
g69
(g70
g71
NtRp880
(dp881
g74
(dp882
g82
I3
ssg83
g876
sg76
(lp883
S''
asbasbasbag69
(g85
g71
NtRp884
(dp885
g74
(dp886
sg83
g860
sg76
(lp887
g69
(g90
g71
NtRp888
(dp889
g74
(dp890
g94
g95
ssg83
g884
sg76
(lp891
g327
asbag69
(g90
g71
NtRp892
(dp893
g74
(dp894
g101
g102
ssg83
g884
sg76
(lp895
S':'
asbag69
(g90
g71
NtRp896
(dp897
g74
(dp898
sg83
g884
sg76
(lp899
g69
(g70
g71
NtRp900
(dp901
g74
(dp902
g82
I3
ssg83
g896
sg76
(lp903
S''
asbasbasbag69
(g85
g71
NtRp904
(dp905
g74
(dp906
sg83
g860
sg76
(lp907
g69
(g90
g71
NtRp908
(dp909
g74
(dp910
g94
g95
ssg83
g904
sg76
(lp911
g348
asbag69
(g90
g71
NtRp912
(dp913
g74
(dp914
g101
g102
ssg83
g904
sg76
(lp915
S':'
asbag69
(g90
g71
NtRp916
(dp917
g74
(dp918
sg83
g904
sg76
(lp919
g69
(g70
g71
NtRp920
(dp921
g74
(dp922
g82
I3
ssg83
g916
sg76
(lp923
S''
asbasbasbag69
(g85
g71
NtRp924
(dp925
g74
(dp926
sg83
g860
sg76
(lp927
g69
(g90
g71
NtRp928
(dp929
g74
(dp930
g94
g95
ssg83
g924
sg76
(lp931
g369
asbag69
(g90
g71
NtRp932
(dp933
g74
(dp934
g101
g102
ssg83
g924
sg76
(lp935
S':'
asbag69
(g90
g71
NtRp936
(dp937
g74
(dp938
sg83
g924
sg76
(lp939
g69
(g70
g71
NtRp940
(dp941
g74
(dp942
g82
I3
ssg83
g936
sg76
(lp943
S''
asbasbasbag69
(g85
g71
NtRp944
(dp945
g74
(dp946
sg83
g860
sg76
(lp947
g69
(g90
g71
NtRp948
(dp949
g74
(dp950
g94
g95
ssg83
g944
sg76
(lp951
g390
asbag69
(g90
g71
NtRp952
(dp953
g74
(dp954
g101
g102
ssg83
g944
sg76
(lp955
S':'
asbag69
(g90
g71
NtRp956
(dp957
g74
(dp958
sg83
g944
sg76
(lp959
g69
(g70
g71
NtRp960
(dp961
g74
(dp962
g82
I3
ssg83
g956
sg76
(lp963
S''
asbasbasbag69
(g85
g71
NtRp964
(dp965
g74
(dp966
sg83
g860
sg76
(lp967
g69
(g90
g71
NtRp968
(dp969
g74
(dp970
g94
g95
ssg83
g964
sg76
(lp971
g411
asbag69
(g90
g71
NtRp972
(dp973
g74
(dp974
g101
g102
ssg83
g964
sg76
(lp975
S':'
asbag69
(g90
g71
NtRp976
(dp977
g74
(dp978
sg83
g964
sg76
(lp979
g69
(g70
g71
NtRp980
(dp981
g74
(dp982
g82
I3
ssg83
g976
sg76
(lp983
S''
asbasbasbag69
(g85
g71
NtRp984
(dp985
g74
(dp986
sg83
g860
sg76
(lp987
g69
(g90
g71
NtRp988
(dp989
g74
(dp990
g94
g95
ssg83
g984
sg76
(lp991
g432
asbag69
(g90
g71
NtRp992
(dp993
g74
(dp994
g101
g102
ssg83
g984
sg76
(lp995
S':'
asbag69
(g90
g71
NtRp996
(dp997
g74
(dp998
sg83
g984
sg76
(lp999
g69
(g70
g71
NtRp1000
(dp1001
g74
(dp1002
g82
I3
ssg83
g996
sg76
(lp1003
S''
asbasbasbag69
(g85
g71
NtRp1004
(dp1005
g74
(dp1006
sg83
g860
sg76
(lp1007
g69
(g90
g71
NtRp1008
(dp1009
g74
(dp1010
g94
g95
ssg83
g1004
sg76
(lp1011
g453
asbag69
(g90
g71
NtRp1012
(dp1013
g74
(dp1014
g101
g102
ssg83
g1004
sg76
(lp1015
S':'
asbag69
(g90
g71
NtRp1016
(dp1017
g74
(dp1018
sg83
g1004
sg76
(lp1019
g69
(g70
g71
NtRp1020
(dp1021
g74
(dp1022
g82
I3
ssg83
g1016
sg76
(lp1023
S''
asbasbasbasbasbasbasbag69
(g85
g71
NtRp1024
(dp1025
g74
(dp1026
sg83
g268
sg76
(lp1027
g69
(g90
g71
NtRp1028
(dp1029
g74
(dp1030
g94
g95
ssg83
g1024
sg76
(lp1031
S'session_id_courses'
p1032
asbag69
(g90
g71
NtRp1033
(dp1034
g74
(dp1035
g101
g102
ssg83
g1024
sg76
(lp1036
S':'
asbag69
(g90
g71
NtRp1037
(dp1038
g74
(dp1039
sg83
g1024
sg76
(lp1040
g69
(g70
g71
NtRp1041
(dp1042
g74
(dp1043
g82
I4
ssg83
g1037
sg76
(lp1044
S'127.0.0.1-1d46c4eb-fdfc-4abb-bb62-6bcf52d1fcaa'
p1045
ag69
(g78
g71
NtRp1046
(dp1047
g74
(dp1048
g82
I3
ssg83
Nsg76
(lp1049
g69
(g85
g71
NtRp1050
(dp1051
g74
(dp1052
sg83
g1046
sg76
(lp1053
g69
(g90
g71
NtRp1054
(dp1055
g74
(dp1056
g94
g95
ssg83
g1050
sg76
(lp1057
g306
asbag69
(g90
g71
NtRp1058
(dp1059
g74
(dp1060
g101
g102
ssg83
g1050
sg76
(lp1061
S':'
asbag69
(g90
g71
NtRp1062
(dp1063
g74
(dp1064
sg83
g1050
sg76
(lp1065
g69
(g70
g71
NtRp1066
(dp1067
g74
(dp1068
g82
I3
ssg83
g1062
sg76
(lp1069
S''
asbasbasbag69
(g85
g71
NtRp1070
(dp1071
g74
(dp1072
sg83
g1046
sg76
(lp1073
g69
(g90
g71
NtRp1074
(dp1075
g74
(dp1076
g94
g95
ssg83
g1070
sg76
(lp1077
g327
asbag69
(g90
g71
NtRp1078
(dp1079
g74
(dp1080
g101
g102
ssg83
g1070
sg76
(lp1081
S':'
asbag69
(g90
g71
NtRp1082
(dp1083
g74
(dp1084
sg83
g1070
sg76
(lp1085
g69
(g70
g71
NtRp1086
(dp1087
g74
(dp1088
g82
I3
ssg83
g1082
sg76
(lp1089
S''
asbasbasbag69
(g85
g71
NtRp1090
(dp1091
g74
(dp1092
sg83
g1046
sg76
(lp1093
g69
(g90
g71
NtRp1094
(dp1095
g74
(dp1096
g94
g95
ssg83
g1090
sg76
(lp1097
g348
asbag69
(g90
g71
NtRp1098
(dp1099
g74
(dp1100
g101
g102
ssg83
g1090
sg76
(lp1101
S':'
asbag69
(g90
g71
NtRp1102
(dp1103
g74
(dp1104
sg83
g1090
sg76
(lp1105
g69
(g70
g71
NtRp1106
(dp1107
g74
(dp1108
g82
I3
ssg83
g1102
sg76
(lp1109
S''
asbasbasbag69
(g85
g71
NtRp1110
(dp1111
g74
(dp1112
sg83
g1046
sg76
(lp1113
g69
(g90
g71
NtRp1114
(dp1115
g74
(dp1116
g94
g95
ssg83
g1110
sg76
(lp1117
g369
asbag69
(g90
g71
NtRp1118
(dp1119
g74
(dp1120
g101
g102
ssg83
g1110
sg76
(lp1121
S':'
asbag69
(g90
g71
NtRp1122
(dp1123
g74
(dp1124
sg83
g1110
sg76
(lp1125
g69
(g70
g71
NtRp1126
(dp1127
g74
(dp1128
g82
I3
ssg83
g1122
sg76
(lp1129
S''
asbasbasbag69
(g85
g71
NtRp1130
(dp1131
g74
(dp1132
sg83
g1046
sg76
(lp1133
g69
(g90
g71
NtRp1134
(dp1135
g74
(dp1136
g94
g95
ssg83
g1130
sg76
(lp1137
g390
asbag69
(g90
g71
NtRp1138
(dp1139
g74
(dp1140
g101
g102
ssg83
g1130
sg76
(lp1141
S':'
asbag69
(g90
g71
NtRp1142
(dp1143
g74
(dp1144
sg83
g1130
sg76
(lp1145
g69
(g70
g71
NtRp1146
(dp1147
g74
(dp1148
g82
I3
ssg83
g1142
sg76
(lp1149
S''
asbasbasbag69
(g85
g71
NtRp1150
(dp1151
g74
(dp1152
sg83
g1046
sg76
(lp1153
g69
(g90
g71
NtRp1154
(dp1155
g74
(dp1156
g94
g95
ssg83
g1150
sg76
(lp1157
g411
asbag69
(g90
g71
NtRp1158
(dp1159
g74
(dp1160
g101
g102
ssg83
g1150
sg76
(lp1161
S':'
asbag69
(g90
g71
NtRp1162
(dp1163
g74
(dp1164
sg83
g1150
sg76
(lp1165
g69
(g70
g71
NtRp1166
(dp1167
g74
(dp1168
g82
I3
ssg83
g1162
sg76
(lp1169
S''
asbasbasbag69
(g85
g71
NtRp1170
(dp1171
g74
(dp1172
sg83
g1046
sg76
(lp1173
g69
(g90
g71
NtRp1174
(dp1175
g74
(dp1176
g94
g95
ssg83
g1170
sg76
(lp1177
g432
asbag69
(g90
g71
NtRp1178
(dp1179
g74
(dp1180
g101
g102
ssg83
g1170
sg76
(lp1181
S':'
asbag69
(g90
g71
NtRp1182
(dp1183
g74
(dp1184
sg83
g1170
sg76
(lp1185
g69
(g70
g71
NtRp1186
(dp1187
g74
(dp1188
g82
I3
ssg83
g1182
sg76
(lp1189
S''
asbasbasbag69
(g85
g71
NtRp1190
(dp1191
g74
(dp1192
sg83
g1046
sg76
(lp1193
g69
(g90
g71
NtRp1194
(dp1195
g74
(dp1196
g94
g95
ssg83
g1190
sg76
(lp1197
g453
asbag69
(g90
g71
NtRp1198
(dp1199
g74
(dp1200
g101
g102
ssg83
g1190
sg76
(lp1201
S':'
asbag69
(g90
g71
NtRp1202
(dp1203
g74
(dp1204
sg83
g1190
sg76
(lp1205
g69
(g70
g71
NtRp1206
(dp1207
g74
(dp1208
g82
I3
ssg83
g1202
sg76
(lp1209
S''
asbasbasbasbasbasbasbag69
(g85
g71
NtRp1210
(dp1211
g74
(dp1212
sg83
g268
sg76
(lp1213
g69
(g90
g71
NtRp1214
(dp1215
g74
(dp1216
g94
g95
ssg83
g1210
sg76
(lp1217
S'session_id_iiit_fb'
p1218
asbag69
(g90
g71
NtRp1219
(dp1220
g74
(dp1221
g101
g102
ssg83
g1210
sg76
(lp1222
S':'
asbag69
(g90
g71
NtRp1223
(dp1224
g74
(dp1225
sg83
g1210
sg76
(lp1226
g69
(g70
g71
NtRp1227
(dp1228
g74
(dp1229
g82
I4
ssg83
g1223
sg76
(lp1230
S'127.0.0.1-04b7df24-4720-4bb5-98de-96b98776240d'
p1231
ag69
(g78
g71
NtRp1232
(dp1233
g74
(dp1234
g82
I3
ssg83
Nsg76
(lp1235
g69
(g85
g71
NtRp1236
(dp1237
g74
(dp1238
sg83
g1232
sg76
(lp1239
g69
(g90
g71
NtRp1240
(dp1241
g74
(dp1242
g94
g95
ssg83
g1236
sg76
(lp1243
g306
asbag69
(g90
g71
NtRp1244
(dp1245
g74
(dp1246
g101
g102
ssg83
g1236
sg76
(lp1247
S':'
asbag69
(g90
g71
NtRp1248
(dp1249
g74
(dp1250
sg83
g1236
sg76
(lp1251
g69
(g70
g71
NtRp1252
(dp1253
g74
(dp1254
g82
I3
ssg83
g1248
sg76
(lp1255
S''
asbasbasbag69
(g85
g71
NtRp1256
(dp1257
g74
(dp1258
sg83
g1232
sg76
(lp1259
g69
(g90
g71
NtRp1260
(dp1261
g74
(dp1262
g94
g95
ssg83
g1256
sg76
(lp1263
g327
asbag69
(g90
g71
NtRp1264
(dp1265
g74
(dp1266
g101
g102
ssg83
g1256
sg76
(lp1267
S':'
asbag69
(g90
g71
NtRp1268
(dp1269
g74
(dp1270
sg83
g1256
sg76
(lp1271
g69
(g70
g71
NtRp1272
(dp1273
g74
(dp1274
g82
I3
ssg83
g1268
sg76
(lp1275
S''
asbasbasbag69
(g85
g71
NtRp1276
(dp1277
g74
(dp1278
sg83
g1232
sg76
(lp1279
g69
(g90
g71
NtRp1280
(dp1281
g74
(dp1282
g94
g95
ssg83
g1276
sg76
(lp1283
g348
asbag69
(g90
g71
NtRp1284
(dp1285
g74
(dp1286
g101
g102
ssg83
g1276
sg76
(lp1287
S':'
asbag69
(g90
g71
NtRp1288
(dp1289
g74
(dp1290
sg83
g1276
sg76
(lp1291
g69
(g70
g71
NtRp1292
(dp1293
g74
(dp1294
g82
I3
ssg83
g1288
sg76
(lp1295
S''
asbasbasbag69
(g85
g71
NtRp1296
(dp1297
g74
(dp1298
sg83
g1232
sg76
(lp1299
g69
(g90
g71
NtRp1300
(dp1301
g74
(dp1302
g94
g95
ssg83
g1296
sg76
(lp1303
g369
asbag69
(g90
g71
NtRp1304
(dp1305
g74
(dp1306
g101
g102
ssg83
g1296
sg76
(lp1307
S':'
asbag69
(g90
g71
NtRp1308
(dp1309
g74
(dp1310
sg83
g1296
sg76
(lp1311
g69
(g70
g71
NtRp1312
(dp1313
g74
(dp1314
g82
I3
ssg83
g1308
sg76
(lp1315
S''
asbasbasbag69
(g85
g71
NtRp1316
(dp1317
g74
(dp1318
sg83
g1232
sg76
(lp1319
g69
(g90
g71
NtRp1320
(dp1321
g74
(dp1322
g94
g95
ssg83
g1316
sg76
(lp1323
g390
asbag69
(g90
g71
NtRp1324
(dp1325
g74
(dp1326
g101
g102
ssg83
g1316
sg76
(lp1327
S':'
asbag69
(g90
g71
NtRp1328
(dp1329
g74
(dp1330
sg83
g1316
sg76
(lp1331
g69
(g70
g71
NtRp1332
(dp1333
g74
(dp1334
g82
I3
ssg83
g1328
sg76
(lp1335
S''
asbasbasbag69
(g85
g71
NtRp1336
(dp1337
g74
(dp1338
sg83
g1232
sg76
(lp1339
g69
(g90
g71
NtRp1340
(dp1341
g74
(dp1342
g94
g95
ssg83
g1336
sg76
(lp1343
g411
asbag69
(g90
g71
NtRp1344
(dp1345
g74
(dp1346
g101
g102
ssg83
g1336
sg76
(lp1347
S':'
asbag69
(g90
g71
NtRp1348
(dp1349
g74
(dp1350
sg83
g1336
sg76
(lp1351
g69
(g70
g71
NtRp1352
(dp1353
g74
(dp1354
g82
I3
ssg83
g1348
sg76
(lp1355
S''
asbasbasbag69
(g85
g71
NtRp1356
(dp1357
g74
(dp1358
sg83
g1232
sg76
(lp1359
g69
(g90
g71
NtRp1360
(dp1361
g74
(dp1362
g94
g95
ssg83
g1356
sg76
(lp1363
g432
asbag69
(g90
g71
NtRp1364
(dp1365
g74
(dp1366
g101
g102
ssg83
g1356
sg76
(lp1367
S':'
asbag69
(g90
g71
NtRp1368
(dp1369
g74
(dp1370
sg83
g1356
sg76
(lp1371
g69
(g70
g71
NtRp1372
(dp1373
g74
(dp1374
g82
I3
ssg83
g1368
sg76
(lp1375
S''
asbasbasbag69
(g85
g71
NtRp1376
(dp1377
g74
(dp1378
sg83
g1232
sg76
(lp1379
g69
(g90
g71
NtRp1380
(dp1381
g74
(dp1382
g94
g95
ssg83
g1376
sg76
(lp1383
g453
asbag69
(g90
g71
NtRp1384
(dp1385
g74
(dp1386
g101
g102
ssg83
g1376
sg76
(lp1387
S':'
asbag69
(g90
g71
NtRp1388
(dp1389
g74
(dp1390
sg83
g1376
sg76
(lp1391
g69
(g70
g71
NtRp1392
(dp1393
g74
(dp1394
g82
I3
ssg83
g1388
sg76
(lp1395
S''
asbasbasbasbasbasbasbag69
(g85
g71
NtRp1396
(dp1397
g74
(dp1398
sg83
g268
sg76
(lp1399
g69
(g90
g71
NtRp1400
(dp1401
g74
(dp1402
g94
g95
ssg83
g1396
sg76
(lp1403
S'session_id_myapp'
p1404
asbag69
(g90
g71
NtRp1405
(dp1406
g74
(dp1407
g101
g102
ssg83
g1396
sg76
(lp1408
S':'
asbag69
(g90
g71
NtRp1409
(dp1410
g74
(dp1411
sg83
g1396
sg76
(lp1412
g69
(g70
g71
NtRp1413
(dp1414
g74
(dp1415
g82
I4
ssg83
g1409
sg76
(lp1416
S'127.0.0.1-f28af7a6-9d1e-4a86-bd34-27605492a231'
p1417
ag69
(g78
g71
NtRp1418
(dp1419
g74
(dp1420
g82
I3
ssg83
Nsg76
(lp1421
g69
(g85
g71
NtRp1422
(dp1423
g74
(dp1424
sg83
g1418
sg76
(lp1425
g69
(g90
g71
NtRp1426
(dp1427
g74
(dp1428
g94
g95
ssg83
g1422
sg76
(lp1429
g306
asbag69
(g90
g71
NtRp1430
(dp1431
g74
(dp1432
g101
g102
ssg83
g1422
sg76
(lp1433
S':'
asbag69
(g90
g71
NtRp1434
(dp1435
g74
(dp1436
sg83
g1422
sg76
(lp1437
g69
(g70
g71
NtRp1438
(dp1439
g74
(dp1440
g82
I3
ssg83
g1434
sg76
(lp1441
S''
asbasbasbag69
(g85
g71
NtRp1442
(dp1443
g74
(dp1444
sg83
g1418
sg76
(lp1445
g69
(g90
g71
NtRp1446
(dp1447
g74
(dp1448
g94
g95
ssg83
g1442
sg76
(lp1449
g327
asbag69
(g90
g71
NtRp1450
(dp1451
g74
(dp1452
g101
g102
ssg83
g1442
sg76
(lp1453
S':'
asbag69
(g90
g71
NtRp1454
(dp1455
g74
(dp1456
sg83
g1442
sg76
(lp1457
g69
(g70
g71
NtRp1458
(dp1459
g74
(dp1460
g82
I3
ssg83
g1454
sg76
(lp1461
S''
asbasbasbag69
(g85
g71
NtRp1462
(dp1463
g74
(dp1464
sg83
g1418
sg76
(lp1465
g69
(g90
g71
NtRp1466
(dp1467
g74
(dp1468
g94
g95
ssg83
g1462
sg76
(lp1469
g348
asbag69
(g90
g71
NtRp1470
(dp1471
g74
(dp1472
g101
g102
ssg83
g1462
sg76
(lp1473
S':'
asbag69
(g90
g71
NtRp1474
(dp1475
g74
(dp1476
sg83
g1462
sg76
(lp1477
g69
(g70
g71
NtRp1478
(dp1479
g74
(dp1480
g82
I3
ssg83
g1474
sg76
(lp1481
S''
asbasbasbag69
(g85
g71
NtRp1482
(dp1483
g74
(dp1484
sg83
g1418
sg76
(lp1485
g69
(g90
g71
NtRp1486
(dp1487
g74
(dp1488
g94
g95
ssg83
g1482
sg76
(lp1489
g369
asbag69
(g90
g71
NtRp1490
(dp1491
g74
(dp1492
g101
g102
ssg83
g1482
sg76
(lp1493
S':'
asbag69
(g90
g71
NtRp1494
(dp1495
g74
(dp1496
sg83
g1482
sg76
(lp1497
g69
(g70
g71
NtRp1498
(dp1499
g74
(dp1500
g82
I3
ssg83
g1494
sg76
(lp1501
S''
asbasbasbag69
(g85
g71
NtRp1502
(dp1503
g74
(dp1504
sg83
g1418
sg76
(lp1505
g69
(g90
g71
NtRp1506
(dp1507
g74
(dp1508
g94
g95
ssg83
g1502
sg76
(lp1509
g390
asbag69
(g90
g71
NtRp1510
(dp1511
g74
(dp1512
g101
g102
ssg83
g1502
sg76
(lp1513
S':'
asbag69
(g90
g71
NtRp1514
(dp1515
g74
(dp1516
sg83
g1502
sg76
(lp1517
g69
(g70
g71
NtRp1518
(dp1519
g74
(dp1520
g82
I3
ssg83
g1514
sg76
(lp1521
S''
asbasbasbag69
(g85
g71
NtRp1522
(dp1523
g74
(dp1524
sg83
g1418
sg76
(lp1525
g69
(g90
g71
NtRp1526
(dp1527
g74
(dp1528
g94
g95
ssg83
g1522
sg76
(lp1529
g411
asbag69
(g90
g71
NtRp1530
(dp1531
g74
(dp1532
g101
g102
ssg83
g1522
sg76
(lp1533
S':'
asbag69
(g90
g71
NtRp1534
(dp1535
g74
(dp1536
sg83
g1522
sg76
(lp1537
g69
(g70
g71
NtRp1538
(dp1539
g74
(dp1540
g82
I3
ssg83
g1534
sg76
(lp1541
S''
asbasbasbag69
(g85
g71
NtRp1542
(dp1543
g74
(dp1544
sg83
g1418
sg76
(lp1545
g69
(g90
g71
NtRp1546
(dp1547
g74
(dp1548
g94
g95
ssg83
g1542
sg76
(lp1549
g432
asbag69
(g90
g71
NtRp1550
(dp1551
g74
(dp1552
g101
g102
ssg83
g1542
sg76
(lp1553
S':'
asbag69
(g90
g71
NtRp1554
(dp1555
g74
(dp1556
sg83
g1542
sg76
(lp1557
g69
(g70
g71
NtRp1558
(dp1559
g74
(dp1560
g82
I3
ssg83
g1554
sg76
(lp1561
S''
asbasbasbag69
(g85
g71
NtRp1562
(dp1563
g74
(dp1564
sg83
g1418
sg76
(lp1565
g69
(g90
g71
NtRp1566
(dp1567
g74
(dp1568
g94
g95
ssg83
g1562
sg76
(lp1569
g453
asbag69
(g90
g71
NtRp1570
(dp1571
g74
(dp1572
g101
g102
ssg83
g1562
sg76
(lp1573
S':'
asbag69
(g90
g71
NtRp1574
(dp1575
g74
(dp1576
sg83
g1562
sg76
(lp1577
g69
(g70
g71
NtRp1578
(dp1579
g74
(dp1580
g82
I3
ssg83
g1574
sg76
(lp1581
S''
asbasbasbasbasbasbasbag69
(g85
g71
NtRp1582
(dp1583
g74
(dp1584
sg83
g268
sg76
(lp1585
g69
(g90
g71
NtRp1586
(dp1587
g74
(dp1588
g94
g95
ssg83
g1582
sg76
(lp1589
S'session_id_project'
p1590
asbag69
(g90
g71
NtRp1591
(dp1592
g74
(dp1593
g101
g102
ssg83
g1582
sg76
(lp1594
S':'
asbag69
(g90
g71
NtRp1595
(dp1596
g74
(dp1597
sg83
g1582
sg76
(lp1598
g69
(g70
g71
NtRp1599
(dp1600
g74
(dp1601
g82
I4
ssg83
g1595
sg76
(lp1602
S'127.0.0.1-029ca61b-f875-404a-b7ff-1634c44ab767'
p1603
ag69
(g78
g71
NtRp1604
(dp1605
g74
(dp1606
g82
I3
ssg83
Nsg76
(lp1607
g69
(g85
g71
NtRp1608
(dp1609
g74
(dp1610
sg83
g1604
sg76
(lp1611
g69
(g90
g71
NtRp1612
(dp1613
g74
(dp1614
g94
g95
ssg83
g1608
sg76
(lp1615
g306
asbag69
(g90
g71
NtRp1616
(dp1617
g74
(dp1618
g101
g102
ssg83
g1608
sg76
(lp1619
S':'
asbag69
(g90
g71
NtRp1620
(dp1621
g74
(dp1622
sg83
g1608
sg76
(lp1623
g69
(g70
g71
NtRp1624
(dp1625
g74
(dp1626
g82
I3
ssg83
g1620
sg76
(lp1627
S''
asbasbasbag69
(g85
g71
NtRp1628
(dp1629
g74
(dp1630
sg83
g1604
sg76
(lp1631
g69
(g90
g71
NtRp1632
(dp1633
g74
(dp1634
g94
g95
ssg83
g1628
sg76
(lp1635
g327
asbag69
(g90
g71
NtRp1636
(dp1637
g74
(dp1638
g101
g102
ssg83
g1628
sg76
(lp1639
S':'
asbag69
(g90
g71
NtRp1640
(dp1641
g74
(dp1642
sg83
g1628
sg76
(lp1643
g69
(g70
g71
NtRp1644
(dp1645
g74
(dp1646
g82
I3
ssg83
g1640
sg76
(lp1647
S''
asbasbasbag69
(g85
g71
NtRp1648
(dp1649
g74
(dp1650
sg83
g1604
sg76
(lp1651
g69
(g90
g71
NtRp1652
(dp1653
g74
(dp1654
g94
g95
ssg83
g1648
sg76
(lp1655
g348
asbag69
(g90
g71
NtRp1656
(dp1657
g74
(dp1658
g101
g102
ssg83
g1648
sg76
(lp1659
S':'
asbag69
(g90
g71
NtRp1660
(dp1661
g74
(dp1662
sg83
g1648
sg76
(lp1663
g69
(g70
g71
NtRp1664
(dp1665
g74
(dp1666
g82
I3
ssg83
g1660
sg76
(lp1667
S''
asbasbasbag69
(g85
g71
NtRp1668
(dp1669
g74
(dp1670
sg83
g1604
sg76
(lp1671
g69
(g90
g71
NtRp1672
(dp1673
g74
(dp1674
g94
g95
ssg83
g1668
sg76
(lp1675
g369
asbag69
(g90
g71
NtRp1676
(dp1677
g74
(dp1678
g101
g102
ssg83
g1668
sg76
(lp1679
S':'
asbag69
(g90
g71
NtRp1680
(dp1681
g74
(dp1682
sg83
g1668
sg76
(lp1683
g69
(g70
g71
NtRp1684
(dp1685
g74
(dp1686
g82
I3
ssg83
g1680
sg76
(lp1687
S''
asbasbasbag69
(g85
g71
NtRp1688
(dp1689
g74
(dp1690
sg83
g1604
sg76
(lp1691
g69
(g90
g71
NtRp1692
(dp1693
g74
(dp1694
g94
g95
ssg83
g1688
sg76
(lp1695
g390
asbag69
(g90
g71
NtRp1696
(dp1697
g74
(dp1698
g101
g102
ssg83
g1688
sg76
(lp1699
S':'
asbag69
(g90
g71
NtRp1700
(dp1701
g74
(dp1702
sg83
g1688
sg76
(lp1703
g69
(g70
g71
NtRp1704
(dp1705
g74
(dp1706
g82
I3
ssg83
g1700
sg76
(lp1707
S''
asbasbasbag69
(g85
g71
NtRp1708
(dp1709
g74
(dp1710
sg83
g1604
sg76
(lp1711
g69
(g90
g71
NtRp1712
(dp1713
g74
(dp1714
g94
g95
ssg83
g1708
sg76
(lp1715
g411
asbag69
(g90
g71
NtRp1716
(dp1717
g74
(dp1718
g101
g102
ssg83
g1708
sg76
(lp1719
S':'
asbag69
(g90
g71
NtRp1720
(dp1721
g74
(dp1722
sg83
g1708
sg76
(lp1723
g69
(g70
g71
NtRp1724
(dp1725
g74
(dp1726
g82
I3
ssg83
g1720
sg76
(lp1727
S''
asbasbasbag69
(g85
g71
NtRp1728
(dp1729
g74
(dp1730
sg83
g1604
sg76
(lp1731
g69
(g90
g71
NtRp1732
(dp1733
g74
(dp1734
g94
g95
ssg83
g1728
sg76
(lp1735
g432
asbag69
(g90
g71
NtRp1736
(dp1737
g74
(dp1738
g101
g102
ssg83
g1728
sg76
(lp1739
S':'
asbag69
(g90
g71
NtRp1740
(dp1741
g74
(dp1742
sg83
g1728
sg76
(lp1743
g69
(g70
g71
NtRp1744
(dp1745
g74
(dp1746
g82
I3
ssg83
g1740
sg76
(lp1747
S''
asbasbasbag69
(g85
g71
NtRp1748
(dp1749
g74
(dp1750
sg83
g1604
sg76
(lp1751
g69
(g90
g71
NtRp1752
(dp1753
g74
(dp1754
g94
g95
ssg83
g1748
sg76
(lp1755
g453
asbag69
(g90
g71
NtRp1756
(dp1757
g74
(dp1758
g101
g102
ssg83
g1748
sg76
(lp1759
S':'
asbag69
(g90
g71
NtRp1760
(dp1761
g74
(dp1762
sg83
g1748
sg76
(lp1763
g69
(g70
g71
NtRp1764
(dp1765
g74
(dp1766
g82
I3
ssg83
g1760
sg76
(lp1767
S''
asbasbasbasbasbasbasbag69
(g85
g71
NtRp1768
(dp1769
g74
(dp1770
sg83
g268
sg76
(lp1771
g69
(g90
g71
NtRp1772
(dp1773
g74
(dp1774
g94
g95
ssg83
g1768
sg76
(lp1775
S'session_id_testlayout'
p1776
asbag69
(g90
g71
NtRp1777
(dp1778
g74
(dp1779
g101
g102
ssg83
g1768
sg76
(lp1780
S':'
asbag69
(g90
g71
NtRp1781
(dp1782
g74
(dp1783
sg83
g1768
sg76
(lp1784
g69
(g70
g71
NtRp1785
(dp1786
g74
(dp1787
g82
I4
ssg83
g1781
sg76
(lp1788
S'127.0.0.1-0b2689a2-d3bd-4ee8-ad96-af4d7e3e9ad1'
p1789
ag69
(g78
g71
NtRp1790
(dp1791
g74
(dp1792
g82
I3
ssg83
Nsg76
(lp1793
g69
(g85
g71
NtRp1794
(dp1795
g74
(dp1796
sg83
g1790
sg76
(lp1797
g69
(g90
g71
NtRp1798
(dp1799
g74
(dp1800
g94
g95
ssg83
g1794
sg76
(lp1801
g306
asbag69
(g90
g71
NtRp1802
(dp1803
g74
(dp1804
g101
g102
ssg83
g1794
sg76
(lp1805
S':'
asbag69
(g90
g71
NtRp1806
(dp1807
g74
(dp1808
sg83
g1794
sg76
(lp1809
g69
(g70
g71
NtRp1810
(dp1811
g74
(dp1812
g82
I3
ssg83
g1806
sg76
(lp1813
S''
asbasbasbag69
(g85
g71
NtRp1814
(dp1815
g74
(dp1816
sg83
g1790
sg76
(lp1817
g69
(g90
g71
NtRp1818
(dp1819
g74
(dp1820
g94
g95
ssg83
g1814
sg76
(lp1821
g327
asbag69
(g90
g71
NtRp1822
(dp1823
g74
(dp1824
g101
g102
ssg83
g1814
sg76
(lp1825
S':'
asbag69
(g90
g71
NtRp1826
(dp1827
g74
(dp1828
sg83
g1814
sg76
(lp1829
g69
(g70
g71
NtRp1830
(dp1831
g74
(dp1832
g82
I3
ssg83
g1826
sg76
(lp1833
S''
asbasbasbag69
(g85
g71
NtRp1834
(dp1835
g74
(dp1836
sg83
g1790
sg76
(lp1837
g69
(g90
g71
NtRp1838
(dp1839
g74
(dp1840
g94
g95
ssg83
g1834
sg76
(lp1841
g348
asbag69
(g90
g71
NtRp1842
(dp1843
g74
(dp1844
g101
g102
ssg83
g1834
sg76
(lp1845
S':'
asbag69
(g90
g71
NtRp1846
(dp1847
g74
(dp1848
sg83
g1834
sg76
(lp1849
g69
(g70
g71
NtRp1850
(dp1851
g74
(dp1852
g82
I3
ssg83
g1846
sg76
(lp1853
S''
asbasbasbag69
(g85
g71
NtRp1854
(dp1855
g74
(dp1856
sg83
g1790
sg76
(lp1857
g69
(g90
g71
NtRp1858
(dp1859
g74
(dp1860
g94
g95
ssg83
g1854
sg76
(lp1861
g369
asbag69
(g90
g71
NtRp1862
(dp1863
g74
(dp1864
g101
g102
ssg83
g1854
sg76
(lp1865
S':'
asbag69
(g90
g71
NtRp1866
(dp1867
g74
(dp1868
sg83
g1854
sg76
(lp1869
g69
(g70
g71
NtRp1870
(dp1871
g74
(dp1872
g82
I3
ssg83
g1866
sg76
(lp1873
S''
asbasbasbag69
(g85
g71
NtRp1874
(dp1875
g74
(dp1876
sg83
g1790
sg76
(lp1877
g69
(g90
g71
NtRp1878
(dp1879
g74
(dp1880
g94
g95
ssg83
g1874
sg76
(lp1881
g390
asbag69
(g90
g71
NtRp1882
(dp1883
g74
(dp1884
g101
g102
ssg83
g1874
sg76
(lp1885
S':'
asbag69
(g90
g71
NtRp1886
(dp1887
g74
(dp1888
sg83
g1874
sg76
(lp1889
g69
(g70
g71
NtRp1890
(dp1891
g74
(dp1892
g82
I3
ssg83
g1886
sg76
(lp1893
S''
asbasbasbag69
(g85
g71
NtRp1894
(dp1895
g74
(dp1896
sg83
g1790
sg76
(lp1897
g69
(g90
g71
NtRp1898
(dp1899
g74
(dp1900
g94
g95
ssg83
g1894
sg76
(lp1901
g411
asbag69
(g90
g71
NtRp1902
(dp1903
g74
(dp1904
g101
g102
ssg83
g1894
sg76
(lp1905
S':'
asbag69
(g90
g71
NtRp1906
(dp1907
g74
(dp1908
sg83
g1894
sg76
(lp1909
g69
(g70
g71
NtRp1910
(dp1911
g74
(dp1912
g82
I3
ssg83
g1906
sg76
(lp1913
S''
asbasbasbag69
(g85
g71
NtRp1914
(dp1915
g74
(dp1916
sg83
g1790
sg76
(lp1917
g69
(g90
g71
NtRp1918
(dp1919
g74
(dp1920
g94
g95
ssg83
g1914
sg76
(lp1921
g432
asbag69
(g90
g71
NtRp1922
(dp1923
g74
(dp1924
g101
g102
ssg83
g1914
sg76
(lp1925
S':'
asbag69
(g90
g71
NtRp1926
(dp1927
g74
(dp1928
sg83
g1914
sg76
(lp1929
g69
(g70
g71
NtRp1930
(dp1931
g74
(dp1932
g82
I3
ssg83
g1926
sg76
(lp1933
S''
asbasbasbag69
(g85
g71
NtRp1934
(dp1935
g74
(dp1936
sg83
g1790
sg76
(lp1937
g69
(g90
g71
NtRp1938
(dp1939
g74
(dp1940
g94
g95
ssg83
g1934
sg76
(lp1941
g453
asbag69
(g90
g71
NtRp1942
(dp1943
g74
(dp1944
g101
g102
ssg83
g1934
sg76
(lp1945
S':'
asbag69
(g90
g71
NtRp1946
(dp1947
g74
(dp1948
sg83
g1934
sg76
(lp1949
g69
(g70
g71
NtRp1950
(dp1951
g74
(dp1952
g82
I3
ssg83
g1946
sg76
(lp1953
S''
asbasbasbasbasbasbasbag69
(g85
g71
NtRp1954
(dp1955
g74
(dp1956
sg83
g268
sg76
(lp1957
g69
(g90
g71
NtRp1958
(dp1959
g74
(dp1960
g94
g95
ssg83
g1954
sg76
(lp1961
S'session_id_try'
p1962
asbag69
(g90
g71
NtRp1963
(dp1964
g74
(dp1965
g101
g102
ssg83
g1954
sg76
(lp1966
S':'
asbag69
(g90
g71
NtRp1967
(dp1968
g74
(dp1969
sg83
g1954
sg76
(lp1970
g69
(g70
g71
NtRp1971
(dp1972
g74
(dp1973
g82
I4
ssg83
g1967
sg76
(lp1974
S'127.0.0.1-4d514347-24a9-48c9-9e7c-4ac4f4a70173'
p1975
ag69
(g78
g71
NtRp1976
(dp1977
g74
(dp1978
g82
I3
ssg83
Nsg76
(lp1979
g69
(g85
g71
NtRp1980
(dp1981
g74
(dp1982
sg83
g1976
sg76
(lp1983
g69
(g90
g71
NtRp1984
(dp1985
g74
(dp1986
g94
g95
ssg83
g1980
sg76
(lp1987
g306
asbag69
(g90
g71
NtRp1988
(dp1989
g74
(dp1990
g101
g102
ssg83
g1980
sg76
(lp1991
S':'
asbag69
(g90
g71
NtRp1992
(dp1993
g74
(dp1994
sg83
g1980
sg76
(lp1995
g69
(g70
g71
NtRp1996
(dp1997
g74
(dp1998
g82
I3
ssg83
g1992
sg76
(lp1999
S''
asbasbasbag69
(g85
g71
NtRp2000
(dp2001
g74
(dp2002
sg83
g1976
sg76
(lp2003
g69
(g90
g71
NtRp2004
(dp2005
g74
(dp2006
g94
g95
ssg83
g2000
sg76
(lp2007
g327
asbag69
(g90
g71
NtRp2008
(dp2009
g74
(dp2010
g101
g102
ssg83
g2000
sg76
(lp2011
S':'
asbag69
(g90
g71
NtRp2012
(dp2013
g74
(dp2014
sg83
g2000
sg76
(lp2015
g69
(g70
g71
NtRp2016
(dp2017
g74
(dp2018
g82
I3
ssg83
g2012
sg76
(lp2019
S''
asbasbasbag69
(g85
g71
NtRp2020
(dp2021
g74
(dp2022
sg83
g1976
sg76
(lp2023
g69
(g90
g71
NtRp2024
(dp2025
g74
(dp2026
g94
g95
ssg83
g2020
sg76
(lp2027
g348
asbag69
(g90
g71
NtRp2028
(dp2029
g74
(dp2030
g101
g102
ssg83
g2020
sg76
(lp2031
S':'
asbag69
(g90
g71
NtRp2032
(dp2033
g74
(dp2034
sg83
g2020
sg76
(lp2035
g69
(g70
g71
NtRp2036
(dp2037
g74
(dp2038
g82
I3
ssg83
g2032
sg76
(lp2039
S''
asbasbasbag69
(g85
g71
NtRp2040
(dp2041
g74
(dp2042
sg83
g1976
sg76
(lp2043
g69
(g90
g71
NtRp2044
(dp2045
g74
(dp2046
g94
g95
ssg83
g2040
sg76
(lp2047
g369
asbag69
(g90
g71
NtRp2048
(dp2049
g74
(dp2050
g101
g102
ssg83
g2040
sg76
(lp2051
S':'
asbag69
(g90
g71
NtRp2052
(dp2053
g74
(dp2054
sg83
g2040
sg76
(lp2055
g69
(g70
g71
NtRp2056
(dp2057
g74
(dp2058
g82
I3
ssg83
g2052
sg76
(lp2059
S''
asbasbasbag69
(g85
g71
NtRp2060
(dp2061
g74
(dp2062
sg83
g1976
sg76
(lp2063
g69
(g90
g71
NtRp2064
(dp2065
g74
(dp2066
g94
g95
ssg83
g2060
sg76
(lp2067
g390
asbag69
(g90
g71
NtRp2068
(dp2069
g74
(dp2070
g101
g102
ssg83
g2060
sg76
(lp2071
S':'
asbag69
(g90
g71
NtRp2072
(dp2073
g74
(dp2074
sg83
g2060
sg76
(lp2075
g69
(g70
g71
NtRp2076
(dp2077
g74
(dp2078
g82
I3
ssg83
g2072
sg76
(lp2079
S''
asbasbasbag69
(g85
g71
NtRp2080
(dp2081
g74
(dp2082
sg83
g1976
sg76
(lp2083
g69
(g90
g71
NtRp2084
(dp2085
g74
(dp2086
g94
g95
ssg83
g2080
sg76
(lp2087
g411
asbag69
(g90
g71
NtRp2088
(dp2089
g74
(dp2090
g101
g102
ssg83
g2080
sg76
(lp2091
S':'
asbag69
(g90
g71
NtRp2092
(dp2093
g74
(dp2094
sg83
g2080
sg76
(lp2095
g69
(g70
g71
NtRp2096
(dp2097
g74
(dp2098
g82
I3
ssg83
g2092
sg76
(lp2099
S''
asbasbasbag69
(g85
g71
NtRp2100
(dp2101
g74
(dp2102
sg83
g1976
sg76
(lp2103
g69
(g90
g71
NtRp2104
(dp2105
g74
(dp2106
g94
g95
ssg83
g2100
sg76
(lp2107
g432
asbag69
(g90
g71
NtRp2108
(dp2109
g74
(dp2110
g101
g102
ssg83
g2100
sg76
(lp2111
S':'
asbag69
(g90
g71
NtRp2112
(dp2113
g74
(dp2114
sg83
g2100
sg76
(lp2115
g69
(g70
g71
NtRp2116
(dp2117
g74
(dp2118
g82
I3
ssg83
g2112
sg76
(lp2119
S''
asbasbasbag69
(g85
g71
NtRp2120
(dp2121
g74
(dp2122
sg83
g1976
sg76
(lp2123
g69
(g90
g71
NtRp2124
(dp2125
g74
(dp2126
g94
g95
ssg83
g2120
sg76
(lp2127
g453
asbag69
(g90
g71
NtRp2128
(dp2129
g74
(dp2130
g101
g102
ssg83
g2120
sg76
(lp2131
S':'
asbag69
(g90
g71
NtRp2132
(dp2133
g74
(dp2134
sg83
g2120
sg76
(lp2135
g69
(g70
g71
NtRp2136
(dp2137
g74
(dp2138
g82
I3
ssg83
g2132
sg76
(lp2139
S''
asbasbasbasbasbasbasbag69
(g85
g71
NtRp2140
(dp2141
g74
(dp2142
sg83
g268
sg76
(lp2143
g69
(g90
g71
NtRp2144
(dp2145
g74
(dp2146
g94
g95
ssg83
g2140
sg76
(lp2147
S'session_id_vikramahuja'
p2148
asbag69
(g90
g71
NtRp2149
(dp2150
g74
(dp2151
g101
g102
ssg83
g2140
sg76
(lp2152
S':'
asbag69
(g90
g71
NtRp2153
(dp2154
g74
(dp2155
sg83
g2140
sg76
(lp2156
g69
(g70
g71
NtRp2157
(dp2158
g74
(dp2159
g82
I4
ssg83
g2153
sg76
(lp2160
S'127.0.0.1-a555d16d-54b5-476d-a152-f88918b513fe'
p2161
ag69
(g78
g71
NtRp2162
(dp2163
g74
(dp2164
g82
I3
ssg83
Nsg76
(lp2165
g69
(g85
g71
NtRp2166
(dp2167
g74
(dp2168
sg83
g2162
sg76
(lp2169
g69
(g90
g71
NtRp2170
(dp2171
g74
(dp2172
g94
g95
ssg83
g2166
sg76
(lp2173
g306
asbag69
(g90
g71
NtRp2174
(dp2175
g74
(dp2176
g101
g102
ssg83
g2166
sg76
(lp2177
S':'
asbag69
(g90
g71
NtRp2178
(dp2179
g74
(dp2180
sg83
g2166
sg76
(lp2181
g69
(g70
g71
NtRp2182
(dp2183
g74
(dp2184
g82
I3
ssg83
g2178
sg76
(lp2185
S''
asbasbasbag69
(g85
g71
NtRp2186
(dp2187
g74
(dp2188
sg83
g2162
sg76
(lp2189
g69
(g90
g71
NtRp2190
(dp2191
g74
(dp2192
g94
g95
ssg83
g2186
sg76
(lp2193
g327
asbag69
(g90
g71
NtRp2194
(dp2195
g74
(dp2196
g101
g102
ssg83
g2186
sg76
(lp2197
S':'
asbag69
(g90
g71
NtRp2198
(dp2199
g74
(dp2200
sg83
g2186
sg76
(lp2201
g69
(g70
g71
NtRp2202
(dp2203
g74
(dp2204
g82
I3
ssg83
g2198
sg76
(lp2205
S''
asbasbasbag69
(g85
g71
NtRp2206
(dp2207
g74
(dp2208
sg83
g2162
sg76
(lp2209
g69
(g90
g71
NtRp2210
(dp2211
g74
(dp2212
g94
g95
ssg83
g2206
sg76
(lp2213
g348
asbag69
(g90
g71
NtRp2214
(dp2215
g74
(dp2216
g101
g102
ssg83
g2206
sg76
(lp2217
S':'
asbag69
(g90
g71
NtRp2218
(dp2219
g74
(dp2220
sg83
g2206
sg76
(lp2221
g69
(g70
g71
NtRp2222
(dp2223
g74
(dp2224
g82
I3
ssg83
g2218
sg76
(lp2225
S''
asbasbasbag69
(g85
g71
NtRp2226
(dp2227
g74
(dp2228
sg83
g2162
sg76
(lp2229
g69
(g90
g71
NtRp2230
(dp2231
g74
(dp2232
g94
g95
ssg83
g2226
sg76
(lp2233
g369
asbag69
(g90
g71
NtRp2234
(dp2235
g74
(dp2236
g101
g102
ssg83
g2226
sg76
(lp2237
S':'
asbag69
(g90
g71
NtRp2238
(dp2239
g74
(dp2240
sg83
g2226
sg76
(lp2241
g69
(g70
g71
NtRp2242
(dp2243
g74
(dp2244
g82
I3
ssg83
g2238
sg76
(lp2245
S''
asbasbasbag69
(g85
g71
NtRp2246
(dp2247
g74
(dp2248
sg83
g2162
sg76
(lp2249
g69
(g90
g71
NtRp2250
(dp2251
g74
(dp2252
g94
g95
ssg83
g2246
sg76
(lp2253
g390
asbag69
(g90
g71
NtRp2254
(dp2255
g74
(dp2256
g101
g102
ssg83
g2246
sg76
(lp2257
S':'
asbag69
(g90
g71
NtRp2258
(dp2259
g74
(dp2260
sg83
g2246
sg76
(lp2261
g69
(g70
g71
NtRp2262
(dp2263
g74
(dp2264
g82
I3
ssg83
g2258
sg76
(lp2265
S''
asbasbasbag69
(g85
g71
NtRp2266
(dp2267
g74
(dp2268
sg83
g2162
sg76
(lp2269
g69
(g90
g71
NtRp2270
(dp2271
g74
(dp2272
g94
g95
ssg83
g2266
sg76
(lp2273
g411
asbag69
(g90
g71
NtRp2274
(dp2275
g74
(dp2276
g101
g102
ssg83
g2266
sg76
(lp2277
S':'
asbag69
(g90
g71
NtRp2278
(dp2279
g74
(dp2280
sg83
g2266
sg76
(lp2281
g69
(g70
g71
NtRp2282
(dp2283
g74
(dp2284
g82
I3
ssg83
g2278
sg76
(lp2285
S''
asbasbasbag69
(g85
g71
NtRp2286
(dp2287
g74
(dp2288
sg83
g2162
sg76
(lp2289
g69
(g90
g71
NtRp2290
(dp2291
g74
(dp2292
g94
g95
ssg83
g2286
sg76
(lp2293
g432
asbag69
(g90
g71
NtRp2294
(dp2295
g74
(dp2296
g101
g102
ssg83
g2286
sg76
(lp2297
S':'
asbag69
(g90
g71
NtRp2298
(dp2299
g74
(dp2300
sg83
g2286
sg76
(lp2301
g69
(g70
g71
NtRp2302
(dp2303
g74
(dp2304
g82
I3
ssg83
g2298
sg76
(lp2305
S''
asbasbasbag69
(g85
g71
NtRp2306
(dp2307
g74
(dp2308
sg83
g2162
sg76
(lp2309
g69
(g90
g71
NtRp2310
(dp2311
g74
(dp2312
g94
g95
ssg83
g2306
sg76
(lp2313
g453
asbag69
(g90
g71
NtRp2314
(dp2315
g74
(dp2316
g101
g102
ssg83
g2306
sg76
(lp2317
S':'
asbag69
(g90
g71
NtRp2318
(dp2319
g74
(dp2320
sg83
g2306
sg76
(lp2321
g69
(g70
g71
NtRp2322
(dp2323
g74
(dp2324
g82
I3
ssg83
g2318
sg76
(lp2325
S''
asbasbasbasbasbasbasbag69
(g85
g71
NtRp2326
(dp2327
g74
(dp2328
sg83
g268
sg76
(lp2329
g69
(g90
g71
NtRp2330
(dp2331
g74
(dp2332
g94
g95
ssg83
g2326
sg76
(lp2333
S'session_id_welcome'
p2334
asbag69
(g90
g71
NtRp2335
(dp2336
g74
(dp2337
g101
g102
ssg83
g2326
sg76
(lp2338
S':'
asbag69
(g90
g71
NtRp2339
(dp2340
g74
(dp2341
sg83
g2326
sg76
(lp2342
g69
(g70
g71
NtRp2343
(dp2344
g74
(dp2345
g82
I4
ssg83
g2339
sg76
(lp2346
S'127.0.0.1-a85dd4d7-ab1c-49ab-856d-4173a26ef319'
p2347
ag69
(g78
g71
NtRp2348
(dp2349
g74
(dp2350
g82
I3
ssg83
Nsg76
(lp2351
g69
(g85
g71
NtRp2352
(dp2353
g74
(dp2354
sg83
g2348
sg76
(lp2355
g69
(g90
g71
NtRp2356
(dp2357
g74
(dp2358
g94
g95
ssg83
g2352
sg76
(lp2359
g306
asbag69
(g90
g71
NtRp2360
(dp2361
g74
(dp2362
g101
g102
ssg83
g2352
sg76
(lp2363
S':'
asbag69
(g90
g71
NtRp2364
(dp2365
g74
(dp2366
sg83
g2352
sg76
(lp2367
g69
(g70
g71
NtRp2368
(dp2369
g74
(dp2370
g82
I3
ssg83
g2364
sg76
(lp2371
S''
asbasbasbag69
(g85
g71
NtRp2372
(dp2373
g74
(dp2374
sg83
g2348
sg76
(lp2375
g69
(g90
g71
NtRp2376
(dp2377
g74
(dp2378
g94
g95
ssg83
g2372
sg76
(lp2379
g327
asbag69
(g90
g71
NtRp2380
(dp2381
g74
(dp2382
g101
g102
ssg83
g2372
sg76
(lp2383
S':'
asbag69
(g90
g71
NtRp2384
(dp2385
g74
(dp2386
sg83
g2372
sg76
(lp2387
g69
(g70
g71
NtRp2388
(dp2389
g74
(dp2390
g82
I3
ssg83
g2384
sg76
(lp2391
S''
asbasbasbag69
(g85
g71
NtRp2392
(dp2393
g74
(dp2394
sg83
g2348
sg76
(lp2395
g69
(g90
g71
NtRp2396
(dp2397
g74
(dp2398
g94
g95
ssg83
g2392
sg76
(lp2399
g348
asbag69
(g90
g71
NtRp2400
(dp2401
g74
(dp2402
g101
g102
ssg83
g2392
sg76
(lp2403
S':'
asbag69
(g90
g71
NtRp2404
(dp2405
g74
(dp2406
sg83
g2392
sg76
(lp2407
g69
(g70
g71
NtRp2408
(dp2409
g74
(dp2410
g82
I3
ssg83
g2404
sg76
(lp2411
S''
asbasbasbag69
(g85
g71
NtRp2412
(dp2413
g74
(dp2414
sg83
g2348
sg76
(lp2415
g69
(g90
g71
NtRp2416
(dp2417
g74
(dp2418
g94
g95
ssg83
g2412
sg76
(lp2419
g369
asbag69
(g90
g71
NtRp2420
(dp2421
g74
(dp2422
g101
g102
ssg83
g2412
sg76
(lp2423
S':'
asbag69
(g90
g71
NtRp2424
(dp2425
g74
(dp2426
sg83
g2412
sg76
(lp2427
g69
(g70
g71
NtRp2428
(dp2429
g74
(dp2430
g82
I3
ssg83
g2424
sg76
(lp2431
S''
asbasbasbag69
(g85
g71
NtRp2432
(dp2433
g74
(dp2434
sg83
g2348
sg76
(lp2435
g69
(g90
g71
NtRp2436
(dp2437
g74
(dp2438
g94
g95
ssg83
g2432
sg76
(lp2439
g390
asbag69
(g90
g71
NtRp2440
(dp2441
g74
(dp2442
g101
g102
ssg83
g2432
sg76
(lp2443
S':'
asbag69
(g90
g71
NtRp2444
(dp2445
g74
(dp2446
sg83
g2432
sg76
(lp2447
g69
(g70
g71
NtRp2448
(dp2449
g74
(dp2450
g82
I3
ssg83
g2444
sg76
(lp2451
S''
asbasbasbag69
(g85
g71
NtRp2452
(dp2453
g74
(dp2454
sg83
g2348
sg76
(lp2455
g69
(g90
g71
NtRp2456
(dp2457
g74
(dp2458
g94
g95
ssg83
g2452
sg76
(lp2459
g411
asbag69
(g90
g71
NtRp2460
(dp2461
g74
(dp2462
g101
g102
ssg83
g2452
sg76
(lp2463
S':'
asbag69
(g90
g71
NtRp2464
(dp2465
g74
(dp2466
sg83
g2452
sg76
(lp2467
g69
(g70
g71
NtRp2468
(dp2469
g74
(dp2470
g82
I3
ssg83
g2464
sg76
(lp2471
S''
asbasbasbag69
(g85
g71
NtRp2472
(dp2473
g74
(dp2474
sg83
g2348
sg76
(lp2475
g69
(g90
g71
NtRp2476
(dp2477
g74
(dp2478
g94
g95
ssg83
g2472
sg76
(lp2479
g432
asbag69
(g90
g71
NtRp2480
(dp2481
g74
(dp2482
g101
g102
ssg83
g2472
sg76
(lp2483
S':'
asbag69
(g90
g71
NtRp2484
(dp2485
g74
(dp2486
sg83
g2472
sg76
(lp2487
g69
(g70
g71
NtRp2488
(dp2489
g74
(dp2490
g82
I3
ssg83
g2484
sg76
(lp2491
S''
asbasbasbag69
(g85
g71
NtRp2492
(dp2493
g74
(dp2494
sg83
g2348
sg76
(lp2495
g69
(g90
g71
NtRp2496
(dp2497
g74
(dp2498
g94
g95
ssg83
g2492
sg76
(lp2499
g453
asbag69
(g90
g71
NtRp2500
(dp2501
g74
(dp2502
g101
g102
ssg83
g2492
sg76
(lp2503
S':'
asbag69
(g90
g71
NtRp2504
(dp2505
g74
(dp2506
sg83
g2492
sg76
(lp2507
g69
(g70
g71
NtRp2508
(dp2509
g74
(dp2510
g82
I3
ssg83
g2504
sg76
(lp2511
S''
asbasbasbasbasbasbasbasbasbasbasbag69
(g85
g71
NtRp2512
(dp2513
g74
(dp2514
sg83
g79
sg76
(lp2515
g69
(g90
g71
NtRp2516
(dp2517
g74
(dp2518
g94
g95
ssg83
g2512
sg76
(lp2519
S'env'
p2520
asbag69
(g90
g71
NtRp2521
(dp2522
g74
(dp2523
g101
g102
ssg83
g2512
sg76
(lp2524
S':'
asbag69
(g90
g71
NtRp2525
(dp2526
g74
(dp2527
sg83
g2512
sg76
(lp2528
g69
(g70
g71
NtRp2529
(dp2530
g74
(dp2531
g82
I5
ssg83
g2525
sg76
(lp2532
g69
(g78
g71
NtRp2533
(dp2534
g74
(dp2535
g82
I4
ssg83
Nsg76
(lp2536
g69
(g85
g71
NtRp2537
(dp2538
g74
(dp2539
sg83
g2533
sg76
(lp2540
g69
(g90
g71
NtRp2541
(dp2542
g74
(dp2543
g94
g95
ssg83
g2537
sg76
(lp2544
S'app_folders'
p2545
asbag69
(g90
g71
NtRp2546
(dp2547
g74
(dp2548
g101
g102
ssg83
g2537
sg76
(lp2549
S':'
asbag69
(g90
g71
NtRp2550
(dp2551
g74
(dp2552
sg83
g2537
sg76
(lp2553
g69
(g70
g71
NtRp2554
(dp2555
g74
(dp2556
g82
I4
ssg83
g2550
sg76
(lp2557
S"set(['/home/pankaj/web2py/applications/admin/', '/home/pankaj/web2py/applications/welcome/', '/home/pankaj/web2py/applications/reddit/'])"
p2558
asbasbasbag69
(g85
g71
NtRp2559
(dp2560
g74
(dp2561
sg83
g2533
sg76
(lp2562
g69
(g90
g71
NtRp2563
(dp2564
g74
(dp2565
g94
g95
ssg83
g2559
sg76
(lp2566
S'applications_parent'
p2567
asbag69
(g90
g71
NtRp2568
(dp2569
g74
(dp2570
g101
g102
ssg83
g2559
sg76
(lp2571
S':'
asbag69
(g90
g71
NtRp2572
(dp2573
g74
(dp2574
sg83
g2559
sg76
(lp2575
g69
(g70
g71
NtRp2576
(dp2577
g74
(dp2578
g82
I4
ssg83
g2572
sg76
(lp2579
S'/home/pankaj/web2py'
p2580
asbasbasbag69
(g85
g71
NtRp2581
(dp2582
g74
(dp2583
sg83
g2533
sg76
(lp2584
g69
(g90
g71
NtRp2585
(dp2586
g74
(dp2587
g94
g95
ssg83
g2581
sg76
(lp2588
S'cmd_args'
p2589
asbag69
(g90
g71
NtRp2590
(dp2591
g74
(dp2592
g101
g102
ssg83
g2581
sg76
(lp2593
S':'
asbag69
(g90
g71
NtRp2594
(dp2595
g74
(dp2596
sg83
g2581
sg76
(lp2597
g69
(g70
g71
NtRp2598
(dp2599
g74
(dp2600
g82
I4
ssg83
g2594
sg76
(lp2601
g69
(g78
g71
NtRp2602
(dp2603
g74
(dp2604
g82
I3
ssg83
Nsg76
(lp2605
sbasbasbasbag69
(g85
g71
NtRp2606
(dp2607
g74
(dp2608
sg83
g2533
sg76
(lp2609
g69
(g90
g71
NtRp2610
(dp2611
g74
(dp2612
g94
g95
ssg83
g2606
sg76
(lp2613
S'cmd_options'
p2614
asbag69
(g90
g71
NtRp2615
(dp2616
g74
(dp2617
g101
g102
ssg83
g2606
sg76
(lp2618
S':'
asbag69
(g90
g71
NtRp2619
(dp2620
g74
(dp2621
sg83
g2606
sg76
(lp2622
g69
(g70
g71
NtRp2623
(dp2624
g74
(dp2625
g82
I4
ssg83
g2619
sg76
(lp2626
S"<Values at 0x8949dcc: {'verbose': False, 'ip': '127.0.0.1', 'with_scheduler': False, 'ips': [], 'shutdown_timeout': 5, 'taskbar': False, 'port': 8000, 'maxthreads': None, 'softcron': False, 'server_name': 'pankaj-HP-Pavilion-dv4-Notebook-PC', 'bpython': False, 'nogui': False, 'pid_filename': 'httpserver.pid', 'extcron': False, 'runcron': False, 'run_system_tests': False, 'test': None, 'folder': '/home/pankaj/web2py', 'config': '', 'import_models': False, 'winservice': '', 'shell': None, 'run': '', 'log_filename': 'httpserver.log', 'debuglevel': 30, 'args': [''], 'socket_timeout': 5, 'ssl_ca_certificate': None, 'scheduler': None, 'profiler_filename': None, 'ssl_private_key': '', 'scheduler_groups': None, 'password': '<ask>', 'request_queue_size': 5, 'ssl_certificate': '', 'cronjob': False, 'numthreads': None, 'quiet': False, 'interfaces': None, 'minthreads': None, 'timeout': 10, 'plain': False, 'nobanner': False}>"
p2627
asbasbasbag69
(g85
g71
NtRp2628
(dp2629
g74
(dp2630
sg83
g2533
sg76
(lp2631
g69
(g90
g71
NtRp2632
(dp2633
g74
(dp2634
g94
g95
ssg83
g2628
sg76
(lp2635
S'db_sessions'
p2636
asbag69
(g90
g71
NtRp2637
(dp2638
g74
(dp2639
g101
g102
ssg83
g2628
sg76
(lp2640
S':'
asbag69
(g90
g71
NtRp2641
(dp2642
g74
(dp2643
sg83
g2628
sg76
(lp2644
g69
(g70
g71
NtRp2645
(dp2646
g74
(dp2647
g82
I4
ssg83
g2641
sg76
(lp2648
S'set([])'
p2649
asbasbasbag69
(g85
g71
NtRp2650
(dp2651
g74
(dp2652
sg83
g2533
sg76
(lp2653
g69
(g90
g71
NtRp2654
(dp2655
g74
(dp2656
g94
g95
ssg83
g2650
sg76
(lp2657
S'debugging'
p2658
asbag69
(g90
g71
NtRp2659
(dp2660
g74
(dp2661
g101
g102
ssg83
g2650
sg76
(lp2662
S':'
asbag69
(g90
g71
NtRp2663
(dp2664
g74
(dp2665
sg83
g2650
sg76
(lp2666
g69
(g70
g71
NtRp2667
(dp2668
g74
(dp2669
g82
I4
ssg83
g2663
sg76
(lp2670
g112
asbasbasbag69
(g85
g71
NtRp2671
(dp2672
g74
(dp2673
sg83
g2533
sg76
(lp2674
g69
(g90
g71
NtRp2675
(dp2676
g74
(dp2677
g94
g95
ssg83
g2671
sg76
(lp2678
S'gluon_parent'
p2679
asbag69
(g90
g71
NtRp2680
(dp2681
g74
(dp2682
g101
g102
ssg83
g2671
sg76
(lp2683
S':'
asbag69
(g90
g71
NtRp2684
(dp2685
g74
(dp2686
sg83
g2671
sg76
(lp2687
g69
(g70
g71
NtRp2688
(dp2689
g74
(dp2690
g82
I4
ssg83
g2684
sg76
(lp2691
S'/home/pankaj/web2py'
p2692
asbasbasbag69
(g85
g71
NtRp2693
(dp2694
g74
(dp2695
sg83
g2533
sg76
(lp2696
g69
(g90
g71
NtRp2697
(dp2698
g74
(dp2699
g94
g95
ssg83
g2693
sg76
(lp2700
S'http_accept'
p2701
asbag69
(g90
g71
NtRp2702
(dp2703
g74
(dp2704
g101
g102
ssg83
g2693
sg76
(lp2705
S':'
asbag69
(g90
g71
NtRp2706
(dp2707
g74
(dp2708
sg83
g2693
sg76
(lp2709
g69
(g70
g71
NtRp2710
(dp2711
g74
(dp2712
g82
I4
ssg83
g2706
sg76
(lp2713
S'text/html,application/xhtml+xml,application/xml;q=0.9,*/*;q=0.8'
p2714
asbasbasbag69
(g85
g71
NtRp2715
(dp2716
g74
(dp2717
sg83
g2533
sg76
(lp2718
g69
(g90
g71
NtRp2719
(dp2720
g74
(dp2721
g94
g95
ssg83
g2715
sg76
(lp2722
S'http_accept_encoding'
p2723
asbag69
(g90
g71
NtRp2724
(dp2725
g74
(dp2726
g101
g102
ssg83
g2715
sg76
(lp2727
S':'
asbag69
(g90
g71
NtRp2728
(dp2729
g74
(dp2730
sg83
g2715
sg76
(lp2731
g69
(g70
g71
NtRp2732
(dp2733
g74
(dp2734
g82
I4
ssg83
g2728
sg76
(lp2735
S'gzip, deflate'
p2736
asbasbasbag69
(g85
g71
NtRp2737
(dp2738
g74
(dp2739
sg83
g2533
sg76
(lp2740
g69
(g90
g71
NtRp2741
(dp2742
g74
(dp2743
g94
g95
ssg83
g2737
sg76
(lp2744
S'http_accept_language'
p2745
asbag69
(g90
g71
NtRp2746
(dp2747
g74
(dp2748
g101
g102
ssg83
g2737
sg76
(lp2749
S':'
asbag69
(g90
g71
NtRp2750
(dp2751
g74
(dp2752
sg83
g2737
sg76
(lp2753
g69
(g70
g71
NtRp2754
(dp2755
g74
(dp2756
g82
I4
ssg83
g2750
sg76
(lp2757
S'en-US,en;q=0.5'
p2758
asbasbasbag69
(g85
g71
NtRp2759
(dp2760
g74
(dp2761
sg83
g2533
sg76
(lp2762
g69
(g90
g71
NtRp2763
(dp2764
g74
(dp2765
g94
g95
ssg83
g2759
sg76
(lp2766
S'http_connection'
p2767
asbag69
(g90
g71
NtRp2768
(dp2769
g74
(dp2770
g101
g102
ssg83
g2759
sg76
(lp2771
S':'
asbag69
(g90
g71
NtRp2772
(dp2773
g74
(dp2774
sg83
g2759
sg76
(lp2775
g69
(g70
g71
NtRp2776
(dp2777
g74
(dp2778
g82
I4
ssg83
g2772
sg76
(lp2779
S'keep-alive'
p2780
asbasbasbag69
(g85
g71
NtRp2781
(dp2782
g74
(dp2783
sg83
g2533
sg76
(lp2784
g69
(g90
g71
NtRp2785
(dp2786
g74
(dp2787
g94
g95
ssg83
g2781
sg76
(lp2788
S'http_cookie'
p2789
asbag69
(g90
g71
NtRp2790
(dp2791
g74
(dp2792
g101
g102
ssg83
g2781
sg76
(lp2793
S':'
asbag69
(g90
g71
NtRp2794
(dp2795
g74
(dp2796
sg83
g2781
sg76
(lp2797
g69
(g70
g71
NtRp2798
(dp2799
g74
(dp2800
g82
I4
ssg83
g2794
sg76
(lp2801
S'session_id_welcome=127.0.0.1-a85dd4d7-ab1c-49ab-856d-4173a26ef319; session_id_admin=127.0.0.1-eea59e1b-9257-4df1-8c44-da77bf9e4ec2; session_id_20120156_assignment_1=127.0.0.1-6cad324c-0572-4be8-8f41-6fcaca863c93; session_id_arihant=127.0.0.1-fa99deb6-5977-491c-864a-b5d79c0d1842; session_id_cataminder=127.0.0.1-81b628a7-34a5-4e70-a95c-79ef710dcdbb; session_id_courses=127.0.0.1-1d46c4eb-fdfc-4abb-bb62-6bcf52d1fcaa; session_id_iiit_fb=127.0.0.1-04b7df24-4720-4bb5-98de-96b98776240d; session_id_myapp=127.0.0.1-f28af7a6-9d1e-4a86-bd34-27605492a231; session_id_project=127.0.0.1-029ca61b-f875-404a-b7ff-1634c44ab767; session_id_testlayout=127.0.0.1-0b2689a2-d3bd-4ee8-ad96-af4d7e3e9ad1; session_id_try=127.0.0.1-4d514347-24a9-48c9-9e7c-4ac4f4a70173; session_id_vikramahuja=127.0.0.1-a555d16d-54b5-476d-a152-f88918b513fe'
p2802
asbasbasbag69
(g85
g71
NtRp2803
(dp2804
g74
(dp2805
sg83
g2533
sg76
(lp2806
g69
(g90
g71
NtRp2807
(dp2808
g74
(dp2809
g94
g95
ssg83
g2803
sg76
(lp2810
S'http_host'
p2811
asbag69
(g90
g71
NtRp2812
(dp2813
g74
(dp2814
g101
g102
ssg83
g2803
sg76
(lp2815
S':'
asbag69
(g90
g71
NtRp2816
(dp2817
g74
(dp2818
sg83
g2803
sg76
(lp2819
g69
(g70
g71
NtRp2820
(dp2821
g74
(dp2822
g82
I4
ssg83
g2816
sg76
(lp2823
S'127.0.0.1:8000'
p2824
asbasbasbag69
(g85
g71
NtRp2825
(dp2826
g74
(dp2827
sg83
g2533
sg76
(lp2828
g69
(g90
g71
NtRp2829
(dp2830
g74
(dp2831
g94
g95
ssg83
g2825
sg76
(lp2832
S'http_referer'
p2833
asbag69
(g90
g71
NtRp2834
(dp2835
g74
(dp2836
g101
g102
ssg83
g2825
sg76
(lp2837
S':'
asbag69
(g90
g71
NtRp2838
(dp2839
g74
(dp2840
sg83
g2825
sg76
(lp2841
g69
(g70
g71
NtRp2842
(dp2843
g74
(dp2844
g82
I4
ssg83
g2838
sg76
(lp2845
S'http://127.0.0.1:8000/admin/default/site'
p2846
asbasbasbag69
(g85
g71
NtRp2847
(dp2848
g74
(dp2849
sg83
g2533
sg76
(lp2850
g69
(g90
g71
NtRp2851
(dp2852
g74
(dp2853
g94
g95
ssg83
g2847
sg76
(lp2854
S'http_user_agent'
p2855
asbag69
(g90
g71
NtRp2856
(dp2857
g74
(dp2858
g101
g102
ssg83
g2847
sg76
(lp2859
S':'
asbag69
(g90
g71
NtRp2860
(dp2861
g74
(dp2862
sg83
g2847
sg76
(lp2863
g69
(g70
g71
NtRp2864
(dp2865
g74
(dp2866
g82
I4
ssg83
g2860
sg76
(lp2867
S'Mozilla/5.0 (X11; Ubuntu; Linux i686; rv:22.0) Gecko/20100101 Firefox/22.0'
p2868
asbasbasbag69
(g85
g71
NtRp2869
(dp2870
g74
(dp2871
sg83
g2533
sg76
(lp2872
g69
(g90
g71
NtRp2873
(dp2874
g74
(dp2875
g94
g95
ssg83
g2869
sg76
(lp2876
S'is_jython'
p2877
asbag69
(g90
g71
NtRp2878
(dp2879
g74
(dp2880
g101
g102
ssg83
g2869
sg76
(lp2881
S':'
asbag69
(g90
g71
NtRp2882
(dp2883
g74
(dp2884
sg83
g2869
sg76
(lp2885
g69
(g70
g71
NtRp2886
(dp2887
g74
(dp2888
g82
I4
ssg83
g2882
sg76
(lp2889
g112
asbasbasbag69
(g85
g71
NtRp2890
(dp2891
g74
(dp2892
sg83
g2533
sg76
(lp2893
g69
(g90
g71
NtRp2894
(dp2895
g74
(dp2896
g94
g95
ssg83
g2890
sg76
(lp2897
S'is_pypy'
p2898
asbag69
(g90
g71
NtRp2899
(dp2900
g74
(dp2901
g101
g102
ssg83
g2890
sg76
(lp2902
S':'
asbag69
(g90
g71
NtRp2903
(dp2904
g74
(dp2905
sg83
g2890
sg76
(lp2906
g69
(g70
g71
NtRp2907
(dp2908
g74
(dp2909
g82
I4
ssg83
g2903
sg76
(lp2910
g112
asbasbasbag69
(g85
g71
NtRp2911
(dp2912
g74
(dp2913
sg83
g2533
sg76
(lp2914
g69
(g90
g71
NtRp2915
(dp2916
g74
(dp2917
g94
g95
ssg83
g2911
sg76
(lp2918
S'local_hosts'
p2919
asbag69
(g90
g71
NtRp2920
(dp2921
g74
(dp2922
g101
g102
ssg83
g2911
sg76
(lp2923
S':'
asbag69
(g90
g71
NtRp2924
(dp2925
g74
(dp2926
sg83
g2911
sg76
(lp2927
g69
(g70
g71
NtRp2928
(dp2929
g74
(dp2930
g82
I4
ssg83
g2924
sg76
(lp2931
g69
(g78
g71
NtRp2932
(dp2933
g74
(dp2934
g82
I3
ssg83
Nsg76
(lp2935
g69
(g85
g71
NtRp2936
(dp2937
g74
(dp2938
sg83
g2932
sg76
(lp2939
g69
(g90
g71
NtRp2940
(dp2941
g74
(dp2942
sg83
g2936
sg76
(lp2943
g69
(g70
g71
NtRp2944
(dp2945
g74
(dp2946
g82
I3
ssg83
g2940
sg76
(lp2947
S'pankaj-HP-Pavilion-dv4-Notebook-PC'
p2948
asbasbasbag69
(g85
g71
NtRp2949
(dp2950
g74
(dp2951
sg83
g2932
sg76
(lp2952
g69
(g90
g71
NtRp2953
(dp2954
g74
(dp2955
sg83
g2949
sg76
(lp2956
g69
(g70
g71
NtRp2957
(dp2958
g74
(dp2959
g82
I3
ssg83
g2953
sg76
(lp2960
S'::1'
p2961
asbasbasbag69
(g85
g71
NtRp2962
(dp2963
g74
(dp2964
sg83
g2932
sg76
(lp2965
g69
(g90
g71
NtRp2966
(dp2967
g74
(dp2968
sg83
g2962
sg76
(lp2969
g69
(g70
g71
NtRp2970
(dp2971
g74
(dp2972
g82
I3
ssg83
g2966
sg76
(lp2973
S'127.0.1.1'
p2974
asbasbasbag69
(g85
g71
NtRp2975
(dp2976
g74
(dp2977
sg83
g2932
sg76
(lp2978
g69
(g90
g71
NtRp2979
(dp2980
g74
(dp2981
sg83
g2975
sg76
(lp2982
g69
(g70
g71
NtRp2983
(dp2984
g74
(dp2985
g82
I3
ssg83
g2979
sg76
(lp2986
S'::ffff:127.0.0.1'
p2987
asbasbasbag69
(g85
g71
NtRp2988
(dp2989
g74
(dp2990
sg83
g2932
sg76
(lp2991
g69
(g90
g71
NtRp2992
(dp2993
g74
(dp2994
sg83
g2988
sg76
(lp2995
g69
(g70
g71
NtRp2996
(dp2997
g74
(dp2998
g82
I3
ssg83
g2992
sg76
(lp2999
S'127.0.0.1'
p3000
asbasbasbasbasbasbasbag69
(g85
g71
NtRp3001
(dp3002
g74
(dp3003
sg83
g2533
sg76
(lp3004
g69
(g90
g71
NtRp3005
(dp3006
g74
(dp3007
g94
g95
ssg83
g3001
sg76
(lp3008
S'path_info'
p3009
asbag69
(g90
g71
NtRp3010
(dp3011
g74
(dp3012
g101
g102
ssg83
g3001
sg76
(lp3013
S':'
asbag69
(g90
g71
NtRp3014
(dp3015
g74
(dp3016
sg83
g3001
sg76
(lp3017
g69
(g70
g71
NtRp3018
(dp3019
g74
(dp3020
g82
I4
ssg83
g3014
sg76
(lp3021
S'/reddit/default/index'
p3022
asbasbasbag69
(g85
g71
NtRp3023
(dp3024
g74
(dp3025
sg83
g2533
sg76
(lp3026
g69
(g90
g71
NtRp3027
(dp3028
g74
(dp3029
g94
g95
ssg83
g3023
sg76
(lp3030
S'query_string'
p3031
asbag69
(g90
g71
NtRp3032
(dp3033
g74
(dp3034
g101
g102
ssg83
g3023
sg76
(lp3035
S':'
asbag69
(g90
g71
NtRp3036
(dp3037
g74
(dp3038
sg83
g3023
sg76
(lp3039
g69
(g70
g71
NtRp3040
(dp3041
g74
(dp3042
g82
I4
ssg83
g3036
sg76
(lp3043
S''
asbasbasbag69
(g85
g71
NtRp3044
(dp3045
g74
(dp3046
sg83
g2533
sg76
(lp3047
g69
(g90
g71
NtRp3048
(dp3049
g74
(dp3050
g94
g95
ssg83
g3044
sg76
(lp3051
S'remote_addr'
p3052
asbag69
(g90
g71
NtRp3053
(dp3054
g74
(dp3055
g101
g102
ssg83
g3044
sg76
(lp3056
S':'
asbag69
(g90
g71
NtRp3057
(dp3058
g74
(dp3059
sg83
g3044
sg76
(lp3060
g69
(g70
g71
NtRp3061
(dp3062
g74
(dp3063
g82
I4
ssg83
g3057
sg76
(lp3064
g224
asbasbasbag69
(g85
g71
NtRp3065
(dp3066
g74
(dp3067
sg83
g2533
sg76
(lp3068
g69
(g90
g71
NtRp3069
(dp3070
g74
(dp3071
g94
g95
ssg83
g3065
sg76
(lp3072
S'remote_port'
p3073
asbag69
(g90
g71
NtRp3074
(dp3075
g74
(dp3076
g101
g102
ssg83
g3065
sg76
(lp3077
S':'
asbag69
(g90
g71
NtRp3078
(dp3079
g74
(dp3080
sg83
g3065
sg76
(lp3081
g69
(g70
g71
NtRp3082
(dp3083
g74
(dp3084
g82
I4
ssg83
g3078
sg76
(lp3085
S'52113'
p3086
asbasbasbag69
(g85
g71
NtRp3087
(dp3088
g74
(dp3089
sg83
g2533
sg76
(lp3090
g69
(g90
g71
NtRp3091
(dp3092
g74
(dp3093
g94
g95
ssg83
g3087
sg76
(lp3094
S'request_method'
p3095
asbag69
(g90
g71
NtRp3096
(dp3097
g74
(dp3098
g101
g102
ssg83
g3087
sg76
(lp3099
S':'
asbag69
(g90
g71
NtRp3100
(dp3101
g74
(dp3102
sg83
g3087
sg76
(lp3103
g69
(g70
g71
NtRp3104
(dp3105
g74
(dp3106
g82
I4
ssg83
g3100
sg76
(lp3107
S'GET'
p3108
asbasbasbag69
(g85
g71
NtRp3109
(dp3110
g74
(dp3111
sg83
g2533
sg76
(lp3112
g69
(g90
g71
NtRp3113
(dp3114
g74
(dp3115
g94
g95
ssg83
g3109
sg76
(lp3116
S'request_uri'
p3117
asbag69
(g90
g71
NtRp3118
(dp3119
g74
(dp3120
g101
g102
ssg83
g3109
sg76
(lp3121
S':'
asbag69
(g90
g71
NtRp3122
(dp3123
g74
(dp3124
sg83
g3109
sg76
(lp3125
g69
(g70
g71
NtRp3126
(dp3127
g74
(dp3128
g82
I4
ssg83
g3122
sg76
(lp3129
g3022
asbasbasbag69
(g85
g71
NtRp3130
(dp3131
g74
(dp3132
sg83
g2533
sg76
(lp3133
g69
(g90
g71
NtRp3134
(dp3135
g74
(dp3136
g94
g95
ssg83
g3130
sg76
(lp3137
S'script_name'
p3138
asbag69
(g90
g71
NtRp3139
(dp3140
g74
(dp3141
g101
g102
ssg83
g3130
sg76
(lp3142
S':'
asbag69
(g90
g71
NtRp3143
(dp3144
g74
(dp3145
sg83
g3130
sg76
(lp3146
g69
(g70
g71
NtRp3147
(dp3148
g74
(dp3149
g82
I4
ssg83
g3143
sg76
(lp3150
S''
asbasbasbag69
(g85
g71
NtRp3151
(dp3152
g74
(dp3153
sg83
g2533
sg76
(lp3154
g69
(g90
g71
NtRp3155
(dp3156
g74
(dp3157
g94
g95
ssg83
g3151
sg76
(lp3158
S'server_name'
p3159
asbag69
(g90
g71
NtRp3160
(dp3161
g74
(dp3162
g101
g102
ssg83
g3151
sg76
(lp3163
S':'
asbag69
(g90
g71
NtRp3164
(dp3165
g74
(dp3166
sg83
g3151
sg76
(lp3167
g69
(g70
g71
NtRp3168
(dp3169
g74
(dp3170
g82
I4
ssg83
g3164
sg76
(lp3171
S'pankaj-HP-Pavilion-dv4-Notebook-PC'
p3172
asbasbasbag69
(g85
g71
NtRp3173
(dp3174
g74
(dp3175
sg83
g2533
sg76
(lp3176
g69
(g90
g71
NtRp3177
(dp3178
g74
(dp3179
g94
g95
ssg83
g3173
sg76
(lp3180
S'server_port'
p3181
asbag69
(g90
g71
NtRp3182
(dp3183
g74
(dp3184
g101
g102
ssg83
g3173
sg76
(lp3185
S':'
asbag69
(g90
g71
NtRp3186
(dp3187
g74
(dp3188
sg83
g3173
sg76
(lp3189
g69
(g70
g71
NtRp3190
(dp3191
g74
(dp3192
g82
I4
ssg83
g3186
sg76
(lp3193
S'8000'
p3194
asbasbasbag69
(g85
g71
NtRp3195
(dp3196
g74
(dp3197
sg83
g2533
sg76
(lp3198
g69
(g90
g71
NtRp3199
(dp3200
g74
(dp3201
g94
g95
ssg83
g3195
sg76
(lp3202
S'server_protocol'
p3203
asbag69
(g90
g71
NtRp3204
(dp3205
g74
(dp3206
g101
g102
ssg83
g3195
sg76
(lp3207
S':'
asbag69
(g90
g71
NtRp3208
(dp3209
g74
(dp3210
sg83
g3195
sg76
(lp3211
g69
(g70
g71
NtRp3212
(dp3213
g74
(dp3214
g82
I4
ssg83
g3208
sg76
(lp3215
S'HTTP/1.1'
p3216
asbasbasbag69
(g85
g71
NtRp3217
(dp3218
g74
(dp3219
sg83
g2533
sg76
(lp3220
g69
(g90
g71
NtRp3221
(dp3222
g74
(dp3223
g94
g95
ssg83
g3217
sg76
(lp3224
S'server_software'
p3225
asbag69
(g90
g71
NtRp3226
(dp3227
g74
(dp3228
g101
g102
ssg83
g3217
sg76
(lp3229
S':'
asbag69
(g90
g71
NtRp3230
(dp3231
g74
(dp3232
sg83
g3217
sg76
(lp3233
g69
(g70
g71
NtRp3234
(dp3235
g74
(dp3236
g82
I4
ssg83
g3230
sg76
(lp3237
S'Rocket 1.2.6'
p3238
asbasbasbag69
(g85
g71
NtRp3239
(dp3240
g74
(dp3241
sg83
g2533
sg76
(lp3242
g69
(g90
g71
NtRp3243
(dp3244
g74
(dp3245
g94
g95
ssg83
g3239
sg76
(lp3246
S'web2py_path'
p3247
asbag69
(g90
g71
NtRp3248
(dp3249
g74
(dp3250
g101
g102
ssg83
g3239
sg76
(lp3251
S':'
asbag69
(g90
g71
NtRp3252
(dp3253
g74
(dp3254
sg83
g3239
sg76
(lp3255
g69
(g70
g71
NtRp3256
(dp3257
g74
(dp3258
g82
I4
ssg83
g3252
sg76
(lp3259
g2580
asbasbasbag69
(g85
g71
NtRp3260
(dp3261
g74
(dp3262
sg83
g2533
sg76
(lp3263
g69
(g90
g71
NtRp3264
(dp3265
g74
(dp3266
g94
g95
ssg83
g3260
sg76
(lp3267
S'web2py_version'
p3268
asbag69
(g90
g71
NtRp3269
(dp3270
g74
(dp3271
g101
g102
ssg83
g3260
sg76
(lp3272
S':'
asbag69
(g90
g71
NtRp3273
(dp3274
g74
(dp3275
sg83
g3260
sg76
(lp3276
g69
(g70
g71
NtRp3277
(dp3278
g74
(dp3279
g82
I4
ssg83
g3273
sg76
(lp3280
g69
(g78
g71
NtRp3281
(dp3282
g74
(dp3283
g82
I3
ssg83
Nsg76
(lp3284
g69
(g85
g71
NtRp3285
(dp3286
g74
(dp3287
sg83
g3281
sg76
(lp3288
g69
(g90
g71
NtRp3289
(dp3290
g74
(dp3291
sg83
g3285
sg76
(lp3292
g69
(g70
g71
NtRp3293
(dp3294
g74
(dp3295
g82
I3
ssg83
g3289
sg76
(lp3296
S'2'
asbasbasbag69
(g85
g71
NtRp3297
(dp3298
g74
(dp3299
sg83
g3281
sg76
(lp3300
g69
(g90
g71
NtRp3301
(dp3302
g74
(dp3303
sg83
g3297
sg76
(lp3304
g69
(g70
g71
NtRp3305
(dp3306
g74
(dp3307
g82
I3
ssg83
g3301
sg76
(lp3308
S'3'
asbasbasbag69
(g85
g71
NtRp3309
(dp3310
g74
(dp3311
sg83
g3281
sg76
(lp3312
g69
(g90
g71
NtRp3313
(dp3314
g74
(dp3315
sg83
g3309
sg76
(lp3316
g69
(g70
g71
NtRp3317
(dp3318
g74
(dp3319
g82
I3
ssg83
g3313
sg76
(lp3320
S'2'
asbasbasbag69
(g85
g71
NtRp3321
(dp3322
g74
(dp3323
sg83
g3281
sg76
(lp3324
g69
(g90
g71
NtRp3325
(dp3326
g74
(dp3327
sg83
g3321
sg76
(lp3328
g69
(g70
g71
NtRp3329
(dp3330
g74
(dp3331
g82
I3
ssg83
g3325
sg76
(lp3332
S'datetime.datetime(2012, 12, 17, 15, 3, 30)'
p3333
asbasbasbag69
(g85
g71
NtRp3334
(dp3335
g74
(dp3336
sg83
g3281
sg76
(lp3337
g69
(g90
g71
NtRp3338
(dp3339
g74
(dp3340
sg83
g3334
sg76
(lp3341
g69
(g70
g71
NtRp3342
(dp3343
g74
(dp3344
g82
I3
ssg83
g3338
sg76
(lp3345
S'stable'
p3346
asbasbasbasbasbasbasbag69
(g85
g71
NtRp3347
(dp3348
g74
(dp3349
sg83
g2533
sg76
(lp3350
g69
(g90
g71
NtRp3351
(dp3352
g74
(dp3353
g94
g95
ssg83
g3347
sg76
(lp3354
S'wsgi_errors'
p3355
asbag69
(g90
g71
NtRp3356
(dp3357
g74
(dp3358
g101
g102
ssg83
g3347
sg76
(lp3359
S':'
asbag69
(g90
g71
NtRp3360
(dp3361
g74
(dp3362
sg83
g3347
sg76
(lp3363
g69
(g70
g71
NtRp3364
(dp3365
g74
(dp3366
g82
I4
ssg83
g3360
sg76
(lp3367
S"<open file '<stderr>', mode 'w' at 0xb72ac0d0>"
p3368
asbasbasbag69
(g85
g71
NtRp3369
(dp3370
g74
(dp3371
sg83
g2533
sg76
(lp3372
g69
(g90
g71
NtRp3373
(dp3374
g74
(dp3375
g94
g95
ssg83
g3369
sg76
(lp3376
S'wsgi_file_wrapper'
p3377
asbag69
(g90
g71
NtRp3378
(dp3379
g74
(dp3380
g101
g102
ssg83
g3369
sg76
(lp3381
S':'
asbag69
(g90
g71
NtRp3382
(dp3383
g74
(dp3384
sg83
g3369
sg76
(lp3385
g69
(g70
g71
NtRp3386
(dp3387
g74
(dp3388
g82
I4
ssg83
g3382
sg76
(lp3389
S'<class wsgiref.util.FileWrapper at 0x890f05c>'
p3390
asbasbasbag69
(g85
g71
NtRp3391
(dp3392
g74
(dp3393
sg83
g2533
sg76
(lp3394
g69
(g90
g71
NtRp3395
(dp3396
g74
(dp3397
g94
g95
ssg83
g3391
sg76
(lp3398
S'wsgi_input'
p3399
asbag69
(g90
g71
NtRp3400
(dp3401
g74
(dp3402
g101
g102
ssg83
g3391
sg76
(lp3403
S':'
asbag69
(g90
g71
NtRp3404
(dp3405
g74
(dp3406
sg83
g3391
sg76
(lp3407
g69
(g70
g71
NtRp3408
(dp3409
g74
(dp3410
g82
I4
ssg83
g3404
sg76
(lp3411
S'<socket._fileobject object at 0x8ef69ac>'
p3412
asbasbasbag69
(g85
g71
NtRp3413
(dp3414
g74
(dp3415
sg83
g2533
sg76
(lp3416
g69
(g90
g71
NtRp3417
(dp3418
g74
(dp3419
g94
g95
ssg83
g3413
sg76
(lp3420
S'wsgi_multiprocess'
p3421
asbag69
(g90
g71
NtRp3422
(dp3423
g74
(dp3424
g101
g102
ssg83
g3413
sg76
(lp3425
S':'
asbag69
(g90
g71
NtRp3426
(dp3427
g74
(dp3428
sg83
g3413
sg76
(lp3429
g69
(g70
g71
NtRp3430
(dp3431
g74
(dp3432
g82
I4
ssg83
g3426
sg76
(lp3433
g112
asbasbasbag69
(g85
g71
NtRp3434
(dp3435
g74
(dp3436
sg83
g2533
sg76
(lp3437
g69
(g90
g71
NtRp3438
(dp3439
g74
(dp3440
g94
g95
ssg83
g3434
sg76
(lp3441
S'wsgi_multithread'
p3442
asbag69
(g90
g71
NtRp3443
(dp3444
g74
(dp3445
g101
g102
ssg83
g3434
sg76
(lp3446
S':'
asbag69
(g90
g71
NtRp3447
(dp3448
g74
(dp3449
sg83
g3434
sg76
(lp3450
g69
(g70
g71
NtRp3451
(dp3452
g74
(dp3453
g82
I4
ssg83
g3447
sg76
(lp3454
S'True'
p3455
asbasbasbag69
(g85
g71
NtRp3456
(dp3457
g74
(dp3458
sg83
g2533
sg76
(lp3459
g69
(g90
g71
NtRp3460
(dp3461
g74
(dp3462
g94
g95
ssg83
g3456
sg76
(lp3463
S'wsgi_run_once'
p3464
asbag69
(g90
g71
NtRp3465
(dp3466
g74
(dp3467
g101
g102
ssg83
g3456
sg76
(lp3468
S':'
asbag69
(g90
g71
NtRp3469
(dp3470
g74
(dp3471
sg83
g3456
sg76
(lp3472
g69
(g70
g71
NtRp3473
(dp3474
g74
(dp3475
g82
I4
ssg83
g3469
sg76
(lp3476
g112
asbasbasbag69
(g85
g71
NtRp3477
(dp3478
g74
(dp3479
sg83
g2533
sg76
(lp3480
g69
(g90
g71
NtRp3481
(dp3482
g74
(dp3483
g94
g95
ssg83
g3477
sg76
(lp3484
S'wsgi_url_scheme'
p3485
asbag69
(g90
g71
NtRp3486
(dp3487
g74
(dp3488
g101
g102
ssg83
g3477
sg76
(lp3489
S':'
asbag69
(g90
g71
NtRp3490
(dp3491
g74
(dp3492
sg83
g3477
sg76
(lp3493
g69
(g70
g71
NtRp3494
(dp3495
g74
(dp3496
g82
I4
ssg83
g3490
sg76
(lp3497
S'http'
p3498
asbasbasbag69
(g85
g71
NtRp3499
(dp3500
g74
(dp3501
sg83
g2533
sg76
(lp3502
g69
(g90
g71
NtRp3503
(dp3504
g74
(dp3505
g94
g95
ssg83
g3499
sg76
(lp3506
S'wsgi_version'
p3507
asbag69
(g90
g71
NtRp3508
(dp3509
g74
(dp3510
g101
g102
ssg83
g3499
sg76
(lp3511
S':'
asbag69
(g90
g71
NtRp3512
(dp3513
g74
(dp3514
sg83
g3499
sg76
(lp3515
g69
(g70
g71
NtRp3516
(dp3517
g74
(dp3518
g82
I4
ssg83
g3512
sg76
(lp3519
g69
(g78
g71
NtRp3520
(dp3521
g74
(dp3522
g82
I3
ssg83
Nsg76
(lp3523
g69
(g85
g71
NtRp3524
(dp3525
g74
(dp3526
sg83
g3520
sg76
(lp3527
g69
(g90
g71
NtRp3528
(dp3529
g74
(dp3530
sg83
g3524
sg76
(lp3531
g69
(g70
g71
NtRp3532
(dp3533
g74
(dp3534
g82
I3
ssg83
g3528
sg76
(lp3535
S'1'
asbasbasbag69
(g85
g71
NtRp3536
(dp3537
g74
(dp3538
sg83
g3520
sg76
(lp3539
g69
(g90
g71
NtRp3540
(dp3541
g74
(dp3542
sg83
g3536
sg76
(lp3543
g69
(g70
g71
NtRp3544
(dp3545
g74
(dp3546
g82
I3
ssg83
g3540
sg76
(lp3547
S'0'
asbasbasbasbasbasbasbasbasbasbasbag69
(g85
g71
NtRp3548
(dp3549
g74
(dp3550
sg83
g79
sg76
(lp3551
g69
(g90
g71
NtRp3552
(dp3553
g74
(dp3554
g94
g95
ssg83
g3548
sg76
(lp3555
S'extension'
p3556
asbag69
(g90
g71
NtRp3557
(dp3558
g74
(dp3559
g101
g102
ssg83
g3548
sg76
(lp3560
S':'
asbag69
(g90
g71
NtRp3561
(dp3562
g74
(dp3563
sg83
g3548
sg76
(lp3564
g69
(g70
g71
NtRp3565
(dp3566
g74
(dp3567
g82
I5
ssg83
g3561
sg76
(lp3568
S'html'
p3569
asbasbasbag69
(g85
g71
NtRp3570
(dp3571
g74
(dp3572
sg83
g79
sg76
(lp3573
g69
(g90
g71
NtRp3574
(dp3575
g74
(dp3576
g94
g95
ssg83
g3570
sg76
(lp3577
S'folder'
p3578
asbag69
(g90
g71
NtRp3579
(dp3580
g74
(dp3581
g101
g102
ssg83
g3570
sg76
(lp3582
S':'
asbag69
(g90
g71
NtRp3583
(dp3584
g74
(dp3585
sg83
g3570
sg76
(lp3586
g69
(g70
g71
NtRp3587
(dp3588
g74
(dp3589
g82
I5
ssg83
g3583
sg76
(lp3590
S'/home/pankaj/web2py/applications/reddit/'
p3591
asbasbasbag69
(g85
g71
NtRp3592
(dp3593
g74
(dp3594
sg83
g79
sg76
(lp3595
g69
(g90
g71
NtRp3596
(dp3597
g74
(dp3598
g94
g95
ssg83
g3592
sg76
(lp3599
S'function'
p3600
asbag69
(g90
g71
NtRp3601
(dp3602
g74
(dp3603
g101
g102
ssg83
g3592
sg76
(lp3604
S':'
asbag69
(g90
g71
NtRp3605
(dp3606
g74
(dp3607
sg83
g3592
sg76
(lp3608
g69
(g70
g71
NtRp3609
(dp3610
g74
(dp3611
g82
I5
ssg83
g3605
sg76
(lp3612
S'index'
p3613
asbasbasbag69
(g85
g71
NtRp3614
(dp3615
g74
(dp3616
sg83
g79
sg76
(lp3617
g69
(g90
g71
NtRp3618
(dp3619
g74
(dp3620
g94
g95
ssg83
g3614
sg76
(lp3621
S'get_vars'
p3622
asbag69
(g90
g71
NtRp3623
(dp3624
g74
(dp3625
g101
g102
ssg83
g3614
sg76
(lp3626
S':'
asbag69
(g90
g71
NtRp3627
(dp3628
g74
(dp3629
sg83
g3614
sg76
(lp3630
g69
(g70
g71
NtRp3631
(dp3632
g74
(dp3633
g82
I5
ssg83
g3627
sg76
(lp3634
g69
(g78
g71
NtRp3635
(dp3636
g74
(dp3637
g82
I4
ssg83
Nsg76
(lp3638
sbasbasbasbag69
(g85
g71
NtRp3639
(dp3640
g74
(dp3641
sg83
g79
sg76
(lp3642
g69
(g90
g71
NtRp3643
(dp3644
g74
(dp3645
g94
g95
ssg83
g3639
sg76
(lp3646
S'global_settings'
p3647
asbag69
(g90
g71
NtRp3648
(dp3649
g74
(dp3650
g101
g102
ssg83
g3639
sg76
(lp3651
S':'
asbag69
(g90
g71
NtRp3652
(dp3653
g74
(dp3654
sg83
g3639
sg76
(lp3655
g69
(g70
g71
NtRp3656
(dp3657
g74
(dp3658
g82
I5
ssg83
g3652
sg76
(lp3659
g69
(g78
g71
NtRp3660
(dp3661
g74
(dp3662
g82
I4
ssg83
Nsg76
(lp3663
g69
(g85
g71
NtRp3664
(dp3665
g74
(dp3666
sg83
g3660
sg76
(lp3667
g69
(g90
g71
NtRp3668
(dp3669
g74
(dp3670
g94
g95
ssg83
g3664
sg76
(lp3671
g2545
asbag69
(g90
g71
NtRp3672
(dp3673
g74
(dp3674
g101
g102
ssg83
g3664
sg76
(lp3675
S':'
asbag69
(g90
g71
NtRp3676
(dp3677
g74
(dp3678
sg83
g3664
sg76
(lp3679
g69
(g70
g71
NtRp3680
(dp3681
g74
(dp3682
g82
I4
ssg83
g3676
sg76
(lp3683
S"set(['/home/pankaj/web2py/applications/admin/', '/home/pankaj/web2py/applications/welcome/', '/home/pankaj/web2py/applications/reddit/'])"
p3684
asbasbasbag69
(g85
g71
NtRp3685
(dp3686
g74
(dp3687
sg83
g3660
sg76
(lp3688
g69
(g90
g71
NtRp3689
(dp3690
g74
(dp3691
g94
g95
ssg83
g3685
sg76
(lp3692
g2567
asbag69
(g90
g71
NtRp3693
(dp3694
g74
(dp3695
g101
g102
ssg83
g3685
sg76
(lp3696
S':'
asbag69
(g90
g71
NtRp3697
(dp3698
g74
(dp3699
sg83
g3685
sg76
(lp3700
g69
(g70
g71
NtRp3701
(dp3702
g74
(dp3703
g82
I4
ssg83
g3697
sg76
(lp3704
g2580
asbasbasbag69
(g85
g71
NtRp3705
(dp3706
g74
(dp3707
sg83
g3660
sg76
(lp3708
g69
(g90
g71
NtRp3709
(dp3710
g74
(dp3711
g94
g95
ssg83
g3705
sg76
(lp3712
g2589
asbag69
(g90
g71
NtRp3713
(dp3714
g74
(dp3715
g101
g102
ssg83
g3705
sg76
(lp3716
S':'
asbag69
(g90
g71
NtRp3717
(dp3718
g74
(dp3719
sg83
g3705
sg76
(lp3720
g69
(g70
g71
NtRp3721
(dp3722
g74
(dp3723
g82
I4
ssg83
g3717
sg76
(lp3724
g69
(g78
g71
NtRp3725
(dp3726
g74
(dp3727
g82
I3
ssg83
Nsg76
(lp3728
sbasbasbasbag69
(g85
g71
NtRp3729
(dp3730
g74
(dp3731
sg83
g3660
sg76
(lp3732
g69
(g90
g71
NtRp3733
(dp3734
g74
(dp3735
g94
g95
ssg83
g3729
sg76
(lp3736
g2614
asbag69
(g90
g71
NtRp3737
(dp3738
g74
(dp3739
g101
g102
ssg83
g3729
sg76
(lp3740
S':'
asbag69
(g90
g71
NtRp3741
(dp3742
g74
(dp3743
sg83
g3729
sg76
(lp3744
g69
(g70
g71
NtRp3745
(dp3746
g74
(dp3747
g82
I4
ssg83
g3741
sg76
(lp3748
S"<Values at 0x8949dcc: {'verbose': False, 'ip': '127.0.0.1', 'with_scheduler': False, 'ips': [], 'shutdown_timeout': 5, 'taskbar': False, 'port': 8000, 'maxthreads': None, 'softcron': False, 'server_name': 'pankaj-HP-Pavilion-dv4-Notebook-PC', 'bpython': False, 'nogui': False, 'pid_filename': 'httpserver.pid', 'extcron': False, 'runcron': False, 'run_system_tests': False, 'test': None, 'folder': '/home/pankaj/web2py', 'config': '', 'import_models': False, 'winservice': '', 'shell': None, 'run': '', 'log_filename': 'httpserver.log', 'debuglevel': 30, 'args': [''], 'socket_timeout': 5, 'ssl_ca_certificate': None, 'scheduler': None, 'profiler_filename': None, 'ssl_private_key': '', 'scheduler_groups': None, 'password': '<ask>', 'request_queue_size': 5, 'ssl_certificate': '', 'cronjob': False, 'numthreads': None, 'quiet': False, 'interfaces': None, 'minthreads': None, 'timeout': 10, 'plain': False, 'nobanner': False}>"
p3749
asbasbasbag69
(g85
g71
NtRp3750
(dp3751
g74
(dp3752
sg83
g3660
sg76
(lp3753
g69
(g90
g71
NtRp3754
(dp3755
g74
(dp3756
g94
g95
ssg83
g3750
sg76
(lp3757
g2636
asbag69
(g90
g71
NtRp3758
(dp3759
g74
(dp3760
g101
g102
ssg83
g3750
sg76
(lp3761
S':'
asbag69
(g90
g71
NtRp3762
(dp3763
g74
(dp3764
sg83
g3750
sg76
(lp3765
g69
(g70
g71
NtRp3766
(dp3767
g74
(dp3768
g82
I4
ssg83
g3762
sg76
(lp3769
S'set([])'
p3770
asbasbasbag69
(g85
g71
NtRp3771
(dp3772
g74
(dp3773
sg83
g3660
sg76
(lp3774
g69
(g90
g71
NtRp3775
(dp3776
g74
(dp3777
g94
g95
ssg83
g3771
sg76
(lp3778
g2658
asbag69
(g90
g71
NtRp3779
(dp3780
g74
(dp3781
g101
g102
ssg83
g3771
sg76
(lp3782
S':'
asbag69
(g90
g71
NtRp3783
(dp3784
g74
(dp3785
sg83
g3771
sg76
(lp3786
g69
(g70
g71
NtRp3787
(dp3788
g74
(dp3789
g82
I4
ssg83
g3783
sg76
(lp3790
g112
asbasbasbag69
(g85
g71
NtRp3791
(dp3792
g74
(dp3793
sg83
g3660
sg76
(lp3794
g69
(g90
g71
NtRp3795
(dp3796
g74
(dp3797
g94
g95
ssg83
g3791
sg76
(lp3798
g2679
asbag69
(g90
g71
NtRp3799
(dp3800
g74
(dp3801
g101
g102
ssg83
g3791
sg76
(lp3802
S':'
asbag69
(g90
g71
NtRp3803
(dp3804
g74
(dp3805
sg83
g3791
sg76
(lp3806
g69
(g70
g71
NtRp3807
(dp3808
g74
(dp3809
g82
I4
ssg83
g3803
sg76
(lp3810
g2692
asbasbasbag69
(g85
g71
NtRp3811
(dp3812
g74
(dp3813
sg83
g3660
sg76
(lp3814
g69
(g90
g71
NtRp3815
(dp3816
g74
(dp3817
g94
g95
ssg83
g3811
sg76
(lp3818
g2877
asbag69
(g90
g71
NtRp3819
(dp3820
g74
(dp3821
g101
g102
ssg83
g3811
sg76
(lp3822
S':'
asbag69
(g90
g71
NtRp3823
(dp3824
g74
(dp3825
sg83
g3811
sg76
(lp3826
g69
(g70
g71
NtRp3827
(dp3828
g74
(dp3829
g82
I4
ssg83
g3823
sg76
(lp3830
g112
asbasbasbag69
(g85
g71
NtRp3831
(dp3832
g74
(dp3833
sg83
g3660
sg76
(lp3834
g69
(g90
g71
NtRp3835
(dp3836
g74
(dp3837
g94
g95
ssg83
g3831
sg76
(lp3838
g2898
asbag69
(g90
g71
NtRp3839
(dp3840
g74
(dp3841
g101
g102
ssg83
g3831
sg76
(lp3842
S':'
asbag69
(g90
g71
NtRp3843
(dp3844
g74
(dp3845
sg83
g3831
sg76
(lp3846
g69
(g70
g71
NtRp3847
(dp3848
g74
(dp3849
g82
I4
ssg83
g3843
sg76
(lp3850
g112
asbasbasbag69
(g85
g71
NtRp3851
(dp3852
g74
(dp3853
sg83
g3660
sg76
(lp3854
g69
(g90
g71
NtRp3855
(dp3856
g74
(dp3857
g94
g95
ssg83
g3851
sg76
(lp3858
g2919
asbag69
(g90
g71
NtRp3859
(dp3860
g74
(dp3861
g101
g102
ssg83
g3851
sg76
(lp3862
S':'
asbag69
(g90
g71
NtRp3863
(dp3864
g74
(dp3865
sg83
g3851
sg76
(lp3866
g69
(g70
g71
NtRp3867
(dp3868
g74
(dp3869
g82
I4
ssg83
g3863
sg76
(lp3870
g69
(g78
g71
NtRp3871
(dp3872
g74
(dp3873
g82
I3
ssg83
Nsg76
(lp3874
g69
(g85
g71
NtRp3875
(dp3876
g74
(dp3877
sg83
g3871
sg76
(lp3878
g69
(g90
g71
NtRp3879
(dp3880
g74
(dp3881
sg83
g3875
sg76
(lp3882
g69
(g70
g71
NtRp3883
(dp3884
g74
(dp3885
g82
I3
ssg83
g3879
sg76
(lp3886
g2948
asbasbasbag69
(g85
g71
NtRp3887
(dp3888
g74
(dp3889
sg83
g3871
sg76
(lp3890
g69
(g90
g71
NtRp3891
(dp3892
g74
(dp3893
sg83
g3887
sg76
(lp3894
g69
(g70
g71
NtRp3895
(dp3896
g74
(dp3897
g82
I3
ssg83
g3891
sg76
(lp3898
g2961
asbasbasbag69
(g85
g71
NtRp3899
(dp3900
g74
(dp3901
sg83
g3871
sg76
(lp3902
g69
(g90
g71
NtRp3903
(dp3904
g74
(dp3905
sg83
g3899
sg76
(lp3906
g69
(g70
g71
NtRp3907
(dp3908
g74
(dp3909
g82
I3
ssg83
g3903
sg76
(lp3910
g2974
asbasbasbag69
(g85
g71
NtRp3911
(dp3912
g74
(dp3913
sg83
g3871
sg76
(lp3914
g69
(g90
g71
NtRp3915
(dp3916
g74
(dp3917
sg83
g3911
sg76
(lp3918
g69
(g70
g71
NtRp3919
(dp3920
g74
(dp3921
g82
I3
ssg83
g3915
sg76
(lp3922
g2987
asbasbasbag69
(g85
g71
NtRp3923
(dp3924
g74
(dp3925
sg83
g3871
sg76
(lp3926
g69
(g90
g71
NtRp3927
(dp3928
g74
(dp3929
sg83
g3923
sg76
(lp3930
g69
(g70
g71
NtRp3931
(dp3932
g74
(dp3933
g82
I3
ssg83
g3927
sg76
(lp3934
g3000
asbasbasbasbasbasbasbag69
(g85
g71
NtRp3935
(dp3936
g74
(dp3937
sg83
g3660
sg76
(lp3938
g69
(g90
g71
NtRp3939
(dp3940
g74
(dp3941
g94
g95
ssg83
g3935
sg76
(lp3942
g3268
asbag69
(g90
g71
NtRp3943
(dp3944
g74
(dp3945
g101
g102
ssg83
g3935
sg76
(lp3946
S':'
asbag69
(g90
g71
NtRp3947
(dp3948
g74
(dp3949
sg83
g3935
sg76
(lp3950
g69
(g70
g71
NtRp3951
(dp3952
g74
(dp3953
g82
I4
ssg83
g3947
sg76
(lp3954
g69
(g78
g71
NtRp3955
(dp3956
g74
(dp3957
g82
I3
ssg83
Nsg76
(lp3958
g69
(g85
g71
NtRp3959
(dp3960
g74
(dp3961
sg83
g3955
sg76
(lp3962
g69
(g90
g71
NtRp3963
(dp3964
g74
(dp3965
sg83
g3959
sg76
(lp3966
g69
(g70
g71
NtRp3967
(dp3968
g74
(dp3969
g82
I3
ssg83
g3963
sg76
(lp3970
S'2'
asbasbasbag69
(g85
g71
NtRp3971
(dp3972
g74
(dp3973
sg83
g3955
sg76
(lp3974
g69
(g90
g71
NtRp3975
(dp3976
g74
(dp3977
sg83
g3971
sg76
(lp3978
g69
(g70
g71
NtRp3979
(dp3980
g74
(dp3981
g82
I3
ssg83
g3975
sg76
(lp3982
S'3'
asbasbasbag69
(g85
g71
NtRp3983
(dp3984
g74
(dp3985
sg83
g3955
sg76
(lp3986
g69
(g90
g71
NtRp3987
(dp3988
g74
(dp3989
sg83
g3983
sg76
(lp3990
g69
(g70
g71
NtRp3991
(dp3992
g74
(dp3993
g82
I3
ssg83
g3987
sg76
(lp3994
S'2'
asbasbasbag69
(g85
g71
NtRp3995
(dp3996
g74
(dp3997
sg83
g3955
sg76
(lp3998
g69
(g90
g71
NtRp3999
(dp4000
g74
(dp4001
sg83
g3995
sg76
(lp4002
g69
(g70
g71
NtRp4003
(dp4004
g74
(dp4005
g82
I3
ssg83
g3999
sg76
(lp4006
S'datetime.datetime(2012, 12, 17, 15, 3, 30)'
p4007
asbasbasbag69
(g85
g71
NtRp4008
(dp4009
g74
(dp4010
sg83
g3955
sg76
(lp4011
g69
(g90
g71
NtRp4012
(dp4013
g74
(dp4014
sg83
g4008
sg76
(lp4015
g69
(g70
g71
NtRp4016
(dp4017
g74
(dp4018
g82
I3
ssg83
g4012
sg76
(lp4019
g3346
asbasbasbasbasbasbasbasbasbasbasbag69
(g85
g71
NtRp4020
(dp4021
g74
(dp4022
sg83
g79
sg76
(lp4023
g69
(g90
g71
NtRp4024
(dp4025
g74
(dp4026
g94
g95
ssg83
g4020
sg76
(lp4027
S'is_https'
p4028
asbag69
(g90
g71
NtRp4029
(dp4030
g74
(dp4031
g101
g102
ssg83
g4020
sg76
(lp4032
S':'
asbag69
(g90
g71
NtRp4033
(dp4034
g74
(dp4035
sg83
g4020
sg76
(lp4036
g69
(g70
g71
NtRp4037
(dp4038
g74
(dp4039
g82
I5
ssg83
g4033
sg76
(lp4040
g112
asbasbasbag69
(g85
g71
NtRp4041
(dp4042
g74
(dp4043
sg83
g79
sg76
(lp4044
g69
(g90
g71
NtRp4045
(dp4046
g74
(dp4047
g94
g95
ssg83
g4041
sg76
(lp4048
S'is_local'
p4049
asbag69
(g90
g71
NtRp4050
(dp4051
g74
(dp4052
g101
g102
ssg83
g4041
sg76
(lp4053
S':'
asbag69
(g90
g71
NtRp4054
(dp4055
g74
(dp4056
sg83
g4041
sg76
(lp4057
g69
(g70
g71
NtRp4058
(dp4059
g74
(dp4060
g82
I5
ssg83
g4054
sg76
(lp4061
g3455
asbasbasbag69
(g85
g71
NtRp4062
(dp4063
g74
(dp4064
sg83
g79
sg76
(lp4065
g69
(g90
g71
NtRp4066
(dp4067
g74
(dp4068
g94
g95
ssg83
g4062
sg76
(lp4069
S'is_restful'
p4070
asbag69
(g90
g71
NtRp4071
(dp4072
g74
(dp4073
g101
g102
ssg83
g4062
sg76
(lp4074
S':'
asbag69
(g90
g71
NtRp4075
(dp4076
g74
(dp4077
sg83
g4062
sg76
(lp4078
g69
(g70
g71
NtRp4079
(dp4080
g74
(dp4081
g82
I5
ssg83
g4075
sg76
(lp4082
g112
asbasbasbag69
(g85
g71
NtRp4083
(dp4084
g74
(dp4085
sg83
g79
sg76
(lp4086
g69
(g90
g71
NtRp4087
(dp4088
g74
(dp4089
g94
g95
ssg83
g4083
sg76
(lp4090
S'now'
p4091
asbag69
(g90
g71
NtRp4092
(dp4093
g74
(dp4094
g101
g102
ssg83
g4083
sg76
(lp4095
S':'
asbag69
(g90
g71
NtRp4096
(dp4097
g74
(dp4098
sg83
g4083
sg76
(lp4099
g69
(g70
g71
NtRp4100
(dp4101
g74
(dp4102
g82
I5
ssg83
g4096
sg76
(lp4103
S'datetime.datetime(2013, 8, 28, 20, 39, 26, 271248)'
p4104
asbasbasbag69
(g85
g71
NtRp4105
(dp4106
g74
(dp4107
sg83
g79
sg76
(lp4108
g69
(g90
g71
NtRp4109
(dp4110
g74
(dp4111
g94
g95
ssg83
g4105
sg76
(lp4112
S'post_vars'
p4113
asbag69
(g90
g71
NtRp4114
(dp4115
g74
(dp4116
g101
g102
ssg83
g4105
sg76
(lp4117
S':'
asbag69
(g90
g71
NtRp4118
(dp4119
g74
(dp4120
sg83
g4105
sg76
(lp4121
g69
(g70
g71
NtRp4122
(dp4123
g74
(dp4124
g82
I5
ssg83
g4118
sg76
(lp4125
g69
(g78
g71
NtRp4126
(dp4127
g74
(dp4128
g82
I4
ssg83
Nsg76
(lp4129
sbasbasbasbag69
(g85
g71
NtRp4130
(dp4131
g74
(dp4132
sg83
g79
sg76
(lp4133
g69
(g90
g71
NtRp4134
(dp4135
g74
(dp4136
g94
g95
ssg83
g4130
sg76
(lp4137
S'raw_args'
p4138
asbag69
(g90
g71
NtRp4139
(dp4140
g74
(dp4141
g101
g102
ssg83
g4130
sg76
(lp4142
S':'
asbag69
(g90
g71
NtRp4143
(dp4144
g74
(dp4145
sg83
g4130
sg76
(lp4146
g69
(g70
g71
NtRp4147
(dp4148
g74
(dp4149
g82
I5
ssg83
g4143
sg76
(lp4150
S''
asbasbasbag69
(g85
g71
NtRp4151
(dp4152
g74
(dp4153
sg83
g79
sg76
(lp4154
g69
(g90
g71
NtRp4155
(dp4156
g74
(dp4157
g94
g95
ssg83
g4151
sg76
(lp4158
S'raw_extension'
p4159
asbag69
(g90
g71
NtRp4160
(dp4161
g74
(dp4162
g101
g102
ssg83
g4151
sg76
(lp4163
S':'
asbag69
(g90
g71
NtRp4164
(dp4165
g74
(dp4166
sg83
g4151
sg76
(lp4167
g69
(g70
g71
NtRp4168
(dp4169
g74
(dp4170
g82
I5
ssg83
g4164
sg76
(lp4171
S'None'
p4172
asbasbasbag69
(g85
g71
NtRp4173
(dp4174
g74
(dp4175
sg83
g79
sg76
(lp4176
g69
(g90
g71
NtRp4177
(dp4178
g74
(dp4179
g94
g95
ssg83
g4173
sg76
(lp4180
S'url'
p4181
asbag69
(g90
g71
NtRp4182
(dp4183
g74
(dp4184
g101
g102
ssg83
g4173
sg76
(lp4185
S':'
asbag69
(g90
g71
NtRp4186
(dp4187
g74
(dp4188
sg83
g4173
sg76
(lp4189
g69
(g70
g71
NtRp4190
(dp4191
g74
(dp4192
g82
I5
ssg83
g4186
sg76
(lp4193
g3022
asbasbasbag69
(g85
g71
NtRp4194
(dp4195
g74
(dp4196
sg83
g79
sg76
(lp4197
g69
(g90
g71
NtRp4198
(dp4199
g74
(dp4200
g94
g95
ssg83
g4194
sg76
(lp4201
S'utcnow'
p4202
asbag69
(g90
g71
NtRp4203
(dp4204
g74
(dp4205
g101
g102
ssg83
g4194
sg76
(lp4206
S':'
asbag69
(g90
g71
NtRp4207
(dp4208
g74
(dp4209
sg83
g4194
sg76
(lp4210
g69
(g70
g71
NtRp4211
(dp4212
g74
(dp4213
g82
I5
ssg83
g4207
sg76
(lp4214
S'datetime.datetime(2013, 8, 28, 15, 9, 26, 271280)'
p4215
asbasbasbag69
(g85
g71
NtRp4216
(dp4217
g74
(dp4218
sg83
g79
sg76
(lp4219
g69
(g90
g71
NtRp4220
(dp4221
g74
(dp4222
g94
g95
ssg83
g4216
sg76
(lp4223
S'uuid'
p4224
asbag69
(g90
g71
NtRp4225
(dp4226
g74
(dp4227
g101
g102
ssg83
g4216
sg76
(lp4228
S':'
asbag69
(g90
g71
NtRp4229
(dp4230
g74
(dp4231
sg83
g4216
sg76
(lp4232
g69
(g70
g71
NtRp4233
(dp4234
g74
(dp4235
g82
I5
ssg83
g4229
sg76
(lp4236
S'reddit/127.0.0.1.2013-08-28.20-39-26.0131544d-cbac-41b5-998d-11e40230114c'
p4237
asbasbasbag69
(g85
g71
NtRp4238
(dp4239
g74
(dp4240
sg83
g79
sg76
(lp4241
g69
(g90
g71
NtRp4242
(dp4243
g74
(dp4244
g94
g95
ssg83
g4238
sg76
(lp4245
S'vars'
p4246
asbag69
(g90
g71
NtRp4247
(dp4248
g74
(dp4249
g101
g102
ssg83
g4238
sg76
(lp4250
S':'
asbag69
(g90
g71
NtRp4251
(dp4252
g74
(dp4253
sg83
g4238
sg76
(lp4254
g69
(g70
g71
NtRp4255
(dp4256
g74
(dp4257
g82
I5
ssg83
g4251
sg76
(lp4258
g69
(g78
g71
NtRp4259
(dp4260
g74
(dp4261
g82
I4
ssg83
Nsg76
(lp4262
sbasbasbasbag69
(g85
g71
NtRp4263
(dp4264
g74
(dp4265
sg83
g79
sg76
(lp4266
g69
(g90
g71
NtRp4267
(dp4268
g74
(dp4269
g94
g95
ssg83
g4263
sg76
(lp4270
S'wsgi'
p4271
asbag69
(g90
g71
NtRp4272
(dp4273
g74
(dp4274
g101
g102
ssg83
g4263
sg76
(lp4275
S':'
asbag69
(g90
g71
NtRp4276
(dp4277
g74
(dp4278
sg83
g4263
sg76
(lp4279
g69
(g70
g71
NtRp4280
(dp4281
g74
(dp4282
g82
I5
ssg83
g4276
sg76
(lp4283
g69
(g78
g71
NtRp4284
(dp4285
g74
(dp4286
g82
I4
ssg83
Nsg76
(lp4287
g69
(g85
g71
NtRp4288
(dp4289
g74
(dp4290
sg83
g4284
sg76
(lp4291
g69
(g90
g71
NtRp4292
(dp4293
g74
(dp4294
g94
g95
ssg83
g4288
sg76
(lp4295
S'environ'
p4296
asbag69
(g90
g71
NtRp4297
(dp4298
g74
(dp4299
g101
g102
ssg83
g4288
sg76
(lp4300
S':'
asbag69
(g90
g71
NtRp4301
(dp4302
g74
(dp4303
sg83
g4288
sg76
(lp4304
g69
(g70
g71
NtRp4305
(dp4306
g74
(dp4307
g82
I4
ssg83
g4301
sg76
(lp4308
g69
(g78
g71
NtRp4309
(dp4310
g74
(dp4311
g82
I3
ssg83
Nsg76
(lp4312
g69
(g85
g71
NtRp4313
(dp4314
g74
(dp4315
sg83
g4309
sg76
(lp4316
g69
(g90
g71
NtRp4317
(dp4318
g74
(dp4319
g94
g95
ssg83
g4313
sg76
(lp4320
S'HTTP_ACCEPT'
p4321
asbag69
(g90
g71
NtRp4322
(dp4323
g74
(dp4324
g101
g102
ssg83
g4313
sg76
(lp4325
S':'
asbag69
(g90
g71
NtRp4326
(dp4327
g74
(dp4328
sg83
g4313
sg76
(lp4329
g69
(g70
g71
NtRp4330
(dp4331
g74
(dp4332
g82
I3
ssg83
g4326
sg76
(lp4333
g2714
asbasbasbag69
(g85
g71
NtRp4334
(dp4335
g74
(dp4336
sg83
g4309
sg76
(lp4337
g69
(g90
g71
NtRp4338
(dp4339
g74
(dp4340
g94
g95
ssg83
g4334
sg76
(lp4341
S'HTTP_ACCEPT_ENCODING'
p4342
asbag69
(g90
g71
NtRp4343
(dp4344
g74
(dp4345
g101
g102
ssg83
g4334
sg76
(lp4346
S':'
asbag69
(g90
g71
NtRp4347
(dp4348
g74
(dp4349
sg83
g4334
sg76
(lp4350
g69
(g70
g71
NtRp4351
(dp4352
g74
(dp4353
g82
I3
ssg83
g4347
sg76
(lp4354
g2736
asbasbasbag69
(g85
g71
NtRp4355
(dp4356
g74
(dp4357
sg83
g4309
sg76
(lp4358
g69
(g90
g71
NtRp4359
(dp4360
g74
(dp4361
g94
g95
ssg83
g4355
sg76
(lp4362
S'HTTP_ACCEPT_LANGUAGE'
p4363
asbag69
(g90
g71
NtRp4364
(dp4365
g74
(dp4366
g101
g102
ssg83
g4355
sg76
(lp4367
S':'
asbag69
(g90
g71
NtRp4368
(dp4369
g74
(dp4370
sg83
g4355
sg76
(lp4371
g69
(g70
g71
NtRp4372
(dp4373
g74
(dp4374
g82
I3
ssg83
g4368
sg76
(lp4375
g2758
asbasbasbag69
(g85
g71
NtRp4376
(dp4377
g74
(dp4378
sg83
g4309
sg76
(lp4379
g69
(g90
g71
NtRp4380
(dp4381
g74
(dp4382
g94
g95
ssg83
g4376
sg76
(lp4383
S'HTTP_CONNECTION'
p4384
asbag69
(g90
g71
NtRp4385
(dp4386
g74
(dp4387
g101
g102
ssg83
g4376
sg76
(lp4388
S':'
asbag69
(g90
g71
NtRp4389
(dp4390
g74
(dp4391
sg83
g4376
sg76
(lp4392
g69
(g70
g71
NtRp4393
(dp4394
g74
(dp4395
g82
I3
ssg83
g4389
sg76
(lp4396
g2780
asbasbasbag69
(g85
g71
NtRp4397
(dp4398
g74
(dp4399
sg83
g4309
sg76
(lp4400
g69
(g90
g71
NtRp4401
(dp4402
g74
(dp4403
g94
g95
ssg83
g4397
sg76
(lp4404
S'HTTP_COOKIE'
p4405
asbag69
(g90
g71
NtRp4406
(dp4407
g74
(dp4408
g101
g102
ssg83
g4397
sg76
(lp4409
S':'
asbag69
(g90
g71
NtRp4410
(dp4411
g74
(dp4412
sg83
g4397
sg76
(lp4413
g69
(g70
g71
NtRp4414
(dp4415
g74
(dp4416
g82
I3
ssg83
g4410
sg76
(lp4417
g2802
asbasbasbag69
(g85
g71
NtRp4418
(dp4419
g74
(dp4420
sg83
g4309
sg76
(lp4421
g69
(g90
g71
NtRp4422
(dp4423
g74
(dp4424
g94
g95
ssg83
g4418
sg76
(lp4425
S'HTTP_HOST'
p4426
asbag69
(g90
g71
NtRp4427
(dp4428
g74
(dp4429
g101
g102
ssg83
g4418
sg76
(lp4430
S':'
asbag69
(g90
g71
NtRp4431
(dp4432
g74
(dp4433
sg83
g4418
sg76
(lp4434
g69
(g70
g71
NtRp4435
(dp4436
g74
(dp4437
g82
I3
ssg83
g4431
sg76
(lp4438
g2824
asbasbasbag69
(g85
g71
NtRp4439
(dp4440
g74
(dp4441
sg83
g4309
sg76
(lp4442
g69
(g90
g71
NtRp4443
(dp4444
g74
(dp4445
g94
g95
ssg83
g4439
sg76
(lp4446
S'HTTP_REFERER'
p4447
asbag69
(g90
g71
NtRp4448
(dp4449
g74
(dp4450
g101
g102
ssg83
g4439
sg76
(lp4451
S':'
asbag69
(g90
g71
NtRp4452
(dp4453
g74
(dp4454
sg83
g4439
sg76
(lp4455
g69
(g70
g71
NtRp4456
(dp4457
g74
(dp4458
g82
I3
ssg83
g4452
sg76
(lp4459
g2846
asbasbasbag69
(g85
g71
NtRp4460
(dp4461
g74
(dp4462
sg83
g4309
sg76
(lp4463
g69
(g90
g71
NtRp4464
(dp4465
g74
(dp4466
g94
g95
ssg83
g4460
sg76
(lp4467
S'HTTP_USER_AGENT'
p4468
asbag69
(g90
g71
NtRp4469
(dp4470
g74
(dp4471
g101
g102
ssg83
g4460
sg76
(lp4472
S':'
asbag69
(g90
g71
NtRp4473
(dp4474
g74
(dp4475
sg83
g4460
sg76
(lp4476
g69
(g70
g71
NtRp4477
(dp4478
g74
(dp4479
g82
I3
ssg83
g4473
sg76
(lp4480
g2868
asbasbasbag69
(g85
g71
NtRp4481
(dp4482
g74
(dp4483
sg83
g4309
sg76
(lp4484
g69
(g90
g71
NtRp4485
(dp4486
g74
(dp4487
g94
g95
ssg83
g4481
sg76
(lp4488
S'PATH_INFO'
p4489
asbag69
(g90
g71
NtRp4490
(dp4491
g74
(dp4492
g101
g102
ssg83
g4481
sg76
(lp4493
S':'
asbag69
(g90
g71
NtRp4494
(dp4495
g74
(dp4496
sg83
g4481
sg76
(lp4497
g69
(g70
g71
NtRp4498
(dp4499
g74
(dp4500
g82
I3
ssg83
g4494
sg76
(lp4501
g3022
asbasbasbag69
(g85
g71
NtRp4502
(dp4503
g74
(dp4504
sg83
g4309
sg76
(lp4505
g69
(g90
g71
NtRp4506
(dp4507
g74
(dp4508
g94
g95
ssg83
g4502
sg76
(lp4509
S'QUERY_STRING'
p4510
asbag69
(g90
g71
NtRp4511
(dp4512
g74
(dp4513
g101
g102
ssg83
g4502
sg76
(lp4514
S':'
asbag69
(g90
g71
NtRp4515
(dp4516
g74
(dp4517
sg83
g4502
sg76
(lp4518
g69
(g70
g71
NtRp4519
(dp4520
g74
(dp4521
g82
I3
ssg83
g4515
sg76
(lp4522
S''
asbasbasbag69
(g85
g71
NtRp4523
(dp4524
g74
(dp4525
sg83
g4309
sg76
(lp4526
g69
(g90
g71
NtRp4527
(dp4528
g74
(dp4529
g94
g95
ssg83
g4523
sg76
(lp4530
S'REMOTE_ADDR'
p4531
asbag69
(g90
g71
NtRp4532
(dp4533
g74
(dp4534
g101
g102
ssg83
g4523
sg76
(lp4535
S':'
asbag69
(g90
g71
NtRp4536
(dp4537
g74
(dp4538
sg83
g4523
sg76
(lp4539
g69
(g70
g71
NtRp4540
(dp4541
g74
(dp4542
g82
I3
ssg83
g4536
sg76
(lp4543
g224
asbasbasbag69
(g85
g71
NtRp4544
(dp4545
g74
(dp4546
sg83
g4309
sg76
(lp4547
g69
(g90
g71
NtRp4548
(dp4549
g74
(dp4550
g94
g95
ssg83
g4544
sg76
(lp4551
S'REMOTE_PORT'
p4552
asbag69
(g90
g71
NtRp4553
(dp4554
g74
(dp4555
g101
g102
ssg83
g4544
sg76
(lp4556
S':'
asbag69
(g90
g71
NtRp4557
(dp4558
g74
(dp4559
sg83
g4544
sg76
(lp4560
g69
(g70
g71
NtRp4561
(dp4562
g74
(dp4563
g82
I3
ssg83
g4557
sg76
(lp4564
g3086
asbasbasbag69
(g85
g71
NtRp4565
(dp4566
g74
(dp4567
sg83
g4309
sg76
(lp4568
g69
(g90
g71
NtRp4569
(dp4570
g74
(dp4571
g94
g95
ssg83
g4565
sg76
(lp4572
S'REQUEST_METHOD'
p4573
asbag69
(g90
g71
NtRp4574
(dp4575
g74
(dp4576
g101
g102
ssg83
g4565
sg76
(lp4577
S':'
asbag69
(g90
g71
NtRp4578
(dp4579
g74
(dp4580
sg83
g4565
sg76
(lp4581
g69
(g70
g71
NtRp4582
(dp4583
g74
(dp4584
g82
I3
ssg83
g4578
sg76
(lp4585
g3108
asbasbasbag69
(g85
g71
NtRp4586
(dp4587
g74
(dp4588
sg83
g4309
sg76
(lp4589
g69
(g90
g71
NtRp4590
(dp4591
g74
(dp4592
g94
g95
ssg83
g4586
sg76
(lp4593
S'REQUEST_URI'
p4594
asbag69
(g90
g71
NtRp4595
(dp4596
g74
(dp4597
g101
g102
ssg83
g4586
sg76
(lp4598
S':'
asbag69
(g90
g71
NtRp4599
(dp4600
g74
(dp4601
sg83
g4586
sg76
(lp4602
g69
(g70
g71
NtRp4603
(dp4604
g74
(dp4605
g82
I3
ssg83
g4599
sg76
(lp4606
g3022
asbasbasbag69
(g85
g71
NtRp4607
(dp4608
g74
(dp4609
sg83
g4309
sg76
(lp4610
g69
(g90
g71
NtRp4611
(dp4612
g74
(dp4613
g94
g95
ssg83
g4607
sg76
(lp4614
S'SCRIPT_NAME'
p4615
asbag69
(g90
g71
NtRp4616
(dp4617
g74
(dp4618
g101
g102
ssg83
g4607
sg76
(lp4619
S':'
asbag69
(g90
g71
NtRp4620
(dp4621
g74
(dp4622
sg83
g4607
sg76
(lp4623
g69
(g70
g71
NtRp4624
(dp4625
g74
(dp4626
g82
I3
ssg83
g4620
sg76
(lp4627
S''
asbasbasbag69
(g85
g71
NtRp4628
(dp4629
g74
(dp4630
sg83
g4309
sg76
(lp4631
g69
(g90
g71
NtRp4632
(dp4633
g74
(dp4634
g94
g95
ssg83
g4628
sg76
(lp4635
S'SERVER_NAME'
p4636
asbag69
(g90
g71
NtRp4637
(dp4638
g74
(dp4639
g101
g102
ssg83
g4628
sg76
(lp4640
S':'
asbag69
(g90
g71
NtRp4641
(dp4642
g74
(dp4643
sg83
g4628
sg76
(lp4644
g69
(g70
g71
NtRp4645
(dp4646
g74
(dp4647
g82
I3
ssg83
g4641
sg76
(lp4648
g3172
asbasbasbag69
(g85
g71
NtRp4649
(dp4650
g74
(dp4651
sg83
g4309
sg76
(lp4652
g69
(g90
g71
NtRp4653
(dp4654
g74
(dp4655
g94
g95
ssg83
g4649
sg76
(lp4656
S'SERVER_PORT'
p4657
asbag69
(g90
g71
NtRp4658
(dp4659
g74
(dp4660
g101
g102
ssg83
g4649
sg76
(lp4661
S':'
asbag69
(g90
g71
NtRp4662
(dp4663
g74
(dp4664
sg83
g4649
sg76
(lp4665
g69
(g70
g71
NtRp4666
(dp4667
g74
(dp4668
g82
I3
ssg83
g4662
sg76
(lp4669
g3194
asbasbasbag69
(g85
g71
NtRp4670
(dp4671
g74
(dp4672
sg83
g4309
sg76
(lp4673
g69
(g90
g71
NtRp4674
(dp4675
g74
(dp4676
g94
g95
ssg83
g4670
sg76
(lp4677
S'SERVER_PROTOCOL'
p4678
asbag69
(g90
g71
NtRp4679
(dp4680
g74
(dp4681
g101
g102
ssg83
g4670
sg76
(lp4682
S':'
asbag69
(g90
g71
NtRp4683
(dp4684
g74
(dp4685
sg83
g4670
sg76
(lp4686
g69
(g70
g71
NtRp4687
(dp4688
g74
(dp4689
g82
I3
ssg83
g4683
sg76
(lp4690
g3216
asbasbasbag69
(g85
g71
NtRp4691
(dp4692
g74
(dp4693
sg83
g4309
sg76
(lp4694
g69
(g90
g71
NtRp4695
(dp4696
g74
(dp4697
g94
g95
ssg83
g4691
sg76
(lp4698
S'SERVER_SOFTWARE'
p4699
asbag69
(g90
g71
NtRp4700
(dp4701
g74
(dp4702
g101
g102
ssg83
g4691
sg76
(lp4703
S':'
asbag69
(g90
g71
NtRp4704
(dp4705
g74
(dp4706
sg83
g4691
sg76
(lp4707
g69
(g70
g71
NtRp4708
(dp4709
g74
(dp4710
g82
I3
ssg83
g4704
sg76
(lp4711
g3238
asbasbasbag69
(g85
g71
NtRp4712
(dp4713
g74
(dp4714
sg83
g4309
sg76
(lp4715
g69
(g90
g71
NtRp4716
(dp4717
g74
(dp4718
g94
g95
ssg83
g4712
sg76
(lp4719
S'wsgi.errors'
p4720
asbag69
(g90
g71
NtRp4721
(dp4722
g74
(dp4723
g101
g102
ssg83
g4712
sg76
(lp4724
S':'
asbag69
(g90
g71
NtRp4725
(dp4726
g74
(dp4727
sg83
g4712
sg76
(lp4728
g69
(g70
g71
NtRp4729
(dp4730
g74
(dp4731
g82
I3
ssg83
g4725
sg76
(lp4732
S"<open file '<stderr>', mode 'w' at 0xb72ac0d0>"
p4733
asbasbasbag69
(g85
g71
NtRp4734
(dp4735
g74
(dp4736
sg83
g4309
sg76
(lp4737
g69
(g90
g71
NtRp4738
(dp4739
g74
(dp4740
g94
g95
ssg83
g4734
sg76
(lp4741
S'wsgi.file_wrapper'
p4742
asbag69
(g90
g71
NtRp4743
(dp4744
g74
(dp4745
g101
g102
ssg83
g4734
sg76
(lp4746
S':'
asbag69
(g90
g71
NtRp4747
(dp4748
g74
(dp4749
sg83
g4734
sg76
(lp4750
g69
(g70
g71
NtRp4751
(dp4752
g74
(dp4753
g82
I3
ssg83
g4747
sg76
(lp4754
S'<class wsgiref.util.FileWrapper at 0x890f05c>'
p4755
asbasbasbag69
(g85
g71
NtRp4756
(dp4757
g74
(dp4758
sg83
g4309
sg76
(lp4759
g69
(g90
g71
NtRp4760
(dp4761
g74
(dp4762
g94
g95
ssg83
g4756
sg76
(lp4763
S'wsgi.input'
p4764
asbag69
(g90
g71
NtRp4765
(dp4766
g74
(dp4767
g101
g102
ssg83
g4756
sg76
(lp4768
S':'
asbag69
(g90
g71
NtRp4769
(dp4770
g74
(dp4771
sg83
g4756
sg76
(lp4772
g69
(g70
g71
NtRp4773
(dp4774
g74
(dp4775
g82
I3
ssg83
g4769
sg76
(lp4776
S'<cStringIO.StringO object at 0x8bc46a0>'
p4777
asbasbasbag69
(g85
g71
NtRp4778
(dp4779
g74
(dp4780
sg83
g4309
sg76
(lp4781
g69
(g90
g71
NtRp4782
(dp4783
g74
(dp4784
g94
g95
ssg83
g4778
sg76
(lp4785
S'wsgi.multiprocess'
p4786
asbag69
(g90
g71
NtRp4787
(dp4788
g74
(dp4789
g101
g102
ssg83
g4778
sg76
(lp4790
S':'
asbag69
(g90
g71
NtRp4791
(dp4792
g74
(dp4793
sg83
g4778
sg76
(lp4794
g69
(g70
g71
NtRp4795
(dp4796
g74
(dp4797
g82
I3
ssg83
g4791
sg76
(lp4798
g112
asbasbasbag69
(g85
g71
NtRp4799
(dp4800
g74
(dp4801
sg83
g4309
sg76
(lp4802
g69
(g90
g71
NtRp4803
(dp4804
g74
(dp4805
g94
g95
ssg83
g4799
sg76
(lp4806
S'wsgi.multithread'
p4807
asbag69
(g90
g71
NtRp4808
(dp4809
g74
(dp4810
g101
g102
ssg83
g4799
sg76
(lp4811
S':'
asbag69
(g90
g71
NtRp4812
(dp4813
g74
(dp4814
sg83
g4799
sg76
(lp4815
g69
(g70
g71
NtRp4816
(dp4817
g74
(dp4818
g82
I3
ssg83
g4812
sg76
(lp4819
g3455
asbasbasbag69
(g85
g71
NtRp4820
(dp4821
g74
(dp4822
sg83
g4309
sg76
(lp4823
g69
(g90
g71
NtRp4824
(dp4825
g74
(dp4826
g94
g95
ssg83
g4820
sg76
(lp4827
S'wsgi.run_once'
p4828
asbag69
(g90
g71
NtRp4829
(dp4830
g74
(dp4831
g101
g102
ssg83
g4820
sg76
(lp4832
S':'
asbag69
(g90
g71
NtRp4833
(dp4834
g74
(dp4835
sg83
g4820
sg76
(lp4836
g69
(g70
g71
NtRp4837
(dp4838
g74
(dp4839
g82
I3
ssg83
g4833
sg76
(lp4840
g112
asbasbasbag69
(g85
g71
NtRp4841
(dp4842
g74
(dp4843
sg83
g4309
sg76
(lp4844
g69
(g90
g71
NtRp4845
(dp4846
g74
(dp4847
g94
g95
ssg83
g4841
sg76
(lp4848
S'wsgi.url_scheme'
p4849
asbag69
(g90
g71
NtRp4850
(dp4851
g74
(dp4852
g101
g102
ssg83
g4841
sg76
(lp4853
S':'
asbag69
(g90
g71
NtRp4854
(dp4855
g74
(dp4856
sg83
g4841
sg76
(lp4857
g69
(g70
g71
NtRp4858
(dp4859
g74
(dp4860
g82
I3
ssg83
g4854
sg76
(lp4861
g3498
asbasbasbag69
(g85
g71
NtRp4862
(dp4863
g74
(dp4864
sg83
g4309
sg76
(lp4865
g69
(g90
g71
NtRp4866
(dp4867
g74
(dp4868
g94
g95
ssg83
g4862
sg76
(lp4869
S'wsgi.version'
p4870
asbag69
(g90
g71
NtRp4871
(dp4872
g74
(dp4873
g101
g102
ssg83
g4862
sg76
(lp4874
S':'
asbag69
(g90
g71
NtRp4875
(dp4876
g74
(dp4877
sg83
g4862
sg76
(lp4878
g69
(g70
g71
NtRp4879
(dp4880
g74
(dp4881
g82
I3
ssg83
g4875
sg76
(lp4882
S'1'
asbasbasbasbasbasbasbasbasbasbasbasbasbsS'frames'
p4883
(lp4884
(dp4885
S'file'
p4886
S'/home/pankaj/web2py/gluon/restricted.py'
p4887
sS'dump'
p4888
(dp4889
S'code'
p4890
S"'# -*- coding: utf-8 -*-\\n\\n#######################...ble auditing\\n# auth.enable_record_versioning(db)\\n'"
p4891
sS'layer'
p4892
S"'/home/pankaj/web2py/applications/reddit/models/db.py'"
p4893
sS'global compile2'
p4894
S'<function compile2>'
p4895
sS'ccode'
p4896
S'undefined'
p4897
ssS'lnum'
p4898
I211
sS'lines'
p4899
(dp4900
I206
S"    environment['__name__'] = '__restricted__'"
p4901
sI207
S'    try:'
p4902
sI208
S'        if isinstance(code, types.CodeType):'
p4903
sI209
S'            ccode = code'
p4904
sI210
S'        else:'
p4905
sI211
S'            ccode = compile2(code, layer)'
p4906
sI212
S'        exec ccode in environment'
p4907
sI213
S'    except HTTP:'
p4908
sI214
S'        raise'
p4909
sI215
S'    except RestrictedError:'
p4910
ssS'call'
p4911
S"(code='# -*- coding: utf-8 -*-\\n\\n#######################...ble auditing\\n# auth.enable_record_versioning(db)\\n', environment={'A': <class 'gluon.html.A'>, 'B': <class 'gluon.html.B'>, 'BEAUTIFY': <class 'gluon.html.BEAUTIFY'>, 'BODY': <class 'gluon.html.BODY'>, 'BR': <class 'gluon.html.BR'>, 'BUTTON': <class 'gluon.html.BUTTON'>, 'CAT': <class 'gluon.html.CAT'>, 'CENTER': <class 'gluon.html.CENTER'>, 'CLEANUP': <class 'gluon.validators.CLEANUP'>, 'CODE': <class 'gluon.html.CODE'>, ...}, layer='/home/pankaj/web2py/applications/reddit/models/db.py')"
p4912
sS'func'
p4913
S'restricted'
p4914
sa(dp4915
g4886
S'/home/pankaj/web2py/gluon/restricted.py'
p4916
sg4888
(dp4917
S'builtincompile'
p4918
S'<built-in function compile>'
p4919
sS'code'
p4920
S"'# -*- coding: utf-8 -*-\\n\\n#######################...ble auditing\\n# auth.enable_record_versioning(db)\\n'"
p4921
sS'code.rstrip'
p4922
S'<built-in method rstrip of str object>'
p4923
sS').replace'
p4924
g4897
sS'layer'
p4925
S"'/home/pankaj/web2py/applications/reddit/models/db.py'"
p4926
ssg4898
I194
sg4899
(dp4927
I192
S"    The +'\\n' is necessary else compile fails when code ends in a comment."
p4928
sI193
S'    """'
p4929
sI194
S"    return compile(code.rstrip().replace('\\r\\n', '\\n') + '\\n', layer, 'exec')"
p4930
sI195
S''
sI196
S''
sI197
S"def restricted(code, environment=None, layer='Unknown'):"
p4931
sI198
S'    """'
p4932
sI189
S''
sI190
S'def compile2(code, layer):'
p4933
sI191
S'    """'
p4934
ssg4911
S"(code='# -*- coding: utf-8 -*-\\n\\n#######################...ble auditing\\n# auth.enable_record_versioning(db)\\n', layer='/home/pankaj/web2py/applications/reddit/models/db.py')"
p4935
sg4913
S'compile2'
p4936
sasS'pyver'
p4937
S'Python 2.7.3: /usr/bin/python'
p4938
sS'session'
p4939
g69
(g70
g71
NtRp4940
(dp4941
g74
(dp4942
sg76
(lp4943
g69
(g78
g71
NtRp4944
(dp4945
g74
(dp4946
g82
I5
ssg83
Nsg76
(lp4947
sbasbsS'etype'
p4948
S"<type 'exceptions.SyntaxError'>"
p4949
sS'date'
p4950
S'Wed Aug 28 20:39:26 2013'
p4951
sS'response'
p4952
g69
(g70
g71
NtRp4953
(dp4954
g74
(dp4955
sg76
(lp4956
g69
(g78
g71
NtRp4957
(dp4958
g74
(dp4959
g82
I5
ssg83
Nsg76
(lp4960
g69
(g85
g71
NtRp4961
(dp4962
g74
(dp4963
sg83
g4957
sg76
(lp4964
g69
(g90
g71
NtRp4965
(dp4966
g74
(dp4967
g94
g95
ssg83
g4961
sg76
(lp4968
g167
asbag69
(g90
g71
NtRp4969
(dp4970
g74
(dp4971
g101
g102
ssg83
g4961
sg76
(lp4972
S':'
asbag69
(g90
g71
NtRp4973
(dp4974
g74
(dp4975
sg83
g4961
sg76
(lp4976
g69
(g70
g71
NtRp4977
(dp4978
g74
(dp4979
g82
I5
ssg83
g4973
sg76
(lp4980
S'<cStringIO.StringO object at 0x8c6c6e0>'
p4981
asbasbasbag69
(g85
g71
NtRp4982
(dp4983
g74
(dp4984
sg83
g4957
sg76
(lp4985
g69
(g90
g71
NtRp4986
(dp4987
g74
(dp4988
g94
g95
ssg83
g4982
sg76
(lp4989
g255
asbag69
(g90
g71
NtRp4990
(dp4991
g74
(dp4992
g101
g102
ssg83
g4982
sg76
(lp4993
S':'
asbag69
(g90
g71
NtRp4994
(dp4995
g74
(dp4996
sg83
g4982
sg76
(lp4997
g69
(g70
g71
NtRp4998
(dp4999
g74
(dp5000
g82
I5
ssg83
g4994
sg76
(lp5001
g69
(g78
g71
NtRp5002
(dp5003
g74
(dp5004
g82
I4
ssg83
Nsg76
(lp5005
g69
(g85
g71
NtRp5006
(dp5007
g74
(dp5008
sg83
g5002
sg76
(lp5009
g69
(g90
g71
NtRp5010
(dp5011
g74
(dp5012
g94
g95
ssg83
g5006
sg76
(lp5013
S'session_id_reddit'
p5014
asbag69
(g90
g71
NtRp5015
(dp5016
g74
(dp5017
g101
g102
ssg83
g5006
sg76
(lp5018
S':'
asbag69
(g90
g71
NtRp5019
(dp5020
g74
(dp5021
sg83
g5006
sg76
(lp5022
g69
(g70
g71
NtRp5023
(dp5024
g74
(dp5025
g82
I4
ssg83
g5019
sg76
(lp5026
S'127.0.0.1-8fec3a9d-383e-4bd5-ba6a-dc0d93d1b5d2'
p5027
ag69
(g78
g71
NtRp5028
(dp5029
g74
(dp5030
g82
I3
ssg83
Nsg76
(lp5031
g69
(g85
g71
NtRp5032
(dp5033
g74
(dp5034
sg83
g5028
sg76
(lp5035
g69
(g90
g71
NtRp5036
(dp5037
g74
(dp5038
g94
g95
ssg83
g5032
sg76
(lp5039
g306
asbag69
(g90
g71
NtRp5040
(dp5041
g74
(dp5042
g101
g102
ssg83
g5032
sg76
(lp5043
S':'
asbag69
(g90
g71
NtRp5044
(dp5045
g74
(dp5046
sg83
g5032
sg76
(lp5047
g69
(g70
g71
NtRp5048
(dp5049
g74
(dp5050
g82
I3
ssg83
g5044
sg76
(lp5051
S''
asbasbasbag69
(g85
g71
NtRp5052
(dp5053
g74
(dp5054
sg83
g5028
sg76
(lp5055
g69
(g90
g71
NtRp5056
(dp5057
g74
(dp5058
g94
g95
ssg83
g5052
sg76
(lp5059
g327
asbag69
(g90
g71
NtRp5060
(dp5061
g74
(dp5062
g101
g102
ssg83
g5052
sg76
(lp5063
S':'
asbag69
(g90
g71
NtRp5064
(dp5065
g74
(dp5066
sg83
g5052
sg76
(lp5067
g69
(g70
g71
NtRp5068
(dp5069
g74
(dp5070
g82
I3
ssg83
g5064
sg76
(lp5071
S''
asbasbasbag69
(g85
g71
NtRp5072
(dp5073
g74
(dp5074
sg83
g5028
sg76
(lp5075
g69
(g90
g71
NtRp5076
(dp5077
g74
(dp5078
g94
g95
ssg83
g5072
sg76
(lp5079
g348
asbag69
(g90
g71
NtRp5080
(dp5081
g74
(dp5082
g101
g102
ssg83
g5072
sg76
(lp5083
S':'
asbag69
(g90
g71
NtRp5084
(dp5085
g74
(dp5086
sg83
g5072
sg76
(lp5087
g69
(g70
g71
NtRp5088
(dp5089
g74
(dp5090
g82
I3
ssg83
g5084
sg76
(lp5091
S''
asbasbasbag69
(g85
g71
NtRp5092
(dp5093
g74
(dp5094
sg83
g5028
sg76
(lp5095
g69
(g90
g71
NtRp5096
(dp5097
g74
(dp5098
g94
g95
ssg83
g5092
sg76
(lp5099
g369
asbag69
(g90
g71
NtRp5100
(dp5101
g74
(dp5102
g101
g102
ssg83
g5092
sg76
(lp5103
S':'
asbag69
(g90
g71
NtRp5104
(dp5105
g74
(dp5106
sg83
g5092
sg76
(lp5107
g69
(g70
g71
NtRp5108
(dp5109
g74
(dp5110
g82
I3
ssg83
g5104
sg76
(lp5111
S''
asbasbasbag69
(g85
g71
NtRp5112
(dp5113
g74
(dp5114
sg83
g5028
sg76
(lp5115
g69
(g90
g71
NtRp5116
(dp5117
g74
(dp5118
g94
g95
ssg83
g5112
sg76
(lp5119
g390
asbag69
(g90
g71
NtRp5120
(dp5121
g74
(dp5122
g101
g102
ssg83
g5112
sg76
(lp5123
S':'
asbag69
(g90
g71
NtRp5124
(dp5125
g74
(dp5126
sg83
g5112
sg76
(lp5127
g69
(g70
g71
NtRp5128
(dp5129
g74
(dp5130
g82
I3
ssg83
g5124
sg76
(lp5131
S''
asbasbasbag69
(g85
g71
NtRp5132
(dp5133
g74
(dp5134
sg83
g5028
sg76
(lp5135
g69
(g90
g71
NtRp5136
(dp5137
g74
(dp5138
g94
g95
ssg83
g5132
sg76
(lp5139
g411
asbag69
(g90
g71
NtRp5140
(dp5141
g74
(dp5142
g101
g102
ssg83
g5132
sg76
(lp5143
S':'
asbag69
(g90
g71
NtRp5144
(dp5145
g74
(dp5146
sg83
g5132
sg76
(lp5147
g69
(g70
g71
NtRp5148
(dp5149
g74
(dp5150
g82
I3
ssg83
g5144
sg76
(lp5151
S'/'
asbasbasbag69
(g85
g71
NtRp5152
(dp5153
g74
(dp5154
sg83
g5028
sg76
(lp5155
g69
(g90
g71
NtRp5156
(dp5157
g74
(dp5158
g94
g95
ssg83
g5152
sg76
(lp5159
g432
asbag69
(g90
g71
NtRp5160
(dp5161
g74
(dp5162
g101
g102
ssg83
g5152
sg76
(lp5163
S':'
asbag69
(g90
g71
NtRp5164
(dp5165
g74
(dp5166
sg83
g5152
sg76
(lp5167
g69
(g70
g71
NtRp5168
(dp5169
g74
(dp5170
g82
I3
ssg83
g5164
sg76
(lp5171
S''
asbasbasbag69
(g85
g71
NtRp5172
(dp5173
g74
(dp5174
sg83
g5028
sg76
(lp5175
g69
(g90
g71
NtRp5176
(dp5177
g74
(dp5178
g94
g95
ssg83
g5172
sg76
(lp5179
g453
asbag69
(g90
g71
NtRp5180
(dp5181
g74
(dp5182
g101
g102
ssg83
g5172
sg76
(lp5183
S':'
asbag69
(g90
g71
NtRp5184
(dp5185
g74
(dp5186
sg83
g5172
sg76
(lp5187
g69
(g70
g71
NtRp5188
(dp5189
g74
(dp5190
g82
I3
ssg83
g5184
sg76
(lp5191
S''
asbasbasbasbasbasbasbasbasbasbasbag69
(g85
g71
NtRp5192
(dp5193
g74
(dp5194
sg83
g4957
sg76
(lp5195
g69
(g90
g71
NtRp5196
(dp5197
g74
(dp5198
g94
g95
ssg83
g5192
sg76
(lp5199
S'delimiters'
p5200
asbag69
(g90
g71
NtRp5201
(dp5202
g74
(dp5203
g101
g102
ssg83
g5192
sg76
(lp5204
S':'
asbag69
(g90
g71
NtRp5205
(dp5206
g74
(dp5207
sg83
g5192
sg76
(lp5208
g69
(g70
g71
NtRp5209
(dp5210
g74
(dp5211
g82
I5
ssg83
g5205
sg76
(lp5212
g69
(g78
g71
NtRp5213
(dp5214
g74
(dp5215
g82
I4
ssg83
Nsg76
(lp5216
g69
(g85
g71
NtRp5217
(dp5218
g74
(dp5219
sg83
g5213
sg76
(lp5220
g69
(g90
g71
NtRp5221
(dp5222
g74
(dp5223
sg83
g5217
sg76
(lp5224
g69
(g70
g71
NtRp5225
(dp5226
g74
(dp5227
g82
I4
ssg83
g5221
sg76
(lp5228
S'{{'
p5229
asbasbasbag69
(g85
g71
NtRp5230
(dp5231
g74
(dp5232
sg83
g5213
sg76
(lp5233
g69
(g90
g71
NtRp5234
(dp5235
g74
(dp5236
sg83
g5230
sg76
(lp5237
g69
(g70
g71
NtRp5238
(dp5239
g74
(dp5240
g82
I4
ssg83
g5234
sg76
(lp5241
S'}}'
p5242
asbasbasbasbasbasbasbag69
(g85
g71
NtRp5243
(dp5244
g74
(dp5245
sg83
g4957
sg76
(lp5246
g69
(g90
g71
NtRp5247
(dp5248
g74
(dp5249
g94
g95
ssg83
g5243
sg76
(lp5250
S'files'
p5251
asbag69
(g90
g71
NtRp5252
(dp5253
g74
(dp5254
g101
g102
ssg83
g5243
sg76
(lp5255
S':'
asbag69
(g90
g71
NtRp5256
(dp5257
g74
(dp5258
sg83
g5243
sg76
(lp5259
g69
(g70
g71
NtRp5260
(dp5261
g74
(dp5262
g82
I5
ssg83
g5256
sg76
(lp5263
g69
(g78
g71
NtRp5264
(dp5265
g74
(dp5266
g82
I4
ssg83
Nsg76
(lp5267
sbasbasbasbag69
(g85
g71
NtRp5268
(dp5269
g74
(dp5270
sg83
g4957
sg76
(lp5271
g69
(g90
g71
NtRp5272
(dp5273
g74
(dp5274
g94
g95
ssg83
g5268
sg76
(lp5275
S'flash'
p5276
asbag69
(g90
g71
NtRp5277
(dp5278
g74
(dp5279
g101
g102
ssg83
g5268
sg76
(lp5280
S':'
asbag69
(g90
g71
NtRp5281
(dp5282
g74
(dp5283
sg83
g5268
sg76
(lp5284
g69
(g70
g71
NtRp5285
(dp5286
g74
(dp5287
g82
I5
ssg83
g5281
sg76
(lp5288
S''
asbasbasbag69
(g85
g71
NtRp5289
(dp5290
g74
(dp5291
sg83
g4957
sg76
(lp5292
g69
(g90
g71
NtRp5293
(dp5294
g74
(dp5295
g94
g95
ssg83
g5289
sg76
(lp5296
S'generic_patterns'
p5297
asbag69
(g90
g71
NtRp5298
(dp5299
g74
(dp5300
g101
g102
ssg83
g5289
sg76
(lp5301
S':'
asbag69
(g90
g71
NtRp5302
(dp5303
g74
(dp5304
sg83
g5289
sg76
(lp5305
g69
(g70
g71
NtRp5306
(dp5307
g74
(dp5308
g82
I5
ssg83
g5302
sg76
(lp5309
g69
(g78
g71
NtRp5310
(dp5311
g74
(dp5312
g82
I4
ssg83
Nsg76
(lp5313
sbasbasbasbag69
(g85
g71
NtRp5314
(dp5315
g74
(dp5316
sg83
g4957
sg76
(lp5317
g69
(g90
g71
NtRp5318
(dp5319
g74
(dp5320
g94
g95
ssg83
g5314
sg76
(lp5321
S'headers'
p5322
asbag69
(g90
g71
NtRp5323
(dp5324
g74
(dp5325
g101
g102
ssg83
g5314
sg76
(lp5326
S':'
asbag69
(g90
g71
NtRp5327
(dp5328
g74
(dp5329
sg83
g5314
sg76
(lp5330
g69
(g70
g71
NtRp5331
(dp5332
g74
(dp5333
g82
I5
ssg83
g5327
sg76
(lp5334
g69
(g78
g71
NtRp5335
(dp5336
g74
(dp5337
g82
I4
ssg83
Nsg76
(lp5338
g69
(g85
g71
NtRp5339
(dp5340
g74
(dp5341
sg83
g5335
sg76
(lp5342
g69
(g90
g71
NtRp5343
(dp5344
g74
(dp5345
g94
g95
ssg83
g5339
sg76
(lp5346
S'X-Powered-By'
p5347
asbag69
(g90
g71
NtRp5348
(dp5349
g74
(dp5350
g101
g102
ssg83
g5339
sg76
(lp5351
S':'
asbag69
(g90
g71
NtRp5352
(dp5353
g74
(dp5354
sg83
g5339
sg76
(lp5355
g69
(g70
g71
NtRp5356
(dp5357
g74
(dp5358
g82
I4
ssg83
g5352
sg76
(lp5359
S'web2py'
p5360
asbasbasbasbasbasbasbag69
(g85
g71
NtRp5361
(dp5362
g74
(dp5363
sg83
g4957
sg76
(lp5364
g69
(g90
g71
NtRp5365
(dp5366
g74
(dp5367
g94
g95
ssg83
g5361
sg76
(lp5368
S'menu'
p5369
asbag69
(g90
g71
NtRp5370
(dp5371
g74
(dp5372
g101
g102
ssg83
g5361
sg76
(lp5373
S':'
asbag69
(g90
g71
NtRp5374
(dp5375
g74
(dp5376
sg83
g5361
sg76
(lp5377
g69
(g70
g71
NtRp5378
(dp5379
g74
(dp5380
g82
I5
ssg83
g5374
sg76
(lp5381
g69
(g78
g71
NtRp5382
(dp5383
g74
(dp5384
g82
I4
ssg83
Nsg76
(lp5385
sbasbasbasbag69
(g85
g71
NtRp5386
(dp5387
g74
(dp5388
sg83
g4957
sg76
(lp5389
g69
(g90
g71
NtRp5390
(dp5391
g74
(dp5392
g94
g95
ssg83
g5386
sg76
(lp5393
S'meta'
p5394
asbag69
(g90
g71
NtRp5395
(dp5396
g74
(dp5397
g101
g102
ssg83
g5386
sg76
(lp5398
S':'
asbag69
(g90
g71
NtRp5399
(dp5400
g74
(dp5401
sg83
g5386
sg76
(lp5402
g69
(g70
g71
NtRp5403
(dp5404
g74
(dp5405
g82
I5
ssg83
g5399
sg76
(lp5406
g69
(g78
g71
NtRp5407
(dp5408
g74
(dp5409
g82
I4
ssg83
Nsg76
(lp5410
sbasbasbasbag69
(g85
g71
NtRp5411
(dp5412
g74
(dp5413
sg83
g4957
sg76
(lp5414
g69
(g90
g71
NtRp5415
(dp5416
g74
(dp5417
g94
g95
ssg83
g5411
sg76
(lp5418
S'models_to_run'
p5419
asbag69
(g90
g71
NtRp5420
(dp5421
g74
(dp5422
g101
g102
ssg83
g5411
sg76
(lp5423
S':'
asbag69
(g90
g71
NtRp5424
(dp5425
g74
(dp5426
sg83
g5411
sg76
(lp5427
g69
(g70
g71
NtRp5428
(dp5429
g74
(dp5430
g82
I5
ssg83
g5424
sg76
(lp5431
g69
(g78
g71
NtRp5432
(dp5433
g74
(dp5434
g82
I4
ssg83
Nsg76
(lp5435
g69
(g85
g71
NtRp5436
(dp5437
g74
(dp5438
sg83
g5432
sg76
(lp5439
g69
(g90
g71
NtRp5440
(dp5441
g74
(dp5442
sg83
g5436
sg76
(lp5443
g69
(g70
g71
NtRp5444
(dp5445
g74
(dp5446
g82
I4
ssg83
g5440
sg76
(lp5447
S'^\\w+\\.py$'
p5448
asbasbasbag69
(g85
g71
NtRp5449
(dp5450
g74
(dp5451
sg83
g5432
sg76
(lp5452
g69
(g90
g71
NtRp5453
(dp5454
g74
(dp5455
sg83
g5449
sg76
(lp5456
g69
(g70
g71
NtRp5457
(dp5458
g74
(dp5459
g82
I4
ssg83
g5453
sg76
(lp5460
S'^default/\\w+\\.py$'
p5461
asbasbasbag69
(g85
g71
NtRp5462
(dp5463
g74
(dp5464
sg83
g5432
sg76
(lp5465
g69
(g90
g71
NtRp5466
(dp5467
g74
(dp5468
sg83
g5462
sg76
(lp5469
g69
(g70
g71
NtRp5470
(dp5471
g74
(dp5472
g82
I4
ssg83
g5466
sg76
(lp5473
S'^default/index/\\w+\\.py$'
p5474
asbasbasbasbasbasbasbag69
(g85
g71
NtRp5475
(dp5476
g74
(dp5477
sg83
g4957
sg76
(lp5478
g69
(g90
g71
NtRp5479
(dp5480
g74
(dp5481
g94
g95
ssg83
g5475
sg76
(lp5482
S'postprocessing'
p5483
asbag69
(g90
g71
NtRp5484
(dp5485
g74
(dp5486
g101
g102
ssg83
g5475
sg76
(lp5487
S':'
asbag69
(g90
g71
NtRp5488
(dp5489
g74
(dp5490
sg83
g5475
sg76
(lp5491
g69
(g70
g71
NtRp5492
(dp5493
g74
(dp5494
g82
I5
ssg83
g5488
sg76
(lp5495
g69
(g78
g71
NtRp5496
(dp5497
g74
(dp5498
g82
I4
ssg83
Nsg76
(lp5499
sbasbasbasbag69
(g85
g71
NtRp5500
(dp5501
g74
(dp5502
sg83
g4957
sg76
(lp5503
g69
(g90
g71
NtRp5504
(dp5505
g74
(dp5506
g94
g95
ssg83
g5500
sg76
(lp5507
S'session_cookie_expires'
p5508
asbag69
(g90
g71
NtRp5509
(dp5510
g74
(dp5511
g101
g102
ssg83
g5500
sg76
(lp5512
S':'
asbag69
(g90
g71
NtRp5513
(dp5514
g74
(dp5515
sg83
g5500
sg76
(lp5516
g69
(g70
g71
NtRp5517
(dp5518
g74
(dp5519
g82
I5
ssg83
g5513
sg76
(lp5520
S'None'
p5521
asbasbasbag69
(g85
g71
NtRp5522
(dp5523
g74
(dp5524
sg83
g4957
sg76
(lp5525
g69
(g90
g71
NtRp5526
(dp5527
g74
(dp5528
g94
g95
ssg83
g5522
sg76
(lp5529
S'session_data_name'
p5530
asbag69
(g90
g71
NtRp5531
(dp5532
g74
(dp5533
g101
g102
ssg83
g5522
sg76
(lp5534
S':'
asbag69
(g90
g71
NtRp5535
(dp5536
g74
(dp5537
sg83
g5522
sg76
(lp5538
g69
(g70
g71
NtRp5539
(dp5540
g74
(dp5541
g82
I5
ssg83
g5535
sg76
(lp5542
S'session_data_reddit'
p5543
asbasbasbag69
(g85
g71
NtRp5544
(dp5545
g74
(dp5546
sg83
g4957
sg76
(lp5547
g69
(g90
g71
NtRp5548
(dp5549
g74
(dp5550
g94
g95
ssg83
g5544
sg76
(lp5551
S'session_filename'
p5552
asbag69
(g90
g71
NtRp5553
(dp5554
g74
(dp5555
g101
g102
ssg83
g5544
sg76
(lp5556
S':'
asbag69
(g90
g71
NtRp5557
(dp5558
g74
(dp5559
sg83
g5544
sg76
(lp5560
g69
(g70
g71
NtRp5561
(dp5562
g74
(dp5563
g82
I5
ssg83
g5557
sg76
(lp5564
S'/home/pankaj/web2py/applications/reddit/sessions/127.0.0.1-8fec3a9d-383e-4bd5-ba6a-dc0d93d1b5d2'
p5565
asbasbasbag69
(g85
g71
NtRp5566
(dp5567
g74
(dp5568
sg83
g4957
sg76
(lp5569
g69
(g90
g71
NtRp5570
(dp5571
g74
(dp5572
g94
g95
ssg83
g5566
sg76
(lp5573
S'session_id'
p5574
asbag69
(g90
g71
NtRp5575
(dp5576
g74
(dp5577
g101
g102
ssg83
g5566
sg76
(lp5578
S':'
asbag69
(g90
g71
NtRp5579
(dp5580
g74
(dp5581
sg83
g5566
sg76
(lp5582
g69
(g70
g71
NtRp5583
(dp5584
g74
(dp5585
g82
I5
ssg83
g5579
sg76
(lp5586
g5027
asbasbasbag69
(g85
g71
NtRp5587
(dp5588
g74
(dp5589
sg83
g4957
sg76
(lp5590
g69
(g90
g71
NtRp5591
(dp5592
g74
(dp5593
g94
g95
ssg83
g5587
sg76
(lp5594
S'session_id_name'
p5595
asbag69
(g90
g71
NtRp5596
(dp5597
g74
(dp5598
g101
g102
ssg83
g5587
sg76
(lp5599
S':'
asbag69
(g90
g71
NtRp5600
(dp5601
g74
(dp5602
sg83
g5587
sg76
(lp5603
g69
(g70
g71
NtRp5604
(dp5605
g74
(dp5606
g82
I5
ssg83
g5600
sg76
(lp5607
g5014
asbasbasbag69
(g85
g71
NtRp5608
(dp5609
g74
(dp5610
sg83
g4957
sg76
(lp5611
g69
(g90
g71
NtRp5612
(dp5613
g74
(dp5614
g94
g95
ssg83
g5608
sg76
(lp5615
S'session_new'
p5616
asbag69
(g90
g71
NtRp5617
(dp5618
g74
(dp5619
g101
g102
ssg83
g5608
sg76
(lp5620
S':'
asbag69
(g90
g71
NtRp5621
(dp5622
g74
(dp5623
sg83
g5608
sg76
(lp5624
g69
(g70
g71
NtRp5625
(dp5626
g74
(dp5627
g82
I5
ssg83
g5621
sg76
(lp5628
g3455
asbasbasbag69
(g85
g71
NtRp5629
(dp5630
g74
(dp5631
sg83
g4957
sg76
(lp5632
g69
(g90
g71
NtRp5633
(dp5634
g74
(dp5635
g94
g95
ssg83
g5629
sg76
(lp5636
S'session_storage_type'
p5637
asbag69
(g90
g71
NtRp5638
(dp5639
g74
(dp5640
g101
g102
ssg83
g5629
sg76
(lp5641
S':'
asbag69
(g90
g71
NtRp5642
(dp5643
g74
(dp5644
sg83
g5629
sg76
(lp5645
g69
(g70
g71
NtRp5646
(dp5647
g74
(dp5648
g82
I5
ssg83
g5642
sg76
(lp5649
g4886
asbasbasbag69
(g85
g71
NtRp5650
(dp5651
g74
(dp5652
sg83
g4957
sg76
(lp5653
g69
(g90
g71
NtRp5654
(dp5655
g74
(dp5656
g94
g95
ssg83
g5650
sg76
(lp5657
S'status'
p5658
asbag69
(g90
g71
NtRp5659
(dp5660
g74
(dp5661
g101
g102
ssg83
g5650
sg76
(lp5662
S':'
asbag69
(g90
g71
NtRp5663
(dp5664
g74
(dp5665
sg83
g5650
sg76
(lp5666
g69
(g70
g71
NtRp5667
(dp5668
g74
(dp5669
g82
I5
ssg83
g5663
sg76
(lp5670
S'200'
p5671
asbasbasbag69
(g85
g71
NtRp5672
(dp5673
g74
(dp5674
sg83
g4957
sg76
(lp5675
g69
(g90
g71
NtRp5676
(dp5677
g74
(dp5678
g94
g95
ssg83
g5672
sg76
(lp5679
S'view'
p5680
asbag69
(g90
g71
NtRp5681
(dp5682
g74
(dp5683
g101
g102
ssg83
g5672
sg76
(lp5684
S':'
asbag69
(g90
g71
NtRp5685
(dp5686
g74
(dp5687
sg83
g5672
sg76
(lp5688
g69
(g70
g71
NtRp5689
(dp5690
g74
(dp5691
g82
I5
ssg83
g5685
sg76
(lp5692
S'default/index.html'
p5693
asbasbasbasbasbsS'locals'
p5694
(dp5695
g4
S"'/home/pankaj/web2py/applications/reddit/models/db.py'"
p5696
sg6
S"'# -*- coding: utf-8 -*-\\n\\n#######################...ble auditing\\n# auth.enable_record_versioning(db)\\n'"
p5697
sssS'traceback'
p5698
S'Traceback (most recent call last):\n  File "/home/pankaj/web2py/gluon/restricted.py", line 211, in restricted\n    ccode = compile2(code, layer)\n  File "/home/pankaj/web2py/gluon/restricted.py", line 194, in compile2\n    return compile(code.rstrip().replace(\'\\r\\n\', \'\\n\') + \'\\n\', layer, \'exec\')\n  File "/home/pankaj/web2py/applications/reddit/models/db.py", line 81\n    db.define_table(\'news\',db.Field(\'head\',\'string\',requires=IS_NOT_    EMPTY(),label=\'Heading\'),db.Field(\'url\',\'string\',requires=IS_URL(),label=\'Link\'),db.Field(\'cat\',\'string\',db.category,IS_IN_DB(db,\'category.name\'),label=\'Category\'),db.Field(\'username\',\'string\',requires=IS_IN_DB(db,\'auth_user.username\'),label=\'Username\'),db.Field(\'date\',\'datetime\',default=request.now,writable=False,label=\'Date\'),db.Field(\'rating\',\'integer\',default=100,label=\'Rating\'))\n                                                                            ^\nSyntaxError: invalid syntax\n'
p5699
s.