(dp1
S'output'
p2
S"<type 'exceptions.NameError'> name 'check' is not defined"
p3
sS'layer'
p4
S'/home/pankaj/web2py/applications/reddit/views/default/index.html'
p5
sS'code'
p6
S'response.write(\'<!DOCTYPE html>\\n<!-- paulirish.com/2008/conditional-stylesheets-vs-css-hacks-answer-neither/ -->\\n<!--[if lt IE 7]><html class="ie ie6 ie-lte9 ie-lte8 ie-lte7 no-js" lang="\', escape=False)\nresponse.write(T.accepted_language or \'en\')\nresponse.write(\'"> <![endif]-->\\n<!--[if IE 7]><html class="ie ie7 ie-lte9 ie-lte8 ie-lte7 no-js" lang="\', escape=False)\nresponse.write(T.accepted_language or \'en\')\nresponse.write(\'"> <![endif]-->\\n<!--[if IE 8]><html class="ie ie8 ie-lte9 ie-lte8 no-js" lang="\', escape=False)\nresponse.write(T.accepted_language or \'en\')\nresponse.write(\'"> <![endif]-->\\n<!--[if IE 9]><html class="ie9 ie-lte9 no-js" lang="\', escape=False)\nresponse.write(T.accepted_language or \'en\')\nresponse.write(\'"> <![endif]-->\\n<!--[if (gt IE 9)|!(IE)]><!--> <html class="no-js" lang="\', escape=False)\nresponse.write(T.accepted_language or \'en\')\nresponse.write(\'"> <!--<![endif]-->\\n<head>\\n  <meta charset="utf-8" />\\n  <!-- www.phpied.com/conditional-comments-block-downloads/ -->\\n  <!-- Always force latest IE rendering engine\\n       (even in intranet) & Chrome Frame\\n       Remove this if you use the .htaccess -->\\n  <!--[if IE]>\\n      <meta http-equiv="X-UA-Compatible" content="IE=edge\', escape=False)\nresponse.write(not request.is_local and \',chrome=1\' or \'\')\nresponse.write(\'">\\n      <![endif]-->\\n\\n  <title>\', escape=False)\nresponse.write(response.title or request.application)\nresponse.write(\'</title>\\n\\n  <!-- http://dev.w3.org/html5/markup/meta.name.html -->\\n  <meta name="application-name" content="\', escape=False)\nresponse.write(request.application)\nresponse.write(\'" />\\n\\n  <!-- Speaking of Google, don\\\'t forget to set your site up:\\n       http://google.com/webmasters -->\\n  <meta name="google-site-verification" content="" />\\n\\n  <!--  Mobile Viewport Fix\\n        j.mp/mobileviewport & davidbcalhoun.com/2010/viewport-metatag\\n        device-width: Occupy full width of the screen in its current orientation\\n        initial-scale = 1.0 retains dimensions instead of zooming out if page height > device height\\n        user-scalable = yes allows the user to zoom in -->\\n  <meta name="viewport" content="width=device-width, initial-scale=1.0" />\\n\\n  <link rel="shortcut icon" href="\', escape=False)\nresponse.write(URL(\'static\',\'images/favicon.ico\'))\nresponse.write(\'" type="image/x-icon">\\n  <link rel="apple-touch-icon" href="\', escape=False)\nresponse.write(URL(\'static\',\'images/favicon.png\'))\nresponse.write(\'">\\n\\n  <!-- All JavaScript at the bottom, except for Modernizr which enables\\n       HTML5 elements & feature detects -->\\n  <script src="\', escape=False)\nresponse.write(URL(\'static\',\'js/modernizr.custom.js\'))\nresponse.write(\'"></script>\\n\\n  <!-- include stylesheets -->\\n  \', escape=False)\nresponse.files.append(URL(\'static\',\'css/web2py.css\'))\nresponse.files.append(URL(\'static\',\'css/bootstrap.min.css\'))\nresponse.files.append(URL(\'static\',\'css/bootstrap-responsive.min.css\'))\nresponse.files.append(URL(\'static\',\'css/web2py_bootstrap.css\'))\nresponse.write(\'\\n\\n  \', escape=False)\nresponse.write(\'<script type="text/javascript"><!--\\n    // These variables are used by the web2py_ajax_init function in web2py_ajax.js (which is loaded below).\\n    var w2p_ajax_confirm_message = "\', escape=False)\nresponse.write(T(\'Are you sure you want to delete this object?\'))\nresponse.write(\'";\\n    var w2p_ajax_date_format = "\', escape=False)\nresponse.write(T(\'%Y-%m-%d\'))\nresponse.write(\'";\\n    var w2p_ajax_datetime_format = "\', escape=False)\nresponse.write(T(\'%Y-%m-%d %H:%M:%S\'))\nresponse.write(\'";\\n    //--></script>\\n\', escape=False)\nresponse.files.insert(0,URL(\'static\',\'js/jquery.js\'))\nresponse.files.insert(1,URL(\'static\',\'css/calendar.css\'))\nresponse.files.insert(2,URL(\'static\',\'js/calendar.js\'))\nresponse.files.insert(3,URL(\'static\',\'js/web2py.js\'))\nresponse.include_meta()\nresponse.include_files()\nresponse.write(\'\\n\', escape=False)\nresponse.write(\'\\n\\n  \', escape=False)\n# using sidebars need to know what sidebar you want to use\nleft_sidebar_enabled = globals().get(\'left_sidebar_enabled\',False)\nright_sidebar_enabled = globals().get(\'right_sidebar_enabled\',False)\nmiddle_columns = {0:\'span12\',1:\'span9\',2:\'span6\'}[\n(left_sidebar_enabled and 1 or 0)+(right_sidebar_enabled and 1 or 0)]\nresponse.write(\'\\n\\n  <!-- uncomment here to load jquery-ui\\n       <link rel="stylesheet" href="http://ajax.googleapis.com/ajax/libs/jqueryui/1.8.16/themes/base/jquery-ui.css" type="text/css" media="all" />\\n       <script src="http://ajax.googleapis.com/ajax/libs/jqueryui/1.8.16/jquery-ui.min.js" type="text/javascript"></script>\\n       uncomment to load jquery-ui //-->\\n  <noscript><link href="\', escape=False)\nresponse.write(URL(\'static\', \'css/web2py_bootstrap_nojs.css\'))\nresponse.write(\'" rel="stylesheet" type="text/css" /></noscript>\\n  \', escape=False)\nresponse.write(\'\\n</head>\\n\\n<body>\\n  <!-- Navbar ================================================== -->\\n  <div class="navbar navbar-inverse navbar-fixed-top">\\n    <div class="flash">\', escape=False)\nresponse.write(response.flash or \'\')\nresponse.write(\'</div>\\n    <div class="navbar-inner">\\n      <div class="container">\\n        <!-- the next tag is necessary for bootstrap menus, do not remove -->\\n        <button type="button" class="btn btn-navbar" data-toggle="collapse" data-target=".nav-collapse">\\n          <span class="icon-bar"></span>\\n          <span class="icon-bar"></span>\\n          <span class="icon-bar"></span>\\n        </button>\\n\\t\', escape=False)\nresponse.write(response.logo or \'\')\nresponse.write(\'\\n        <ul id="navbar" class="nav pull-right">\', escape=False)\nresponse.write(\'auth\' in globals() and auth.navbar(mode="dropdown") or \'\')\nresponse.write(\'</ul>\\n        <div class="nav-collapse">\\n          \', escape=False)\nis_mobile=request.user_agent().is_mobile\nresponse.write(\'\\n          \', escape=False)\nif response.menu:\n    response.write(\'\\n          \', escape=False)\n    response.write(MENU(response.menu, _class=\'mobile-menu nav\' if is_mobile else \'nav\',mobile=is_mobile,li_class=\'dropdown\',ul_class=\'dropdown-menu\'))\n    response.write(\'\\n          \', escape=False)\n    pass\nresponse.write(\'\\n        </div><!--/.nav-collapse -->\\n      </div>\\n    </div>\\n  </div><!--/top navbar -->\\n\\n  <div class="container">\\n    <!-- Masthead ================================================== -->\\n    <header class="mastheader row" id="header">\\n        <div class="span12">\\n            <div class="page-header">\\n                <h1>\\n                    \', escape=False)\nresponse.write(response.title or request.application)\nresponse.write(\'\\n                    <small>\', escape=False)\nresponse.write(response.subtitle or \'\')\nresponse.write(\'</small>\\n                </h1>\\n            </div>\\n        </div>\\n    </header>\\n\\n    <section id="main" class="main row">\\n        \', escape=False)\nif left_sidebar_enabled:\n    response.write(\'\\n        <div class="span3 left-sidebar">\\n            \', escape=False)\n    response.write(\'\\n            <h3>Left Sidebar</h3>\\n            <p></p>\\n            \', escape=False)\n    response.write(\'\\n        </div>\\n        \', escape=False)\n    pass\nresponse.write(\'\\n\\n        <div class="\', escape=False)\nresponse.write(middle_columns)\nresponse.write(\'">\\n            \', escape=False)\nresponse.write(\'\\n            \', escape=False)\nresponse.write(\'\\n<form action="addpost" method="post">\\n\\t<button type="submit">new post</button>\\n</form>\\n\', escape=False)\nfor k in catg:\n    response.write(\'\\n<form action="displaycat" method="post">\\n\\t<button type="submit" name="catid" id="catid" value="\', escape=False)\n    response.write(k[\'id\'])\n    response.write(\'">\', escape=False)\n    response.write(k[\'name\'])\n    response.write(\'</button>\\n</form>\\n\', escape=False)\n    pass\nresponse.write(\'\\n\', escape=False)\nfor l in nstore:\n    response.write("\\n<a href=\'", escape=False)\n    response.write(l[\'nurl\'])\n    response.write(\'\\\' target="_blank">\', escape=False)\n    response.write(l[\'head\'])\n    response.write(\'</a>\\n\', escape=False)\n    response.write(l[\'rating\'])\n    response.write(\'\\n\', escape=False)\n    pcheck=db((db.lstate.newsid==l[\'id\'])&(db.lstate.usrid==auth.user.id)).select()\n    response.write(\'\\n\', escape=False)\n    if pcheck is None:\n        response.write(\'\\nLOL\\n\', escape=False)\n        pass\n    response.write(\'\\n\', escape=False)\n    if pcheck is None:\n        response.write(\'\\ncheck=-1\\n<form action="uplike" method="post">\\n\\t<input type="hidden" name="uid" id="uid" value="\', escape=False)\n        response.write(auth.user.id)\n        response.write(\'"/>\\n\\t<input type="hidden" name="nid" id="nid" value="\', escape=False)\n        response.write(l[\'id\'])\n        response.write(\'"/>\\n\\t<button type="submit" name="check" id="check" value="1">Like</button>\\n\\t<button type="submit" name="check" id="check" value="2">Dislike</button>\\n</form>\\n\', escape=False)\n    elif check==0:\n        response.write(\'\\ncheck=0\\n<form action="uplike" method="post">\\n\\t<input type="hidden" name="uid" id="uid" value="\', escape=False)\n        response.write(auth.user.id)\n        response.write(\'"/>\\n\\t<input type="hidden" name="nid" id="nid" value="\', escape=False)\n        response.write(l[\'id\'])\n        response.write(\'"/>\\n\\t<button type="submit" name="check" id="check" value="3">Like</button>\\n</form>\\n\', escape=False)\n    elif check==1:\n        response.write(\'\\ncheck=1\\n<form action="uplike" method="post">\\n\\t<input type="hidden" name="uid" id="uid" value="\', escape=False)\n        response.write(auth.user.id)\n        response.write(\'"/>\\n\\t<input type="hidden" name="nid" id="nid" value="\', escape=False)\n        response.write(l[\'id\'])\n        response.write(\'"/>\\n\\t<button type="submit" name="check" id="check" value="4">Dislike</button>\\n</form>\\n\', escape=False)\n        pass\n    response.write(\'\\n<br/>\\nCommments:\\n<br/>\\n\', escape=False)\n    for m in cstore:\n        response.write(\'\\n\', escape=False)\n        if m[\'newsid\']==l[\'id\']:\n            response.write(\'\\n\', escape=False)\n            response.write(m[\'val\'])\n            response.write(\'\\n<br/>\\n\', escape=False)\n            pass\n        response.write(\'\\n\', escape=False)\n        pass\n    response.write(\'\\n<form action="addc" method="post">\\n\\t<input type="text" name="cval" id="cval" placeholder="comment here" />\\n\\n\\t<input type="hidden" name="nid" id="nid" value="\', escape=False)\n    response.write(l[\'id\'])\n    response.write(\'"/>\\n\\t<input type="hidden" name="usri" id="usri" value=\', escape=False)\n    response.write(auth.user.id)\n    response.write(\' />\\n\\t<input type="submit" value="Post"/>\\n</form>\\n\\n<br/>\\n\', escape=False)\n    pass\nresponse.write(\'\\n\', escape=False)\nresponse.write(\'\\n            \', escape=False)\nresponse.write(\'\\n        </div>\\n\\n        \', escape=False)\nif right_sidebar_enabled:\n    response.write(\'\\n        <div class="span3">\\n            \', escape=False)\n    response.write(\'\\n            <h3>Right Sidebar</h3>\\n            <p></p>\\n            \', escape=False)\n    response.write(\'\\n        </div>\\n        \', escape=False)\n    pass\nresponse.write(\'\\n    </section><!--/main-->\\n\\n    <!-- Footer ================================================== -->\\n    <div class="row">\\n        <footer class="footer span12" id="footer">\\n            <div class="footer-content">\\n                \', escape=False)\nresponse.write(\' <!-- this is default footer -->\\n                <div class="copyright pull-left">\', escape=False)\nresponse.write(T(\'Copyright\'))\nresponse.write(\' &#169; \', escape=False)\nresponse.write(request.now.year)\nresponse.write(\'</div>\\n                <div id="poweredBy" class="pull-right">\\n                    \', escape=False)\nresponse.write(T(\'Powered by\'))\nresponse.write(\'\\n                    <a href="http://www.web2py.com/">web2py</a>\\n                </div>\\n                \', escape=False)\nresponse.write(\'\\n            </div>\\n        </footer>\\n    </div>\\n\\n  </div> <!-- /container -->\\n\\n  <!-- The javascript =============================================\\n       (Placed at the end of the document so the pages load faster) -->\\n  <script src="\', escape=False)\nresponse.write(URL(\'static\',\'js/bootstrap.min.js\'))\nresponse.write(\'"></script>\\n  <script src="\', escape=False)\nresponse.write(URL(\'static\',\'js/web2py_bootstrap.js\'))\nresponse.write(\'"></script>\\n  <!--[if lt IE 7 ]>\\n      <script src="\', escape=False)\nresponse.write(URL(\'static\',\'js/dd_belatedpng.js\'))\nresponse.write(\'"></script>\\n      <script> DD_belatedPNG.fix(\\\'img, .png_bg\\\'); //fix any <img> or .png_bg background-images </script>\\n      <![endif]-->\\n  \\n  \', escape=False)\nif response.google_analytics_id:\n    response.write(\'\\n  <script src="\', escape=False)\n    response.write(URL(\'static\',\'js/analytics.js\'))\n    response.write(\'"></script>\\n  <script type="text/javascript">\\n  analytics.initialize({\\n    \\\'Google Analytics\\\':{trackingId:\\\'\', escape=False)\n    response.write(response.google_analytics_id)\n    response.write("\'} \\n  });</script>\\n  ", escape=False)\n    pass\nresponse.write(\'\\n  <script src="\', escape=False)\nresponse.write(URL(\'static\',\'js/share.js\',vars=dict(static=URL(\'static\',\'images\'))))\nresponse.write(\'"></script>\\n</body>\\n</html>\\n\\n\', escape=False)'
p7
sS'snapshot'
p8
(dp9
S'exception'
p10
(dp11
S'__hash__'
p12
S"<method-wrapper '__hash__' of exceptions.NameError object>"
p13
sS'__setattr__'
p14
S"<method-wrapper '__setattr__' of exceptions.NameError object>"
p15
sS'__reduce_ex__'
p16
S'<built-in method __reduce_ex__ of exceptions.NameError object>'
p17
sS'__getslice__'
p18
S"<method-wrapper '__getslice__' of exceptions.NameError object>"
p19
sS'__getitem__'
p20
S"<method-wrapper '__getitem__' of exceptions.NameError object>"
p21
sS'__setstate__'
p22
S'<built-in method __setstate__ of exceptions.NameError object>'
p23
sS'__reduce__'
p24
S'<built-in method __reduce__ of exceptions.NameError object>'
p25
sS'__str__'
p26
S"<method-wrapper '__str__' of exceptions.NameError object>"
p27
sS'__format__'
p28
S'<built-in method __format__ of exceptions.NameError object>'
p29
sS'__getattribute__'
p30
S"<method-wrapper '__getattribute__' of exceptions.NameError object>"
p31
sS'__class__'
p32
S"<type 'exceptions.NameError'>"
p33
sS'__unicode__'
p34
S'<built-in method __unicode__ of exceptions.NameError object>'
p35
sS'__delattr__'
p36
S"<method-wrapper '__delattr__' of exceptions.NameError object>"
p37
sS'__subclasshook__'
p38
S'<built-in method __subclasshook__ of type object>'
p39
sS'__repr__'
p40
S"<method-wrapper '__repr__' of exceptions.NameError object>"
p41
sS'args'
p42
S'("name \'check\' is not defined",)'
p43
sS'__dict__'
p44
S'{}'
p45
sS'__sizeof__'
p46
S'<built-in method __sizeof__ of exceptions.NameError object>'
p47
sS'__doc__'
p48
S"'Name not found globally.'"
p49
sS'__init__'
p50
S"<method-wrapper '__init__' of exceptions.NameError object>"
p51
sS'__new__'
p52
S'<built-in method __new__ of type object>'
p53
ssS'evalue'
p54
S"name 'check' is not defined"
p55
sS'request'
p56
ccopy_reg
_reconstructor
p57
(cgluon.html
BEAUTIFY
p58
c__builtin__
object
p59
NtRp60
(dp61
S'attributes'
p62
(dp63
sS'components'
p64
(lp65
g57
(cgluon.html
TABLE
p66
g59
NtRp67
(dp68
g62
(dp69
S'level'
p70
I5
ssS'parent'
p71
Nsg64
(lp72
g57
(cgluon.html
TR
p73
g59
NtRp74
(dp75
g62
(dp76
sg71
g67
sg64
(lp77
g57
(cgluon.html
TD
p78
g59
NtRp79
(dp80
g62
(dp81
S'_style'
p82
S'font-weight:bold;vertical-align:top'
p83
ssg71
g74
sg64
(lp84
S'ajax'
p85
asbag57
(g78
g59
NtRp86
(dp87
g62
(dp88
S'_valign'
p89
S'top'
p90
ssg71
g74
sg64
(lp91
S':'
asbag57
(g78
g59
NtRp92
(dp93
g62
(dp94
sg71
g74
sg64
(lp95
g57
(g58
g59
NtRp96
(dp97
g62
(dp98
g70
I5
ssg71
g92
sg64
(lp99
S'False'
p100
asbasbasbag57
(g73
g59
NtRp101
(dp102
g62
(dp103
sg71
g67
sg64
(lp104
g57
(g78
g59
NtRp105
(dp106
g62
(dp107
g82
g83
ssg71
g101
sg64
(lp108
S'application'
p109
asbag57
(g78
g59
NtRp110
(dp111
g62
(dp112
g89
g90
ssg71
g101
sg64
(lp113
S':'
asbag57
(g78
g59
NtRp114
(dp115
g62
(dp116
sg71
g101
sg64
(lp117
g57
(g58
g59
NtRp118
(dp119
g62
(dp120
g70
I5
ssg71
g114
sg64
(lp121
S'reddit'
p122
asbasbasbag57
(g73
g59
NtRp123
(dp124
g62
(dp125
sg71
g67
sg64
(lp126
g57
(g78
g59
NtRp127
(dp128
g62
(dp129
g82
g83
ssg71
g123
sg64
(lp130
g42
asbag57
(g78
g59
NtRp131
(dp132
g62
(dp133
g89
g90
ssg71
g123
sg64
(lp134
S':'
asbag57
(g78
g59
NtRp135
(dp136
g62
(dp137
sg71
g123
sg64
(lp138
g57
(g58
g59
NtRp139
(dp140
g62
(dp141
g70
I5
ssg71
g135
sg64
(lp142
g57
(g66
g59
NtRp143
(dp144
g62
(dp145
g70
I4
ssg71
Nsg64
(lp146
sbasbasbasbag57
(g73
g59
NtRp147
(dp148
g62
(dp149
sg71
g67
sg64
(lp150
g57
(g78
g59
NtRp151
(dp152
g62
(dp153
g82
g83
ssg71
g147
sg64
(lp154
S'body'
p155
asbag57
(g78
g59
NtRp156
(dp157
g62
(dp158
g89
g90
ssg71
g147
sg64
(lp159
S':'
asbag57
(g78
g59
NtRp160
(dp161
g62
(dp162
sg71
g147
sg64
(lp163
g57
(g58
g59
NtRp164
(dp165
g62
(dp166
g70
I5
ssg71
g160
sg64
(lp167
S'<cStringIO.StringO object at 0xadc7cae0>'
p168
asbasbasbag57
(g73
g59
NtRp169
(dp170
g62
(dp171
sg71
g67
sg64
(lp172
g57
(g78
g59
NtRp173
(dp174
g62
(dp175
g82
g83
ssg71
g169
sg64
(lp176
S'cid'
p177
asbag57
(g78
g59
NtRp178
(dp179
g62
(dp180
g89
g90
ssg71
g169
sg64
(lp181
S':'
asbag57
(g78
g59
NtRp182
(dp183
g62
(dp184
sg71
g169
sg64
(lp185
g57
(g58
g59
NtRp186
(dp187
g62
(dp188
g70
I5
ssg71
g182
sg64
(lp189
S'None'
p190
asbasbasbag57
(g73
g59
NtRp191
(dp192
g62
(dp193
sg71
g67
sg64
(lp194
g57
(g78
g59
NtRp195
(dp196
g62
(dp197
g82
g83
ssg71
g191
sg64
(lp198
S'client'
p199
asbag57
(g78
g59
NtRp200
(dp201
g62
(dp202
g89
g90
ssg71
g191
sg64
(lp203
S':'
asbag57
(g78
g59
NtRp204
(dp205
g62
(dp206
sg71
g191
sg64
(lp207
g57
(g58
g59
NtRp208
(dp209
g62
(dp210
g70
I5
ssg71
g204
sg64
(lp211
S'127.0.0.1'
p212
asbasbasbag57
(g73
g59
NtRp213
(dp214
g62
(dp215
sg71
g67
sg64
(lp216
g57
(g78
g59
NtRp217
(dp218
g62
(dp219
g82
g83
ssg71
g213
sg64
(lp220
S'controller'
p221
asbag57
(g78
g59
NtRp222
(dp223
g62
(dp224
g89
g90
ssg71
g213
sg64
(lp225
S':'
asbag57
(g78
g59
NtRp226
(dp227
g62
(dp228
sg71
g213
sg64
(lp229
g57
(g58
g59
NtRp230
(dp231
g62
(dp232
g70
I5
ssg71
g226
sg64
(lp233
S'default'
p234
asbasbasbag57
(g73
g59
NtRp235
(dp236
g62
(dp237
sg71
g67
sg64
(lp238
g57
(g78
g59
NtRp239
(dp240
g62
(dp241
g82
g83
ssg71
g235
sg64
(lp242
S'cookies'
p243
asbag57
(g78
g59
NtRp244
(dp245
g62
(dp246
g89
g90
ssg71
g235
sg64
(lp247
S':'
asbag57
(g78
g59
NtRp248
(dp249
g62
(dp250
sg71
g235
sg64
(lp251
g57
(g58
g59
NtRp252
(dp253
g62
(dp254
g70
I5
ssg71
g248
sg64
(lp255
g57
(g66
g59
NtRp256
(dp257
g62
(dp258
g70
I4
ssg71
Nsg64
(lp259
g57
(g73
g59
NtRp260
(dp261
g62
(dp262
sg71
g256
sg64
(lp263
g57
(g78
g59
NtRp264
(dp265
g62
(dp266
g82
g83
ssg71
g260
sg64
(lp267
S'session_id_20120156_assignment_1'
p268
asbag57
(g78
g59
NtRp269
(dp270
g62
(dp271
g89
g90
ssg71
g260
sg64
(lp272
S':'
asbag57
(g78
g59
NtRp273
(dp274
g62
(dp275
sg71
g260
sg64
(lp276
g57
(g58
g59
NtRp277
(dp278
g62
(dp279
g70
I4
ssg71
g273
sg64
(lp280
S'127.0.0.1-6cad324c-0572-4be8-8f41-6fcaca863c93'
p281
ag57
(g66
g59
NtRp282
(dp283
g62
(dp284
g70
I3
ssg71
Nsg64
(lp285
g57
(g73
g59
NtRp286
(dp287
g62
(dp288
sg71
g282
sg64
(lp289
g57
(g78
g59
NtRp290
(dp291
g62
(dp292
g82
g83
ssg71
g286
sg64
(lp293
S'comment'
p294
asbag57
(g78
g59
NtRp295
(dp296
g62
(dp297
g89
g90
ssg71
g286
sg64
(lp298
S':'
asbag57
(g78
g59
NtRp299
(dp300
g62
(dp301
sg71
g286
sg64
(lp302
g57
(g58
g59
NtRp303
(dp304
g62
(dp305
g70
I3
ssg71
g299
sg64
(lp306
S''
asbasbasbag57
(g73
g59
NtRp307
(dp308
g62
(dp309
sg71
g282
sg64
(lp310
g57
(g78
g59
NtRp311
(dp312
g62
(dp313
g82
g83
ssg71
g307
sg64
(lp314
S'domain'
p315
asbag57
(g78
g59
NtRp316
(dp317
g62
(dp318
g89
g90
ssg71
g307
sg64
(lp319
S':'
asbag57
(g78
g59
NtRp320
(dp321
g62
(dp322
sg71
g307
sg64
(lp323
g57
(g58
g59
NtRp324
(dp325
g62
(dp326
g70
I3
ssg71
g320
sg64
(lp327
S''
asbasbasbag57
(g73
g59
NtRp328
(dp329
g62
(dp330
sg71
g282
sg64
(lp331
g57
(g78
g59
NtRp332
(dp333
g62
(dp334
g82
g83
ssg71
g328
sg64
(lp335
S'expires'
p336
asbag57
(g78
g59
NtRp337
(dp338
g62
(dp339
g89
g90
ssg71
g328
sg64
(lp340
S':'
asbag57
(g78
g59
NtRp341
(dp342
g62
(dp343
sg71
g328
sg64
(lp344
g57
(g58
g59
NtRp345
(dp346
g62
(dp347
g70
I3
ssg71
g341
sg64
(lp348
S''
asbasbasbag57
(g73
g59
NtRp349
(dp350
g62
(dp351
sg71
g282
sg64
(lp352
g57
(g78
g59
NtRp353
(dp354
g62
(dp355
g82
g83
ssg71
g349
sg64
(lp356
S'httponly'
p357
asbag57
(g78
g59
NtRp358
(dp359
g62
(dp360
g89
g90
ssg71
g349
sg64
(lp361
S':'
asbag57
(g78
g59
NtRp362
(dp363
g62
(dp364
sg71
g349
sg64
(lp365
g57
(g58
g59
NtRp366
(dp367
g62
(dp368
g70
I3
ssg71
g362
sg64
(lp369
S''
asbasbasbag57
(g73
g59
NtRp370
(dp371
g62
(dp372
sg71
g282
sg64
(lp373
g57
(g78
g59
NtRp374
(dp375
g62
(dp376
g82
g83
ssg71
g370
sg64
(lp377
S'max-age'
p378
asbag57
(g78
g59
NtRp379
(dp380
g62
(dp381
g89
g90
ssg71
g370
sg64
(lp382
S':'
asbag57
(g78
g59
NtRp383
(dp384
g62
(dp385
sg71
g370
sg64
(lp386
g57
(g58
g59
NtRp387
(dp388
g62
(dp389
g70
I3
ssg71
g383
sg64
(lp390
S''
asbasbasbag57
(g73
g59
NtRp391
(dp392
g62
(dp393
sg71
g282
sg64
(lp394
g57
(g78
g59
NtRp395
(dp396
g62
(dp397
g82
g83
ssg71
g391
sg64
(lp398
S'path'
p399
asbag57
(g78
g59
NtRp400
(dp401
g62
(dp402
g89
g90
ssg71
g391
sg64
(lp403
S':'
asbag57
(g78
g59
NtRp404
(dp405
g62
(dp406
sg71
g391
sg64
(lp407
g57
(g58
g59
NtRp408
(dp409
g62
(dp410
g70
I3
ssg71
g404
sg64
(lp411
S''
asbasbasbag57
(g73
g59
NtRp412
(dp413
g62
(dp414
sg71
g282
sg64
(lp415
g57
(g78
g59
NtRp416
(dp417
g62
(dp418
g82
g83
ssg71
g412
sg64
(lp419
S'secure'
p420
asbag57
(g78
g59
NtRp421
(dp422
g62
(dp423
g89
g90
ssg71
g412
sg64
(lp424
S':'
asbag57
(g78
g59
NtRp425
(dp426
g62
(dp427
sg71
g412
sg64
(lp428
g57
(g58
g59
NtRp429
(dp430
g62
(dp431
g70
I3
ssg71
g425
sg64
(lp432
S''
asbasbasbag57
(g73
g59
NtRp433
(dp434
g62
(dp435
sg71
g282
sg64
(lp436
g57
(g78
g59
NtRp437
(dp438
g62
(dp439
g82
g83
ssg71
g433
sg64
(lp440
S'version'
p441
asbag57
(g78
g59
NtRp442
(dp443
g62
(dp444
g89
g90
ssg71
g433
sg64
(lp445
S':'
asbag57
(g78
g59
NtRp446
(dp447
g62
(dp448
sg71
g433
sg64
(lp449
g57
(g58
g59
NtRp450
(dp451
g62
(dp452
g70
I3
ssg71
g446
sg64
(lp453
S''
asbasbasbasbasbasbasbag57
(g73
g59
NtRp454
(dp455
g62
(dp456
sg71
g256
sg64
(lp457
g57
(g78
g59
NtRp458
(dp459
g62
(dp460
g82
g83
ssg71
g454
sg64
(lp461
S'session_id_admin'
p462
asbag57
(g78
g59
NtRp463
(dp464
g62
(dp465
g89
g90
ssg71
g454
sg64
(lp466
S':'
asbag57
(g78
g59
NtRp467
(dp468
g62
(dp469
sg71
g454
sg64
(lp470
g57
(g58
g59
NtRp471
(dp472
g62
(dp473
g70
I4
ssg71
g467
sg64
(lp474
S'127.0.0.1-eea59e1b-9257-4df1-8c44-da77bf9e4ec2'
p475
ag57
(g66
g59
NtRp476
(dp477
g62
(dp478
g70
I3
ssg71
Nsg64
(lp479
g57
(g73
g59
NtRp480
(dp481
g62
(dp482
sg71
g476
sg64
(lp483
g57
(g78
g59
NtRp484
(dp485
g62
(dp486
g82
g83
ssg71
g480
sg64
(lp487
g294
asbag57
(g78
g59
NtRp488
(dp489
g62
(dp490
g89
g90
ssg71
g480
sg64
(lp491
S':'
asbag57
(g78
g59
NtRp492
(dp493
g62
(dp494
sg71
g480
sg64
(lp495
g57
(g58
g59
NtRp496
(dp497
g62
(dp498
g70
I3
ssg71
g492
sg64
(lp499
S''
asbasbasbag57
(g73
g59
NtRp500
(dp501
g62
(dp502
sg71
g476
sg64
(lp503
g57
(g78
g59
NtRp504
(dp505
g62
(dp506
g82
g83
ssg71
g500
sg64
(lp507
g315
asbag57
(g78
g59
NtRp508
(dp509
g62
(dp510
g89
g90
ssg71
g500
sg64
(lp511
S':'
asbag57
(g78
g59
NtRp512
(dp513
g62
(dp514
sg71
g500
sg64
(lp515
g57
(g58
g59
NtRp516
(dp517
g62
(dp518
g70
I3
ssg71
g512
sg64
(lp519
S''
asbasbasbag57
(g73
g59
NtRp520
(dp521
g62
(dp522
sg71
g476
sg64
(lp523
g57
(g78
g59
NtRp524
(dp525
g62
(dp526
g82
g83
ssg71
g520
sg64
(lp527
g336
asbag57
(g78
g59
NtRp528
(dp529
g62
(dp530
g89
g90
ssg71
g520
sg64
(lp531
S':'
asbag57
(g78
g59
NtRp532
(dp533
g62
(dp534
sg71
g520
sg64
(lp535
g57
(g58
g59
NtRp536
(dp537
g62
(dp538
g70
I3
ssg71
g532
sg64
(lp539
S''
asbasbasbag57
(g73
g59
NtRp540
(dp541
g62
(dp542
sg71
g476
sg64
(lp543
g57
(g78
g59
NtRp544
(dp545
g62
(dp546
g82
g83
ssg71
g540
sg64
(lp547
g357
asbag57
(g78
g59
NtRp548
(dp549
g62
(dp550
g89
g90
ssg71
g540
sg64
(lp551
S':'
asbag57
(g78
g59
NtRp552
(dp553
g62
(dp554
sg71
g540
sg64
(lp555
g57
(g58
g59
NtRp556
(dp557
g62
(dp558
g70
I3
ssg71
g552
sg64
(lp559
S''
asbasbasbag57
(g73
g59
NtRp560
(dp561
g62
(dp562
sg71
g476
sg64
(lp563
g57
(g78
g59
NtRp564
(dp565
g62
(dp566
g82
g83
ssg71
g560
sg64
(lp567
g378
asbag57
(g78
g59
NtRp568
(dp569
g62
(dp570
g89
g90
ssg71
g560
sg64
(lp571
S':'
asbag57
(g78
g59
NtRp572
(dp573
g62
(dp574
sg71
g560
sg64
(lp575
g57
(g58
g59
NtRp576
(dp577
g62
(dp578
g70
I3
ssg71
g572
sg64
(lp579
S''
asbasbasbag57
(g73
g59
NtRp580
(dp581
g62
(dp582
sg71
g476
sg64
(lp583
g57
(g78
g59
NtRp584
(dp585
g62
(dp586
g82
g83
ssg71
g580
sg64
(lp587
g399
asbag57
(g78
g59
NtRp588
(dp589
g62
(dp590
g89
g90
ssg71
g580
sg64
(lp591
S':'
asbag57
(g78
g59
NtRp592
(dp593
g62
(dp594
sg71
g580
sg64
(lp595
g57
(g58
g59
NtRp596
(dp597
g62
(dp598
g70
I3
ssg71
g592
sg64
(lp599
S''
asbasbasbag57
(g73
g59
NtRp600
(dp601
g62
(dp602
sg71
g476
sg64
(lp603
g57
(g78
g59
NtRp604
(dp605
g62
(dp606
g82
g83
ssg71
g600
sg64
(lp607
g420
asbag57
(g78
g59
NtRp608
(dp609
g62
(dp610
g89
g90
ssg71
g600
sg64
(lp611
S':'
asbag57
(g78
g59
NtRp612
(dp613
g62
(dp614
sg71
g600
sg64
(lp615
g57
(g58
g59
NtRp616
(dp617
g62
(dp618
g70
I3
ssg71
g612
sg64
(lp619
S''
asbasbasbag57
(g73
g59
NtRp620
(dp621
g62
(dp622
sg71
g476
sg64
(lp623
g57
(g78
g59
NtRp624
(dp625
g62
(dp626
g82
g83
ssg71
g620
sg64
(lp627
g441
asbag57
(g78
g59
NtRp628
(dp629
g62
(dp630
g89
g90
ssg71
g620
sg64
(lp631
S':'
asbag57
(g78
g59
NtRp632
(dp633
g62
(dp634
sg71
g620
sg64
(lp635
g57
(g58
g59
NtRp636
(dp637
g62
(dp638
g70
I3
ssg71
g632
sg64
(lp639
S''
asbasbasbasbasbasbasbag57
(g73
g59
NtRp640
(dp641
g62
(dp642
sg71
g256
sg64
(lp643
g57
(g78
g59
NtRp644
(dp645
g62
(dp646
g82
g83
ssg71
g640
sg64
(lp647
S'session_id_arihant'
p648
asbag57
(g78
g59
NtRp649
(dp650
g62
(dp651
g89
g90
ssg71
g640
sg64
(lp652
S':'
asbag57
(g78
g59
NtRp653
(dp654
g62
(dp655
sg71
g640
sg64
(lp656
g57
(g58
g59
NtRp657
(dp658
g62
(dp659
g70
I4
ssg71
g653
sg64
(lp660
S'127.0.0.1-fa99deb6-5977-491c-864a-b5d79c0d1842'
p661
ag57
(g66
g59
NtRp662
(dp663
g62
(dp664
g70
I3
ssg71
Nsg64
(lp665
g57
(g73
g59
NtRp666
(dp667
g62
(dp668
sg71
g662
sg64
(lp669
g57
(g78
g59
NtRp670
(dp671
g62
(dp672
g82
g83
ssg71
g666
sg64
(lp673
g294
asbag57
(g78
g59
NtRp674
(dp675
g62
(dp676
g89
g90
ssg71
g666
sg64
(lp677
S':'
asbag57
(g78
g59
NtRp678
(dp679
g62
(dp680
sg71
g666
sg64
(lp681
g57
(g58
g59
NtRp682
(dp683
g62
(dp684
g70
I3
ssg71
g678
sg64
(lp685
S''
asbasbasbag57
(g73
g59
NtRp686
(dp687
g62
(dp688
sg71
g662
sg64
(lp689
g57
(g78
g59
NtRp690
(dp691
g62
(dp692
g82
g83
ssg71
g686
sg64
(lp693
g315
asbag57
(g78
g59
NtRp694
(dp695
g62
(dp696
g89
g90
ssg71
g686
sg64
(lp697
S':'
asbag57
(g78
g59
NtRp698
(dp699
g62
(dp700
sg71
g686
sg64
(lp701
g57
(g58
g59
NtRp702
(dp703
g62
(dp704
g70
I3
ssg71
g698
sg64
(lp705
S''
asbasbasbag57
(g73
g59
NtRp706
(dp707
g62
(dp708
sg71
g662
sg64
(lp709
g57
(g78
g59
NtRp710
(dp711
g62
(dp712
g82
g83
ssg71
g706
sg64
(lp713
g336
asbag57
(g78
g59
NtRp714
(dp715
g62
(dp716
g89
g90
ssg71
g706
sg64
(lp717
S':'
asbag57
(g78
g59
NtRp718
(dp719
g62
(dp720
sg71
g706
sg64
(lp721
g57
(g58
g59
NtRp722
(dp723
g62
(dp724
g70
I3
ssg71
g718
sg64
(lp725
S''
asbasbasbag57
(g73
g59
NtRp726
(dp727
g62
(dp728
sg71
g662
sg64
(lp729
g57
(g78
g59
NtRp730
(dp731
g62
(dp732
g82
g83
ssg71
g726
sg64
(lp733
g357
asbag57
(g78
g59
NtRp734
(dp735
g62
(dp736
g89
g90
ssg71
g726
sg64
(lp737
S':'
asbag57
(g78
g59
NtRp738
(dp739
g62
(dp740
sg71
g726
sg64
(lp741
g57
(g58
g59
NtRp742
(dp743
g62
(dp744
g70
I3
ssg71
g738
sg64
(lp745
S''
asbasbasbag57
(g73
g59
NtRp746
(dp747
g62
(dp748
sg71
g662
sg64
(lp749
g57
(g78
g59
NtRp750
(dp751
g62
(dp752
g82
g83
ssg71
g746
sg64
(lp753
g378
asbag57
(g78
g59
NtRp754
(dp755
g62
(dp756
g89
g90
ssg71
g746
sg64
(lp757
S':'
asbag57
(g78
g59
NtRp758
(dp759
g62
(dp760
sg71
g746
sg64
(lp761
g57
(g58
g59
NtRp762
(dp763
g62
(dp764
g70
I3
ssg71
g758
sg64
(lp765
S''
asbasbasbag57
(g73
g59
NtRp766
(dp767
g62
(dp768
sg71
g662
sg64
(lp769
g57
(g78
g59
NtRp770
(dp771
g62
(dp772
g82
g83
ssg71
g766
sg64
(lp773
g399
asbag57
(g78
g59
NtRp774
(dp775
g62
(dp776
g89
g90
ssg71
g766
sg64
(lp777
S':'
asbag57
(g78
g59
NtRp778
(dp779
g62
(dp780
sg71
g766
sg64
(lp781
g57
(g58
g59
NtRp782
(dp783
g62
(dp784
g70
I3
ssg71
g778
sg64
(lp785
S''
asbasbasbag57
(g73
g59
NtRp786
(dp787
g62
(dp788
sg71
g662
sg64
(lp789
g57
(g78
g59
NtRp790
(dp791
g62
(dp792
g82
g83
ssg71
g786
sg64
(lp793
g420
asbag57
(g78
g59
NtRp794
(dp795
g62
(dp796
g89
g90
ssg71
g786
sg64
(lp797
S':'
asbag57
(g78
g59
NtRp798
(dp799
g62
(dp800
sg71
g786
sg64
(lp801
g57
(g58
g59
NtRp802
(dp803
g62
(dp804
g70
I3
ssg71
g798
sg64
(lp805
S''
asbasbasbag57
(g73
g59
NtRp806
(dp807
g62
(dp808
sg71
g662
sg64
(lp809
g57
(g78
g59
NtRp810
(dp811
g62
(dp812
g82
g83
ssg71
g806
sg64
(lp813
g441
asbag57
(g78
g59
NtRp814
(dp815
g62
(dp816
g89
g90
ssg71
g806
sg64
(lp817
S':'
asbag57
(g78
g59
NtRp818
(dp819
g62
(dp820
sg71
g806
sg64
(lp821
g57
(g58
g59
NtRp822
(dp823
g62
(dp824
g70
I3
ssg71
g818
sg64
(lp825
S''
asbasbasbasbasbasbasbag57
(g73
g59
NtRp826
(dp827
g62
(dp828
sg71
g256
sg64
(lp829
g57
(g78
g59
NtRp830
(dp831
g62
(dp832
g82
g83
ssg71
g826
sg64
(lp833
S'session_id_cataminder'
p834
asbag57
(g78
g59
NtRp835
(dp836
g62
(dp837
g89
g90
ssg71
g826
sg64
(lp838
S':'
asbag57
(g78
g59
NtRp839
(dp840
g62
(dp841
sg71
g826
sg64
(lp842
g57
(g58
g59
NtRp843
(dp844
g62
(dp845
g70
I4
ssg71
g839
sg64
(lp846
S'127.0.0.1-81b628a7-34a5-4e70-a95c-79ef710dcdbb'
p847
ag57
(g66
g59
NtRp848
(dp849
g62
(dp850
g70
I3
ssg71
Nsg64
(lp851
g57
(g73
g59
NtRp852
(dp853
g62
(dp854
sg71
g848
sg64
(lp855
g57
(g78
g59
NtRp856
(dp857
g62
(dp858
g82
g83
ssg71
g852
sg64
(lp859
g294
asbag57
(g78
g59
NtRp860
(dp861
g62
(dp862
g89
g90
ssg71
g852
sg64
(lp863
S':'
asbag57
(g78
g59
NtRp864
(dp865
g62
(dp866
sg71
g852
sg64
(lp867
g57
(g58
g59
NtRp868
(dp869
g62
(dp870
g70
I3
ssg71
g864
sg64
(lp871
S''
asbasbasbag57
(g73
g59
NtRp872
(dp873
g62
(dp874
sg71
g848
sg64
(lp875
g57
(g78
g59
NtRp876
(dp877
g62
(dp878
g82
g83
ssg71
g872
sg64
(lp879
g315
asbag57
(g78
g59
NtRp880
(dp881
g62
(dp882
g89
g90
ssg71
g872
sg64
(lp883
S':'
asbag57
(g78
g59
NtRp884
(dp885
g62
(dp886
sg71
g872
sg64
(lp887
g57
(g58
g59
NtRp888
(dp889
g62
(dp890
g70
I3
ssg71
g884
sg64
(lp891
S''
asbasbasbag57
(g73
g59
NtRp892
(dp893
g62
(dp894
sg71
g848
sg64
(lp895
g57
(g78
g59
NtRp896
(dp897
g62
(dp898
g82
g83
ssg71
g892
sg64
(lp899
g336
asbag57
(g78
g59
NtRp900
(dp901
g62
(dp902
g89
g90
ssg71
g892
sg64
(lp903
S':'
asbag57
(g78
g59
NtRp904
(dp905
g62
(dp906
sg71
g892
sg64
(lp907
g57
(g58
g59
NtRp908
(dp909
g62
(dp910
g70
I3
ssg71
g904
sg64
(lp911
S''
asbasbasbag57
(g73
g59
NtRp912
(dp913
g62
(dp914
sg71
g848
sg64
(lp915
g57
(g78
g59
NtRp916
(dp917
g62
(dp918
g82
g83
ssg71
g912
sg64
(lp919
g357
asbag57
(g78
g59
NtRp920
(dp921
g62
(dp922
g89
g90
ssg71
g912
sg64
(lp923
S':'
asbag57
(g78
g59
NtRp924
(dp925
g62
(dp926
sg71
g912
sg64
(lp927
g57
(g58
g59
NtRp928
(dp929
g62
(dp930
g70
I3
ssg71
g924
sg64
(lp931
S''
asbasbasbag57
(g73
g59
NtRp932
(dp933
g62
(dp934
sg71
g848
sg64
(lp935
g57
(g78
g59
NtRp936
(dp937
g62
(dp938
g82
g83
ssg71
g932
sg64
(lp939
g378
asbag57
(g78
g59
NtRp940
(dp941
g62
(dp942
g89
g90
ssg71
g932
sg64
(lp943
S':'
asbag57
(g78
g59
NtRp944
(dp945
g62
(dp946
sg71
g932
sg64
(lp947
g57
(g58
g59
NtRp948
(dp949
g62
(dp950
g70
I3
ssg71
g944
sg64
(lp951
S''
asbasbasbag57
(g73
g59
NtRp952
(dp953
g62
(dp954
sg71
g848
sg64
(lp955
g57
(g78
g59
NtRp956
(dp957
g62
(dp958
g82
g83
ssg71
g952
sg64
(lp959
g399
asbag57
(g78
g59
NtRp960
(dp961
g62
(dp962
g89
g90
ssg71
g952
sg64
(lp963
S':'
asbag57
(g78
g59
NtRp964
(dp965
g62
(dp966
sg71
g952
sg64
(lp967
g57
(g58
g59
NtRp968
(dp969
g62
(dp970
g70
I3
ssg71
g964
sg64
(lp971
S''
asbasbasbag57
(g73
g59
NtRp972
(dp973
g62
(dp974
sg71
g848
sg64
(lp975
g57
(g78
g59
NtRp976
(dp977
g62
(dp978
g82
g83
ssg71
g972
sg64
(lp979
g420
asbag57
(g78
g59
NtRp980
(dp981
g62
(dp982
g89
g90
ssg71
g972
sg64
(lp983
S':'
asbag57
(g78
g59
NtRp984
(dp985
g62
(dp986
sg71
g972
sg64
(lp987
g57
(g58
g59
NtRp988
(dp989
g62
(dp990
g70
I3
ssg71
g984
sg64
(lp991
S''
asbasbasbag57
(g73
g59
NtRp992
(dp993
g62
(dp994
sg71
g848
sg64
(lp995
g57
(g78
g59
NtRp996
(dp997
g62
(dp998
g82
g83
ssg71
g992
sg64
(lp999
g441
asbag57
(g78
g59
NtRp1000
(dp1001
g62
(dp1002
g89
g90
ssg71
g992
sg64
(lp1003
S':'
asbag57
(g78
g59
NtRp1004
(dp1005
g62
(dp1006
sg71
g992
sg64
(lp1007
g57
(g58
g59
NtRp1008
(dp1009
g62
(dp1010
g70
I3
ssg71
g1004
sg64
(lp1011
S''
asbasbasbasbasbasbasbag57
(g73
g59
NtRp1012
(dp1013
g62
(dp1014
sg71
g256
sg64
(lp1015
g57
(g78
g59
NtRp1016
(dp1017
g62
(dp1018
g82
g83
ssg71
g1012
sg64
(lp1019
S'session_id_courses'
p1020
asbag57
(g78
g59
NtRp1021
(dp1022
g62
(dp1023
g89
g90
ssg71
g1012
sg64
(lp1024
S':'
asbag57
(g78
g59
NtRp1025
(dp1026
g62
(dp1027
sg71
g1012
sg64
(lp1028
g57
(g58
g59
NtRp1029
(dp1030
g62
(dp1031
g70
I4
ssg71
g1025
sg64
(lp1032
S'127.0.0.1-1d46c4eb-fdfc-4abb-bb62-6bcf52d1fcaa'
p1033
ag57
(g66
g59
NtRp1034
(dp1035
g62
(dp1036
g70
I3
ssg71
Nsg64
(lp1037
g57
(g73
g59
NtRp1038
(dp1039
g62
(dp1040
sg71
g1034
sg64
(lp1041
g57
(g78
g59
NtRp1042
(dp1043
g62
(dp1044
g82
g83
ssg71
g1038
sg64
(lp1045
g294
asbag57
(g78
g59
NtRp1046
(dp1047
g62
(dp1048
g89
g90
ssg71
g1038
sg64
(lp1049
S':'
asbag57
(g78
g59
NtRp1050
(dp1051
g62
(dp1052
sg71
g1038
sg64
(lp1053
g57
(g58
g59
NtRp1054
(dp1055
g62
(dp1056
g70
I3
ssg71
g1050
sg64
(lp1057
S''
asbasbasbag57
(g73
g59
NtRp1058
(dp1059
g62
(dp1060
sg71
g1034
sg64
(lp1061
g57
(g78
g59
NtRp1062
(dp1063
g62
(dp1064
g82
g83
ssg71
g1058
sg64
(lp1065
g315
asbag57
(g78
g59
NtRp1066
(dp1067
g62
(dp1068
g89
g90
ssg71
g1058
sg64
(lp1069
S':'
asbag57
(g78
g59
NtRp1070
(dp1071
g62
(dp1072
sg71
g1058
sg64
(lp1073
g57
(g58
g59
NtRp1074
(dp1075
g62
(dp1076
g70
I3
ssg71
g1070
sg64
(lp1077
S''
asbasbasbag57
(g73
g59
NtRp1078
(dp1079
g62
(dp1080
sg71
g1034
sg64
(lp1081
g57
(g78
g59
NtRp1082
(dp1083
g62
(dp1084
g82
g83
ssg71
g1078
sg64
(lp1085
g336
asbag57
(g78
g59
NtRp1086
(dp1087
g62
(dp1088
g89
g90
ssg71
g1078
sg64
(lp1089
S':'
asbag57
(g78
g59
NtRp1090
(dp1091
g62
(dp1092
sg71
g1078
sg64
(lp1093
g57
(g58
g59
NtRp1094
(dp1095
g62
(dp1096
g70
I3
ssg71
g1090
sg64
(lp1097
S''
asbasbasbag57
(g73
g59
NtRp1098
(dp1099
g62
(dp1100
sg71
g1034
sg64
(lp1101
g57
(g78
g59
NtRp1102
(dp1103
g62
(dp1104
g82
g83
ssg71
g1098
sg64
(lp1105
g357
asbag57
(g78
g59
NtRp1106
(dp1107
g62
(dp1108
g89
g90
ssg71
g1098
sg64
(lp1109
S':'
asbag57
(g78
g59
NtRp1110
(dp1111
g62
(dp1112
sg71
g1098
sg64
(lp1113
g57
(g58
g59
NtRp1114
(dp1115
g62
(dp1116
g70
I3
ssg71
g1110
sg64
(lp1117
S''
asbasbasbag57
(g73
g59
NtRp1118
(dp1119
g62
(dp1120
sg71
g1034
sg64
(lp1121
g57
(g78
g59
NtRp1122
(dp1123
g62
(dp1124
g82
g83
ssg71
g1118
sg64
(lp1125
g378
asbag57
(g78
g59
NtRp1126
(dp1127
g62
(dp1128
g89
g90
ssg71
g1118
sg64
(lp1129
S':'
asbag57
(g78
g59
NtRp1130
(dp1131
g62
(dp1132
sg71
g1118
sg64
(lp1133
g57
(g58
g59
NtRp1134
(dp1135
g62
(dp1136
g70
I3
ssg71
g1130
sg64
(lp1137
S''
asbasbasbag57
(g73
g59
NtRp1138
(dp1139
g62
(dp1140
sg71
g1034
sg64
(lp1141
g57
(g78
g59
NtRp1142
(dp1143
g62
(dp1144
g82
g83
ssg71
g1138
sg64
(lp1145
g399
asbag57
(g78
g59
NtRp1146
(dp1147
g62
(dp1148
g89
g90
ssg71
g1138
sg64
(lp1149
S':'
asbag57
(g78
g59
NtRp1150
(dp1151
g62
(dp1152
sg71
g1138
sg64
(lp1153
g57
(g58
g59
NtRp1154
(dp1155
g62
(dp1156
g70
I3
ssg71
g1150
sg64
(lp1157
S''
asbasbasbag57
(g73
g59
NtRp1158
(dp1159
g62
(dp1160
sg71
g1034
sg64
(lp1161
g57
(g78
g59
NtRp1162
(dp1163
g62
(dp1164
g82
g83
ssg71
g1158
sg64
(lp1165
g420
asbag57
(g78
g59
NtRp1166
(dp1167
g62
(dp1168
g89
g90
ssg71
g1158
sg64
(lp1169
S':'
asbag57
(g78
g59
NtRp1170
(dp1171
g62
(dp1172
sg71
g1158
sg64
(lp1173
g57
(g58
g59
NtRp1174
(dp1175
g62
(dp1176
g70
I3
ssg71
g1170
sg64
(lp1177
S''
asbasbasbag57
(g73
g59
NtRp1178
(dp1179
g62
(dp1180
sg71
g1034
sg64
(lp1181
g57
(g78
g59
NtRp1182
(dp1183
g62
(dp1184
g82
g83
ssg71
g1178
sg64
(lp1185
g441
asbag57
(g78
g59
NtRp1186
(dp1187
g62
(dp1188
g89
g90
ssg71
g1178
sg64
(lp1189
S':'
asbag57
(g78
g59
NtRp1190
(dp1191
g62
(dp1192
sg71
g1178
sg64
(lp1193
g57
(g58
g59
NtRp1194
(dp1195
g62
(dp1196
g70
I3
ssg71
g1190
sg64
(lp1197
S''
asbasbasbasbasbasbasbag57
(g73
g59
NtRp1198
(dp1199
g62
(dp1200
sg71
g256
sg64
(lp1201
g57
(g78
g59
NtRp1202
(dp1203
g62
(dp1204
g82
g83
ssg71
g1198
sg64
(lp1205
S'session_id_iiit_fb'
p1206
asbag57
(g78
g59
NtRp1207
(dp1208
g62
(dp1209
g89
g90
ssg71
g1198
sg64
(lp1210
S':'
asbag57
(g78
g59
NtRp1211
(dp1212
g62
(dp1213
sg71
g1198
sg64
(lp1214
g57
(g58
g59
NtRp1215
(dp1216
g62
(dp1217
g70
I4
ssg71
g1211
sg64
(lp1218
S'127.0.0.1-04b7df24-4720-4bb5-98de-96b98776240d'
p1219
ag57
(g66
g59
NtRp1220
(dp1221
g62
(dp1222
g70
I3
ssg71
Nsg64
(lp1223
g57
(g73
g59
NtRp1224
(dp1225
g62
(dp1226
sg71
g1220
sg64
(lp1227
g57
(g78
g59
NtRp1228
(dp1229
g62
(dp1230
g82
g83
ssg71
g1224
sg64
(lp1231
g294
asbag57
(g78
g59
NtRp1232
(dp1233
g62
(dp1234
g89
g90
ssg71
g1224
sg64
(lp1235
S':'
asbag57
(g78
g59
NtRp1236
(dp1237
g62
(dp1238
sg71
g1224
sg64
(lp1239
g57
(g58
g59
NtRp1240
(dp1241
g62
(dp1242
g70
I3
ssg71
g1236
sg64
(lp1243
S''
asbasbasbag57
(g73
g59
NtRp1244
(dp1245
g62
(dp1246
sg71
g1220
sg64
(lp1247
g57
(g78
g59
NtRp1248
(dp1249
g62
(dp1250
g82
g83
ssg71
g1244
sg64
(lp1251
g315
asbag57
(g78
g59
NtRp1252
(dp1253
g62
(dp1254
g89
g90
ssg71
g1244
sg64
(lp1255
S':'
asbag57
(g78
g59
NtRp1256
(dp1257
g62
(dp1258
sg71
g1244
sg64
(lp1259
g57
(g58
g59
NtRp1260
(dp1261
g62
(dp1262
g70
I3
ssg71
g1256
sg64
(lp1263
S''
asbasbasbag57
(g73
g59
NtRp1264
(dp1265
g62
(dp1266
sg71
g1220
sg64
(lp1267
g57
(g78
g59
NtRp1268
(dp1269
g62
(dp1270
g82
g83
ssg71
g1264
sg64
(lp1271
g336
asbag57
(g78
g59
NtRp1272
(dp1273
g62
(dp1274
g89
g90
ssg71
g1264
sg64
(lp1275
S':'
asbag57
(g78
g59
NtRp1276
(dp1277
g62
(dp1278
sg71
g1264
sg64
(lp1279
g57
(g58
g59
NtRp1280
(dp1281
g62
(dp1282
g70
I3
ssg71
g1276
sg64
(lp1283
S''
asbasbasbag57
(g73
g59
NtRp1284
(dp1285
g62
(dp1286
sg71
g1220
sg64
(lp1287
g57
(g78
g59
NtRp1288
(dp1289
g62
(dp1290
g82
g83
ssg71
g1284
sg64
(lp1291
g357
asbag57
(g78
g59
NtRp1292
(dp1293
g62
(dp1294
g89
g90
ssg71
g1284
sg64
(lp1295
S':'
asbag57
(g78
g59
NtRp1296
(dp1297
g62
(dp1298
sg71
g1284
sg64
(lp1299
g57
(g58
g59
NtRp1300
(dp1301
g62
(dp1302
g70
I3
ssg71
g1296
sg64
(lp1303
S''
asbasbasbag57
(g73
g59
NtRp1304
(dp1305
g62
(dp1306
sg71
g1220
sg64
(lp1307
g57
(g78
g59
NtRp1308
(dp1309
g62
(dp1310
g82
g83
ssg71
g1304
sg64
(lp1311
g378
asbag57
(g78
g59
NtRp1312
(dp1313
g62
(dp1314
g89
g90
ssg71
g1304
sg64
(lp1315
S':'
asbag57
(g78
g59
NtRp1316
(dp1317
g62
(dp1318
sg71
g1304
sg64
(lp1319
g57
(g58
g59
NtRp1320
(dp1321
g62
(dp1322
g70
I3
ssg71
g1316
sg64
(lp1323
S''
asbasbasbag57
(g73
g59
NtRp1324
(dp1325
g62
(dp1326
sg71
g1220
sg64
(lp1327
g57
(g78
g59
NtRp1328
(dp1329
g62
(dp1330
g82
g83
ssg71
g1324
sg64
(lp1331
g399
asbag57
(g78
g59
NtRp1332
(dp1333
g62
(dp1334
g89
g90
ssg71
g1324
sg64
(lp1335
S':'
asbag57
(g78
g59
NtRp1336
(dp1337
g62
(dp1338
sg71
g1324
sg64
(lp1339
g57
(g58
g59
NtRp1340
(dp1341
g62
(dp1342
g70
I3
ssg71
g1336
sg64
(lp1343
S''
asbasbasbag57
(g73
g59
NtRp1344
(dp1345
g62
(dp1346
sg71
g1220
sg64
(lp1347
g57
(g78
g59
NtRp1348
(dp1349
g62
(dp1350
g82
g83
ssg71
g1344
sg64
(lp1351
g420
asbag57
(g78
g59
NtRp1352
(dp1353
g62
(dp1354
g89
g90
ssg71
g1344
sg64
(lp1355
S':'
asbag57
(g78
g59
NtRp1356
(dp1357
g62
(dp1358
sg71
g1344
sg64
(lp1359
g57
(g58
g59
NtRp1360
(dp1361
g62
(dp1362
g70
I3
ssg71
g1356
sg64
(lp1363
S''
asbasbasbag57
(g73
g59
NtRp1364
(dp1365
g62
(dp1366
sg71
g1220
sg64
(lp1367
g57
(g78
g59
NtRp1368
(dp1369
g62
(dp1370
g82
g83
ssg71
g1364
sg64
(lp1371
g441
asbag57
(g78
g59
NtRp1372
(dp1373
g62
(dp1374
g89
g90
ssg71
g1364
sg64
(lp1375
S':'
asbag57
(g78
g59
NtRp1376
(dp1377
g62
(dp1378
sg71
g1364
sg64
(lp1379
g57
(g58
g59
NtRp1380
(dp1381
g62
(dp1382
g70
I3
ssg71
g1376
sg64
(lp1383
S''
asbasbasbasbasbasbasbag57
(g73
g59
NtRp1384
(dp1385
g62
(dp1386
sg71
g256
sg64
(lp1387
g57
(g78
g59
NtRp1388
(dp1389
g62
(dp1390
g82
g83
ssg71
g1384
sg64
(lp1391
S'session_id_myapp'
p1392
asbag57
(g78
g59
NtRp1393
(dp1394
g62
(dp1395
g89
g90
ssg71
g1384
sg64
(lp1396
S':'
asbag57
(g78
g59
NtRp1397
(dp1398
g62
(dp1399
sg71
g1384
sg64
(lp1400
g57
(g58
g59
NtRp1401
(dp1402
g62
(dp1403
g70
I4
ssg71
g1397
sg64
(lp1404
S'127.0.0.1-f28af7a6-9d1e-4a86-bd34-27605492a231'
p1405
ag57
(g66
g59
NtRp1406
(dp1407
g62
(dp1408
g70
I3
ssg71
Nsg64
(lp1409
g57
(g73
g59
NtRp1410
(dp1411
g62
(dp1412
sg71
g1406
sg64
(lp1413
g57
(g78
g59
NtRp1414
(dp1415
g62
(dp1416
g82
g83
ssg71
g1410
sg64
(lp1417
g294
asbag57
(g78
g59
NtRp1418
(dp1419
g62
(dp1420
g89
g90
ssg71
g1410
sg64
(lp1421
S':'
asbag57
(g78
g59
NtRp1422
(dp1423
g62
(dp1424
sg71
g1410
sg64
(lp1425
g57
(g58
g59
NtRp1426
(dp1427
g62
(dp1428
g70
I3
ssg71
g1422
sg64
(lp1429
S''
asbasbasbag57
(g73
g59
NtRp1430
(dp1431
g62
(dp1432
sg71
g1406
sg64
(lp1433
g57
(g78
g59
NtRp1434
(dp1435
g62
(dp1436
g82
g83
ssg71
g1430
sg64
(lp1437
g315
asbag57
(g78
g59
NtRp1438
(dp1439
g62
(dp1440
g89
g90
ssg71
g1430
sg64
(lp1441
S':'
asbag57
(g78
g59
NtRp1442
(dp1443
g62
(dp1444
sg71
g1430
sg64
(lp1445
g57
(g58
g59
NtRp1446
(dp1447
g62
(dp1448
g70
I3
ssg71
g1442
sg64
(lp1449
S''
asbasbasbag57
(g73
g59
NtRp1450
(dp1451
g62
(dp1452
sg71
g1406
sg64
(lp1453
g57
(g78
g59
NtRp1454
(dp1455
g62
(dp1456
g82
g83
ssg71
g1450
sg64
(lp1457
g336
asbag57
(g78
g59
NtRp1458
(dp1459
g62
(dp1460
g89
g90
ssg71
g1450
sg64
(lp1461
S':'
asbag57
(g78
g59
NtRp1462
(dp1463
g62
(dp1464
sg71
g1450
sg64
(lp1465
g57
(g58
g59
NtRp1466
(dp1467
g62
(dp1468
g70
I3
ssg71
g1462
sg64
(lp1469
S''
asbasbasbag57
(g73
g59
NtRp1470
(dp1471
g62
(dp1472
sg71
g1406
sg64
(lp1473
g57
(g78
g59
NtRp1474
(dp1475
g62
(dp1476
g82
g83
ssg71
g1470
sg64
(lp1477
g357
asbag57
(g78
g59
NtRp1478
(dp1479
g62
(dp1480
g89
g90
ssg71
g1470
sg64
(lp1481
S':'
asbag57
(g78
g59
NtRp1482
(dp1483
g62
(dp1484
sg71
g1470
sg64
(lp1485
g57
(g58
g59
NtRp1486
(dp1487
g62
(dp1488
g70
I3
ssg71
g1482
sg64
(lp1489
S''
asbasbasbag57
(g73
g59
NtRp1490
(dp1491
g62
(dp1492
sg71
g1406
sg64
(lp1493
g57
(g78
g59
NtRp1494
(dp1495
g62
(dp1496
g82
g83
ssg71
g1490
sg64
(lp1497
g378
asbag57
(g78
g59
NtRp1498
(dp1499
g62
(dp1500
g89
g90
ssg71
g1490
sg64
(lp1501
S':'
asbag57
(g78
g59
NtRp1502
(dp1503
g62
(dp1504
sg71
g1490
sg64
(lp1505
g57
(g58
g59
NtRp1506
(dp1507
g62
(dp1508
g70
I3
ssg71
g1502
sg64
(lp1509
S''
asbasbasbag57
(g73
g59
NtRp1510
(dp1511
g62
(dp1512
sg71
g1406
sg64
(lp1513
g57
(g78
g59
NtRp1514
(dp1515
g62
(dp1516
g82
g83
ssg71
g1510
sg64
(lp1517
g399
asbag57
(g78
g59
NtRp1518
(dp1519
g62
(dp1520
g89
g90
ssg71
g1510
sg64
(lp1521
S':'
asbag57
(g78
g59
NtRp1522
(dp1523
g62
(dp1524
sg71
g1510
sg64
(lp1525
g57
(g58
g59
NtRp1526
(dp1527
g62
(dp1528
g70
I3
ssg71
g1522
sg64
(lp1529
S''
asbasbasbag57
(g73
g59
NtRp1530
(dp1531
g62
(dp1532
sg71
g1406
sg64
(lp1533
g57
(g78
g59
NtRp1534
(dp1535
g62
(dp1536
g82
g83
ssg71
g1530
sg64
(lp1537
g420
asbag57
(g78
g59
NtRp1538
(dp1539
g62
(dp1540
g89
g90
ssg71
g1530
sg64
(lp1541
S':'
asbag57
(g78
g59
NtRp1542
(dp1543
g62
(dp1544
sg71
g1530
sg64
(lp1545
g57
(g58
g59
NtRp1546
(dp1547
g62
(dp1548
g70
I3
ssg71
g1542
sg64
(lp1549
S''
asbasbasbag57
(g73
g59
NtRp1550
(dp1551
g62
(dp1552
sg71
g1406
sg64
(lp1553
g57
(g78
g59
NtRp1554
(dp1555
g62
(dp1556
g82
g83
ssg71
g1550
sg64
(lp1557
g441
asbag57
(g78
g59
NtRp1558
(dp1559
g62
(dp1560
g89
g90
ssg71
g1550
sg64
(lp1561
S':'
asbag57
(g78
g59
NtRp1562
(dp1563
g62
(dp1564
sg71
g1550
sg64
(lp1565
g57
(g58
g59
NtRp1566
(dp1567
g62
(dp1568
g70
I3
ssg71
g1562
sg64
(lp1569
S''
asbasbasbasbasbasbasbag57
(g73
g59
NtRp1570
(dp1571
g62
(dp1572
sg71
g256
sg64
(lp1573
g57
(g78
g59
NtRp1574
(dp1575
g62
(dp1576
g82
g83
ssg71
g1570
sg64
(lp1577
S'session_id_project'
p1578
asbag57
(g78
g59
NtRp1579
(dp1580
g62
(dp1581
g89
g90
ssg71
g1570
sg64
(lp1582
S':'
asbag57
(g78
g59
NtRp1583
(dp1584
g62
(dp1585
sg71
g1570
sg64
(lp1586
g57
(g58
g59
NtRp1587
(dp1588
g62
(dp1589
g70
I4
ssg71
g1583
sg64
(lp1590
S'127.0.0.1-029ca61b-f875-404a-b7ff-1634c44ab767'
p1591
ag57
(g66
g59
NtRp1592
(dp1593
g62
(dp1594
g70
I3
ssg71
Nsg64
(lp1595
g57
(g73
g59
NtRp1596
(dp1597
g62
(dp1598
sg71
g1592
sg64
(lp1599
g57
(g78
g59
NtRp1600
(dp1601
g62
(dp1602
g82
g83
ssg71
g1596
sg64
(lp1603
g294
asbag57
(g78
g59
NtRp1604
(dp1605
g62
(dp1606
g89
g90
ssg71
g1596
sg64
(lp1607
S':'
asbag57
(g78
g59
NtRp1608
(dp1609
g62
(dp1610
sg71
g1596
sg64
(lp1611
g57
(g58
g59
NtRp1612
(dp1613
g62
(dp1614
g70
I3
ssg71
g1608
sg64
(lp1615
S''
asbasbasbag57
(g73
g59
NtRp1616
(dp1617
g62
(dp1618
sg71
g1592
sg64
(lp1619
g57
(g78
g59
NtRp1620
(dp1621
g62
(dp1622
g82
g83
ssg71
g1616
sg64
(lp1623
g315
asbag57
(g78
g59
NtRp1624
(dp1625
g62
(dp1626
g89
g90
ssg71
g1616
sg64
(lp1627
S':'
asbag57
(g78
g59
NtRp1628
(dp1629
g62
(dp1630
sg71
g1616
sg64
(lp1631
g57
(g58
g59
NtRp1632
(dp1633
g62
(dp1634
g70
I3
ssg71
g1628
sg64
(lp1635
S''
asbasbasbag57
(g73
g59
NtRp1636
(dp1637
g62
(dp1638
sg71
g1592
sg64
(lp1639
g57
(g78
g59
NtRp1640
(dp1641
g62
(dp1642
g82
g83
ssg71
g1636
sg64
(lp1643
g336
asbag57
(g78
g59
NtRp1644
(dp1645
g62
(dp1646
g89
g90
ssg71
g1636
sg64
(lp1647
S':'
asbag57
(g78
g59
NtRp1648
(dp1649
g62
(dp1650
sg71
g1636
sg64
(lp1651
g57
(g58
g59
NtRp1652
(dp1653
g62
(dp1654
g70
I3
ssg71
g1648
sg64
(lp1655
S''
asbasbasbag57
(g73
g59
NtRp1656
(dp1657
g62
(dp1658
sg71
g1592
sg64
(lp1659
g57
(g78
g59
NtRp1660
(dp1661
g62
(dp1662
g82
g83
ssg71
g1656
sg64
(lp1663
g357
asbag57
(g78
g59
NtRp1664
(dp1665
g62
(dp1666
g89
g90
ssg71
g1656
sg64
(lp1667
S':'
asbag57
(g78
g59
NtRp1668
(dp1669
g62
(dp1670
sg71
g1656
sg64
(lp1671
g57
(g58
g59
NtRp1672
(dp1673
g62
(dp1674
g70
I3
ssg71
g1668
sg64
(lp1675
S''
asbasbasbag57
(g73
g59
NtRp1676
(dp1677
g62
(dp1678
sg71
g1592
sg64
(lp1679
g57
(g78
g59
NtRp1680
(dp1681
g62
(dp1682
g82
g83
ssg71
g1676
sg64
(lp1683
g378
asbag57
(g78
g59
NtRp1684
(dp1685
g62
(dp1686
g89
g90
ssg71
g1676
sg64
(lp1687
S':'
asbag57
(g78
g59
NtRp1688
(dp1689
g62
(dp1690
sg71
g1676
sg64
(lp1691
g57
(g58
g59
NtRp1692
(dp1693
g62
(dp1694
g70
I3
ssg71
g1688
sg64
(lp1695
S''
asbasbasbag57
(g73
g59
NtRp1696
(dp1697
g62
(dp1698
sg71
g1592
sg64
(lp1699
g57
(g78
g59
NtRp1700
(dp1701
g62
(dp1702
g82
g83
ssg71
g1696
sg64
(lp1703
g399
asbag57
(g78
g59
NtRp1704
(dp1705
g62
(dp1706
g89
g90
ssg71
g1696
sg64
(lp1707
S':'
asbag57
(g78
g59
NtRp1708
(dp1709
g62
(dp1710
sg71
g1696
sg64
(lp1711
g57
(g58
g59
NtRp1712
(dp1713
g62
(dp1714
g70
I3
ssg71
g1708
sg64
(lp1715
S''
asbasbasbag57
(g73
g59
NtRp1716
(dp1717
g62
(dp1718
sg71
g1592
sg64
(lp1719
g57
(g78
g59
NtRp1720
(dp1721
g62
(dp1722
g82
g83
ssg71
g1716
sg64
(lp1723
g420
asbag57
(g78
g59
NtRp1724
(dp1725
g62
(dp1726
g89
g90
ssg71
g1716
sg64
(lp1727
S':'
asbag57
(g78
g59
NtRp1728
(dp1729
g62
(dp1730
sg71
g1716
sg64
(lp1731
g57
(g58
g59
NtRp1732
(dp1733
g62
(dp1734
g70
I3
ssg71
g1728
sg64
(lp1735
S''
asbasbasbag57
(g73
g59
NtRp1736
(dp1737
g62
(dp1738
sg71
g1592
sg64
(lp1739
g57
(g78
g59
NtRp1740
(dp1741
g62
(dp1742
g82
g83
ssg71
g1736
sg64
(lp1743
g441
asbag57
(g78
g59
NtRp1744
(dp1745
g62
(dp1746
g89
g90
ssg71
g1736
sg64
(lp1747
S':'
asbag57
(g78
g59
NtRp1748
(dp1749
g62
(dp1750
sg71
g1736
sg64
(lp1751
g57
(g58
g59
NtRp1752
(dp1753
g62
(dp1754
g70
I3
ssg71
g1748
sg64
(lp1755
S''
asbasbasbasbasbasbasbag57
(g73
g59
NtRp1756
(dp1757
g62
(dp1758
sg71
g256
sg64
(lp1759
g57
(g78
g59
NtRp1760
(dp1761
g62
(dp1762
g82
g83
ssg71
g1756
sg64
(lp1763
S'session_id_reddit'
p1764
asbag57
(g78
g59
NtRp1765
(dp1766
g62
(dp1767
g89
g90
ssg71
g1756
sg64
(lp1768
S':'
asbag57
(g78
g59
NtRp1769
(dp1770
g62
(dp1771
sg71
g1756
sg64
(lp1772
g57
(g58
g59
NtRp1773
(dp1774
g62
(dp1775
g70
I4
ssg71
g1769
sg64
(lp1776
S'127.0.0.1-24289f39-32a1-48fb-a367-22792fb8b813'
p1777
ag57
(g66
g59
NtRp1778
(dp1779
g62
(dp1780
g70
I3
ssg71
Nsg64
(lp1781
g57
(g73
g59
NtRp1782
(dp1783
g62
(dp1784
sg71
g1778
sg64
(lp1785
g57
(g78
g59
NtRp1786
(dp1787
g62
(dp1788
g82
g83
ssg71
g1782
sg64
(lp1789
g294
asbag57
(g78
g59
NtRp1790
(dp1791
g62
(dp1792
g89
g90
ssg71
g1782
sg64
(lp1793
S':'
asbag57
(g78
g59
NtRp1794
(dp1795
g62
(dp1796
sg71
g1782
sg64
(lp1797
g57
(g58
g59
NtRp1798
(dp1799
g62
(dp1800
g70
I3
ssg71
g1794
sg64
(lp1801
S''
asbasbasbag57
(g73
g59
NtRp1802
(dp1803
g62
(dp1804
sg71
g1778
sg64
(lp1805
g57
(g78
g59
NtRp1806
(dp1807
g62
(dp1808
g82
g83
ssg71
g1802
sg64
(lp1809
g315
asbag57
(g78
g59
NtRp1810
(dp1811
g62
(dp1812
g89
g90
ssg71
g1802
sg64
(lp1813
S':'
asbag57
(g78
g59
NtRp1814
(dp1815
g62
(dp1816
sg71
g1802
sg64
(lp1817
g57
(g58
g59
NtRp1818
(dp1819
g62
(dp1820
g70
I3
ssg71
g1814
sg64
(lp1821
S''
asbasbasbag57
(g73
g59
NtRp1822
(dp1823
g62
(dp1824
sg71
g1778
sg64
(lp1825
g57
(g78
g59
NtRp1826
(dp1827
g62
(dp1828
g82
g83
ssg71
g1822
sg64
(lp1829
g336
asbag57
(g78
g59
NtRp1830
(dp1831
g62
(dp1832
g89
g90
ssg71
g1822
sg64
(lp1833
S':'
asbag57
(g78
g59
NtRp1834
(dp1835
g62
(dp1836
sg71
g1822
sg64
(lp1837
g57
(g58
g59
NtRp1838
(dp1839
g62
(dp1840
g70
I3
ssg71
g1834
sg64
(lp1841
S''
asbasbasbag57
(g73
g59
NtRp1842
(dp1843
g62
(dp1844
sg71
g1778
sg64
(lp1845
g57
(g78
g59
NtRp1846
(dp1847
g62
(dp1848
g82
g83
ssg71
g1842
sg64
(lp1849
g357
asbag57
(g78
g59
NtRp1850
(dp1851
g62
(dp1852
g89
g90
ssg71
g1842
sg64
(lp1853
S':'
asbag57
(g78
g59
NtRp1854
(dp1855
g62
(dp1856
sg71
g1842
sg64
(lp1857
g57
(g58
g59
NtRp1858
(dp1859
g62
(dp1860
g70
I3
ssg71
g1854
sg64
(lp1861
S''
asbasbasbag57
(g73
g59
NtRp1862
(dp1863
g62
(dp1864
sg71
g1778
sg64
(lp1865
g57
(g78
g59
NtRp1866
(dp1867
g62
(dp1868
g82
g83
ssg71
g1862
sg64
(lp1869
g378
asbag57
(g78
g59
NtRp1870
(dp1871
g62
(dp1872
g89
g90
ssg71
g1862
sg64
(lp1873
S':'
asbag57
(g78
g59
NtRp1874
(dp1875
g62
(dp1876
sg71
g1862
sg64
(lp1877
g57
(g58
g59
NtRp1878
(dp1879
g62
(dp1880
g70
I3
ssg71
g1874
sg64
(lp1881
S''
asbasbasbag57
(g73
g59
NtRp1882
(dp1883
g62
(dp1884
sg71
g1778
sg64
(lp1885
g57
(g78
g59
NtRp1886
(dp1887
g62
(dp1888
g82
g83
ssg71
g1882
sg64
(lp1889
g399
asbag57
(g78
g59
NtRp1890
(dp1891
g62
(dp1892
g89
g90
ssg71
g1882
sg64
(lp1893
S':'
asbag57
(g78
g59
NtRp1894
(dp1895
g62
(dp1896
sg71
g1882
sg64
(lp1897
g57
(g58
g59
NtRp1898
(dp1899
g62
(dp1900
g70
I3
ssg71
g1894
sg64
(lp1901
S''
asbasbasbag57
(g73
g59
NtRp1902
(dp1903
g62
(dp1904
sg71
g1778
sg64
(lp1905
g57
(g78
g59
NtRp1906
(dp1907
g62
(dp1908
g82
g83
ssg71
g1902
sg64
(lp1909
g420
asbag57
(g78
g59
NtRp1910
(dp1911
g62
(dp1912
g89
g90
ssg71
g1902
sg64
(lp1913
S':'
asbag57
(g78
g59
NtRp1914
(dp1915
g62
(dp1916
sg71
g1902
sg64
(lp1917
g57
(g58
g59
NtRp1918
(dp1919
g62
(dp1920
g70
I3
ssg71
g1914
sg64
(lp1921
S''
asbasbasbag57
(g73
g59
NtRp1922
(dp1923
g62
(dp1924
sg71
g1778
sg64
(lp1925
g57
(g78
g59
NtRp1926
(dp1927
g62
(dp1928
g82
g83
ssg71
g1922
sg64
(lp1929
g441
asbag57
(g78
g59
NtRp1930
(dp1931
g62
(dp1932
g89
g90
ssg71
g1922
sg64
(lp1933
S':'
asbag57
(g78
g59
NtRp1934
(dp1935
g62
(dp1936
sg71
g1922
sg64
(lp1937
g57
(g58
g59
NtRp1938
(dp1939
g62
(dp1940
g70
I3
ssg71
g1934
sg64
(lp1941
S''
asbasbasbasbasbasbasbag57
(g73
g59
NtRp1942
(dp1943
g62
(dp1944
sg71
g256
sg64
(lp1945
g57
(g78
g59
NtRp1946
(dp1947
g62
(dp1948
g82
g83
ssg71
g1942
sg64
(lp1949
S'session_id_testlayout'
p1950
asbag57
(g78
g59
NtRp1951
(dp1952
g62
(dp1953
g89
g90
ssg71
g1942
sg64
(lp1954
S':'
asbag57
(g78
g59
NtRp1955
(dp1956
g62
(dp1957
sg71
g1942
sg64
(lp1958
g57
(g58
g59
NtRp1959
(dp1960
g62
(dp1961
g70
I4
ssg71
g1955
sg64
(lp1962
S'127.0.0.1-0b2689a2-d3bd-4ee8-ad96-af4d7e3e9ad1'
p1963
ag57
(g66
g59
NtRp1964
(dp1965
g62
(dp1966
g70
I3
ssg71
Nsg64
(lp1967
g57
(g73
g59
NtRp1968
(dp1969
g62
(dp1970
sg71
g1964
sg64
(lp1971
g57
(g78
g59
NtRp1972
(dp1973
g62
(dp1974
g82
g83
ssg71
g1968
sg64
(lp1975
g294
asbag57
(g78
g59
NtRp1976
(dp1977
g62
(dp1978
g89
g90
ssg71
g1968
sg64
(lp1979
S':'
asbag57
(g78
g59
NtRp1980
(dp1981
g62
(dp1982
sg71
g1968
sg64
(lp1983
g57
(g58
g59
NtRp1984
(dp1985
g62
(dp1986
g70
I3
ssg71
g1980
sg64
(lp1987
S''
asbasbasbag57
(g73
g59
NtRp1988
(dp1989
g62
(dp1990
sg71
g1964
sg64
(lp1991
g57
(g78
g59
NtRp1992
(dp1993
g62
(dp1994
g82
g83
ssg71
g1988
sg64
(lp1995
g315
asbag57
(g78
g59
NtRp1996
(dp1997
g62
(dp1998
g89
g90
ssg71
g1988
sg64
(lp1999
S':'
asbag57
(g78
g59
NtRp2000
(dp2001
g62
(dp2002
sg71
g1988
sg64
(lp2003
g57
(g58
g59
NtRp2004
(dp2005
g62
(dp2006
g70
I3
ssg71
g2000
sg64
(lp2007
S''
asbasbasbag57
(g73
g59
NtRp2008
(dp2009
g62
(dp2010
sg71
g1964
sg64
(lp2011
g57
(g78
g59
NtRp2012
(dp2013
g62
(dp2014
g82
g83
ssg71
g2008
sg64
(lp2015
g336
asbag57
(g78
g59
NtRp2016
(dp2017
g62
(dp2018
g89
g90
ssg71
g2008
sg64
(lp2019
S':'
asbag57
(g78
g59
NtRp2020
(dp2021
g62
(dp2022
sg71
g2008
sg64
(lp2023
g57
(g58
g59
NtRp2024
(dp2025
g62
(dp2026
g70
I3
ssg71
g2020
sg64
(lp2027
S''
asbasbasbag57
(g73
g59
NtRp2028
(dp2029
g62
(dp2030
sg71
g1964
sg64
(lp2031
g57
(g78
g59
NtRp2032
(dp2033
g62
(dp2034
g82
g83
ssg71
g2028
sg64
(lp2035
g357
asbag57
(g78
g59
NtRp2036
(dp2037
g62
(dp2038
g89
g90
ssg71
g2028
sg64
(lp2039
S':'
asbag57
(g78
g59
NtRp2040
(dp2041
g62
(dp2042
sg71
g2028
sg64
(lp2043
g57
(g58
g59
NtRp2044
(dp2045
g62
(dp2046
g70
I3
ssg71
g2040
sg64
(lp2047
S''
asbasbasbag57
(g73
g59
NtRp2048
(dp2049
g62
(dp2050
sg71
g1964
sg64
(lp2051
g57
(g78
g59
NtRp2052
(dp2053
g62
(dp2054
g82
g83
ssg71
g2048
sg64
(lp2055
g378
asbag57
(g78
g59
NtRp2056
(dp2057
g62
(dp2058
g89
g90
ssg71
g2048
sg64
(lp2059
S':'
asbag57
(g78
g59
NtRp2060
(dp2061
g62
(dp2062
sg71
g2048
sg64
(lp2063
g57
(g58
g59
NtRp2064
(dp2065
g62
(dp2066
g70
I3
ssg71
g2060
sg64
(lp2067
S''
asbasbasbag57
(g73
g59
NtRp2068
(dp2069
g62
(dp2070
sg71
g1964
sg64
(lp2071
g57
(g78
g59
NtRp2072
(dp2073
g62
(dp2074
g82
g83
ssg71
g2068
sg64
(lp2075
g399
asbag57
(g78
g59
NtRp2076
(dp2077
g62
(dp2078
g89
g90
ssg71
g2068
sg64
(lp2079
S':'
asbag57
(g78
g59
NtRp2080
(dp2081
g62
(dp2082
sg71
g2068
sg64
(lp2083
g57
(g58
g59
NtRp2084
(dp2085
g62
(dp2086
g70
I3
ssg71
g2080
sg64
(lp2087
S''
asbasbasbag57
(g73
g59
NtRp2088
(dp2089
g62
(dp2090
sg71
g1964
sg64
(lp2091
g57
(g78
g59
NtRp2092
(dp2093
g62
(dp2094
g82
g83
ssg71
g2088
sg64
(lp2095
g420
asbag57
(g78
g59
NtRp2096
(dp2097
g62
(dp2098
g89
g90
ssg71
g2088
sg64
(lp2099
S':'
asbag57
(g78
g59
NtRp2100
(dp2101
g62
(dp2102
sg71
g2088
sg64
(lp2103
g57
(g58
g59
NtRp2104
(dp2105
g62
(dp2106
g70
I3
ssg71
g2100
sg64
(lp2107
S''
asbasbasbag57
(g73
g59
NtRp2108
(dp2109
g62
(dp2110
sg71
g1964
sg64
(lp2111
g57
(g78
g59
NtRp2112
(dp2113
g62
(dp2114
g82
g83
ssg71
g2108
sg64
(lp2115
g441
asbag57
(g78
g59
NtRp2116
(dp2117
g62
(dp2118
g89
g90
ssg71
g2108
sg64
(lp2119
S':'
asbag57
(g78
g59
NtRp2120
(dp2121
g62
(dp2122
sg71
g2108
sg64
(lp2123
g57
(g58
g59
NtRp2124
(dp2125
g62
(dp2126
g70
I3
ssg71
g2120
sg64
(lp2127
S''
asbasbasbasbasbasbasbag57
(g73
g59
NtRp2128
(dp2129
g62
(dp2130
sg71
g256
sg64
(lp2131
g57
(g78
g59
NtRp2132
(dp2133
g62
(dp2134
g82
g83
ssg71
g2128
sg64
(lp2135
S'session_id_try'
p2136
asbag57
(g78
g59
NtRp2137
(dp2138
g62
(dp2139
g89
g90
ssg71
g2128
sg64
(lp2140
S':'
asbag57
(g78
g59
NtRp2141
(dp2142
g62
(dp2143
sg71
g2128
sg64
(lp2144
g57
(g58
g59
NtRp2145
(dp2146
g62
(dp2147
g70
I4
ssg71
g2141
sg64
(lp2148
S'127.0.0.1-4d514347-24a9-48c9-9e7c-4ac4f4a70173'
p2149
ag57
(g66
g59
NtRp2150
(dp2151
g62
(dp2152
g70
I3
ssg71
Nsg64
(lp2153
g57
(g73
g59
NtRp2154
(dp2155
g62
(dp2156
sg71
g2150
sg64
(lp2157
g57
(g78
g59
NtRp2158
(dp2159
g62
(dp2160
g82
g83
ssg71
g2154
sg64
(lp2161
g294
asbag57
(g78
g59
NtRp2162
(dp2163
g62
(dp2164
g89
g90
ssg71
g2154
sg64
(lp2165
S':'
asbag57
(g78
g59
NtRp2166
(dp2167
g62
(dp2168
sg71
g2154
sg64
(lp2169
g57
(g58
g59
NtRp2170
(dp2171
g62
(dp2172
g70
I3
ssg71
g2166
sg64
(lp2173
S''
asbasbasbag57
(g73
g59
NtRp2174
(dp2175
g62
(dp2176
sg71
g2150
sg64
(lp2177
g57
(g78
g59
NtRp2178
(dp2179
g62
(dp2180
g82
g83
ssg71
g2174
sg64
(lp2181
g315
asbag57
(g78
g59
NtRp2182
(dp2183
g62
(dp2184
g89
g90
ssg71
g2174
sg64
(lp2185
S':'
asbag57
(g78
g59
NtRp2186
(dp2187
g62
(dp2188
sg71
g2174
sg64
(lp2189
g57
(g58
g59
NtRp2190
(dp2191
g62
(dp2192
g70
I3
ssg71
g2186
sg64
(lp2193
S''
asbasbasbag57
(g73
g59
NtRp2194
(dp2195
g62
(dp2196
sg71
g2150
sg64
(lp2197
g57
(g78
g59
NtRp2198
(dp2199
g62
(dp2200
g82
g83
ssg71
g2194
sg64
(lp2201
g336
asbag57
(g78
g59
NtRp2202
(dp2203
g62
(dp2204
g89
g90
ssg71
g2194
sg64
(lp2205
S':'
asbag57
(g78
g59
NtRp2206
(dp2207
g62
(dp2208
sg71
g2194
sg64
(lp2209
g57
(g58
g59
NtRp2210
(dp2211
g62
(dp2212
g70
I3
ssg71
g2206
sg64
(lp2213
S''
asbasbasbag57
(g73
g59
NtRp2214
(dp2215
g62
(dp2216
sg71
g2150
sg64
(lp2217
g57
(g78
g59
NtRp2218
(dp2219
g62
(dp2220
g82
g83
ssg71
g2214
sg64
(lp2221
g357
asbag57
(g78
g59
NtRp2222
(dp2223
g62
(dp2224
g89
g90
ssg71
g2214
sg64
(lp2225
S':'
asbag57
(g78
g59
NtRp2226
(dp2227
g62
(dp2228
sg71
g2214
sg64
(lp2229
g57
(g58
g59
NtRp2230
(dp2231
g62
(dp2232
g70
I3
ssg71
g2226
sg64
(lp2233
S''
asbasbasbag57
(g73
g59
NtRp2234
(dp2235
g62
(dp2236
sg71
g2150
sg64
(lp2237
g57
(g78
g59
NtRp2238
(dp2239
g62
(dp2240
g82
g83
ssg71
g2234
sg64
(lp2241
g378
asbag57
(g78
g59
NtRp2242
(dp2243
g62
(dp2244
g89
g90
ssg71
g2234
sg64
(lp2245
S':'
asbag57
(g78
g59
NtRp2246
(dp2247
g62
(dp2248
sg71
g2234
sg64
(lp2249
g57
(g58
g59
NtRp2250
(dp2251
g62
(dp2252
g70
I3
ssg71
g2246
sg64
(lp2253
S''
asbasbasbag57
(g73
g59
NtRp2254
(dp2255
g62
(dp2256
sg71
g2150
sg64
(lp2257
g57
(g78
g59
NtRp2258
(dp2259
g62
(dp2260
g82
g83
ssg71
g2254
sg64
(lp2261
g399
asbag57
(g78
g59
NtRp2262
(dp2263
g62
(dp2264
g89
g90
ssg71
g2254
sg64
(lp2265
S':'
asbag57
(g78
g59
NtRp2266
(dp2267
g62
(dp2268
sg71
g2254
sg64
(lp2269
g57
(g58
g59
NtRp2270
(dp2271
g62
(dp2272
g70
I3
ssg71
g2266
sg64
(lp2273
S''
asbasbasbag57
(g73
g59
NtRp2274
(dp2275
g62
(dp2276
sg71
g2150
sg64
(lp2277
g57
(g78
g59
NtRp2278
(dp2279
g62
(dp2280
g82
g83
ssg71
g2274
sg64
(lp2281
g420
asbag57
(g78
g59
NtRp2282
(dp2283
g62
(dp2284
g89
g90
ssg71
g2274
sg64
(lp2285
S':'
asbag57
(g78
g59
NtRp2286
(dp2287
g62
(dp2288
sg71
g2274
sg64
(lp2289
g57
(g58
g59
NtRp2290
(dp2291
g62
(dp2292
g70
I3
ssg71
g2286
sg64
(lp2293
S''
asbasbasbag57
(g73
g59
NtRp2294
(dp2295
g62
(dp2296
sg71
g2150
sg64
(lp2297
g57
(g78
g59
NtRp2298
(dp2299
g62
(dp2300
g82
g83
ssg71
g2294
sg64
(lp2301
g441
asbag57
(g78
g59
NtRp2302
(dp2303
g62
(dp2304
g89
g90
ssg71
g2294
sg64
(lp2305
S':'
asbag57
(g78
g59
NtRp2306
(dp2307
g62
(dp2308
sg71
g2294
sg64
(lp2309
g57
(g58
g59
NtRp2310
(dp2311
g62
(dp2312
g70
I3
ssg71
g2306
sg64
(lp2313
S''
asbasbasbasbasbasbasbag57
(g73
g59
NtRp2314
(dp2315
g62
(dp2316
sg71
g256
sg64
(lp2317
g57
(g78
g59
NtRp2318
(dp2319
g62
(dp2320
g82
g83
ssg71
g2314
sg64
(lp2321
S'session_id_vikramahuja'
p2322
asbag57
(g78
g59
NtRp2323
(dp2324
g62
(dp2325
g89
g90
ssg71
g2314
sg64
(lp2326
S':'
asbag57
(g78
g59
NtRp2327
(dp2328
g62
(dp2329
sg71
g2314
sg64
(lp2330
g57
(g58
g59
NtRp2331
(dp2332
g62
(dp2333
g70
I4
ssg71
g2327
sg64
(lp2334
S'127.0.0.1-a555d16d-54b5-476d-a152-f88918b513fe'
p2335
ag57
(g66
g59
NtRp2336
(dp2337
g62
(dp2338
g70
I3
ssg71
Nsg64
(lp2339
g57
(g73
g59
NtRp2340
(dp2341
g62
(dp2342
sg71
g2336
sg64
(lp2343
g57
(g78
g59
NtRp2344
(dp2345
g62
(dp2346
g82
g83
ssg71
g2340
sg64
(lp2347
g294
asbag57
(g78
g59
NtRp2348
(dp2349
g62
(dp2350
g89
g90
ssg71
g2340
sg64
(lp2351
S':'
asbag57
(g78
g59
NtRp2352
(dp2353
g62
(dp2354
sg71
g2340
sg64
(lp2355
g57
(g58
g59
NtRp2356
(dp2357
g62
(dp2358
g70
I3
ssg71
g2352
sg64
(lp2359
S''
asbasbasbag57
(g73
g59
NtRp2360
(dp2361
g62
(dp2362
sg71
g2336
sg64
(lp2363
g57
(g78
g59
NtRp2364
(dp2365
g62
(dp2366
g82
g83
ssg71
g2360
sg64
(lp2367
g315
asbag57
(g78
g59
NtRp2368
(dp2369
g62
(dp2370
g89
g90
ssg71
g2360
sg64
(lp2371
S':'
asbag57
(g78
g59
NtRp2372
(dp2373
g62
(dp2374
sg71
g2360
sg64
(lp2375
g57
(g58
g59
NtRp2376
(dp2377
g62
(dp2378
g70
I3
ssg71
g2372
sg64
(lp2379
S''
asbasbasbag57
(g73
g59
NtRp2380
(dp2381
g62
(dp2382
sg71
g2336
sg64
(lp2383
g57
(g78
g59
NtRp2384
(dp2385
g62
(dp2386
g82
g83
ssg71
g2380
sg64
(lp2387
g336
asbag57
(g78
g59
NtRp2388
(dp2389
g62
(dp2390
g89
g90
ssg71
g2380
sg64
(lp2391
S':'
asbag57
(g78
g59
NtRp2392
(dp2393
g62
(dp2394
sg71
g2380
sg64
(lp2395
g57
(g58
g59
NtRp2396
(dp2397
g62
(dp2398
g70
I3
ssg71
g2392
sg64
(lp2399
S''
asbasbasbag57
(g73
g59
NtRp2400
(dp2401
g62
(dp2402
sg71
g2336
sg64
(lp2403
g57
(g78
g59
NtRp2404
(dp2405
g62
(dp2406
g82
g83
ssg71
g2400
sg64
(lp2407
g357
asbag57
(g78
g59
NtRp2408
(dp2409
g62
(dp2410
g89
g90
ssg71
g2400
sg64
(lp2411
S':'
asbag57
(g78
g59
NtRp2412
(dp2413
g62
(dp2414
sg71
g2400
sg64
(lp2415
g57
(g58
g59
NtRp2416
(dp2417
g62
(dp2418
g70
I3
ssg71
g2412
sg64
(lp2419
S''
asbasbasbag57
(g73
g59
NtRp2420
(dp2421
g62
(dp2422
sg71
g2336
sg64
(lp2423
g57
(g78
g59
NtRp2424
(dp2425
g62
(dp2426
g82
g83
ssg71
g2420
sg64
(lp2427
g378
asbag57
(g78
g59
NtRp2428
(dp2429
g62
(dp2430
g89
g90
ssg71
g2420
sg64
(lp2431
S':'
asbag57
(g78
g59
NtRp2432
(dp2433
g62
(dp2434
sg71
g2420
sg64
(lp2435
g57
(g58
g59
NtRp2436
(dp2437
g62
(dp2438
g70
I3
ssg71
g2432
sg64
(lp2439
S''
asbasbasbag57
(g73
g59
NtRp2440
(dp2441
g62
(dp2442
sg71
g2336
sg64
(lp2443
g57
(g78
g59
NtRp2444
(dp2445
g62
(dp2446
g82
g83
ssg71
g2440
sg64
(lp2447
g399
asbag57
(g78
g59
NtRp2448
(dp2449
g62
(dp2450
g89
g90
ssg71
g2440
sg64
(lp2451
S':'
asbag57
(g78
g59
NtRp2452
(dp2453
g62
(dp2454
sg71
g2440
sg64
(lp2455
g57
(g58
g59
NtRp2456
(dp2457
g62
(dp2458
g70
I3
ssg71
g2452
sg64
(lp2459
S''
asbasbasbag57
(g73
g59
NtRp2460
(dp2461
g62
(dp2462
sg71
g2336
sg64
(lp2463
g57
(g78
g59
NtRp2464
(dp2465
g62
(dp2466
g82
g83
ssg71
g2460
sg64
(lp2467
g420
asbag57
(g78
g59
NtRp2468
(dp2469
g62
(dp2470
g89
g90
ssg71
g2460
sg64
(lp2471
S':'
asbag57
(g78
g59
NtRp2472
(dp2473
g62
(dp2474
sg71
g2460
sg64
(lp2475
g57
(g58
g59
NtRp2476
(dp2477
g62
(dp2478
g70
I3
ssg71
g2472
sg64
(lp2479
S''
asbasbasbag57
(g73
g59
NtRp2480
(dp2481
g62
(dp2482
sg71
g2336
sg64
(lp2483
g57
(g78
g59
NtRp2484
(dp2485
g62
(dp2486
g82
g83
ssg71
g2480
sg64
(lp2487
g441
asbag57
(g78
g59
NtRp2488
(dp2489
g62
(dp2490
g89
g90
ssg71
g2480
sg64
(lp2491
S':'
asbag57
(g78
g59
NtRp2492
(dp2493
g62
(dp2494
sg71
g2480
sg64
(lp2495
g57
(g58
g59
NtRp2496
(dp2497
g62
(dp2498
g70
I3
ssg71
g2492
sg64
(lp2499
S''
asbasbasbasbasbasbasbag57
(g73
g59
NtRp2500
(dp2501
g62
(dp2502
sg71
g256
sg64
(lp2503
g57
(g78
g59
NtRp2504
(dp2505
g62
(dp2506
g82
g83
ssg71
g2500
sg64
(lp2507
S'session_id_welcome'
p2508
asbag57
(g78
g59
NtRp2509
(dp2510
g62
(dp2511
g89
g90
ssg71
g2500
sg64
(lp2512
S':'
asbag57
(g78
g59
NtRp2513
(dp2514
g62
(dp2515
sg71
g2500
sg64
(lp2516
g57
(g58
g59
NtRp2517
(dp2518
g62
(dp2519
g70
I4
ssg71
g2513
sg64
(lp2520
S'127.0.0.1-a85dd4d7-ab1c-49ab-856d-4173a26ef319'
p2521
ag57
(g66
g59
NtRp2522
(dp2523
g62
(dp2524
g70
I3
ssg71
Nsg64
(lp2525
g57
(g73
g59
NtRp2526
(dp2527
g62
(dp2528
sg71
g2522
sg64
(lp2529
g57
(g78
g59
NtRp2530
(dp2531
g62
(dp2532
g82
g83
ssg71
g2526
sg64
(lp2533
g294
asbag57
(g78
g59
NtRp2534
(dp2535
g62
(dp2536
g89
g90
ssg71
g2526
sg64
(lp2537
S':'
asbag57
(g78
g59
NtRp2538
(dp2539
g62
(dp2540
sg71
g2526
sg64
(lp2541
g57
(g58
g59
NtRp2542
(dp2543
g62
(dp2544
g70
I3
ssg71
g2538
sg64
(lp2545
S''
asbasbasbag57
(g73
g59
NtRp2546
(dp2547
g62
(dp2548
sg71
g2522
sg64
(lp2549
g57
(g78
g59
NtRp2550
(dp2551
g62
(dp2552
g82
g83
ssg71
g2546
sg64
(lp2553
g315
asbag57
(g78
g59
NtRp2554
(dp2555
g62
(dp2556
g89
g90
ssg71
g2546
sg64
(lp2557
S':'
asbag57
(g78
g59
NtRp2558
(dp2559
g62
(dp2560
sg71
g2546
sg64
(lp2561
g57
(g58
g59
NtRp2562
(dp2563
g62
(dp2564
g70
I3
ssg71
g2558
sg64
(lp2565
S''
asbasbasbag57
(g73
g59
NtRp2566
(dp2567
g62
(dp2568
sg71
g2522
sg64
(lp2569
g57
(g78
g59
NtRp2570
(dp2571
g62
(dp2572
g82
g83
ssg71
g2566
sg64
(lp2573
g336
asbag57
(g78
g59
NtRp2574
(dp2575
g62
(dp2576
g89
g90
ssg71
g2566
sg64
(lp2577
S':'
asbag57
(g78
g59
NtRp2578
(dp2579
g62
(dp2580
sg71
g2566
sg64
(lp2581
g57
(g58
g59
NtRp2582
(dp2583
g62
(dp2584
g70
I3
ssg71
g2578
sg64
(lp2585
S''
asbasbasbag57
(g73
g59
NtRp2586
(dp2587
g62
(dp2588
sg71
g2522
sg64
(lp2589
g57
(g78
g59
NtRp2590
(dp2591
g62
(dp2592
g82
g83
ssg71
g2586
sg64
(lp2593
g357
asbag57
(g78
g59
NtRp2594
(dp2595
g62
(dp2596
g89
g90
ssg71
g2586
sg64
(lp2597
S':'
asbag57
(g78
g59
NtRp2598
(dp2599
g62
(dp2600
sg71
g2586
sg64
(lp2601
g57
(g58
g59
NtRp2602
(dp2603
g62
(dp2604
g70
I3
ssg71
g2598
sg64
(lp2605
S''
asbasbasbag57
(g73
g59
NtRp2606
(dp2607
g62
(dp2608
sg71
g2522
sg64
(lp2609
g57
(g78
g59
NtRp2610
(dp2611
g62
(dp2612
g82
g83
ssg71
g2606
sg64
(lp2613
g378
asbag57
(g78
g59
NtRp2614
(dp2615
g62
(dp2616
g89
g90
ssg71
g2606
sg64
(lp2617
S':'
asbag57
(g78
g59
NtRp2618
(dp2619
g62
(dp2620
sg71
g2606
sg64
(lp2621
g57
(g58
g59
NtRp2622
(dp2623
g62
(dp2624
g70
I3
ssg71
g2618
sg64
(lp2625
S''
asbasbasbag57
(g73
g59
NtRp2626
(dp2627
g62
(dp2628
sg71
g2522
sg64
(lp2629
g57
(g78
g59
NtRp2630
(dp2631
g62
(dp2632
g82
g83
ssg71
g2626
sg64
(lp2633
g399
asbag57
(g78
g59
NtRp2634
(dp2635
g62
(dp2636
g89
g90
ssg71
g2626
sg64
(lp2637
S':'
asbag57
(g78
g59
NtRp2638
(dp2639
g62
(dp2640
sg71
g2626
sg64
(lp2641
g57
(g58
g59
NtRp2642
(dp2643
g62
(dp2644
g70
I3
ssg71
g2638
sg64
(lp2645
S''
asbasbasbag57
(g73
g59
NtRp2646
(dp2647
g62
(dp2648
sg71
g2522
sg64
(lp2649
g57
(g78
g59
NtRp2650
(dp2651
g62
(dp2652
g82
g83
ssg71
g2646
sg64
(lp2653
g420
asbag57
(g78
g59
NtRp2654
(dp2655
g62
(dp2656
g89
g90
ssg71
g2646
sg64
(lp2657
S':'
asbag57
(g78
g59
NtRp2658
(dp2659
g62
(dp2660
sg71
g2646
sg64
(lp2661
g57
(g58
g59
NtRp2662
(dp2663
g62
(dp2664
g70
I3
ssg71
g2658
sg64
(lp2665
S''
asbasbasbag57
(g73
g59
NtRp2666
(dp2667
g62
(dp2668
sg71
g2522
sg64
(lp2669
g57
(g78
g59
NtRp2670
(dp2671
g62
(dp2672
g82
g83
ssg71
g2666
sg64
(lp2673
g441
asbag57
(g78
g59
NtRp2674
(dp2675
g62
(dp2676
g89
g90
ssg71
g2666
sg64
(lp2677
S':'
asbag57
(g78
g59
NtRp2678
(dp2679
g62
(dp2680
sg71
g2666
sg64
(lp2681
g57
(g58
g59
NtRp2682
(dp2683
g62
(dp2684
g70
I3
ssg71
g2678
sg64
(lp2685
S''
asbasbasbasbasbasbasbasbasbasbasbag57
(g73
g59
NtRp2686
(dp2687
g62
(dp2688
sg71
g67
sg64
(lp2689
g57
(g78
g59
NtRp2690
(dp2691
g62
(dp2692
g82
g83
ssg71
g2686
sg64
(lp2693
S'env'
p2694
asbag57
(g78
g59
NtRp2695
(dp2696
g62
(dp2697
g89
g90
ssg71
g2686
sg64
(lp2698
S':'
asbag57
(g78
g59
NtRp2699
(dp2700
g62
(dp2701
sg71
g2686
sg64
(lp2702
g57
(g58
g59
NtRp2703
(dp2704
g62
(dp2705
g70
I5
ssg71
g2699
sg64
(lp2706
g57
(g66
g59
NtRp2707
(dp2708
g62
(dp2709
g70
I4
ssg71
Nsg64
(lp2710
g57
(g73
g59
NtRp2711
(dp2712
g62
(dp2713
sg71
g2707
sg64
(lp2714
g57
(g78
g59
NtRp2715
(dp2716
g62
(dp2717
g82
g83
ssg71
g2711
sg64
(lp2718
S'app_folders'
p2719
asbag57
(g78
g59
NtRp2720
(dp2721
g62
(dp2722
g89
g90
ssg71
g2711
sg64
(lp2723
S':'
asbag57
(g78
g59
NtRp2724
(dp2725
g62
(dp2726
sg71
g2711
sg64
(lp2727
g57
(g58
g59
NtRp2728
(dp2729
g62
(dp2730
g70
I4
ssg71
g2724
sg64
(lp2731
S"set(['/home/pankaj/web2py/applications/admin/', '/home/pankaj/web2py/applications/welcome/', '/home/pankaj/web2py/applications/reddit/'])"
p2732
asbasbasbag57
(g73
g59
NtRp2733
(dp2734
g62
(dp2735
sg71
g2707
sg64
(lp2736
g57
(g78
g59
NtRp2737
(dp2738
g62
(dp2739
g82
g83
ssg71
g2733
sg64
(lp2740
S'applications_parent'
p2741
asbag57
(g78
g59
NtRp2742
(dp2743
g62
(dp2744
g89
g90
ssg71
g2733
sg64
(lp2745
S':'
asbag57
(g78
g59
NtRp2746
(dp2747
g62
(dp2748
sg71
g2733
sg64
(lp2749
g57
(g58
g59
NtRp2750
(dp2751
g62
(dp2752
g70
I4
ssg71
g2746
sg64
(lp2753
S'/home/pankaj/web2py'
p2754
asbasbasbag57
(g73
g59
NtRp2755
(dp2756
g62
(dp2757
sg71
g2707
sg64
(lp2758
g57
(g78
g59
NtRp2759
(dp2760
g62
(dp2761
g82
g83
ssg71
g2755
sg64
(lp2762
S'cmd_args'
p2763
asbag57
(g78
g59
NtRp2764
(dp2765
g62
(dp2766
g89
g90
ssg71
g2755
sg64
(lp2767
S':'
asbag57
(g78
g59
NtRp2768
(dp2769
g62
(dp2770
sg71
g2755
sg64
(lp2771
g57
(g58
g59
NtRp2772
(dp2773
g62
(dp2774
g70
I4
ssg71
g2768
sg64
(lp2775
g57
(g66
g59
NtRp2776
(dp2777
g62
(dp2778
g70
I3
ssg71
Nsg64
(lp2779
sbasbasbasbag57
(g73
g59
NtRp2780
(dp2781
g62
(dp2782
sg71
g2707
sg64
(lp2783
g57
(g78
g59
NtRp2784
(dp2785
g62
(dp2786
g82
g83
ssg71
g2780
sg64
(lp2787
S'cmd_options'
p2788
asbag57
(g78
g59
NtRp2789
(dp2790
g62
(dp2791
g89
g90
ssg71
g2780
sg64
(lp2792
S':'
asbag57
(g78
g59
NtRp2793
(dp2794
g62
(dp2795
sg71
g2780
sg64
(lp2796
g57
(g58
g59
NtRp2797
(dp2798
g62
(dp2799
g70
I4
ssg71
g2793
sg64
(lp2800
S"<Values at 0x9843dcc: {'verbose': False, 'ip': '127.0.0.1', 'with_scheduler': False, 'ips': [], 'shutdown_timeout': 5, 'taskbar': False, 'port': 8000, 'maxthreads': None, 'softcron': False, 'server_name': 'pankaj-HP-Pavilion-dv4-Notebook-PC', 'bpython': False, 'nogui': False, 'pid_filename': 'httpserver.pid', 'extcron': False, 'runcron': False, 'run_system_tests': False, 'test': None, 'folder': '/home/pankaj/web2py', 'config': '', 'import_models': False, 'winservice': '', 'shell': None, 'run': '', 'log_filename': 'httpserver.log', 'debuglevel': 30, 'args': [''], 'socket_timeout': 5, 'ssl_ca_certificate': None, 'scheduler': None, 'profiler_filename': None, 'ssl_private_key': '', 'scheduler_groups': None, 'password': '<ask>', 'request_queue_size': 5, 'ssl_certificate': '', 'cronjob': False, 'numthreads': None, 'quiet': False, 'interfaces': None, 'minthreads': None, 'timeout': 10, 'plain': False, 'nobanner': False}>"
p2801
asbasbasbag57
(g73
g59
NtRp2802
(dp2803
g62
(dp2804
sg71
g2707
sg64
(lp2805
g57
(g78
g59
NtRp2806
(dp2807
g62
(dp2808
g82
g83
ssg71
g2802
sg64
(lp2809
S'db_sessions'
p2810
asbag57
(g78
g59
NtRp2811
(dp2812
g62
(dp2813
g89
g90
ssg71
g2802
sg64
(lp2814
S':'
asbag57
(g78
g59
NtRp2815
(dp2816
g62
(dp2817
sg71
g2802
sg64
(lp2818
g57
(g58
g59
NtRp2819
(dp2820
g62
(dp2821
g70
I4
ssg71
g2815
sg64
(lp2822
S'set([])'
p2823
asbasbasbag57
(g73
g59
NtRp2824
(dp2825
g62
(dp2826
sg71
g2707
sg64
(lp2827
g57
(g78
g59
NtRp2828
(dp2829
g62
(dp2830
g82
g83
ssg71
g2824
sg64
(lp2831
S'debugging'
p2832
asbag57
(g78
g59
NtRp2833
(dp2834
g62
(dp2835
g89
g90
ssg71
g2824
sg64
(lp2836
S':'
asbag57
(g78
g59
NtRp2837
(dp2838
g62
(dp2839
sg71
g2824
sg64
(lp2840
g57
(g58
g59
NtRp2841
(dp2842
g62
(dp2843
g70
I4
ssg71
g2837
sg64
(lp2844
g100
asbasbasbag57
(g73
g59
NtRp2845
(dp2846
g62
(dp2847
sg71
g2707
sg64
(lp2848
g57
(g78
g59
NtRp2849
(dp2850
g62
(dp2851
g82
g83
ssg71
g2845
sg64
(lp2852
S'gluon_parent'
p2853
asbag57
(g78
g59
NtRp2854
(dp2855
g62
(dp2856
g89
g90
ssg71
g2845
sg64
(lp2857
S':'
asbag57
(g78
g59
NtRp2858
(dp2859
g62
(dp2860
sg71
g2845
sg64
(lp2861
g57
(g58
g59
NtRp2862
(dp2863
g62
(dp2864
g70
I4
ssg71
g2858
sg64
(lp2865
S'/home/pankaj/web2py'
p2866
asbasbasbag57
(g73
g59
NtRp2867
(dp2868
g62
(dp2869
sg71
g2707
sg64
(lp2870
g57
(g78
g59
NtRp2871
(dp2872
g62
(dp2873
g82
g83
ssg71
g2867
sg64
(lp2874
S'http_accept'
p2875
asbag57
(g78
g59
NtRp2876
(dp2877
g62
(dp2878
g89
g90
ssg71
g2867
sg64
(lp2879
S':'
asbag57
(g78
g59
NtRp2880
(dp2881
g62
(dp2882
sg71
g2867
sg64
(lp2883
g57
(g58
g59
NtRp2884
(dp2885
g62
(dp2886
g70
I4
ssg71
g2880
sg64
(lp2887
S'text/html,application/xhtml+xml,application/xml;q=0.9,*/*;q=0.8'
p2888
asbasbasbag57
(g73
g59
NtRp2889
(dp2890
g62
(dp2891
sg71
g2707
sg64
(lp2892
g57
(g78
g59
NtRp2893
(dp2894
g62
(dp2895
g82
g83
ssg71
g2889
sg64
(lp2896
S'http_accept_encoding'
p2897
asbag57
(g78
g59
NtRp2898
(dp2899
g62
(dp2900
g89
g90
ssg71
g2889
sg64
(lp2901
S':'
asbag57
(g78
g59
NtRp2902
(dp2903
g62
(dp2904
sg71
g2889
sg64
(lp2905
g57
(g58
g59
NtRp2906
(dp2907
g62
(dp2908
g70
I4
ssg71
g2902
sg64
(lp2909
S'gzip, deflate'
p2910
asbasbasbag57
(g73
g59
NtRp2911
(dp2912
g62
(dp2913
sg71
g2707
sg64
(lp2914
g57
(g78
g59
NtRp2915
(dp2916
g62
(dp2917
g82
g83
ssg71
g2911
sg64
(lp2918
S'http_accept_language'
p2919
asbag57
(g78
g59
NtRp2920
(dp2921
g62
(dp2922
g89
g90
ssg71
g2911
sg64
(lp2923
S':'
asbag57
(g78
g59
NtRp2924
(dp2925
g62
(dp2926
sg71
g2911
sg64
(lp2927
g57
(g58
g59
NtRp2928
(dp2929
g62
(dp2930
g70
I4
ssg71
g2924
sg64
(lp2931
S'en-US,en;q=0.5'
p2932
asbasbasbag57
(g73
g59
NtRp2933
(dp2934
g62
(dp2935
sg71
g2707
sg64
(lp2936
g57
(g78
g59
NtRp2937
(dp2938
g62
(dp2939
g82
g83
ssg71
g2933
sg64
(lp2940
S'http_cache_control'
p2941
asbag57
(g78
g59
NtRp2942
(dp2943
g62
(dp2944
g89
g90
ssg71
g2933
sg64
(lp2945
S':'
asbag57
(g78
g59
NtRp2946
(dp2947
g62
(dp2948
sg71
g2933
sg64
(lp2949
g57
(g58
g59
NtRp2950
(dp2951
g62
(dp2952
g70
I4
ssg71
g2946
sg64
(lp2953
S'max-age=0'
p2954
asbasbasbag57
(g73
g59
NtRp2955
(dp2956
g62
(dp2957
sg71
g2707
sg64
(lp2958
g57
(g78
g59
NtRp2959
(dp2960
g62
(dp2961
g82
g83
ssg71
g2955
sg64
(lp2962
S'http_connection'
p2963
asbag57
(g78
g59
NtRp2964
(dp2965
g62
(dp2966
g89
g90
ssg71
g2955
sg64
(lp2967
S':'
asbag57
(g78
g59
NtRp2968
(dp2969
g62
(dp2970
sg71
g2955
sg64
(lp2971
g57
(g58
g59
NtRp2972
(dp2973
g62
(dp2974
g70
I4
ssg71
g2968
sg64
(lp2975
S'keep-alive'
p2976
asbasbasbag57
(g73
g59
NtRp2977
(dp2978
g62
(dp2979
sg71
g2707
sg64
(lp2980
g57
(g78
g59
NtRp2981
(dp2982
g62
(dp2983
g82
g83
ssg71
g2977
sg64
(lp2984
S'http_cookie'
p2985
asbag57
(g78
g59
NtRp2986
(dp2987
g62
(dp2988
g89
g90
ssg71
g2977
sg64
(lp2989
S':'
asbag57
(g78
g59
NtRp2990
(dp2991
g62
(dp2992
sg71
g2977
sg64
(lp2993
g57
(g58
g59
NtRp2994
(dp2995
g62
(dp2996
g70
I4
ssg71
g2990
sg64
(lp2997
S'session_id_reddit=127.0.0.1-24289f39-32a1-48fb-a367-22792fb8b813; session_id_20120156_assignment_1=127.0.0.1-6cad324c-0572-4be8-8f41-6fcaca863c93; session_id_arihant=127.0.0.1-fa99deb6-5977-491c-864a-b5d79c0d1842; session_id_cataminder=127.0.0.1-81b628a7-34a5-4e70-a95c-79ef710dcdbb; session_id_courses=127.0.0.1-1d46c4eb-fdfc-4abb-bb62-6bcf52d1fcaa; session_id_iiit_fb=127.0.0.1-04b7df24-4720-4bb5-98de-96b98776240d; session_id_myapp=127.0.0.1-f28af7a6-9d1e-4a86-bd34-27605492a231; session_id_project=127.0.0.1-029ca61b-f875-404a-b7ff-1634c44ab767; session_id_testlayout=127.0.0.1-0b2689a2-d3bd-4ee8-ad96-af4d7e3e9ad1; session_id_vikramahuja=127.0.0.1-a555d16d-54b5-476d-a152-f88918b513fe; session_id_try=127.0.0.1-4d514347-24a9-48c9-9e7c-4ac4f4a70173; session_id_welcome=127.0.0.1-a85dd4d7-ab1c-49ab-856d-4173a26ef319; session_id_admin=127.0.0.1-eea59e1b-9257-4df1-8c44-da77bf9e4ec2'
p2998
asbasbasbag57
(g73
g59
NtRp2999
(dp3000
g62
(dp3001
sg71
g2707
sg64
(lp3002
g57
(g78
g59
NtRp3003
(dp3004
g62
(dp3005
g82
g83
ssg71
g2999
sg64
(lp3006
S'http_host'
p3007
asbag57
(g78
g59
NtRp3008
(dp3009
g62
(dp3010
g89
g90
ssg71
g2999
sg64
(lp3011
S':'
asbag57
(g78
g59
NtRp3012
(dp3013
g62
(dp3014
sg71
g2999
sg64
(lp3015
g57
(g58
g59
NtRp3016
(dp3017
g62
(dp3018
g70
I4
ssg71
g3012
sg64
(lp3019
S'127.0.0.1:8000'
p3020
asbasbasbag57
(g73
g59
NtRp3021
(dp3022
g62
(dp3023
sg71
g2707
sg64
(lp3024
g57
(g78
g59
NtRp3025
(dp3026
g62
(dp3027
g82
g83
ssg71
g3021
sg64
(lp3028
S'http_referer'
p3029
asbag57
(g78
g59
NtRp3030
(dp3031
g62
(dp3032
g89
g90
ssg71
g3021
sg64
(lp3033
S':'
asbag57
(g78
g59
NtRp3034
(dp3035
g62
(dp3036
sg71
g3021
sg64
(lp3037
g57
(g58
g59
NtRp3038
(dp3039
g62
(dp3040
g70
I4
ssg71
g3034
sg64
(lp3041
S'http://127.0.0.1:8000/reddit/default/index'
p3042
asbasbasbag57
(g73
g59
NtRp3043
(dp3044
g62
(dp3045
sg71
g2707
sg64
(lp3046
g57
(g78
g59
NtRp3047
(dp3048
g62
(dp3049
g82
g83
ssg71
g3043
sg64
(lp3050
S'http_user_agent'
p3051
asbag57
(g78
g59
NtRp3052
(dp3053
g62
(dp3054
g89
g90
ssg71
g3043
sg64
(lp3055
S':'
asbag57
(g78
g59
NtRp3056
(dp3057
g62
(dp3058
sg71
g3043
sg64
(lp3059
g57
(g58
g59
NtRp3060
(dp3061
g62
(dp3062
g70
I4
ssg71
g3056
sg64
(lp3063
S'Mozilla/5.0 (X11; Ubuntu; Linux i686; rv:22.0) Gecko/20100101 Firefox/22.0'
p3064
asbasbasbag57
(g73
g59
NtRp3065
(dp3066
g62
(dp3067
sg71
g2707
sg64
(lp3068
g57
(g78
g59
NtRp3069
(dp3070
g62
(dp3071
g82
g83
ssg71
g3065
sg64
(lp3072
S'is_jython'
p3073
asbag57
(g78
g59
NtRp3074
(dp3075
g62
(dp3076
g89
g90
ssg71
g3065
sg64
(lp3077
S':'
asbag57
(g78
g59
NtRp3078
(dp3079
g62
(dp3080
sg71
g3065
sg64
(lp3081
g57
(g58
g59
NtRp3082
(dp3083
g62
(dp3084
g70
I4
ssg71
g3078
sg64
(lp3085
g100
asbasbasbag57
(g73
g59
NtRp3086
(dp3087
g62
(dp3088
sg71
g2707
sg64
(lp3089
g57
(g78
g59
NtRp3090
(dp3091
g62
(dp3092
g82
g83
ssg71
g3086
sg64
(lp3093
S'is_pypy'
p3094
asbag57
(g78
g59
NtRp3095
(dp3096
g62
(dp3097
g89
g90
ssg71
g3086
sg64
(lp3098
S':'
asbag57
(g78
g59
NtRp3099
(dp3100
g62
(dp3101
sg71
g3086
sg64
(lp3102
g57
(g58
g59
NtRp3103
(dp3104
g62
(dp3105
g70
I4
ssg71
g3099
sg64
(lp3106
g100
asbasbasbag57
(g73
g59
NtRp3107
(dp3108
g62
(dp3109
sg71
g2707
sg64
(lp3110
g57
(g78
g59
NtRp3111
(dp3112
g62
(dp3113
g82
g83
ssg71
g3107
sg64
(lp3114
S'local_hosts'
p3115
asbag57
(g78
g59
NtRp3116
(dp3117
g62
(dp3118
g89
g90
ssg71
g3107
sg64
(lp3119
S':'
asbag57
(g78
g59
NtRp3120
(dp3121
g62
(dp3122
sg71
g3107
sg64
(lp3123
g57
(g58
g59
NtRp3124
(dp3125
g62
(dp3126
g70
I4
ssg71
g3120
sg64
(lp3127
g57
(g66
g59
NtRp3128
(dp3129
g62
(dp3130
g70
I3
ssg71
Nsg64
(lp3131
g57
(g73
g59
NtRp3132
(dp3133
g62
(dp3134
sg71
g3128
sg64
(lp3135
g57
(g78
g59
NtRp3136
(dp3137
g62
(dp3138
sg71
g3132
sg64
(lp3139
g57
(g58
g59
NtRp3140
(dp3141
g62
(dp3142
g70
I3
ssg71
g3136
sg64
(lp3143
S'pankaj-HP-Pavilion-dv4-Notebook-PC'
p3144
asbasbasbag57
(g73
g59
NtRp3145
(dp3146
g62
(dp3147
sg71
g3128
sg64
(lp3148
g57
(g78
g59
NtRp3149
(dp3150
g62
(dp3151
sg71
g3145
sg64
(lp3152
g57
(g58
g59
NtRp3153
(dp3154
g62
(dp3155
g70
I3
ssg71
g3149
sg64
(lp3156
S'::1'
p3157
asbasbasbag57
(g73
g59
NtRp3158
(dp3159
g62
(dp3160
sg71
g3128
sg64
(lp3161
g57
(g78
g59
NtRp3162
(dp3163
g62
(dp3164
sg71
g3158
sg64
(lp3165
g57
(g58
g59
NtRp3166
(dp3167
g62
(dp3168
g70
I3
ssg71
g3162
sg64
(lp3169
S'127.0.1.1'
p3170
asbasbasbag57
(g73
g59
NtRp3171
(dp3172
g62
(dp3173
sg71
g3128
sg64
(lp3174
g57
(g78
g59
NtRp3175
(dp3176
g62
(dp3177
sg71
g3171
sg64
(lp3178
g57
(g58
g59
NtRp3179
(dp3180
g62
(dp3181
g70
I3
ssg71
g3175
sg64
(lp3182
S'::ffff:127.0.0.1'
p3183
asbasbasbag57
(g73
g59
NtRp3184
(dp3185
g62
(dp3186
sg71
g3128
sg64
(lp3187
g57
(g78
g59
NtRp3188
(dp3189
g62
(dp3190
sg71
g3184
sg64
(lp3191
g57
(g58
g59
NtRp3192
(dp3193
g62
(dp3194
g70
I3
ssg71
g3188
sg64
(lp3195
S'127.0.0.1'
p3196
asbasbasbasbasbasbasbag57
(g73
g59
NtRp3197
(dp3198
g62
(dp3199
sg71
g2707
sg64
(lp3200
g57
(g78
g59
NtRp3201
(dp3202
g62
(dp3203
g82
g83
ssg71
g3197
sg64
(lp3204
S'path_info'
p3205
asbag57
(g78
g59
NtRp3206
(dp3207
g62
(dp3208
g89
g90
ssg71
g3197
sg64
(lp3209
S':'
asbag57
(g78
g59
NtRp3210
(dp3211
g62
(dp3212
sg71
g3197
sg64
(lp3213
g57
(g58
g59
NtRp3214
(dp3215
g62
(dp3216
g70
I4
ssg71
g3210
sg64
(lp3217
S'/reddit/default/index'
p3218
asbasbasbag57
(g73
g59
NtRp3219
(dp3220
g62
(dp3221
sg71
g2707
sg64
(lp3222
g57
(g78
g59
NtRp3223
(dp3224
g62
(dp3225
g82
g83
ssg71
g3219
sg64
(lp3226
S'query_string'
p3227
asbag57
(g78
g59
NtRp3228
(dp3229
g62
(dp3230
g89
g90
ssg71
g3219
sg64
(lp3231
S':'
asbag57
(g78
g59
NtRp3232
(dp3233
g62
(dp3234
sg71
g3219
sg64
(lp3235
g57
(g58
g59
NtRp3236
(dp3237
g62
(dp3238
g70
I4
ssg71
g3232
sg64
(lp3239
S''
asbasbasbag57
(g73
g59
NtRp3240
(dp3241
g62
(dp3242
sg71
g2707
sg64
(lp3243
g57
(g78
g59
NtRp3244
(dp3245
g62
(dp3246
g82
g83
ssg71
g3240
sg64
(lp3247
S'remote_addr'
p3248
asbag57
(g78
g59
NtRp3249
(dp3250
g62
(dp3251
g89
g90
ssg71
g3240
sg64
(lp3252
S':'
asbag57
(g78
g59
NtRp3253
(dp3254
g62
(dp3255
sg71
g3240
sg64
(lp3256
g57
(g58
g59
NtRp3257
(dp3258
g62
(dp3259
g70
I4
ssg71
g3253
sg64
(lp3260
g212
asbasbasbag57
(g73
g59
NtRp3261
(dp3262
g62
(dp3263
sg71
g2707
sg64
(lp3264
g57
(g78
g59
NtRp3265
(dp3266
g62
(dp3267
g82
g83
ssg71
g3261
sg64
(lp3268
S'remote_port'
p3269
asbag57
(g78
g59
NtRp3270
(dp3271
g62
(dp3272
g89
g90
ssg71
g3261
sg64
(lp3273
S':'
asbag57
(g78
g59
NtRp3274
(dp3275
g62
(dp3276
sg71
g3261
sg64
(lp3277
g57
(g58
g59
NtRp3278
(dp3279
g62
(dp3280
g70
I4
ssg71
g3274
sg64
(lp3281
S'36598'
p3282
asbasbasbag57
(g73
g59
NtRp3283
(dp3284
g62
(dp3285
sg71
g2707
sg64
(lp3286
g57
(g78
g59
NtRp3287
(dp3288
g62
(dp3289
g82
g83
ssg71
g3283
sg64
(lp3290
S'request_method'
p3291
asbag57
(g78
g59
NtRp3292
(dp3293
g62
(dp3294
g89
g90
ssg71
g3283
sg64
(lp3295
S':'
asbag57
(g78
g59
NtRp3296
(dp3297
g62
(dp3298
sg71
g3283
sg64
(lp3299
g57
(g58
g59
NtRp3300
(dp3301
g62
(dp3302
g70
I4
ssg71
g3296
sg64
(lp3303
S'GET'
p3304
asbasbasbag57
(g73
g59
NtRp3305
(dp3306
g62
(dp3307
sg71
g2707
sg64
(lp3308
g57
(g78
g59
NtRp3309
(dp3310
g62
(dp3311
g82
g83
ssg71
g3305
sg64
(lp3312
S'request_uri'
p3313
asbag57
(g78
g59
NtRp3314
(dp3315
g62
(dp3316
g89
g90
ssg71
g3305
sg64
(lp3317
S':'
asbag57
(g78
g59
NtRp3318
(dp3319
g62
(dp3320
sg71
g3305
sg64
(lp3321
g57
(g58
g59
NtRp3322
(dp3323
g62
(dp3324
g70
I4
ssg71
g3318
sg64
(lp3325
g3218
asbasbasbag57
(g73
g59
NtRp3326
(dp3327
g62
(dp3328
sg71
g2707
sg64
(lp3329
g57
(g78
g59
NtRp3330
(dp3331
g62
(dp3332
g82
g83
ssg71
g3326
sg64
(lp3333
S'script_name'
p3334
asbag57
(g78
g59
NtRp3335
(dp3336
g62
(dp3337
g89
g90
ssg71
g3326
sg64
(lp3338
S':'
asbag57
(g78
g59
NtRp3339
(dp3340
g62
(dp3341
sg71
g3326
sg64
(lp3342
g57
(g58
g59
NtRp3343
(dp3344
g62
(dp3345
g70
I4
ssg71
g3339
sg64
(lp3346
S''
asbasbasbag57
(g73
g59
NtRp3347
(dp3348
g62
(dp3349
sg71
g2707
sg64
(lp3350
g57
(g78
g59
NtRp3351
(dp3352
g62
(dp3353
g82
g83
ssg71
g3347
sg64
(lp3354
S'server_name'
p3355
asbag57
(g78
g59
NtRp3356
(dp3357
g62
(dp3358
g89
g90
ssg71
g3347
sg64
(lp3359
S':'
asbag57
(g78
g59
NtRp3360
(dp3361
g62
(dp3362
sg71
g3347
sg64
(lp3363
g57
(g58
g59
NtRp3364
(dp3365
g62
(dp3366
g70
I4
ssg71
g3360
sg64
(lp3367
S'pankaj-HP-Pavilion-dv4-Notebook-PC'
p3368
asbasbasbag57
(g73
g59
NtRp3369
(dp3370
g62
(dp3371
sg71
g2707
sg64
(lp3372
g57
(g78
g59
NtRp3373
(dp3374
g62
(dp3375
g82
g83
ssg71
g3369
sg64
(lp3376
S'server_port'
p3377
asbag57
(g78
g59
NtRp3378
(dp3379
g62
(dp3380
g89
g90
ssg71
g3369
sg64
(lp3381
S':'
asbag57
(g78
g59
NtRp3382
(dp3383
g62
(dp3384
sg71
g3369
sg64
(lp3385
g57
(g58
g59
NtRp3386
(dp3387
g62
(dp3388
g70
I4
ssg71
g3382
sg64
(lp3389
S'8000'
p3390
asbasbasbag57
(g73
g59
NtRp3391
(dp3392
g62
(dp3393
sg71
g2707
sg64
(lp3394
g57
(g78
g59
NtRp3395
(dp3396
g62
(dp3397
g82
g83
ssg71
g3391
sg64
(lp3398
S'server_protocol'
p3399
asbag57
(g78
g59
NtRp3400
(dp3401
g62
(dp3402
g89
g90
ssg71
g3391
sg64
(lp3403
S':'
asbag57
(g78
g59
NtRp3404
(dp3405
g62
(dp3406
sg71
g3391
sg64
(lp3407
g57
(g58
g59
NtRp3408
(dp3409
g62
(dp3410
g70
I4
ssg71
g3404
sg64
(lp3411
S'HTTP/1.1'
p3412
asbasbasbag57
(g73
g59
NtRp3413
(dp3414
g62
(dp3415
sg71
g2707
sg64
(lp3416
g57
(g78
g59
NtRp3417
(dp3418
g62
(dp3419
g82
g83
ssg71
g3413
sg64
(lp3420
S'server_software'
p3421
asbag57
(g78
g59
NtRp3422
(dp3423
g62
(dp3424
g89
g90
ssg71
g3413
sg64
(lp3425
S':'
asbag57
(g78
g59
NtRp3426
(dp3427
g62
(dp3428
sg71
g3413
sg64
(lp3429
g57
(g58
g59
NtRp3430
(dp3431
g62
(dp3432
g70
I4
ssg71
g3426
sg64
(lp3433
S'Rocket 1.2.6'
p3434
asbasbasbag57
(g73
g59
NtRp3435
(dp3436
g62
(dp3437
sg71
g2707
sg64
(lp3438
g57
(g78
g59
NtRp3439
(dp3440
g62
(dp3441
g82
g83
ssg71
g3435
sg64
(lp3442
S'web2py_path'
p3443
asbag57
(g78
g59
NtRp3444
(dp3445
g62
(dp3446
g89
g90
ssg71
g3435
sg64
(lp3447
S':'
asbag57
(g78
g59
NtRp3448
(dp3449
g62
(dp3450
sg71
g3435
sg64
(lp3451
g57
(g58
g59
NtRp3452
(dp3453
g62
(dp3454
g70
I4
ssg71
g3448
sg64
(lp3455
g2754
asbasbasbag57
(g73
g59
NtRp3456
(dp3457
g62
(dp3458
sg71
g2707
sg64
(lp3459
g57
(g78
g59
NtRp3460
(dp3461
g62
(dp3462
g82
g83
ssg71
g3456
sg64
(lp3463
S'web2py_version'
p3464
asbag57
(g78
g59
NtRp3465
(dp3466
g62
(dp3467
g89
g90
ssg71
g3456
sg64
(lp3468
S':'
asbag57
(g78
g59
NtRp3469
(dp3470
g62
(dp3471
sg71
g3456
sg64
(lp3472
g57
(g58
g59
NtRp3473
(dp3474
g62
(dp3475
g70
I4
ssg71
g3469
sg64
(lp3476
g57
(g66
g59
NtRp3477
(dp3478
g62
(dp3479
g70
I3
ssg71
Nsg64
(lp3480
g57
(g73
g59
NtRp3481
(dp3482
g62
(dp3483
sg71
g3477
sg64
(lp3484
g57
(g78
g59
NtRp3485
(dp3486
g62
(dp3487
sg71
g3481
sg64
(lp3488
g57
(g58
g59
NtRp3489
(dp3490
g62
(dp3491
g70
I3
ssg71
g3485
sg64
(lp3492
S'2'
asbasbasbag57
(g73
g59
NtRp3493
(dp3494
g62
(dp3495
sg71
g3477
sg64
(lp3496
g57
(g78
g59
NtRp3497
(dp3498
g62
(dp3499
sg71
g3493
sg64
(lp3500
g57
(g58
g59
NtRp3501
(dp3502
g62
(dp3503
g70
I3
ssg71
g3497
sg64
(lp3504
S'3'
asbasbasbag57
(g73
g59
NtRp3505
(dp3506
g62
(dp3507
sg71
g3477
sg64
(lp3508
g57
(g78
g59
NtRp3509
(dp3510
g62
(dp3511
sg71
g3505
sg64
(lp3512
g57
(g58
g59
NtRp3513
(dp3514
g62
(dp3515
g70
I3
ssg71
g3509
sg64
(lp3516
S'2'
asbasbasbag57
(g73
g59
NtRp3517
(dp3518
g62
(dp3519
sg71
g3477
sg64
(lp3520
g57
(g78
g59
NtRp3521
(dp3522
g62
(dp3523
sg71
g3517
sg64
(lp3524
g57
(g58
g59
NtRp3525
(dp3526
g62
(dp3527
g70
I3
ssg71
g3521
sg64
(lp3528
S'datetime.datetime(2012, 12, 17, 15, 3, 30)'
p3529
asbasbasbag57
(g73
g59
NtRp3530
(dp3531
g62
(dp3532
sg71
g3477
sg64
(lp3533
g57
(g78
g59
NtRp3534
(dp3535
g62
(dp3536
sg71
g3530
sg64
(lp3537
g57
(g58
g59
NtRp3538
(dp3539
g62
(dp3540
g70
I3
ssg71
g3534
sg64
(lp3541
S'stable'
p3542
asbasbasbasbasbasbasbag57
(g73
g59
NtRp3543
(dp3544
g62
(dp3545
sg71
g2707
sg64
(lp3546
g57
(g78
g59
NtRp3547
(dp3548
g62
(dp3549
g82
g83
ssg71
g3543
sg64
(lp3550
S'wsgi_errors'
p3551
asbag57
(g78
g59
NtRp3552
(dp3553
g62
(dp3554
g89
g90
ssg71
g3543
sg64
(lp3555
S':'
asbag57
(g78
g59
NtRp3556
(dp3557
g62
(dp3558
sg71
g3543
sg64
(lp3559
g57
(g58
g59
NtRp3560
(dp3561
g62
(dp3562
g70
I4
ssg71
g3556
sg64
(lp3563
S"<open file '<stderr>', mode 'w' at 0xb73000d0>"
p3564
asbasbasbag57
(g73
g59
NtRp3565
(dp3566
g62
(dp3567
sg71
g2707
sg64
(lp3568
g57
(g78
g59
NtRp3569
(dp3570
g62
(dp3571
g82
g83
ssg71
g3565
sg64
(lp3572
S'wsgi_file_wrapper'
p3573
asbag57
(g78
g59
NtRp3574
(dp3575
g62
(dp3576
g89
g90
ssg71
g3565
sg64
(lp3577
S':'
asbag57
(g78
g59
NtRp3578
(dp3579
g62
(dp3580
sg71
g3565
sg64
(lp3581
g57
(g58
g59
NtRp3582
(dp3583
g62
(dp3584
g70
I4
ssg71
g3578
sg64
(lp3585
S'<class wsgiref.util.FileWrapper at 0x980905c>'
p3586
asbasbasbag57
(g73
g59
NtRp3587
(dp3588
g62
(dp3589
sg71
g2707
sg64
(lp3590
g57
(g78
g59
NtRp3591
(dp3592
g62
(dp3593
g82
g83
ssg71
g3587
sg64
(lp3594
S'wsgi_input'
p3595
asbag57
(g78
g59
NtRp3596
(dp3597
g62
(dp3598
g89
g90
ssg71
g3587
sg64
(lp3599
S':'
asbag57
(g78
g59
NtRp3600
(dp3601
g62
(dp3602
sg71
g3587
sg64
(lp3603
g57
(g58
g59
NtRp3604
(dp3605
g62
(dp3606
g70
I4
ssg71
g3600
sg64
(lp3607
S'<socket._fileobject object at 0xae2076ac>'
p3608
asbasbasbag57
(g73
g59
NtRp3609
(dp3610
g62
(dp3611
sg71
g2707
sg64
(lp3612
g57
(g78
g59
NtRp3613
(dp3614
g62
(dp3615
g82
g83
ssg71
g3609
sg64
(lp3616
S'wsgi_multiprocess'
p3617
asbag57
(g78
g59
NtRp3618
(dp3619
g62
(dp3620
g89
g90
ssg71
g3609
sg64
(lp3621
S':'
asbag57
(g78
g59
NtRp3622
(dp3623
g62
(dp3624
sg71
g3609
sg64
(lp3625
g57
(g58
g59
NtRp3626
(dp3627
g62
(dp3628
g70
I4
ssg71
g3622
sg64
(lp3629
g100
asbasbasbag57
(g73
g59
NtRp3630
(dp3631
g62
(dp3632
sg71
g2707
sg64
(lp3633
g57
(g78
g59
NtRp3634
(dp3635
g62
(dp3636
g82
g83
ssg71
g3630
sg64
(lp3637
S'wsgi_multithread'
p3638
asbag57
(g78
g59
NtRp3639
(dp3640
g62
(dp3641
g89
g90
ssg71
g3630
sg64
(lp3642
S':'
asbag57
(g78
g59
NtRp3643
(dp3644
g62
(dp3645
sg71
g3630
sg64
(lp3646
g57
(g58
g59
NtRp3647
(dp3648
g62
(dp3649
g70
I4
ssg71
g3643
sg64
(lp3650
S'True'
p3651
asbasbasbag57
(g73
g59
NtRp3652
(dp3653
g62
(dp3654
sg71
g2707
sg64
(lp3655
g57
(g78
g59
NtRp3656
(dp3657
g62
(dp3658
g82
g83
ssg71
g3652
sg64
(lp3659
S'wsgi_run_once'
p3660
asbag57
(g78
g59
NtRp3661
(dp3662
g62
(dp3663
g89
g90
ssg71
g3652
sg64
(lp3664
S':'
asbag57
(g78
g59
NtRp3665
(dp3666
g62
(dp3667
sg71
g3652
sg64
(lp3668
g57
(g58
g59
NtRp3669
(dp3670
g62
(dp3671
g70
I4
ssg71
g3665
sg64
(lp3672
g100
asbasbasbag57
(g73
g59
NtRp3673
(dp3674
g62
(dp3675
sg71
g2707
sg64
(lp3676
g57
(g78
g59
NtRp3677
(dp3678
g62
(dp3679
g82
g83
ssg71
g3673
sg64
(lp3680
S'wsgi_url_scheme'
p3681
asbag57
(g78
g59
NtRp3682
(dp3683
g62
(dp3684
g89
g90
ssg71
g3673
sg64
(lp3685
S':'
asbag57
(g78
g59
NtRp3686
(dp3687
g62
(dp3688
sg71
g3673
sg64
(lp3689
g57
(g58
g59
NtRp3690
(dp3691
g62
(dp3692
g70
I4
ssg71
g3686
sg64
(lp3693
S'http'
p3694
asbasbasbag57
(g73
g59
NtRp3695
(dp3696
g62
(dp3697
sg71
g2707
sg64
(lp3698
g57
(g78
g59
NtRp3699
(dp3700
g62
(dp3701
g82
g83
ssg71
g3695
sg64
(lp3702
S'wsgi_version'
p3703
asbag57
(g78
g59
NtRp3704
(dp3705
g62
(dp3706
g89
g90
ssg71
g3695
sg64
(lp3707
S':'
asbag57
(g78
g59
NtRp3708
(dp3709
g62
(dp3710
sg71
g3695
sg64
(lp3711
g57
(g58
g59
NtRp3712
(dp3713
g62
(dp3714
g70
I4
ssg71
g3708
sg64
(lp3715
g57
(g66
g59
NtRp3716
(dp3717
g62
(dp3718
g70
I3
ssg71
Nsg64
(lp3719
g57
(g73
g59
NtRp3720
(dp3721
g62
(dp3722
sg71
g3716
sg64
(lp3723
g57
(g78
g59
NtRp3724
(dp3725
g62
(dp3726
sg71
g3720
sg64
(lp3727
g57
(g58
g59
NtRp3728
(dp3729
g62
(dp3730
g70
I3
ssg71
g3724
sg64
(lp3731
S'1'
asbasbasbag57
(g73
g59
NtRp3732
(dp3733
g62
(dp3734
sg71
g3716
sg64
(lp3735
g57
(g78
g59
NtRp3736
(dp3737
g62
(dp3738
sg71
g3732
sg64
(lp3739
g57
(g58
g59
NtRp3740
(dp3741
g62
(dp3742
g70
I3
ssg71
g3736
sg64
(lp3743
S'0'
asbasbasbasbasbasbasbasbasbasbasbag57
(g73
g59
NtRp3744
(dp3745
g62
(dp3746
sg71
g67
sg64
(lp3747
g57
(g78
g59
NtRp3748
(dp3749
g62
(dp3750
g82
g83
ssg71
g3744
sg64
(lp3751
S'extension'
p3752
asbag57
(g78
g59
NtRp3753
(dp3754
g62
(dp3755
g89
g90
ssg71
g3744
sg64
(lp3756
S':'
asbag57
(g78
g59
NtRp3757
(dp3758
g62
(dp3759
sg71
g3744
sg64
(lp3760
g57
(g58
g59
NtRp3761
(dp3762
g62
(dp3763
g70
I5
ssg71
g3757
sg64
(lp3764
S'html'
p3765
asbasbasbag57
(g73
g59
NtRp3766
(dp3767
g62
(dp3768
sg71
g67
sg64
(lp3769
g57
(g78
g59
NtRp3770
(dp3771
g62
(dp3772
g82
g83
ssg71
g3766
sg64
(lp3773
S'folder'
p3774
asbag57
(g78
g59
NtRp3775
(dp3776
g62
(dp3777
g89
g90
ssg71
g3766
sg64
(lp3778
S':'
asbag57
(g78
g59
NtRp3779
(dp3780
g62
(dp3781
sg71
g3766
sg64
(lp3782
g57
(g58
g59
NtRp3783
(dp3784
g62
(dp3785
g70
I5
ssg71
g3779
sg64
(lp3786
S'/home/pankaj/web2py/applications/reddit/'
p3787
asbasbasbag57
(g73
g59
NtRp3788
(dp3789
g62
(dp3790
sg71
g67
sg64
(lp3791
g57
(g78
g59
NtRp3792
(dp3793
g62
(dp3794
g82
g83
ssg71
g3788
sg64
(lp3795
S'function'
p3796
asbag57
(g78
g59
NtRp3797
(dp3798
g62
(dp3799
g89
g90
ssg71
g3788
sg64
(lp3800
S':'
asbag57
(g78
g59
NtRp3801
(dp3802
g62
(dp3803
sg71
g3788
sg64
(lp3804
g57
(g58
g59
NtRp3805
(dp3806
g62
(dp3807
g70
I5
ssg71
g3801
sg64
(lp3808
S'index'
p3809
asbasbasbag57
(g73
g59
NtRp3810
(dp3811
g62
(dp3812
sg71
g67
sg64
(lp3813
g57
(g78
g59
NtRp3814
(dp3815
g62
(dp3816
g82
g83
ssg71
g3810
sg64
(lp3817
S'get_vars'
p3818
asbag57
(g78
g59
NtRp3819
(dp3820
g62
(dp3821
g89
g90
ssg71
g3810
sg64
(lp3822
S':'
asbag57
(g78
g59
NtRp3823
(dp3824
g62
(dp3825
sg71
g3810
sg64
(lp3826
g57
(g58
g59
NtRp3827
(dp3828
g62
(dp3829
g70
I5
ssg71
g3823
sg64
(lp3830
g57
(g66
g59
NtRp3831
(dp3832
g62
(dp3833
g70
I4
ssg71
Nsg64
(lp3834
sbasbasbasbag57
(g73
g59
NtRp3835
(dp3836
g62
(dp3837
sg71
g67
sg64
(lp3838
g57
(g78
g59
NtRp3839
(dp3840
g62
(dp3841
g82
g83
ssg71
g3835
sg64
(lp3842
S'global_settings'
p3843
asbag57
(g78
g59
NtRp3844
(dp3845
g62
(dp3846
g89
g90
ssg71
g3835
sg64
(lp3847
S':'
asbag57
(g78
g59
NtRp3848
(dp3849
g62
(dp3850
sg71
g3835
sg64
(lp3851
g57
(g58
g59
NtRp3852
(dp3853
g62
(dp3854
g70
I5
ssg71
g3848
sg64
(lp3855
g57
(g66
g59
NtRp3856
(dp3857
g62
(dp3858
g70
I4
ssg71
Nsg64
(lp3859
g57
(g73
g59
NtRp3860
(dp3861
g62
(dp3862
sg71
g3856
sg64
(lp3863
g57
(g78
g59
NtRp3864
(dp3865
g62
(dp3866
g82
g83
ssg71
g3860
sg64
(lp3867
g2719
asbag57
(g78
g59
NtRp3868
(dp3869
g62
(dp3870
g89
g90
ssg71
g3860
sg64
(lp3871
S':'
asbag57
(g78
g59
NtRp3872
(dp3873
g62
(dp3874
sg71
g3860
sg64
(lp3875
g57
(g58
g59
NtRp3876
(dp3877
g62
(dp3878
g70
I4
ssg71
g3872
sg64
(lp3879
S"set(['/home/pankaj/web2py/applications/admin/', '/home/pankaj/web2py/applications/welcome/', '/home/pankaj/web2py/applications/reddit/'])"
p3880
asbasbasbag57
(g73
g59
NtRp3881
(dp3882
g62
(dp3883
sg71
g3856
sg64
(lp3884
g57
(g78
g59
NtRp3885
(dp3886
g62
(dp3887
g82
g83
ssg71
g3881
sg64
(lp3888
g2741
asbag57
(g78
g59
NtRp3889
(dp3890
g62
(dp3891
g89
g90
ssg71
g3881
sg64
(lp3892
S':'
asbag57
(g78
g59
NtRp3893
(dp3894
g62
(dp3895
sg71
g3881
sg64
(lp3896
g57
(g58
g59
NtRp3897
(dp3898
g62
(dp3899
g70
I4
ssg71
g3893
sg64
(lp3900
g2754
asbasbasbag57
(g73
g59
NtRp3901
(dp3902
g62
(dp3903
sg71
g3856
sg64
(lp3904
g57
(g78
g59
NtRp3905
(dp3906
g62
(dp3907
g82
g83
ssg71
g3901
sg64
(lp3908
g2763
asbag57
(g78
g59
NtRp3909
(dp3910
g62
(dp3911
g89
g90
ssg71
g3901
sg64
(lp3912
S':'
asbag57
(g78
g59
NtRp3913
(dp3914
g62
(dp3915
sg71
g3901
sg64
(lp3916
g57
(g58
g59
NtRp3917
(dp3918
g62
(dp3919
g70
I4
ssg71
g3913
sg64
(lp3920
g57
(g66
g59
NtRp3921
(dp3922
g62
(dp3923
g70
I3
ssg71
Nsg64
(lp3924
sbasbasbasbag57
(g73
g59
NtRp3925
(dp3926
g62
(dp3927
sg71
g3856
sg64
(lp3928
g57
(g78
g59
NtRp3929
(dp3930
g62
(dp3931
g82
g83
ssg71
g3925
sg64
(lp3932
g2788
asbag57
(g78
g59
NtRp3933
(dp3934
g62
(dp3935
g89
g90
ssg71
g3925
sg64
(lp3936
S':'
asbag57
(g78
g59
NtRp3937
(dp3938
g62
(dp3939
sg71
g3925
sg64
(lp3940
g57
(g58
g59
NtRp3941
(dp3942
g62
(dp3943
g70
I4
ssg71
g3937
sg64
(lp3944
S"<Values at 0x9843dcc: {'verbose': False, 'ip': '127.0.0.1', 'with_scheduler': False, 'ips': [], 'shutdown_timeout': 5, 'taskbar': False, 'port': 8000, 'maxthreads': None, 'softcron': False, 'server_name': 'pankaj-HP-Pavilion-dv4-Notebook-PC', 'bpython': False, 'nogui': False, 'pid_filename': 'httpserver.pid', 'extcron': False, 'runcron': False, 'run_system_tests': False, 'test': None, 'folder': '/home/pankaj/web2py', 'config': '', 'import_models': False, 'winservice': '', 'shell': None, 'run': '', 'log_filename': 'httpserver.log', 'debuglevel': 30, 'args': [''], 'socket_timeout': 5, 'ssl_ca_certificate': None, 'scheduler': None, 'profiler_filename': None, 'ssl_private_key': '', 'scheduler_groups': None, 'password': '<ask>', 'request_queue_size': 5, 'ssl_certificate': '', 'cronjob': False, 'numthreads': None, 'quiet': False, 'interfaces': None, 'minthreads': None, 'timeout': 10, 'plain': False, 'nobanner': False}>"
p3945
asbasbasbag57
(g73
g59
NtRp3946
(dp3947
g62
(dp3948
sg71
g3856
sg64
(lp3949
g57
(g78
g59
NtRp3950
(dp3951
g62
(dp3952
g82
g83
ssg71
g3946
sg64
(lp3953
g2810
asbag57
(g78
g59
NtRp3954
(dp3955
g62
(dp3956
g89
g90
ssg71
g3946
sg64
(lp3957
S':'
asbag57
(g78
g59
NtRp3958
(dp3959
g62
(dp3960
sg71
g3946
sg64
(lp3961
g57
(g58
g59
NtRp3962
(dp3963
g62
(dp3964
g70
I4
ssg71
g3958
sg64
(lp3965
S'set([])'
p3966
asbasbasbag57
(g73
g59
NtRp3967
(dp3968
g62
(dp3969
sg71
g3856
sg64
(lp3970
g57
(g78
g59
NtRp3971
(dp3972
g62
(dp3973
g82
g83
ssg71
g3967
sg64
(lp3974
g2832
asbag57
(g78
g59
NtRp3975
(dp3976
g62
(dp3977
g89
g90
ssg71
g3967
sg64
(lp3978
S':'
asbag57
(g78
g59
NtRp3979
(dp3980
g62
(dp3981
sg71
g3967
sg64
(lp3982
g57
(g58
g59
NtRp3983
(dp3984
g62
(dp3985
g70
I4
ssg71
g3979
sg64
(lp3986
g100
asbasbasbag57
(g73
g59
NtRp3987
(dp3988
g62
(dp3989
sg71
g3856
sg64
(lp3990
g57
(g78
g59
NtRp3991
(dp3992
g62
(dp3993
g82
g83
ssg71
g3987
sg64
(lp3994
g2853
asbag57
(g78
g59
NtRp3995
(dp3996
g62
(dp3997
g89
g90
ssg71
g3987
sg64
(lp3998
S':'
asbag57
(g78
g59
NtRp3999
(dp4000
g62
(dp4001
sg71
g3987
sg64
(lp4002
g57
(g58
g59
NtRp4003
(dp4004
g62
(dp4005
g70
I4
ssg71
g3999
sg64
(lp4006
g2866
asbasbasbag57
(g73
g59
NtRp4007
(dp4008
g62
(dp4009
sg71
g3856
sg64
(lp4010
g57
(g78
g59
NtRp4011
(dp4012
g62
(dp4013
g82
g83
ssg71
g4007
sg64
(lp4014
g3073
asbag57
(g78
g59
NtRp4015
(dp4016
g62
(dp4017
g89
g90
ssg71
g4007
sg64
(lp4018
S':'
asbag57
(g78
g59
NtRp4019
(dp4020
g62
(dp4021
sg71
g4007
sg64
(lp4022
g57
(g58
g59
NtRp4023
(dp4024
g62
(dp4025
g70
I4
ssg71
g4019
sg64
(lp4026
g100
asbasbasbag57
(g73
g59
NtRp4027
(dp4028
g62
(dp4029
sg71
g3856
sg64
(lp4030
g57
(g78
g59
NtRp4031
(dp4032
g62
(dp4033
g82
g83
ssg71
g4027
sg64
(lp4034
g3094
asbag57
(g78
g59
NtRp4035
(dp4036
g62
(dp4037
g89
g90
ssg71
g4027
sg64
(lp4038
S':'
asbag57
(g78
g59
NtRp4039
(dp4040
g62
(dp4041
sg71
g4027
sg64
(lp4042
g57
(g58
g59
NtRp4043
(dp4044
g62
(dp4045
g70
I4
ssg71
g4039
sg64
(lp4046
g100
asbasbasbag57
(g73
g59
NtRp4047
(dp4048
g62
(dp4049
sg71
g3856
sg64
(lp4050
g57
(g78
g59
NtRp4051
(dp4052
g62
(dp4053
g82
g83
ssg71
g4047
sg64
(lp4054
g3115
asbag57
(g78
g59
NtRp4055
(dp4056
g62
(dp4057
g89
g90
ssg71
g4047
sg64
(lp4058
S':'
asbag57
(g78
g59
NtRp4059
(dp4060
g62
(dp4061
sg71
g4047
sg64
(lp4062
g57
(g58
g59
NtRp4063
(dp4064
g62
(dp4065
g70
I4
ssg71
g4059
sg64
(lp4066
g57
(g66
g59
NtRp4067
(dp4068
g62
(dp4069
g70
I3
ssg71
Nsg64
(lp4070
g57
(g73
g59
NtRp4071
(dp4072
g62
(dp4073
sg71
g4067
sg64
(lp4074
g57
(g78
g59
NtRp4075
(dp4076
g62
(dp4077
sg71
g4071
sg64
(lp4078
g57
(g58
g59
NtRp4079
(dp4080
g62
(dp4081
g70
I3
ssg71
g4075
sg64
(lp4082
g3144
asbasbasbag57
(g73
g59
NtRp4083
(dp4084
g62
(dp4085
sg71
g4067
sg64
(lp4086
g57
(g78
g59
NtRp4087
(dp4088
g62
(dp4089
sg71
g4083
sg64
(lp4090
g57
(g58
g59
NtRp4091
(dp4092
g62
(dp4093
g70
I3
ssg71
g4087
sg64
(lp4094
g3157
asbasbasbag57
(g73
g59
NtRp4095
(dp4096
g62
(dp4097
sg71
g4067
sg64
(lp4098
g57
(g78
g59
NtRp4099
(dp4100
g62
(dp4101
sg71
g4095
sg64
(lp4102
g57
(g58
g59
NtRp4103
(dp4104
g62
(dp4105
g70
I3
ssg71
g4099
sg64
(lp4106
g3170
asbasbasbag57
(g73
g59
NtRp4107
(dp4108
g62
(dp4109
sg71
g4067
sg64
(lp4110
g57
(g78
g59
NtRp4111
(dp4112
g62
(dp4113
sg71
g4107
sg64
(lp4114
g57
(g58
g59
NtRp4115
(dp4116
g62
(dp4117
g70
I3
ssg71
g4111
sg64
(lp4118
g3183
asbasbasbag57
(g73
g59
NtRp4119
(dp4120
g62
(dp4121
sg71
g4067
sg64
(lp4122
g57
(g78
g59
NtRp4123
(dp4124
g62
(dp4125
sg71
g4119
sg64
(lp4126
g57
(g58
g59
NtRp4127
(dp4128
g62
(dp4129
g70
I3
ssg71
g4123
sg64
(lp4130
g3196
asbasbasbasbasbasbasbag57
(g73
g59
NtRp4131
(dp4132
g62
(dp4133
sg71
g3856
sg64
(lp4134
g57
(g78
g59
NtRp4135
(dp4136
g62
(dp4137
g82
g83
ssg71
g4131
sg64
(lp4138
g3464
asbag57
(g78
g59
NtRp4139
(dp4140
g62
(dp4141
g89
g90
ssg71
g4131
sg64
(lp4142
S':'
asbag57
(g78
g59
NtRp4143
(dp4144
g62
(dp4145
sg71
g4131
sg64
(lp4146
g57
(g58
g59
NtRp4147
(dp4148
g62
(dp4149
g70
I4
ssg71
g4143
sg64
(lp4150
g57
(g66
g59
NtRp4151
(dp4152
g62
(dp4153
g70
I3
ssg71
Nsg64
(lp4154
g57
(g73
g59
NtRp4155
(dp4156
g62
(dp4157
sg71
g4151
sg64
(lp4158
g57
(g78
g59
NtRp4159
(dp4160
g62
(dp4161
sg71
g4155
sg64
(lp4162
g57
(g58
g59
NtRp4163
(dp4164
g62
(dp4165
g70
I3
ssg71
g4159
sg64
(lp4166
S'2'
asbasbasbag57
(g73
g59
NtRp4167
(dp4168
g62
(dp4169
sg71
g4151
sg64
(lp4170
g57
(g78
g59
NtRp4171
(dp4172
g62
(dp4173
sg71
g4167
sg64
(lp4174
g57
(g58
g59
NtRp4175
(dp4176
g62
(dp4177
g70
I3
ssg71
g4171
sg64
(lp4178
S'3'
asbasbasbag57
(g73
g59
NtRp4179
(dp4180
g62
(dp4181
sg71
g4151
sg64
(lp4182
g57
(g78
g59
NtRp4183
(dp4184
g62
(dp4185
sg71
g4179
sg64
(lp4186
g57
(g58
g59
NtRp4187
(dp4188
g62
(dp4189
g70
I3
ssg71
g4183
sg64
(lp4190
S'2'
asbasbasbag57
(g73
g59
NtRp4191
(dp4192
g62
(dp4193
sg71
g4151
sg64
(lp4194
g57
(g78
g59
NtRp4195
(dp4196
g62
(dp4197
sg71
g4191
sg64
(lp4198
g57
(g58
g59
NtRp4199
(dp4200
g62
(dp4201
g70
I3
ssg71
g4195
sg64
(lp4202
S'datetime.datetime(2012, 12, 17, 15, 3, 30)'
p4203
asbasbasbag57
(g73
g59
NtRp4204
(dp4205
g62
(dp4206
sg71
g4151
sg64
(lp4207
g57
(g78
g59
NtRp4208
(dp4209
g62
(dp4210
sg71
g4204
sg64
(lp4211
g57
(g58
g59
NtRp4212
(dp4213
g62
(dp4214
g70
I3
ssg71
g4208
sg64
(lp4215
g3542
asbasbasbasbasbasbasbasbasbasbasbag57
(g73
g59
NtRp4216
(dp4217
g62
(dp4218
sg71
g67
sg64
(lp4219
g57
(g78
g59
NtRp4220
(dp4221
g62
(dp4222
g82
g83
ssg71
g4216
sg64
(lp4223
S'is_https'
p4224
asbag57
(g78
g59
NtRp4225
(dp4226
g62
(dp4227
g89
g90
ssg71
g4216
sg64
(lp4228
S':'
asbag57
(g78
g59
NtRp4229
(dp4230
g62
(dp4231
sg71
g4216
sg64
(lp4232
g57
(g58
g59
NtRp4233
(dp4234
g62
(dp4235
g70
I5
ssg71
g4229
sg64
(lp4236
g100
asbasbasbag57
(g73
g59
NtRp4237
(dp4238
g62
(dp4239
sg71
g67
sg64
(lp4240
g57
(g78
g59
NtRp4241
(dp4242
g62
(dp4243
g82
g83
ssg71
g4237
sg64
(lp4244
S'is_local'
p4245
asbag57
(g78
g59
NtRp4246
(dp4247
g62
(dp4248
g89
g90
ssg71
g4237
sg64
(lp4249
S':'
asbag57
(g78
g59
NtRp4250
(dp4251
g62
(dp4252
sg71
g4237
sg64
(lp4253
g57
(g58
g59
NtRp4254
(dp4255
g62
(dp4256
g70
I5
ssg71
g4250
sg64
(lp4257
g3651
asbasbasbag57
(g73
g59
NtRp4258
(dp4259
g62
(dp4260
sg71
g67
sg64
(lp4261
g57
(g78
g59
NtRp4262
(dp4263
g62
(dp4264
g82
g83
ssg71
g4258
sg64
(lp4265
S'is_restful'
p4266
asbag57
(g78
g59
NtRp4267
(dp4268
g62
(dp4269
g89
g90
ssg71
g4258
sg64
(lp4270
S':'
asbag57
(g78
g59
NtRp4271
(dp4272
g62
(dp4273
sg71
g4258
sg64
(lp4274
g57
(g58
g59
NtRp4275
(dp4276
g62
(dp4277
g70
I5
ssg71
g4271
sg64
(lp4278
g100
asbasbasbag57
(g73
g59
NtRp4279
(dp4280
g62
(dp4281
sg71
g67
sg64
(lp4282
g57
(g78
g59
NtRp4283
(dp4284
g62
(dp4285
g82
g83
ssg71
g4279
sg64
(lp4286
S'now'
p4287
asbag57
(g78
g59
NtRp4288
(dp4289
g62
(dp4290
g89
g90
ssg71
g4279
sg64
(lp4291
S':'
asbag57
(g78
g59
NtRp4292
(dp4293
g62
(dp4294
sg71
g4279
sg64
(lp4295
g57
(g58
g59
NtRp4296
(dp4297
g62
(dp4298
g70
I5
ssg71
g4292
sg64
(lp4299
S'datetime.datetime(2013, 8, 30, 19, 42, 42, 212673)'
p4300
asbasbasbag57
(g73
g59
NtRp4301
(dp4302
g62
(dp4303
sg71
g67
sg64
(lp4304
g57
(g78
g59
NtRp4305
(dp4306
g62
(dp4307
g82
g83
ssg71
g4301
sg64
(lp4308
S'post_vars'
p4309
asbag57
(g78
g59
NtRp4310
(dp4311
g62
(dp4312
g89
g90
ssg71
g4301
sg64
(lp4313
S':'
asbag57
(g78
g59
NtRp4314
(dp4315
g62
(dp4316
sg71
g4301
sg64
(lp4317
g57
(g58
g59
NtRp4318
(dp4319
g62
(dp4320
g70
I5
ssg71
g4314
sg64
(lp4321
g57
(g66
g59
NtRp4322
(dp4323
g62
(dp4324
g70
I4
ssg71
Nsg64
(lp4325
sbasbasbasbag57
(g73
g59
NtRp4326
(dp4327
g62
(dp4328
sg71
g67
sg64
(lp4329
g57
(g78
g59
NtRp4330
(dp4331
g62
(dp4332
g82
g83
ssg71
g4326
sg64
(lp4333
S'raw_args'
p4334
asbag57
(g78
g59
NtRp4335
(dp4336
g62
(dp4337
g89
g90
ssg71
g4326
sg64
(lp4338
S':'
asbag57
(g78
g59
NtRp4339
(dp4340
g62
(dp4341
sg71
g4326
sg64
(lp4342
g57
(g58
g59
NtRp4343
(dp4344
g62
(dp4345
g70
I5
ssg71
g4339
sg64
(lp4346
S''
asbasbasbag57
(g73
g59
NtRp4347
(dp4348
g62
(dp4349
sg71
g67
sg64
(lp4350
g57
(g78
g59
NtRp4351
(dp4352
g62
(dp4353
g82
g83
ssg71
g4347
sg64
(lp4354
S'raw_extension'
p4355
asbag57
(g78
g59
NtRp4356
(dp4357
g62
(dp4358
g89
g90
ssg71
g4347
sg64
(lp4359
S':'
asbag57
(g78
g59
NtRp4360
(dp4361
g62
(dp4362
sg71
g4347
sg64
(lp4363
g57
(g58
g59
NtRp4364
(dp4365
g62
(dp4366
g70
I5
ssg71
g4360
sg64
(lp4367
S'None'
p4368
asbasbasbag57
(g73
g59
NtRp4369
(dp4370
g62
(dp4371
sg71
g67
sg64
(lp4372
g57
(g78
g59
NtRp4373
(dp4374
g62
(dp4375
g82
g83
ssg71
g4369
sg64
(lp4376
S'url'
p4377
asbag57
(g78
g59
NtRp4378
(dp4379
g62
(dp4380
g89
g90
ssg71
g4369
sg64
(lp4381
S':'
asbag57
(g78
g59
NtRp4382
(dp4383
g62
(dp4384
sg71
g4369
sg64
(lp4385
g57
(g58
g59
NtRp4386
(dp4387
g62
(dp4388
g70
I5
ssg71
g4382
sg64
(lp4389
g3218
asbasbasbag57
(g73
g59
NtRp4390
(dp4391
g62
(dp4392
sg71
g67
sg64
(lp4393
g57
(g78
g59
NtRp4394
(dp4395
g62
(dp4396
g82
g83
ssg71
g4390
sg64
(lp4397
S'utcnow'
p4398
asbag57
(g78
g59
NtRp4399
(dp4400
g62
(dp4401
g89
g90
ssg71
g4390
sg64
(lp4402
S':'
asbag57
(g78
g59
NtRp4403
(dp4404
g62
(dp4405
sg71
g4390
sg64
(lp4406
g57
(g58
g59
NtRp4407
(dp4408
g62
(dp4409
g70
I5
ssg71
g4403
sg64
(lp4410
S'datetime.datetime(2013, 8, 30, 14, 12, 42, 212703)'
p4411
asbasbasbag57
(g73
g59
NtRp4412
(dp4413
g62
(dp4414
sg71
g67
sg64
(lp4415
g57
(g78
g59
NtRp4416
(dp4417
g62
(dp4418
g82
g83
ssg71
g4412
sg64
(lp4419
S'uuid'
p4420
asbag57
(g78
g59
NtRp4421
(dp4422
g62
(dp4423
g89
g90
ssg71
g4412
sg64
(lp4424
S':'
asbag57
(g78
g59
NtRp4425
(dp4426
g62
(dp4427
sg71
g4412
sg64
(lp4428
g57
(g58
g59
NtRp4429
(dp4430
g62
(dp4431
g70
I5
ssg71
g4425
sg64
(lp4432
S'reddit/127.0.0.1.2013-08-30.19-42-42.3c9cbd17-5633-41b6-8101-6f38d85a446c'
p4433
asbasbasbag57
(g73
g59
NtRp4434
(dp4435
g62
(dp4436
sg71
g67
sg64
(lp4437
g57
(g78
g59
NtRp4438
(dp4439
g62
(dp4440
g82
g83
ssg71
g4434
sg64
(lp4441
S'vars'
p4442
asbag57
(g78
g59
NtRp4443
(dp4444
g62
(dp4445
g89
g90
ssg71
g4434
sg64
(lp4446
S':'
asbag57
(g78
g59
NtRp4447
(dp4448
g62
(dp4449
sg71
g4434
sg64
(lp4450
g57
(g58
g59
NtRp4451
(dp4452
g62
(dp4453
g70
I5
ssg71
g4447
sg64
(lp4454
g57
(g66
g59
NtRp4455
(dp4456
g62
(dp4457
g70
I4
ssg71
Nsg64
(lp4458
sbasbasbasbag57
(g73
g59
NtRp4459
(dp4460
g62
(dp4461
sg71
g67
sg64
(lp4462
g57
(g78
g59
NtRp4463
(dp4464
g62
(dp4465
g82
g83
ssg71
g4459
sg64
(lp4466
S'wsgi'
p4467
asbag57
(g78
g59
NtRp4468
(dp4469
g62
(dp4470
g89
g90
ssg71
g4459
sg64
(lp4471
S':'
asbag57
(g78
g59
NtRp4472
(dp4473
g62
(dp4474
sg71
g4459
sg64
(lp4475
g57
(g58
g59
NtRp4476
(dp4477
g62
(dp4478
g70
I5
ssg71
g4472
sg64
(lp4479
g57
(g66
g59
NtRp4480
(dp4481
g62
(dp4482
g70
I4
ssg71
Nsg64
(lp4483
g57
(g73
g59
NtRp4484
(dp4485
g62
(dp4486
sg71
g4480
sg64
(lp4487
g57
(g78
g59
NtRp4488
(dp4489
g62
(dp4490
g82
g83
ssg71
g4484
sg64
(lp4491
S'environ'
p4492
asbag57
(g78
g59
NtRp4493
(dp4494
g62
(dp4495
g89
g90
ssg71
g4484
sg64
(lp4496
S':'
asbag57
(g78
g59
NtRp4497
(dp4498
g62
(dp4499
sg71
g4484
sg64
(lp4500
g57
(g58
g59
NtRp4501
(dp4502
g62
(dp4503
g70
I4
ssg71
g4497
sg64
(lp4504
g57
(g66
g59
NtRp4505
(dp4506
g62
(dp4507
g70
I3
ssg71
Nsg64
(lp4508
g57
(g73
g59
NtRp4509
(dp4510
g62
(dp4511
sg71
g4505
sg64
(lp4512
g57
(g78
g59
NtRp4513
(dp4514
g62
(dp4515
g82
g83
ssg71
g4509
sg64
(lp4516
S'HTTP_ACCEPT'
p4517
asbag57
(g78
g59
NtRp4518
(dp4519
g62
(dp4520
g89
g90
ssg71
g4509
sg64
(lp4521
S':'
asbag57
(g78
g59
NtRp4522
(dp4523
g62
(dp4524
sg71
g4509
sg64
(lp4525
g57
(g58
g59
NtRp4526
(dp4527
g62
(dp4528
g70
I3
ssg71
g4522
sg64
(lp4529
g2888
asbasbasbag57
(g73
g59
NtRp4530
(dp4531
g62
(dp4532
sg71
g4505
sg64
(lp4533
g57
(g78
g59
NtRp4534
(dp4535
g62
(dp4536
g82
g83
ssg71
g4530
sg64
(lp4537
S'HTTP_ACCEPT_ENCODING'
p4538
asbag57
(g78
g59
NtRp4539
(dp4540
g62
(dp4541
g89
g90
ssg71
g4530
sg64
(lp4542
S':'
asbag57
(g78
g59
NtRp4543
(dp4544
g62
(dp4545
sg71
g4530
sg64
(lp4546
g57
(g58
g59
NtRp4547
(dp4548
g62
(dp4549
g70
I3
ssg71
g4543
sg64
(lp4550
g2910
asbasbasbag57
(g73
g59
NtRp4551
(dp4552
g62
(dp4553
sg71
g4505
sg64
(lp4554
g57
(g78
g59
NtRp4555
(dp4556
g62
(dp4557
g82
g83
ssg71
g4551
sg64
(lp4558
S'HTTP_ACCEPT_LANGUAGE'
p4559
asbag57
(g78
g59
NtRp4560
(dp4561
g62
(dp4562
g89
g90
ssg71
g4551
sg64
(lp4563
S':'
asbag57
(g78
g59
NtRp4564
(dp4565
g62
(dp4566
sg71
g4551
sg64
(lp4567
g57
(g58
g59
NtRp4568
(dp4569
g62
(dp4570
g70
I3
ssg71
g4564
sg64
(lp4571
g2932
asbasbasbag57
(g73
g59
NtRp4572
(dp4573
g62
(dp4574
sg71
g4505
sg64
(lp4575
g57
(g78
g59
NtRp4576
(dp4577
g62
(dp4578
g82
g83
ssg71
g4572
sg64
(lp4579
S'HTTP_CACHE_CONTROL'
p4580
asbag57
(g78
g59
NtRp4581
(dp4582
g62
(dp4583
g89
g90
ssg71
g4572
sg64
(lp4584
S':'
asbag57
(g78
g59
NtRp4585
(dp4586
g62
(dp4587
sg71
g4572
sg64
(lp4588
g57
(g58
g59
NtRp4589
(dp4590
g62
(dp4591
g70
I3
ssg71
g4585
sg64
(lp4592
g2954
asbasbasbag57
(g73
g59
NtRp4593
(dp4594
g62
(dp4595
sg71
g4505
sg64
(lp4596
g57
(g78
g59
NtRp4597
(dp4598
g62
(dp4599
g82
g83
ssg71
g4593
sg64
(lp4600
S'HTTP_CONNECTION'
p4601
asbag57
(g78
g59
NtRp4602
(dp4603
g62
(dp4604
g89
g90
ssg71
g4593
sg64
(lp4605
S':'
asbag57
(g78
g59
NtRp4606
(dp4607
g62
(dp4608
sg71
g4593
sg64
(lp4609
g57
(g58
g59
NtRp4610
(dp4611
g62
(dp4612
g70
I3
ssg71
g4606
sg64
(lp4613
g2976
asbasbasbag57
(g73
g59
NtRp4614
(dp4615
g62
(dp4616
sg71
g4505
sg64
(lp4617
g57
(g78
g59
NtRp4618
(dp4619
g62
(dp4620
g82
g83
ssg71
g4614
sg64
(lp4621
S'HTTP_COOKIE'
p4622
asbag57
(g78
g59
NtRp4623
(dp4624
g62
(dp4625
g89
g90
ssg71
g4614
sg64
(lp4626
S':'
asbag57
(g78
g59
NtRp4627
(dp4628
g62
(dp4629
sg71
g4614
sg64
(lp4630
g57
(g58
g59
NtRp4631
(dp4632
g62
(dp4633
g70
I3
ssg71
g4627
sg64
(lp4634
g2998
asbasbasbag57
(g73
g59
NtRp4635
(dp4636
g62
(dp4637
sg71
g4505
sg64
(lp4638
g57
(g78
g59
NtRp4639
(dp4640
g62
(dp4641
g82
g83
ssg71
g4635
sg64
(lp4642
S'HTTP_HOST'
p4643
asbag57
(g78
g59
NtRp4644
(dp4645
g62
(dp4646
g89
g90
ssg71
g4635
sg64
(lp4647
S':'
asbag57
(g78
g59
NtRp4648
(dp4649
g62
(dp4650
sg71
g4635
sg64
(lp4651
g57
(g58
g59
NtRp4652
(dp4653
g62
(dp4654
g70
I3
ssg71
g4648
sg64
(lp4655
g3020
asbasbasbag57
(g73
g59
NtRp4656
(dp4657
g62
(dp4658
sg71
g4505
sg64
(lp4659
g57
(g78
g59
NtRp4660
(dp4661
g62
(dp4662
g82
g83
ssg71
g4656
sg64
(lp4663
S'HTTP_REFERER'
p4664
asbag57
(g78
g59
NtRp4665
(dp4666
g62
(dp4667
g89
g90
ssg71
g4656
sg64
(lp4668
S':'
asbag57
(g78
g59
NtRp4669
(dp4670
g62
(dp4671
sg71
g4656
sg64
(lp4672
g57
(g58
g59
NtRp4673
(dp4674
g62
(dp4675
g70
I3
ssg71
g4669
sg64
(lp4676
g3042
asbasbasbag57
(g73
g59
NtRp4677
(dp4678
g62
(dp4679
sg71
g4505
sg64
(lp4680
g57
(g78
g59
NtRp4681
(dp4682
g62
(dp4683
g82
g83
ssg71
g4677
sg64
(lp4684
S'HTTP_USER_AGENT'
p4685
asbag57
(g78
g59
NtRp4686
(dp4687
g62
(dp4688
g89
g90
ssg71
g4677
sg64
(lp4689
S':'
asbag57
(g78
g59
NtRp4690
(dp4691
g62
(dp4692
sg71
g4677
sg64
(lp4693
g57
(g58
g59
NtRp4694
(dp4695
g62
(dp4696
g70
I3
ssg71
g4690
sg64
(lp4697
g3064
asbasbasbag57
(g73
g59
NtRp4698
(dp4699
g62
(dp4700
sg71
g4505
sg64
(lp4701
g57
(g78
g59
NtRp4702
(dp4703
g62
(dp4704
g82
g83
ssg71
g4698
sg64
(lp4705
S'PATH_INFO'
p4706
asbag57
(g78
g59
NtRp4707
(dp4708
g62
(dp4709
g89
g90
ssg71
g4698
sg64
(lp4710
S':'
asbag57
(g78
g59
NtRp4711
(dp4712
g62
(dp4713
sg71
g4698
sg64
(lp4714
g57
(g58
g59
NtRp4715
(dp4716
g62
(dp4717
g70
I3
ssg71
g4711
sg64
(lp4718
g3218
asbasbasbag57
(g73
g59
NtRp4719
(dp4720
g62
(dp4721
sg71
g4505
sg64
(lp4722
g57
(g78
g59
NtRp4723
(dp4724
g62
(dp4725
g82
g83
ssg71
g4719
sg64
(lp4726
S'QUERY_STRING'
p4727
asbag57
(g78
g59
NtRp4728
(dp4729
g62
(dp4730
g89
g90
ssg71
g4719
sg64
(lp4731
S':'
asbag57
(g78
g59
NtRp4732
(dp4733
g62
(dp4734
sg71
g4719
sg64
(lp4735
g57
(g58
g59
NtRp4736
(dp4737
g62
(dp4738
g70
I3
ssg71
g4732
sg64
(lp4739
S''
asbasbasbag57
(g73
g59
NtRp4740
(dp4741
g62
(dp4742
sg71
g4505
sg64
(lp4743
g57
(g78
g59
NtRp4744
(dp4745
g62
(dp4746
g82
g83
ssg71
g4740
sg64
(lp4747
S'REMOTE_ADDR'
p4748
asbag57
(g78
g59
NtRp4749
(dp4750
g62
(dp4751
g89
g90
ssg71
g4740
sg64
(lp4752
S':'
asbag57
(g78
g59
NtRp4753
(dp4754
g62
(dp4755
sg71
g4740
sg64
(lp4756
g57
(g58
g59
NtRp4757
(dp4758
g62
(dp4759
g70
I3
ssg71
g4753
sg64
(lp4760
g212
asbasbasbag57
(g73
g59
NtRp4761
(dp4762
g62
(dp4763
sg71
g4505
sg64
(lp4764
g57
(g78
g59
NtRp4765
(dp4766
g62
(dp4767
g82
g83
ssg71
g4761
sg64
(lp4768
S'REMOTE_PORT'
p4769
asbag57
(g78
g59
NtRp4770
(dp4771
g62
(dp4772
g89
g90
ssg71
g4761
sg64
(lp4773
S':'
asbag57
(g78
g59
NtRp4774
(dp4775
g62
(dp4776
sg71
g4761
sg64
(lp4777
g57
(g58
g59
NtRp4778
(dp4779
g62
(dp4780
g70
I3
ssg71
g4774
sg64
(lp4781
g3282
asbasbasbag57
(g73
g59
NtRp4782
(dp4783
g62
(dp4784
sg71
g4505
sg64
(lp4785
g57
(g78
g59
NtRp4786
(dp4787
g62
(dp4788
g82
g83
ssg71
g4782
sg64
(lp4789
S'REQUEST_METHOD'
p4790
asbag57
(g78
g59
NtRp4791
(dp4792
g62
(dp4793
g89
g90
ssg71
g4782
sg64
(lp4794
S':'
asbag57
(g78
g59
NtRp4795
(dp4796
g62
(dp4797
sg71
g4782
sg64
(lp4798
g57
(g58
g59
NtRp4799
(dp4800
g62
(dp4801
g70
I3
ssg71
g4795
sg64
(lp4802
g3304
asbasbasbag57
(g73
g59
NtRp4803
(dp4804
g62
(dp4805
sg71
g4505
sg64
(lp4806
g57
(g78
g59
NtRp4807
(dp4808
g62
(dp4809
g82
g83
ssg71
g4803
sg64
(lp4810
S'REQUEST_URI'
p4811
asbag57
(g78
g59
NtRp4812
(dp4813
g62
(dp4814
g89
g90
ssg71
g4803
sg64
(lp4815
S':'
asbag57
(g78
g59
NtRp4816
(dp4817
g62
(dp4818
sg71
g4803
sg64
(lp4819
g57
(g58
g59
NtRp4820
(dp4821
g62
(dp4822
g70
I3
ssg71
g4816
sg64
(lp4823
g3218
asbasbasbag57
(g73
g59
NtRp4824
(dp4825
g62
(dp4826
sg71
g4505
sg64
(lp4827
g57
(g78
g59
NtRp4828
(dp4829
g62
(dp4830
g82
g83
ssg71
g4824
sg64
(lp4831
S'SCRIPT_NAME'
p4832
asbag57
(g78
g59
NtRp4833
(dp4834
g62
(dp4835
g89
g90
ssg71
g4824
sg64
(lp4836
S':'
asbag57
(g78
g59
NtRp4837
(dp4838
g62
(dp4839
sg71
g4824
sg64
(lp4840
g57
(g58
g59
NtRp4841
(dp4842
g62
(dp4843
g70
I3
ssg71
g4837
sg64
(lp4844
S''
asbasbasbag57
(g73
g59
NtRp4845
(dp4846
g62
(dp4847
sg71
g4505
sg64
(lp4848
g57
(g78
g59
NtRp4849
(dp4850
g62
(dp4851
g82
g83
ssg71
g4845
sg64
(lp4852
S'SERVER_NAME'
p4853
asbag57
(g78
g59
NtRp4854
(dp4855
g62
(dp4856
g89
g90
ssg71
g4845
sg64
(lp4857
S':'
asbag57
(g78
g59
NtRp4858
(dp4859
g62
(dp4860
sg71
g4845
sg64
(lp4861
g57
(g58
g59
NtRp4862
(dp4863
g62
(dp4864
g70
I3
ssg71
g4858
sg64
(lp4865
g3368
asbasbasbag57
(g73
g59
NtRp4866
(dp4867
g62
(dp4868
sg71
g4505
sg64
(lp4869
g57
(g78
g59
NtRp4870
(dp4871
g62
(dp4872
g82
g83
ssg71
g4866
sg64
(lp4873
S'SERVER_PORT'
p4874
asbag57
(g78
g59
NtRp4875
(dp4876
g62
(dp4877
g89
g90
ssg71
g4866
sg64
(lp4878
S':'
asbag57
(g78
g59
NtRp4879
(dp4880
g62
(dp4881
sg71
g4866
sg64
(lp4882
g57
(g58
g59
NtRp4883
(dp4884
g62
(dp4885
g70
I3
ssg71
g4879
sg64
(lp4886
g3390
asbasbasbag57
(g73
g59
NtRp4887
(dp4888
g62
(dp4889
sg71
g4505
sg64
(lp4890
g57
(g78
g59
NtRp4891
(dp4892
g62
(dp4893
g82
g83
ssg71
g4887
sg64
(lp4894
S'SERVER_PROTOCOL'
p4895
asbag57
(g78
g59
NtRp4896
(dp4897
g62
(dp4898
g89
g90
ssg71
g4887
sg64
(lp4899
S':'
asbag57
(g78
g59
NtRp4900
(dp4901
g62
(dp4902
sg71
g4887
sg64
(lp4903
g57
(g58
g59
NtRp4904
(dp4905
g62
(dp4906
g70
I3
ssg71
g4900
sg64
(lp4907
g3412
asbasbasbag57
(g73
g59
NtRp4908
(dp4909
g62
(dp4910
sg71
g4505
sg64
(lp4911
g57
(g78
g59
NtRp4912
(dp4913
g62
(dp4914
g82
g83
ssg71
g4908
sg64
(lp4915
S'SERVER_SOFTWARE'
p4916
asbag57
(g78
g59
NtRp4917
(dp4918
g62
(dp4919
g89
g90
ssg71
g4908
sg64
(lp4920
S':'
asbag57
(g78
g59
NtRp4921
(dp4922
g62
(dp4923
sg71
g4908
sg64
(lp4924
g57
(g58
g59
NtRp4925
(dp4926
g62
(dp4927
g70
I3
ssg71
g4921
sg64
(lp4928
g3434
asbasbasbag57
(g73
g59
NtRp4929
(dp4930
g62
(dp4931
sg71
g4505
sg64
(lp4932
g57
(g78
g59
NtRp4933
(dp4934
g62
(dp4935
g82
g83
ssg71
g4929
sg64
(lp4936
S'wsgi.errors'
p4937
asbag57
(g78
g59
NtRp4938
(dp4939
g62
(dp4940
g89
g90
ssg71
g4929
sg64
(lp4941
S':'
asbag57
(g78
g59
NtRp4942
(dp4943
g62
(dp4944
sg71
g4929
sg64
(lp4945
g57
(g58
g59
NtRp4946
(dp4947
g62
(dp4948
g70
I3
ssg71
g4942
sg64
(lp4949
S"<open file '<stderr>', mode 'w' at 0xb73000d0>"
p4950
asbasbasbag57
(g73
g59
NtRp4951
(dp4952
g62
(dp4953
sg71
g4505
sg64
(lp4954
g57
(g78
g59
NtRp4955
(dp4956
g62
(dp4957
g82
g83
ssg71
g4951
sg64
(lp4958
S'wsgi.file_wrapper'
p4959
asbag57
(g78
g59
NtRp4960
(dp4961
g62
(dp4962
g89
g90
ssg71
g4951
sg64
(lp4963
S':'
asbag57
(g78
g59
NtRp4964
(dp4965
g62
(dp4966
sg71
g4951
sg64
(lp4967
g57
(g58
g59
NtRp4968
(dp4969
g62
(dp4970
g70
I3
ssg71
g4964
sg64
(lp4971
S'<class wsgiref.util.FileWrapper at 0x980905c>'
p4972
asbasbasbag57
(g73
g59
NtRp4973
(dp4974
g62
(dp4975
sg71
g4505
sg64
(lp4976
g57
(g78
g59
NtRp4977
(dp4978
g62
(dp4979
g82
g83
ssg71
g4973
sg64
(lp4980
S'wsgi.input'
p4981
asbag57
(g78
g59
NtRp4982
(dp4983
g62
(dp4984
g89
g90
ssg71
g4973
sg64
(lp4985
S':'
asbag57
(g78
g59
NtRp4986
(dp4987
g62
(dp4988
sg71
g4973
sg64
(lp4989
g57
(g58
g59
NtRp4990
(dp4991
g62
(dp4992
g70
I3
ssg71
g4986
sg64
(lp4993
S'<cStringIO.StringO object at 0xadc7cae0>'
p4994
asbasbasbag57
(g73
g59
NtRp4995
(dp4996
g62
(dp4997
sg71
g4505
sg64
(lp4998
g57
(g78
g59
NtRp4999
(dp5000
g62
(dp5001
g82
g83
ssg71
g4995
sg64
(lp5002
S'wsgi.multiprocess'
p5003
asbag57
(g78
g59
NtRp5004
(dp5005
g62
(dp5006
g89
g90
ssg71
g4995
sg64
(lp5007
S':'
asbag57
(g78
g59
NtRp5008
(dp5009
g62
(dp5010
sg71
g4995
sg64
(lp5011
g57
(g58
g59
NtRp5012
(dp5013
g62
(dp5014
g70
I3
ssg71
g5008
sg64
(lp5015
g100
asbasbasbag57
(g73
g59
NtRp5016
(dp5017
g62
(dp5018
sg71
g4505
sg64
(lp5019
g57
(g78
g59
NtRp5020
(dp5021
g62
(dp5022
g82
g83
ssg71
g5016
sg64
(lp5023
S'wsgi.multithread'
p5024
asbag57
(g78
g59
NtRp5025
(dp5026
g62
(dp5027
g89
g90
ssg71
g5016
sg64
(lp5028
S':'
asbag57
(g78
g59
NtRp5029
(dp5030
g62
(dp5031
sg71
g5016
sg64
(lp5032
g57
(g58
g59
NtRp5033
(dp5034
g62
(dp5035
g70
I3
ssg71
g5029
sg64
(lp5036
g3651
asbasbasbag57
(g73
g59
NtRp5037
(dp5038
g62
(dp5039
sg71
g4505
sg64
(lp5040
g57
(g78
g59
NtRp5041
(dp5042
g62
(dp5043
g82
g83
ssg71
g5037
sg64
(lp5044
S'wsgi.run_once'
p5045
asbag57
(g78
g59
NtRp5046
(dp5047
g62
(dp5048
g89
g90
ssg71
g5037
sg64
(lp5049
S':'
asbag57
(g78
g59
NtRp5050
(dp5051
g62
(dp5052
sg71
g5037
sg64
(lp5053
g57
(g58
g59
NtRp5054
(dp5055
g62
(dp5056
g70
I3
ssg71
g5050
sg64
(lp5057
g100
asbasbasbag57
(g73
g59
NtRp5058
(dp5059
g62
(dp5060
sg71
g4505
sg64
(lp5061
g57
(g78
g59
NtRp5062
(dp5063
g62
(dp5064
g82
g83
ssg71
g5058
sg64
(lp5065
S'wsgi.url_scheme'
p5066
asbag57
(g78
g59
NtRp5067
(dp5068
g62
(dp5069
g89
g90
ssg71
g5058
sg64
(lp5070
S':'
asbag57
(g78
g59
NtRp5071
(dp5072
g62
(dp5073
sg71
g5058
sg64
(lp5074
g57
(g58
g59
NtRp5075
(dp5076
g62
(dp5077
g70
I3
ssg71
g5071
sg64
(lp5078
g3694
asbasbasbag57
(g73
g59
NtRp5079
(dp5080
g62
(dp5081
sg71
g4505
sg64
(lp5082
g57
(g78
g59
NtRp5083
(dp5084
g62
(dp5085
g82
g83
ssg71
g5079
sg64
(lp5086
S'wsgi.version'
p5087
asbag57
(g78
g59
NtRp5088
(dp5089
g62
(dp5090
g89
g90
ssg71
g5079
sg64
(lp5091
S':'
asbag57
(g78
g59
NtRp5092
(dp5093
g62
(dp5094
sg71
g5079
sg64
(lp5095
g57
(g58
g59
NtRp5096
(dp5097
g62
(dp5098
g70
I3
ssg71
g5092
sg64
(lp5099
S'1'
asbasbasbasbasbasbasbasbasbasbasbasbasbsS'frames'
p5100
(lp5101
(dp5102
S'file'
p5103
S'/home/pankaj/web2py/gluon/restricted.py'
p5104
sS'dump'
p5105
(dp5106
S'environment'
p5107
S"{'A': <class 'gluon.html.A'>, 'Auth': <class 'gluon.tools.Auth'>, 'B': <class 'gluon.html.B'>, 'BEAUTIFY': <class 'gluon.html.BEAUTIFY'>, 'BODY': <class 'gluon.html.BODY'>, 'BR': <class 'gluon.html.BR'>, 'BUTTON': <class 'gluon.html.BUTTON'>, 'CAT': <class 'gluon.html.CAT'>, 'CENTER': <class 'gluon.html.CENTER'>, 'CLEANUP': <class 'gluon.validators.CLEANUP'>, ...}"
p5108
sS'ccode'
p5109
S'<code object <module> at 0xa083650, file "/home/...cations/reddit/views/default/index.html", line 1>'
p5110
ssS'lnum'
p5111
I212
sS'lines'
p5112
(dp5113
I207
S'    try:'
p5114
sI208
S'        if isinstance(code, types.CodeType):'
p5115
sI209
S'            ccode = code'
p5116
sI210
S'        else:'
p5117
sI211
S'            ccode = compile2(code, layer)'
p5118
sI212
S'        exec ccode in environment'
p5119
sI213
S'    except HTTP:'
p5120
sI214
S'        raise'
p5121
sI215
S'    except RestrictedError:'
p5122
sI216
S'        # do not encapsulate (obfuscate) the original RestrictedError'
p5123
ssS'call'
p5124
S'(code=\'response.write(\\\'<!DOCTYPE html>\\\\n<!-- paulirish...."></script>\\\\n</body>\\\\n</html>\\\\n\\\\n\\\', escape=False)\', environment={\'A\': <class \'gluon.html.A\'>, \'Auth\': <class \'gluon.tools.Auth\'>, \'B\': <class \'gluon.html.B\'>, \'BEAUTIFY\': <class \'gluon.html.BEAUTIFY\'>, \'BODY\': <class \'gluon.html.BODY\'>, \'BR\': <class \'gluon.html.BR\'>, \'BUTTON\': <class \'gluon.html.BUTTON\'>, \'CAT\': <class \'gluon.html.CAT\'>, \'CENTER\': <class \'gluon.html.CENTER\'>, \'CLEANUP\': <class \'gluon.validators.CLEANUP\'>, ...}, layer=\'/home/pankaj/web2py/applications/reddit/views/default/index.html\')'
p5125
sS'func'
p5126
S'restricted'
p5127
sa(dp5128
g5103
S'/home/pankaj/web2py/applications/reddit/views/default/index.html'
p5129
sg5105
(dp5130
sg5111
I109
sg5112
(dp5131
I100
S"        response.write('\\nLOL\\n', escape=False)"
p5132
sI101
S'        pass'
p5133
sI102
S"    response.write('\\n', escape=False)"
p5134
sI103
S'    if pcheck is None:'
p5135
sI104
S'        response.write(\'\\ncheck=-1\\n<form action="uplike" method="post">\\n\\t<input type="hidden" name="uid" id="uid" value="\', escape=False)'
p5136
sI105
S'        response.write(auth.user.id)'
p5137
sI106
S'        response.write(\'"/>\\n\\t<input type="hidden" name="nid" id="nid" value="\', escape=False)'
p5138
sI107
S"        response.write(l['id'])"
p5139
sI108
S'        response.write(\'"/>\\n\\t<button type="submit" name="check" id="check" value="1">Like</button>\\n\\t<button type="submit" name="check" id="check" value="2">Dislike</button>\\n</form>\\n\', escape=False)'
p5140
sI109
S'    elif check==0:'
p5141
sI110
S'        response.write(\'\\ncheck=0\\n<form action="uplike" method="post">\\n\\t<input type="hidden" name="uid" id="uid" value="\', escape=False)'
p5142
sI111
S'        response.write(auth.user.id)'
p5143
sI112
S'        response.write(\'"/>\\n\\t<input type="hidden" name="nid" id="nid" value="\', escape=False)'
p5144
sI113
S"        response.write(l['id'])"
p5145
sI114
S'        response.write(\'"/>\\n\\t<button type="submit" name="check" id="check" value="3">Like</button>\\n</form>\\n\', escape=False)'
p5146
sI115
S'    elif check==1:'
p5147
sI116
S'        response.write(\'\\ncheck=1\\n<form action="uplike" method="post">\\n\\t<input type="hidden" name="uid" id="uid" value="\', escape=False)'
p5148
sI117
S'        response.write(auth.user.id)'
p5149
sI118
S'        response.write(\'"/>\\n\\t<input type="hidden" name="nid" id="nid" value="\', escape=False)'
p5150
sI119
S"        response.write(l['id'])"
p5151
ssg5124
S'()'
p5152
sg5126
S'<module>'
p5153
sasS'pyver'
p5154
S'Python 2.7.3: /usr/bin/python'
p5155
sS'session'
p5156
g57
(g58
g59
NtRp5157
(dp5158
g62
(dp5159
sg64
(lp5160
g57
(g66
g59
NtRp5161
(dp5162
g62
(dp5163
g70
I5
ssg71
Nsg64
(lp5164
g57
(g73
g59
NtRp5165
(dp5166
g62
(dp5167
sg71
g5161
sg64
(lp5168
g57
(g78
g59
NtRp5169
(dp5170
g62
(dp5171
g82
g83
ssg71
g5165
sg64
(lp5172
S'auth'
p5173
asbag57
(g78
g59
NtRp5174
(dp5175
g62
(dp5176
g89
g90
ssg71
g5165
sg64
(lp5177
S':'
asbag57
(g78
g59
NtRp5178
(dp5179
g62
(dp5180
sg71
g5165
sg64
(lp5181
g57
(g58
g59
NtRp5182
(dp5183
g62
(dp5184
g70
I5
ssg71
g5178
sg64
(lp5185
g57
(g66
g59
NtRp5186
(dp5187
g62
(dp5188
g70
I4
ssg71
Nsg64
(lp5189
g57
(g73
g59
NtRp5190
(dp5191
g62
(dp5192
sg71
g5186
sg64
(lp5193
g57
(g78
g59
NtRp5194
(dp5195
g62
(dp5196
g82
g83
ssg71
g5190
sg64
(lp5197
S'expiration'
p5198
asbag57
(g78
g59
NtRp5199
(dp5200
g62
(dp5201
g89
g90
ssg71
g5190
sg64
(lp5202
S':'
asbag57
(g78
g59
NtRp5203
(dp5204
g62
(dp5205
sg71
g5190
sg64
(lp5206
g57
(g58
g59
NtRp5207
(dp5208
g62
(dp5209
g70
I4
ssg71
g5203
sg64
(lp5210
S'2592000'
p5211
asbasbasbag57
(g73
g59
NtRp5212
(dp5213
g62
(dp5214
sg71
g5186
sg64
(lp5215
g57
(g78
g59
NtRp5216
(dp5217
g62
(dp5218
g82
g83
ssg71
g5212
sg64
(lp5219
S'hmac_key'
p5220
asbag57
(g78
g59
NtRp5221
(dp5222
g62
(dp5223
g89
g90
ssg71
g5212
sg64
(lp5224
S':'
asbag57
(g78
g59
NtRp5225
(dp5226
g62
(dp5227
sg71
g5212
sg64
(lp5228
g57
(g58
g59
NtRp5229
(dp5230
g62
(dp5231
g70
I4
ssg71
g5225
sg64
(lp5232
S'f8ac37ec-2036-4076-bffe-8306279ac35a'
p5233
asbasbasbag57
(g73
g59
NtRp5234
(dp5235
g62
(dp5236
sg71
g5186
sg64
(lp5237
g57
(g78
g59
NtRp5238
(dp5239
g62
(dp5240
g82
g83
ssg71
g5234
sg64
(lp5241
S'last_visit'
p5242
asbag57
(g78
g59
NtRp5243
(dp5244
g62
(dp5245
g89
g90
ssg71
g5234
sg64
(lp5246
S':'
asbag57
(g78
g59
NtRp5247
(dp5248
g62
(dp5249
sg71
g5234
sg64
(lp5250
g57
(g58
g59
NtRp5251
(dp5252
g62
(dp5253
g70
I4
ssg71
g5247
sg64
(lp5254
S'datetime.datetime(2013, 8, 30, 1, 8, 1, 584665)'
p5255
asbasbasbag57
(g73
g59
NtRp5256
(dp5257
g62
(dp5258
sg71
g5186
sg64
(lp5259
g57
(g78
g59
NtRp5260
(dp5261
g62
(dp5262
g82
g83
ssg71
g5256
sg64
(lp5263
S'remember'
p5264
asbag57
(g78
g59
NtRp5265
(dp5266
g62
(dp5267
g89
g90
ssg71
g5256
sg64
(lp5268
S':'
asbag57
(g78
g59
NtRp5269
(dp5270
g62
(dp5271
sg71
g5256
sg64
(lp5272
g57
(g58
g59
NtRp5273
(dp5274
g62
(dp5275
g70
I4
ssg71
g5269
sg64
(lp5276
g3651
asbasbasbag57
(g73
g59
NtRp5277
(dp5278
g62
(dp5279
sg71
g5186
sg64
(lp5280
g57
(g78
g59
NtRp5281
(dp5282
g62
(dp5283
g82
g83
ssg71
g5277
sg64
(lp5284
S'user'
p5285
asbag57
(g78
g59
NtRp5286
(dp5287
g62
(dp5288
g89
g90
ssg71
g5277
sg64
(lp5289
S':'
asbag57
(g78
g59
NtRp5290
(dp5291
g62
(dp5292
sg71
g5277
sg64
(lp5293
g57
(g58
g59
NtRp5294
(dp5295
g62
(dp5296
g70
I4
ssg71
g5290
sg64
(lp5297
g57
(g66
g59
NtRp5298
(dp5299
g62
(dp5300
g70
I3
ssg71
Nsg64
(lp5301
g57
(g73
g59
NtRp5302
(dp5303
g62
(dp5304
sg71
g5298
sg64
(lp5305
g57
(g78
g59
NtRp5306
(dp5307
g62
(dp5308
g82
g83
ssg71
g5302
sg64
(lp5309
S'email'
p5310
asbag57
(g78
g59
NtRp5311
(dp5312
g62
(dp5313
g89
g90
ssg71
g5302
sg64
(lp5314
S':'
asbag57
(g78
g59
NtRp5315
(dp5316
g62
(dp5317
sg71
g5302
sg64
(lp5318
g57
(g58
g59
NtRp5319
(dp5320
g62
(dp5321
g70
I3
ssg71
g5315
sg64
(lp5322
S'pankaj@gmail.com'
p5323
asbasbasbag57
(g73
g59
NtRp5324
(dp5325
g62
(dp5326
sg71
g5298
sg64
(lp5327
g57
(g78
g59
NtRp5328
(dp5329
g62
(dp5330
g82
g83
ssg71
g5324
sg64
(lp5331
S'first_name'
p5332
asbag57
(g78
g59
NtRp5333
(dp5334
g62
(dp5335
g89
g90
ssg71
g5324
sg64
(lp5336
S':'
asbag57
(g78
g59
NtRp5337
(dp5338
g62
(dp5339
sg71
g5324
sg64
(lp5340
g57
(g58
g59
NtRp5341
(dp5342
g62
(dp5343
g70
I3
ssg71
g5337
sg64
(lp5344
S'pankaj'
p5345
asbasbasbag57
(g73
g59
NtRp5346
(dp5347
g62
(dp5348
sg71
g5298
sg64
(lp5349
g57
(g78
g59
NtRp5350
(dp5351
g62
(dp5352
g82
g83
ssg71
g5346
sg64
(lp5353
S'id'
p5354
asbag57
(g78
g59
NtRp5355
(dp5356
g62
(dp5357
g89
g90
ssg71
g5346
sg64
(lp5358
S':'
asbag57
(g78
g59
NtRp5359
(dp5360
g62
(dp5361
sg71
g5346
sg64
(lp5362
g57
(g58
g59
NtRp5363
(dp5364
g62
(dp5365
g70
I3
ssg71
g5359
sg64
(lp5366
S'1'
asbasbasbag57
(g73
g59
NtRp5367
(dp5368
g62
(dp5369
sg71
g5298
sg64
(lp5370
g57
(g78
g59
NtRp5371
(dp5372
g62
(dp5373
g82
g83
ssg71
g5367
sg64
(lp5374
S'last_name'
p5375
asbag57
(g78
g59
NtRp5376
(dp5377
g62
(dp5378
g89
g90
ssg71
g5367
sg64
(lp5379
S':'
asbag57
(g78
g59
NtRp5380
(dp5381
g62
(dp5382
sg71
g5367
sg64
(lp5383
g57
(g58
g59
NtRp5384
(dp5385
g62
(dp5386
g70
I3
ssg71
g5380
sg64
(lp5387
S'malhotra'
p5388
asbasbasbag57
(g73
g59
NtRp5389
(dp5390
g62
(dp5391
sg71
g5298
sg64
(lp5392
g57
(g78
g59
NtRp5393
(dp5394
g62
(dp5395
g82
g83
ssg71
g5389
sg64
(lp5396
S'registration_id'
p5397
asbag57
(g78
g59
NtRp5398
(dp5399
g62
(dp5400
g89
g90
ssg71
g5389
sg64
(lp5401
S':'
asbag57
(g78
g59
NtRp5402
(dp5403
g62
(dp5404
sg71
g5389
sg64
(lp5405
g57
(g58
g59
NtRp5406
(dp5407
g62
(dp5408
g70
I3
ssg71
g5402
sg64
(lp5409
S''
asbasbasbag57
(g73
g59
NtRp5410
(dp5411
g62
(dp5412
sg71
g5298
sg64
(lp5413
g57
(g78
g59
NtRp5414
(dp5415
g62
(dp5416
g82
g83
ssg71
g5410
sg64
(lp5417
S'registration_key'
p5418
asbag57
(g78
g59
NtRp5419
(dp5420
g62
(dp5421
g89
g90
ssg71
g5410
sg64
(lp5422
S':'
asbag57
(g78
g59
NtRp5423
(dp5424
g62
(dp5425
sg71
g5410
sg64
(lp5426
g57
(g58
g59
NtRp5427
(dp5428
g62
(dp5429
g70
I3
ssg71
g5423
sg64
(lp5430
S''
asbasbasbag57
(g73
g59
NtRp5431
(dp5432
g62
(dp5433
sg71
g5298
sg64
(lp5434
g57
(g78
g59
NtRp5435
(dp5436
g62
(dp5437
g82
g83
ssg71
g5431
sg64
(lp5438
S'reset_password_key'
p5439
asbag57
(g78
g59
NtRp5440
(dp5441
g62
(dp5442
g89
g90
ssg71
g5431
sg64
(lp5443
S':'
asbag57
(g78
g59
NtRp5444
(dp5445
g62
(dp5446
sg71
g5431
sg64
(lp5447
g57
(g58
g59
NtRp5448
(dp5449
g62
(dp5450
g70
I3
ssg71
g5444
sg64
(lp5451
S''
asbasbasbasbasbasbasbag57
(g73
g59
NtRp5452
(dp5453
g62
(dp5454
sg71
g5186
sg64
(lp5455
g57
(g78
g59
NtRp5456
(dp5457
g62
(dp5458
g82
g83
ssg71
g5452
sg64
(lp5459
S'user_groups'
p5460
asbag57
(g78
g59
NtRp5461
(dp5462
g62
(dp5463
g89
g90
ssg71
g5452
sg64
(lp5464
S':'
asbag57
(g78
g59
NtRp5465
(dp5466
g62
(dp5467
sg71
g5452
sg64
(lp5468
g57
(g58
g59
NtRp5469
(dp5470
g62
(dp5471
g70
I4
ssg71
g5465
sg64
(lp5472
g57
(g66
g59
NtRp5473
(dp5474
g62
(dp5475
g70
I3
ssg71
Nsg64
(lp5476
g57
(g73
g59
NtRp5477
(dp5478
g62
(dp5479
sg71
g5473
sg64
(lp5480
g57
(g78
g59
NtRp5481
(dp5482
g62
(dp5483
g82
g83
ssg71
g5477
sg64
(lp5484
S'1'
asbag57
(g78
g59
NtRp5485
(dp5486
g62
(dp5487
g89
g90
ssg71
g5477
sg64
(lp5488
S':'
asbag57
(g78
g59
NtRp5489
(dp5490
g62
(dp5491
sg71
g5477
sg64
(lp5492
g57
(g58
g59
NtRp5493
(dp5494
g62
(dp5495
g70
I3
ssg71
g5489
sg64
(lp5496
S'user_1'
p5497
asbasbasbasbasbasbasbasbasbasbasbag57
(g73
g59
NtRp5498
(dp5499
g62
(dp5500
sg71
g5161
sg64
(lp5501
g57
(g78
g59
NtRp5502
(dp5503
g62
(dp5504
g82
g83
ssg71
g5498
sg64
(lp5505
S'flash'
p5506
asbag57
(g78
g59
NtRp5507
(dp5508
g62
(dp5509
g89
g90
ssg71
g5498
sg64
(lp5510
S':'
asbag57
(g78
g59
NtRp5511
(dp5512
g62
(dp5513
sg71
g5498
sg64
(lp5514
g57
(g58
g59
NtRp5515
(dp5516
g62
(dp5517
g70
I5
ssg71
g5511
sg64
(lp5518
S'None'
p5519
asbasbasbag57
(g73
g59
NtRp5520
(dp5521
g62
(dp5522
sg71
g5161
sg64
(lp5523
g57
(g78
g59
NtRp5524
(dp5525
g62
(dp5526
g82
g83
ssg71
g5520
sg64
(lp5527
S'last_orderby'
p5528
asbag57
(g78
g59
NtRp5529
(dp5530
g62
(dp5531
g89
g90
ssg71
g5520
sg64
(lp5532
S':'
asbag57
(g78
g59
NtRp5533
(dp5534
g62
(dp5535
sg71
g5520
sg64
(lp5536
g57
(g58
g59
NtRp5537
(dp5538
g62
(dp5539
g70
I5
ssg71
g5533
sg64
(lp5540
S'None'
p5541
asbasbasbag57
(g73
g59
NtRp5542
(dp5543
g62
(dp5544
sg71
g5161
sg64
(lp5545
g57
(g78
g59
NtRp5546
(dp5547
g62
(dp5548
g82
g83
ssg71
g5542
sg64
(lp5549
S'last_query'
p5550
asbag57
(g78
g59
NtRp5551
(dp5552
g62
(dp5553
g89
g90
ssg71
g5542
sg64
(lp5554
S':'
asbag57
(g78
g59
NtRp5555
(dp5556
g62
(dp5557
sg71
g5542
sg64
(lp5558
g57
(g58
g59
NtRp5559
(dp5560
g62
(dp5561
g70
I5
ssg71
g5555
sg64
(lp5562
S'db.lstate.id>0'
p5563
asbasbasbasbasbsS'etype'
p5564
S"<type 'exceptions.NameError'>"
p5565
sS'date'
p5566
S'Fri Aug 30 19:42:42 2013'
p5567
sS'response'
p5568
g57
(g58
g59
NtRp5569
(dp5570
g62
(dp5571
sg64
(lp5572
g57
(g66
g59
NtRp5573
(dp5574
g62
(dp5575
g70
I5
ssg71
Nsg64
(lp5576
g57
(g73
g59
NtRp5577
(dp5578
g62
(dp5579
sg71
g5573
sg64
(lp5580
g57
(g78
g59
NtRp5581
(dp5582
g62
(dp5583
g82
g83
ssg71
g5577
sg64
(lp5584
g155
asbag57
(g78
g59
NtRp5585
(dp5586
g62
(dp5587
g89
g90
ssg71
g5577
sg64
(lp5588
S':'
asbag57
(g78
g59
NtRp5589
(dp5590
g62
(dp5591
sg71
g5577
sg64
(lp5592
g57
(g58
g59
NtRp5593
(dp5594
g62
(dp5595
g70
I5
ssg71
g5589
sg64
(lp5596
S'<cStringIO.StringO object at 0xad53a340>'
p5597
asbasbasbag57
(g73
g59
NtRp5598
(dp5599
g62
(dp5600
sg71
g5573
sg64
(lp5601
g57
(g78
g59
NtRp5602
(dp5603
g62
(dp5604
g82
g83
ssg71
g5598
sg64
(lp5605
g243
asbag57
(g78
g59
NtRp5606
(dp5607
g62
(dp5608
g89
g90
ssg71
g5598
sg64
(lp5609
S':'
asbag57
(g78
g59
NtRp5610
(dp5611
g62
(dp5612
sg71
g5598
sg64
(lp5613
g57
(g58
g59
NtRp5614
(dp5615
g62
(dp5616
g70
I5
ssg71
g5610
sg64
(lp5617
g57
(g66
g59
NtRp5618
(dp5619
g62
(dp5620
g70
I4
ssg71
Nsg64
(lp5621
g57
(g73
g59
NtRp5622
(dp5623
g62
(dp5624
sg71
g5618
sg64
(lp5625
g57
(g78
g59
NtRp5626
(dp5627
g62
(dp5628
g82
g83
ssg71
g5622
sg64
(lp5629
S'session_id_reddit'
p5630
asbag57
(g78
g59
NtRp5631
(dp5632
g62
(dp5633
g89
g90
ssg71
g5622
sg64
(lp5634
S':'
asbag57
(g78
g59
NtRp5635
(dp5636
g62
(dp5637
sg71
g5622
sg64
(lp5638
g57
(g58
g59
NtRp5639
(dp5640
g62
(dp5641
g70
I4
ssg71
g5635
sg64
(lp5642
g1777
ag57
(g66
g59
NtRp5643
(dp5644
g62
(dp5645
g70
I3
ssg71
Nsg64
(lp5646
g57
(g73
g59
NtRp5647
(dp5648
g62
(dp5649
sg71
g5643
sg64
(lp5650
g57
(g78
g59
NtRp5651
(dp5652
g62
(dp5653
g82
g83
ssg71
g5647
sg64
(lp5654
g294
asbag57
(g78
g59
NtRp5655
(dp5656
g62
(dp5657
g89
g90
ssg71
g5647
sg64
(lp5658
S':'
asbag57
(g78
g59
NtRp5659
(dp5660
g62
(dp5661
sg71
g5647
sg64
(lp5662
g57
(g58
g59
NtRp5663
(dp5664
g62
(dp5665
g70
I3
ssg71
g5659
sg64
(lp5666
S''
asbasbasbag57
(g73
g59
NtRp5667
(dp5668
g62
(dp5669
sg71
g5643
sg64
(lp5670
g57
(g78
g59
NtRp5671
(dp5672
g62
(dp5673
g82
g83
ssg71
g5667
sg64
(lp5674
g315
asbag57
(g78
g59
NtRp5675
(dp5676
g62
(dp5677
g89
g90
ssg71
g5667
sg64
(lp5678
S':'
asbag57
(g78
g59
NtRp5679
(dp5680
g62
(dp5681
sg71
g5667
sg64
(lp5682
g57
(g58
g59
NtRp5683
(dp5684
g62
(dp5685
g70
I3
ssg71
g5679
sg64
(lp5686
S''
asbasbasbag57
(g73
g59
NtRp5687
(dp5688
g62
(dp5689
sg71
g5643
sg64
(lp5690
g57
(g78
g59
NtRp5691
(dp5692
g62
(dp5693
g82
g83
ssg71
g5687
sg64
(lp5694
g336
asbag57
(g78
g59
NtRp5695
(dp5696
g62
(dp5697
g89
g90
ssg71
g5687
sg64
(lp5698
S':'
asbag57
(g78
g59
NtRp5699
(dp5700
g62
(dp5701
sg71
g5687
sg64
(lp5702
g57
(g58
g59
NtRp5703
(dp5704
g62
(dp5705
g70
I3
ssg71
g5699
sg64
(lp5706
S'2592000'
p5707
asbasbasbag57
(g73
g59
NtRp5708
(dp5709
g62
(dp5710
sg71
g5643
sg64
(lp5711
g57
(g78
g59
NtRp5712
(dp5713
g62
(dp5714
g82
g83
ssg71
g5708
sg64
(lp5715
g357
asbag57
(g78
g59
NtRp5716
(dp5717
g62
(dp5718
g89
g90
ssg71
g5708
sg64
(lp5719
S':'
asbag57
(g78
g59
NtRp5720
(dp5721
g62
(dp5722
sg71
g5708
sg64
(lp5723
g57
(g58
g59
NtRp5724
(dp5725
g62
(dp5726
g70
I3
ssg71
g5720
sg64
(lp5727
S''
asbasbasbag57
(g73
g59
NtRp5728
(dp5729
g62
(dp5730
sg71
g5643
sg64
(lp5731
g57
(g78
g59
NtRp5732
(dp5733
g62
(dp5734
g82
g83
ssg71
g5728
sg64
(lp5735
g378
asbag57
(g78
g59
NtRp5736
(dp5737
g62
(dp5738
g89
g90
ssg71
g5728
sg64
(lp5739
S':'
asbag57
(g78
g59
NtRp5740
(dp5741
g62
(dp5742
sg71
g5728
sg64
(lp5743
g57
(g58
g59
NtRp5744
(dp5745
g62
(dp5746
g70
I3
ssg71
g5740
sg64
(lp5747
S''
asbasbasbag57
(g73
g59
NtRp5748
(dp5749
g62
(dp5750
sg71
g5643
sg64
(lp5751
g57
(g78
g59
NtRp5752
(dp5753
g62
(dp5754
g82
g83
ssg71
g5748
sg64
(lp5755
g399
asbag57
(g78
g59
NtRp5756
(dp5757
g62
(dp5758
g89
g90
ssg71
g5748
sg64
(lp5759
S':'
asbag57
(g78
g59
NtRp5760
(dp5761
g62
(dp5762
sg71
g5748
sg64
(lp5763
g57
(g58
g59
NtRp5764
(dp5765
g62
(dp5766
g70
I3
ssg71
g5760
sg64
(lp5767
S'/'
asbasbasbag57
(g73
g59
NtRp5768
(dp5769
g62
(dp5770
sg71
g5643
sg64
(lp5771
g57
(g78
g59
NtRp5772
(dp5773
g62
(dp5774
g82
g83
ssg71
g5768
sg64
(lp5775
g420
asbag57
(g78
g59
NtRp5776
(dp5777
g62
(dp5778
g89
g90
ssg71
g5768
sg64
(lp5779
S':'
asbag57
(g78
g59
NtRp5780
(dp5781
g62
(dp5782
sg71
g5768
sg64
(lp5783
g57
(g58
g59
NtRp5784
(dp5785
g62
(dp5786
g70
I3
ssg71
g5780
sg64
(lp5787
S''
asbasbasbag57
(g73
g59
NtRp5788
(dp5789
g62
(dp5790
sg71
g5643
sg64
(lp5791
g57
(g78
g59
NtRp5792
(dp5793
g62
(dp5794
g82
g83
ssg71
g5788
sg64
(lp5795
g441
asbag57
(g78
g59
NtRp5796
(dp5797
g62
(dp5798
g89
g90
ssg71
g5788
sg64
(lp5799
S':'
asbag57
(g78
g59
NtRp5800
(dp5801
g62
(dp5802
sg71
g5788
sg64
(lp5803
g57
(g58
g59
NtRp5804
(dp5805
g62
(dp5806
g70
I3
ssg71
g5800
sg64
(lp5807
S''
asbasbasbasbasbasbasbasbasbasbasbag57
(g73
g59
NtRp5808
(dp5809
g62
(dp5810
sg71
g5573
sg64
(lp5811
g57
(g78
g59
NtRp5812
(dp5813
g62
(dp5814
g82
g83
ssg71
g5808
sg64
(lp5815
S'delimiters'
p5816
asbag57
(g78
g59
NtRp5817
(dp5818
g62
(dp5819
g89
g90
ssg71
g5808
sg64
(lp5820
S':'
asbag57
(g78
g59
NtRp5821
(dp5822
g62
(dp5823
sg71
g5808
sg64
(lp5824
g57
(g58
g59
NtRp5825
(dp5826
g62
(dp5827
g70
I5
ssg71
g5821
sg64
(lp5828
g57
(g66
g59
NtRp5829
(dp5830
g62
(dp5831
g70
I4
ssg71
Nsg64
(lp5832
g57
(g73
g59
NtRp5833
(dp5834
g62
(dp5835
sg71
g5829
sg64
(lp5836
g57
(g78
g59
NtRp5837
(dp5838
g62
(dp5839
sg71
g5833
sg64
(lp5840
g57
(g58
g59
NtRp5841
(dp5842
g62
(dp5843
g70
I4
ssg71
g5837
sg64
(lp5844
S'{{'
p5845
asbasbasbag57
(g73
g59
NtRp5846
(dp5847
g62
(dp5848
sg71
g5829
sg64
(lp5849
g57
(g78
g59
NtRp5850
(dp5851
g62
(dp5852
sg71
g5846
sg64
(lp5853
g57
(g58
g59
NtRp5854
(dp5855
g62
(dp5856
g70
I4
ssg71
g5850
sg64
(lp5857
S'}}'
p5858
asbasbasbasbasbasbasbag57
(g73
g59
NtRp5859
(dp5860
g62
(dp5861
sg71
g5573
sg64
(lp5862
g57
(g78
g59
NtRp5863
(dp5864
g62
(dp5865
g82
g83
ssg71
g5859
sg64
(lp5866
S'files'
p5867
asbag57
(g78
g59
NtRp5868
(dp5869
g62
(dp5870
g89
g90
ssg71
g5859
sg64
(lp5871
S':'
asbag57
(g78
g59
NtRp5872
(dp5873
g62
(dp5874
sg71
g5859
sg64
(lp5875
g57
(g58
g59
NtRp5876
(dp5877
g62
(dp5878
g70
I5
ssg71
g5872
sg64
(lp5879
g57
(g66
g59
NtRp5880
(dp5881
g62
(dp5882
g70
I4
ssg71
Nsg64
(lp5883
g57
(g73
g59
NtRp5884
(dp5885
g62
(dp5886
sg71
g5880
sg64
(lp5887
g57
(g78
g59
NtRp5888
(dp5889
g62
(dp5890
sg71
g5884
sg64
(lp5891
g57
(g58
g59
NtRp5892
(dp5893
g62
(dp5894
g70
I4
ssg71
g5888
sg64
(lp5895
S'/reddit/static/js/jquery.js'
p5896
asbasbasbag57
(g73
g59
NtRp5897
(dp5898
g62
(dp5899
sg71
g5880
sg64
(lp5900
g57
(g78
g59
NtRp5901
(dp5902
g62
(dp5903
sg71
g5897
sg64
(lp5904
g57
(g58
g59
NtRp5905
(dp5906
g62
(dp5907
g70
I4
ssg71
g5901
sg64
(lp5908
S'/reddit/static/css/calendar.css'
p5909
asbasbasbag57
(g73
g59
NtRp5910
(dp5911
g62
(dp5912
sg71
g5880
sg64
(lp5913
g57
(g78
g59
NtRp5914
(dp5915
g62
(dp5916
sg71
g5910
sg64
(lp5917
g57
(g58
g59
NtRp5918
(dp5919
g62
(dp5920
g70
I4
ssg71
g5914
sg64
(lp5921
S'/reddit/static/js/calendar.js'
p5922
asbasbasbag57
(g73
g59
NtRp5923
(dp5924
g62
(dp5925
sg71
g5880
sg64
(lp5926
g57
(g78
g59
NtRp5927
(dp5928
g62
(dp5929
sg71
g5923
sg64
(lp5930
g57
(g58
g59
NtRp5931
(dp5932
g62
(dp5933
g70
I4
ssg71
g5927
sg64
(lp5934
S'/reddit/static/js/web2py.js'
p5935
asbasbasbag57
(g73
g59
NtRp5936
(dp5937
g62
(dp5938
sg71
g5880
sg64
(lp5939
g57
(g78
g59
NtRp5940
(dp5941
g62
(dp5942
sg71
g5936
sg64
(lp5943
g57
(g58
g59
NtRp5944
(dp5945
g62
(dp5946
g70
I4
ssg71
g5940
sg64
(lp5947
S'/reddit/static/css/web2py.css'
p5948
asbasbasbag57
(g73
g59
NtRp5949
(dp5950
g62
(dp5951
sg71
g5880
sg64
(lp5952
g57
(g78
g59
NtRp5953
(dp5954
g62
(dp5955
sg71
g5949
sg64
(lp5956
g57
(g58
g59
NtRp5957
(dp5958
g62
(dp5959
g70
I4
ssg71
g5953
sg64
(lp5960
S'/reddit/static/css/bootstrap.min.css'
p5961
asbasbasbag57
(g73
g59
NtRp5962
(dp5963
g62
(dp5964
sg71
g5880
sg64
(lp5965
g57
(g78
g59
NtRp5966
(dp5967
g62
(dp5968
sg71
g5962
sg64
(lp5969
g57
(g58
g59
NtRp5970
(dp5971
g62
(dp5972
g70
I4
ssg71
g5966
sg64
(lp5973
S'/reddit/static/css/bootstrap-responsive.min.css'
p5974
asbasbasbag57
(g73
g59
NtRp5975
(dp5976
g62
(dp5977
sg71
g5880
sg64
(lp5978
g57
(g78
g59
NtRp5979
(dp5980
g62
(dp5981
sg71
g5975
sg64
(lp5982
g57
(g58
g59
NtRp5983
(dp5984
g62
(dp5985
g70
I4
ssg71
g5979
sg64
(lp5986
S'/reddit/static/css/web2py_bootstrap.css'
p5987
asbasbasbasbasbasbasbag57
(g73
g59
NtRp5988
(dp5989
g62
(dp5990
sg71
g5573
sg64
(lp5991
g57
(g78
g59
NtRp5992
(dp5993
g62
(dp5994
g82
g83
ssg71
g5988
sg64
(lp5995
S'flash'
p5996
asbag57
(g78
g59
NtRp5997
(dp5998
g62
(dp5999
g89
g90
ssg71
g5988
sg64
(lp6000
S':'
asbag57
(g78
g59
NtRp6001
(dp6002
g62
(dp6003
sg71
g5988
sg64
(lp6004
g57
(g58
g59
NtRp6005
(dp6006
g62
(dp6007
g70
I5
ssg71
g6001
sg64
(lp6008
S''
asbasbasbag57
(g73
g59
NtRp6009
(dp6010
g62
(dp6011
sg71
g5573
sg64
(lp6012
g57
(g78
g59
NtRp6013
(dp6014
g62
(dp6015
g82
g83
ssg71
g6009
sg64
(lp6016
S'generic_patterns'
p6017
asbag57
(g78
g59
NtRp6018
(dp6019
g62
(dp6020
g89
g90
ssg71
g6009
sg64
(lp6021
S':'
asbag57
(g78
g59
NtRp6022
(dp6023
g62
(dp6024
sg71
g6009
sg64
(lp6025
g57
(g58
g59
NtRp6026
(dp6027
g62
(dp6028
g70
I5
ssg71
g6022
sg64
(lp6029
g57
(g66
g59
NtRp6030
(dp6031
g62
(dp6032
g70
I4
ssg71
Nsg64
(lp6033
g57
(g73
g59
NtRp6034
(dp6035
g62
(dp6036
sg71
g6030
sg64
(lp6037
g57
(g78
g59
NtRp6038
(dp6039
g62
(dp6040
sg71
g6034
sg64
(lp6041
g57
(g58
g59
NtRp6042
(dp6043
g62
(dp6044
g70
I4
ssg71
g6038
sg64
(lp6045
S'*'
asbasbasbasbasbasbasbag57
(g73
g59
NtRp6046
(dp6047
g62
(dp6048
sg71
g5573
sg64
(lp6049
g57
(g78
g59
NtRp6050
(dp6051
g62
(dp6052
g82
g83
ssg71
g6046
sg64
(lp6053
S'google_analytics_id'
p6054
asbag57
(g78
g59
NtRp6055
(dp6056
g62
(dp6057
g89
g90
ssg71
g6046
sg64
(lp6058
S':'
asbag57
(g78
g59
NtRp6059
(dp6060
g62
(dp6061
sg71
g6046
sg64
(lp6062
g57
(g58
g59
NtRp6063
(dp6064
g62
(dp6065
g70
I5
ssg71
g6059
sg64
(lp6066
S'None'
p6067
asbasbasbag57
(g73
g59
NtRp6068
(dp6069
g62
(dp6070
sg71
g5573
sg64
(lp6071
g57
(g78
g59
NtRp6072
(dp6073
g62
(dp6074
g82
g83
ssg71
g6068
sg64
(lp6075
S'headers'
p6076
asbag57
(g78
g59
NtRp6077
(dp6078
g62
(dp6079
g89
g90
ssg71
g6068
sg64
(lp6080
S':'
asbag57
(g78
g59
NtRp6081
(dp6082
g62
(dp6083
sg71
g6068
sg64
(lp6084
g57
(g58
g59
NtRp6085
(dp6086
g62
(dp6087
g70
I5
ssg71
g6081
sg64
(lp6088
g57
(g66
g59
NtRp6089
(dp6090
g62
(dp6091
g70
I4
ssg71
Nsg64
(lp6092
g57
(g73
g59
NtRp6093
(dp6094
g62
(dp6095
sg71
g6089
sg64
(lp6096
g57
(g78
g59
NtRp6097
(dp6098
g62
(dp6099
g82
g83
ssg71
g6093
sg64
(lp6100
S'X-Powered-By'
p6101
asbag57
(g78
g59
NtRp6102
(dp6103
g62
(dp6104
g89
g90
ssg71
g6093
sg64
(lp6105
S':'
asbag57
(g78
g59
NtRp6106
(dp6107
g62
(dp6108
sg71
g6093
sg64
(lp6109
g57
(g58
g59
NtRp6110
(dp6111
g62
(dp6112
g70
I4
ssg71
g6106
sg64
(lp6113
S'web2py'
p6114
asbasbasbasbasbasbasbag57
(g73
g59
NtRp6115
(dp6116
g62
(dp6117
sg71
g5573
sg64
(lp6118
g57
(g78
g59
NtRp6119
(dp6120
g62
(dp6121
g82
g83
ssg71
g6115
sg64
(lp6122
S'logo'
p6123
asbag57
(g78
g59
NtRp6124
(dp6125
g62
(dp6126
g89
g90
ssg71
g6115
sg64
(lp6127
S':'
asbag57
(g78
g59
NtRp6128
(dp6129
g62
(dp6130
sg71
g6115
sg64
(lp6131
g57
(g58
g59
NtRp6132
(dp6133
g62
(dp6134
g70
I5
ssg71
g6128
sg64
(lp6135
g57
(cgluon.html
A
p6136
g59
NtRp6137
(dp6138
g62
(dp6139
S'_class'
p6140
S'brand'
p6141
sS'_href'
p6142
S'http://www.web2py.com/'
p6143
ssg71
Nsg64
(lp6144
g57
(cgluon.html
B
p6145
g59
NtRp6146
(dp6147
g62
(dp6148
sg71
g6137
sg64
(lp6149
S'web'
p6150
ag57
(cgluon.html
SPAN
p6151
g59
NtRp6152
(dp6153
g62
(dp6154
sg71
g6146
sg64
(lp6155
I2
asbaS'py'
p6156
asbacgluon.html
XML_unpickle
p6157
(S's\r\x00\x00\x00&trade;&nbsp;'
tRp6158
asbasbasbasbag57
(g73
g59
NtRp6159
(dp6160
g62
(dp6161
sg71
g5573
sg64
(lp6162
g57
(g78
g59
NtRp6163
(dp6164
g62
(dp6165
g82
g83
ssg71
g6159
sg64
(lp6166
S'menu'
p6167
asbag57
(g78
g59
NtRp6168
(dp6169
g62
(dp6170
g89
g90
ssg71
g6159
sg64
(lp6171
S':'
asbag57
(g78
g59
NtRp6172
(dp6173
g62
(dp6174
sg71
g6159
sg64
(lp6175
g57
(g58
g59
NtRp6176
(dp6177
g62
(dp6178
g70
I5
ssg71
g6172
sg64
(lp6179
g57
(g66
g59
NtRp6180
(dp6181
g62
(dp6182
g70
I4
ssg71
Nsg64
(lp6183
g57
(g73
g59
NtRp6184
(dp6185
g62
(dp6186
sg71
g6180
sg64
(lp6187
g57
(g78
g59
NtRp6188
(dp6189
g62
(dp6190
sg71
g6184
sg64
(lp6191
g57
(g58
g59
NtRp6192
(dp6193
g62
(dp6194
g70
I4
ssg71
g6188
sg64
(lp6195
g57
(g66
g59
NtRp6196
(dp6197
g62
(dp6198
g70
I3
ssg71
Nsg64
(lp6199
g57
(g73
g59
NtRp6200
(dp6201
g62
(dp6202
sg71
g6196
sg64
(lp6203
g57
(g78
g59
NtRp6204
(dp6205
g62
(dp6206
sg71
g6200
sg64
(lp6207
g57
(g58
g59
NtRp6208
(dp6209
g62
(dp6210
g70
I3
ssg71
g6204
sg64
(lp6211
cgluon.languages
lazyT_unpickle
p6212
(S's\x04\x00\x00\x00Home'
tRp6213
asbasbasbag57
(g73
g59
NtRp6214
(dp6215
g62
(dp6216
sg71
g6196
sg64
(lp6217
g57
(g78
g59
NtRp6218
(dp6219
g62
(dp6220
sg71
g6214
sg64
(lp6221
g57
(g58
g59
NtRp6222
(dp6223
g62
(dp6224
g70
I3
ssg71
g6218
sg64
(lp6225
g100
asbasbasbag57
(g73
g59
NtRp6226
(dp6227
g62
(dp6228
sg71
g6196
sg64
(lp6229
g57
(g78
g59
NtRp6230
(dp6231
g62
(dp6232
sg71
g6226
sg64
(lp6233
g57
(g58
g59
NtRp6234
(dp6235
g62
(dp6236
g70
I3
ssg71
g6230
sg64
(lp6237
S'/reddit/default/index'
p6238
asbasbasbag57
(g73
g59
NtRp6239
(dp6240
g62
(dp6241
sg71
g6196
sg64
(lp6242
g57
(g78
g59
NtRp6243
(dp6244
g62
(dp6245
sg71
g6239
sg64
(lp6246
g57
(g58
g59
NtRp6247
(dp6248
g62
(dp6249
g70
I3
ssg71
g6243
sg64
(lp6250
g57
(g66
g59
NtRp6251
(dp6252
g62
(dp6253
g70
I2
ssg71
Nsg64
(lp6254
sbasbasbasbasbasbasbasbag57
(g73
g59
NtRp6255
(dp6256
g62
(dp6257
sg71
g6180
sg64
(lp6258
g57
(g78
g59
NtRp6259
(dp6260
g62
(dp6261
sg71
g6255
sg64
(lp6262
g57
(g58
g59
NtRp6263
(dp6264
g62
(dp6265
g70
I4
ssg71
g6259
sg64
(lp6266
g57
(g66
g59
NtRp6267
(dp6268
g62
(dp6269
g70
I3
ssg71
Nsg64
(lp6270
g57
(g73
g59
NtRp6271
(dp6272
g62
(dp6273
sg71
g6267
sg64
(lp6274
g57
(g78
g59
NtRp6275
(dp6276
g62
(dp6277
sg71
g6271
sg64
(lp6278
g57
(g58
g59
NtRp6279
(dp6280
g62
(dp6281
g70
I3
ssg71
g6275
sg64
(lp6282
g57
(g6151
g59
NtRp6283
(dp6284
g62
(dp6285
g6140
S'highlighted'
p6286
ssg71
g57
(g6136
g59
NtRp6287
(dp6288
g62
(dp6289
g6142
S'http://web2py.com'
p6290
ssg71
g57
(cgluon.html
LI
p6291
g59
NtRp6292
(dp6293
g62
(dp6294
g6140
S'dropdown'
p6295
ssg71
g57
(cgluon.html
UL
p6296
g59
NtRp6297
(dp6298
g62
(dp6299
S'mobile'
p6300
I00
sS'ul_class'
p6301
S'dropdown-menu'
p6302
sS'li_last'
p6303
S'web2py-menu-last'
p6304
sS'li_class'
p6305
g6295
sS'li_first'
p6306
S'web2py-menu-first'
p6307
sg6140
S'nav'
p6308
sS'li_active'
p6309
S'web2py-menu-active'
p6310
ssg71
Nsg64
(lp6311
g57
(g6291
g59
NtRp6312
(dp6313
g62
(dp6314
g6140
g6307
ssg71
g6297
sg64
(lp6315
g57
(g6136
g59
NtRp6316
(dp6317
g62
(dp6318
g6142
g6238
ssg71
g6312
sg64
(lp6319
g6213
asbasbag6292
asbsg64
(lp6320
g6287
ag57
(g6296
g59
NtRp6321
(dp6322
g62
(dp6323
g6140
g6302
ssg71
g6292
sg64
(lp6324
g57
(g6291
g59
NtRp6325
(dp6326
g62
(dp6327
sg71
g6321
sg64
(lp6328
g57
(g6136
g59
NtRp6329
(dp6330
g62
(dp6331
g6142
S'/admin/default/site'
p6332
ssg71
g6325
sg64
(lp6333
g6212
(S's\x08\x00\x00\x00My Sites'
tRp6334
asbasbag57
(g6291
g59
NtRp6335
(dp6336
g62
(dp6337
g6140
g6295
ssg71
g6321
sg64
(lp6338
g57
(g6136
g59
NtRp6339
(dp6340
g62
(dp6341
g6142
S'/admin/default/design/reddit'
p6342
ssg71
g6335
sg64
(lp6343
g6212
(S's\x08\x00\x00\x00This App'
tRp6344
asbag57
(g6296
g59
NtRp6345
(dp6346
g62
(dp6347
g6140
g6302
ssg71
g6335
sg64
(lp6348
g57
(g6291
g59
NtRp6349
(dp6350
g62
(dp6351
sg71
g6345
sg64
(lp6352
g57
(g6136
g59
NtRp6353
(dp6354
g62
(dp6355
g6142
S'/admin/default/edit/reddit/controllers/default.py'
p6356
ssg71
g6349
sg64
(lp6357
g6212
(S's\n\x00\x00\x00Controller'
tRp6358
asbasbag57
(g6291
g59
NtRp6359
(dp6360
g62
(dp6361
sg71
g6345
sg64
(lp6362
g57
(g6136
g59
NtRp6363
(dp6364
g62
(dp6365
g6142
S'/admin/default/edit/reddit/views/default/index.html'
p6366
ssg71
g6359
sg64
(lp6367
g6212
(S's\x04\x00\x00\x00View'
tRp6368
asbasbag57
(g6291
g59
NtRp6369
(dp6370
g62
(dp6371
sg71
g6345
sg64
(lp6372
g57
(g6136
g59
NtRp6373
(dp6374
g62
(dp6375
g6142
S'/admin/default/edit/reddit/views/layout.html'
p6376
ssg71
g6369
sg64
(lp6377
g6212
(S's\x06\x00\x00\x00Layout'
tRp6378
asbasbag57
(g6291
g59
NtRp6379
(dp6380
g62
(dp6381
sg71
g6345
sg64
(lp6382
g57
(g6136
g59
NtRp6383
(dp6384
g62
(dp6385
g6142
S'/admin/default/edit/reddit/static/css/web2py.css'
p6386
ssg71
g6379
sg64
(lp6387
g6212
(S's\n\x00\x00\x00Stylesheet'
tRp6388
asbasbag57
(g6291
g59
NtRp6389
(dp6390
g62
(dp6391
sg71
g6345
sg64
(lp6392
g57
(g6136
g59
NtRp6393
(dp6394
g62
(dp6395
g6142
S'/admin/default/edit/reddit/models/db.py'
p6396
ssg71
g6389
sg64
(lp6397
g6212
(S's\x08\x00\x00\x00DB Model'
tRp6398
asbasbag57
(g6291
g59
NtRp6399
(dp6400
g62
(dp6401
sg71
g6345
sg64
(lp6402
g57
(g6136
g59
NtRp6403
(dp6404
g62
(dp6405
g6142
S'/admin/default/edit/reddit/models/menu.py'
p6406
ssg71
g6399
sg64
(lp6407
g6212
(S's\n\x00\x00\x00Menu Model'
tRp6408
asbasbag57
(g6291
g59
NtRp6409
(dp6410
g62
(dp6411
sg71
g6345
sg64
(lp6412
g57
(g6136
g59
NtRp6413
(dp6414
g62
(dp6415
g6142
S'/reddit/appadmin/index'
p6416
ssg71
g6409
sg64
(lp6417
g6212
(S's\x08\x00\x00\x00Database'
tRp6418
asbasbag57
(g6291
g59
NtRp6419
(dp6420
g62
(dp6421
sg71
g6345
sg64
(lp6422
g57
(g6136
g59
NtRp6423
(dp6424
g62
(dp6425
g6142
S'/admin/default/errors/reddit'
p6426
ssg71
g6419
sg64
(lp6427
g6212
(S's\x06\x00\x00\x00Errors'
tRp6428
asbasbag57
(g6291
g59
NtRp6429
(dp6430
g62
(dp6431
sg71
g6345
sg64
(lp6432
g57
(g6136
g59
NtRp6433
(dp6434
g62
(dp6435
g6142
S'/admin/default/about/reddit'
p6436
ssg71
g6429
sg64
(lp6437
g6212
(S's\x05\x00\x00\x00About'
tRp6438
asbasbasbasbag57
(g6291
g59
NtRp6439
(dp6440
g62
(dp6441
g6140
g6295
ssg71
g6321
sg64
(lp6442
g57
(g6136
g59
NtRp6443
(dp6444
g62
(dp6445
g6142
S'http://www.web2py.com'
p6446
ssg71
g6439
sg64
(lp6447
S'web2py.com'
p6448
asbag57
(g6296
g59
NtRp6449
(dp6450
g62
(dp6451
g6140
g6302
ssg71
g6439
sg64
(lp6452
g57
(g6291
g59
NtRp6453
(dp6454
g62
(dp6455
sg71
g6449
sg64
(lp6456
g57
(g6136
g59
NtRp6457
(dp6458
g62
(dp6459
g6142
S'http://www.web2py.com/examples/default/download'
p6460
ssg71
g6453
sg64
(lp6461
g6212
(S's\x08\x00\x00\x00Download'
tRp6462
asbasbag57
(g6291
g59
NtRp6463
(dp6464
g62
(dp6465
sg71
g6449
sg64
(lp6466
g57
(g6136
g59
NtRp6467
(dp6468
g62
(dp6469
g6142
S'http://www.web2py.com/examples/default/support'
p6470
ssg71
g6463
sg64
(lp6471
g6212
(S's\x07\x00\x00\x00Support'
tRp6472
asbasbag57
(g6291
g59
NtRp6473
(dp6474
g62
(dp6475
sg71
g6449
sg64
(lp6476
g57
(g6136
g59
NtRp6477
(dp6478
g62
(dp6479
g6142
S'http://web2py.com/demo_admin'
p6480
ssg71
g6473
sg64
(lp6481
g6212
(S's\x04\x00\x00\x00Demo'
tRp6482
asbasbag57
(g6291
g59
NtRp6483
(dp6484
g62
(dp6485
sg71
g6449
sg64
(lp6486
g57
(g6136
g59
NtRp6487
(dp6488
g62
(dp6489
g6142
S'http://web2py.com/examples/default/examples'
p6490
ssg71
g6483
sg64
(lp6491
g6212
(S's\x0e\x00\x00\x00Quick Examples'
tRp6492
asbasbag57
(g6291
g59
NtRp6493
(dp6494
g62
(dp6495
sg71
g6449
sg64
(lp6496
g57
(g6136
g59
NtRp6497
(dp6498
g62
(dp6499
g6142
S'http://web2py.com/AlterEgo'
p6500
ssg71
g6493
sg64
(lp6501
g6212
(S's\x03\x00\x00\x00FAQ'
tRp6502
asbasbag57
(g6291
g59
NtRp6503
(dp6504
g62
(dp6505
sg71
g6449
sg64
(lp6506
g57
(g6136
g59
NtRp6507
(dp6508
g62
(dp6509
g6142
S'http://www.web2py.com/examples/default/videos/'
p6510
ssg71
g6503
sg64
(lp6511
g6212
(S's\x06\x00\x00\x00Videos'
tRp6512
asbasbag57
(g6291
g59
NtRp6513
(dp6514
g62
(dp6515
sg71
g6449
sg64
(lp6516
g57
(g6136
g59
NtRp6517
(dp6518
g62
(dp6519
g6142
S'http://web2py.com/appliances'
p6520
ssg71
g6513
sg64
(lp6521
g6212
(S's\x11\x00\x00\x00Free Applications'
tRp6522
asbasbag57
(g6291
g59
NtRp6523
(dp6524
g62
(dp6525
sg71
g6449
sg64
(lp6526
g57
(g6136
g59
NtRp6527
(dp6528
g62
(dp6529
g6142
S'http://web2py.com/plugins'
p6530
ssg71
g6523
sg64
(lp6531
g6212
(S's\x07\x00\x00\x00Plugins'
tRp6532
asbasbag57
(g6291
g59
NtRp6533
(dp6534
g62
(dp6535
sg71
g6449
sg64
(lp6536
g57
(g6136
g59
NtRp6537
(dp6538
g62
(dp6539
g6142
S'http://web2py.com/layouts'
p6540
ssg71
g6533
sg64
(lp6541
g6212
(S's\x07\x00\x00\x00Layouts'
tRp6542
asbasbag57
(g6291
g59
NtRp6543
(dp6544
g62
(dp6545
sg71
g6449
sg64
(lp6546
g57
(g6136
g59
NtRp6547
(dp6548
g62
(dp6549
g6142
S'http://web2pyslices.com/'
p6550
ssg71
g6543
sg64
(lp6551
g6212
(S's\x07\x00\x00\x00Recipes'
tRp6552
asbasbag57
(g6291
g59
NtRp6553
(dp6554
g62
(dp6555
sg71
g6449
sg64
(lp6556
g57
(g6136
g59
NtRp6557
(dp6558
g62
(dp6559
g6142
S'http://web2py.com/semantic'
p6560
ssg71
g6553
sg64
(lp6561
g6212
(S's\x08\x00\x00\x00Semantic'
tRp6562
asbasbasbasbag57
(g6291
g59
NtRp6563
(dp6564
g62
(dp6565
g6140
g6295
ssg71
g6321
sg64
(lp6566
g57
(g6136
g59
NtRp6567
(dp6568
g62
(dp6569
g6142
S'http://www.web2py.com/book'
p6570
ssg71
g6563
sg64
(lp6571
g6212
(S's\r\x00\x00\x00Documentation'
tRp6572
asbag57
(g6296
g59
NtRp6573
(dp6574
g62
(dp6575
g6140
g6302
ssg71
g6563
sg64
(lp6576
g57
(g6291
g59
NtRp6577
(dp6578
g62
(dp6579
sg71
g6573
sg64
(lp6580
g57
(g6136
g59
NtRp6581
(dp6582
g62
(dp6583
g6142
S'http://www.web2py.com/book/default/chapter/00'
p6584
ssg71
g6577
sg64
(lp6585
g6212
(S's\x07\x00\x00\x00Preface'
tRp6586
asbasbag57
(g6291
g59
NtRp6587
(dp6588
g62
(dp6589
sg71
g6573
sg64
(lp6590
g57
(g6136
g59
NtRp6591
(dp6592
g62
(dp6593
g6142
S'http://www.web2py.com/book/default/chapter/01'
p6594
ssg71
g6587
sg64
(lp6595
g6212
(S's\x0c\x00\x00\x00Introduction'
tRp6596
asbasbag57
(g6291
g59
NtRp6597
(dp6598
g62
(dp6599
sg71
g6573
sg64
(lp6600
g57
(g6136
g59
NtRp6601
(dp6602
g62
(dp6603
g6142
S'http://www.web2py.com/book/default/chapter/02'
p6604
ssg71
g6597
sg64
(lp6605
g6212
(S's\x06\x00\x00\x00Python'
tRp6606
asbasbag57
(g6291
g59
NtRp6607
(dp6608
g62
(dp6609
sg71
g6573
sg64
(lp6610
g57
(g6136
g59
NtRp6611
(dp6612
g62
(dp6613
g6142
S'http://www.web2py.com/book/default/chapter/03'
p6614
ssg71
g6607
sg64
(lp6615
g6212
(S's\x08\x00\x00\x00Overview'
tRp6616
asbasbag57
(g6291
g59
NtRp6617
(dp6618
g62
(dp6619
sg71
g6573
sg64
(lp6620
g57
(g6136
g59
NtRp6621
(dp6622
g62
(dp6623
g6142
S'http://www.web2py.com/book/default/chapter/04'
p6624
ssg71
g6617
sg64
(lp6625
g6212
(S's\x08\x00\x00\x00The Core'
tRp6626
asbasbag57
(g6291
g59
NtRp6627
(dp6628
g62
(dp6629
sg71
g6573
sg64
(lp6630
g57
(g6136
g59
NtRp6631
(dp6632
g62
(dp6633
g6142
S'http://www.web2py.com/book/default/chapter/05'
p6634
ssg71
g6627
sg64
(lp6635
g6212
(S's\t\x00\x00\x00The Views'
tRp6636
asbasbag57
(g6291
g59
NtRp6637
(dp6638
g62
(dp6639
sg71
g6573
sg64
(lp6640
g57
(g6136
g59
NtRp6641
(dp6642
g62
(dp6643
g6142
S'http://www.web2py.com/book/default/chapter/06'
p6644
ssg71
g6637
sg64
(lp6645
g6212
(S's\x08\x00\x00\x00Database'
tRp6646
asbasbag57
(g6291
g59
NtRp6647
(dp6648
g62
(dp6649
sg71
g6573
sg64
(lp6650
g57
(g6136
g59
NtRp6651
(dp6652
g62
(dp6653
g6142
S'http://www.web2py.com/book/default/chapter/07'
p6654
ssg71
g6647
sg64
(lp6655
g6212
(S's\x14\x00\x00\x00Forms and Validators'
tRp6656
asbasbag57
(g6291
g59
NtRp6657
(dp6658
g62
(dp6659
sg71
g6573
sg64
(lp6660
g57
(g6136
g59
NtRp6661
(dp6662
g62
(dp6663
g6142
S'http://www.web2py.com/book/default/chapter/08'
p6664
ssg71
g6657
sg64
(lp6665
g6212
(S's\r\x00\x00\x00Email and SMS'
tRp6666
asbasbag57
(g6291
g59
NtRp6667
(dp6668
g62
(dp6669
sg71
g6573
sg64
(lp6670
g57
(g6136
g59
NtRp6671
(dp6672
g62
(dp6673
g6142
S'http://www.web2py.com/book/default/chapter/09'
p6674
ssg71
g6667
sg64
(lp6675
g6212
(S's\x0e\x00\x00\x00Access Control'
tRp6676
asbasbag57
(g6291
g59
NtRp6677
(dp6678
g62
(dp6679
sg71
g6573
sg64
(lp6680
g57
(g6136
g59
NtRp6681
(dp6682
g62
(dp6683
g6142
S'http://www.web2py.com/book/default/chapter/10'
p6684
ssg71
g6677
sg64
(lp6685
g6212
(S's\x08\x00\x00\x00Services'
tRp6686
asbasbag57
(g6291
g59
NtRp6687
(dp6688
g62
(dp6689
sg71
g6573
sg64
(lp6690
g57
(g6136
g59
NtRp6691
(dp6692
g62
(dp6693
g6142
S'http://www.web2py.com/book/default/chapter/11'
p6694
ssg71
g6687
sg64
(lp6695
g6212
(S's\x0c\x00\x00\x00Ajax Recipes'
tRp6696
asbasbag57
(g6291
g59
NtRp6697
(dp6698
g62
(dp6699
sg71
g6573
sg64
(lp6700
g57
(g6136
g59
NtRp6701
(dp6702
g62
(dp6703
g6142
S'http://www.web2py.com/book/default/chapter/12'
p6704
ssg71
g6697
sg64
(lp6705
g6212
(S's\x16\x00\x00\x00Components and Plugins'
tRp6706
asbasbag57
(g6291
g59
NtRp6707
(dp6708
g62
(dp6709
sg71
g6573
sg64
(lp6710
g57
(g6136
g59
NtRp6711
(dp6712
g62
(dp6713
g6142
S'http://www.web2py.com/book/default/chapter/13'
p6714
ssg71
g6707
sg64
(lp6715
g6212
(S's\x12\x00\x00\x00Deployment Recipes'
tRp6716
asbasbag57
(g6291
g59
NtRp6717
(dp6718
g62
(dp6719
sg71
g6573
sg64
(lp6720
g57
(g6136
g59
NtRp6721
(dp6722
g62
(dp6723
g6142
S'http://www.web2py.com/book/default/chapter/14'
p6724
ssg71
g6717
sg64
(lp6725
g6212
(S's\r\x00\x00\x00Other Recipes'
tRp6726
asbasbag57
(g6291
g59
NtRp6727
(dp6728
g62
(dp6729
sg71
g6573
sg64
(lp6730
g57
(g6136
g59
NtRp6731
(dp6732
g62
(dp6733
g6142
S'http://stores.lulu.com/web2py'
p6734
ssg71
g6727
sg64
(lp6735
g6212
(S's\r\x00\x00\x00Buy this book'
tRp6736
asbasbasbasbag57
(g6291
g59
NtRp6737
(dp6738
g62
(dp6739
g6140
g6295
ssg71
g6321
sg64
(lp6740
g57
(g6136
g59
NtRp6741
(dp6742
g62
(dp6743
S'_onclick'
p6744
S'javascript:void(0);return false;'
p6745
sg6142
S'#'
ssg71
g6737
sg64
(lp6746
g6212
(S's\t\x00\x00\x00Community'
tRp6747
asbag57
(g6296
g59
NtRp6748
(dp6749
g62
(dp6750
g6140
g6302
ssg71
g6737
sg64
(lp6751
g57
(g6291
g59
NtRp6752
(dp6753
g62
(dp6754
sg71
g6748
sg64
(lp6755
g57
(g6136
g59
NtRp6756
(dp6757
g62
(dp6758
g6142
S'http://www.web2py.com/examples/default/usergroups'
p6759
ssg71
g6752
sg64
(lp6760
g6212
(S's\x06\x00\x00\x00Groups'
tRp6761
asbasbag57
(g6291
g59
NtRp6762
(dp6763
g62
(dp6764
sg71
g6748
sg64
(lp6765
g57
(g6136
g59
NtRp6766
(dp6767
g62
(dp6768
g6142
S'http://twitter.com/web2py'
p6769
ssg71
g6762
sg64
(lp6770
g6212
(S's\x07\x00\x00\x00Twitter'
tRp6771
asbasbag57
(g6291
g59
NtRp6772
(dp6773
g62
(dp6774
sg71
g6748
sg64
(lp6775
g57
(g6136
g59
NtRp6776
(dp6777
g62
(dp6778
g6142
S'http://webchat.freenode.net/?channels=web2py'
p6779
ssg71
g6772
sg64
(lp6780
g6212
(S's\t\x00\x00\x00Live Chat'
tRp6781
asbasbasbasbag57
(g6291
g59
NtRp6782
(dp6783
g62
(dp6784
g6140
g6295
ssg71
g6321
sg64
(lp6785
g57
(g6136
g59
NtRp6786
(dp6787
g62
(dp6788
g6744
g6745
sg6142
S'#'
ssg71
g6782
sg64
(lp6789
g6212
(S's\x07\x00\x00\x00Plugins'
tRp6790
asbag57
(g6296
g59
NtRp6791
(dp6792
g62
(dp6793
g6140
g6302
ssg71
g6782
sg64
(lp6794
g57
(g6291
g59
NtRp6795
(dp6796
g62
(dp6797
sg71
g6791
sg64
(lp6798
g57
(g6136
g59
NtRp6799
(dp6800
g62
(dp6801
g6142
S'http://web2py.com/examples/default/download'
p6802
ssg71
g6795
sg64
(lp6803
S'plugin_wiki'
p6804
asbasbag57
(g6291
g59
NtRp6805
(dp6806
g62
(dp6807
sg71
g6791
sg64
(lp6808
g57
(g6136
g59
NtRp6809
(dp6810
g62
(dp6811
g6142
g6530
ssg71
g6805
sg64
(lp6812
g6212
(S's\r\x00\x00\x00Other Plugins'
tRp6813
asbasbag57
(g6291
g59
NtRp6814
(dp6815
g62
(dp6816
sg71
g6791
sg64
(lp6817
g57
(g6136
g59
NtRp6818
(dp6819
g62
(dp6820
g6142
g6540
ssg71
g6814
sg64
(lp6821
g6212
(S's\x0e\x00\x00\x00Layout Plugins'
tRp6822
asbasbasbasbasbasbsg64
(lp6823
g6283
asbsg64
(lp6824
g6114
asbasbasbasbag57
(g73
g59
NtRp6825
(dp6826
g62
(dp6827
sg71
g6267
sg64
(lp6828
g57
(g78
g59
NtRp6829
(dp6830
g62
(dp6831
sg71
g6825
sg64
(lp6832
g57
(g58
g59
NtRp6833
(dp6834
g62
(dp6835
g70
I3
ssg71
g6829
sg64
(lp6836
g100
asbasbasbag57
(g73
g59
NtRp6837
(dp6838
g62
(dp6839
sg71
g6267
sg64
(lp6840
g57
(g78
g59
NtRp6841
(dp6842
g62
(dp6843
sg71
g6837
sg64
(lp6844
g57
(g58
g59
NtRp6845
(dp6846
g62
(dp6847
g70
I3
ssg71
g6841
sg64
(lp6848
g6290
asbasbasbag57
(g73
g59
NtRp6849
(dp6850
g62
(dp6851
sg71
g6267
sg64
(lp6852
g57
(g78
g59
NtRp6853
(dp6854
g62
(dp6855
sg71
g6849
sg64
(lp6856
g57
(g58
g59
NtRp6857
(dp6858
g62
(dp6859
g70
I3
ssg71
g6853
sg64
(lp6860
g57
(g66
g59
NtRp6861
(dp6862
g62
(dp6863
g70
I2
ssg71
Nsg64
(lp6864
g57
(g73
g59
NtRp6865
(dp6866
g62
(dp6867
sg71
g6861
sg64
(lp6868
g57
(g78
g59
NtRp6869
(dp6870
g62
(dp6871
sg71
g6865
sg64
(lp6872
g57
(g58
g59
NtRp6873
(dp6874
g62
(dp6875
g70
I2
ssg71
g6869
sg64
(lp6876
g57
(g66
g59
NtRp6877
(dp6878
g62
(dp6879
g70
I1
ssg71
Nsg64
(lp6880
g57
(g73
g59
NtRp6881
(dp6882
g62
(dp6883
sg71
g6877
sg64
(lp6884
g57
(g78
g59
NtRp6885
(dp6886
g62
(dp6887
sg71
g6881
sg64
(lp6888
g57
(g58
g59
NtRp6889
(dp6890
g62
(dp6891
g70
I1
ssg71
g6885
sg64
(lp6892
g6334
asbasbasbag57
(g73
g59
NtRp6893
(dp6894
g62
(dp6895
sg71
g6877
sg64
(lp6896
g57
(g78
g59
NtRp6897
(dp6898
g62
(dp6899
sg71
g6893
sg64
(lp6900
g57
(g58
g59
NtRp6901
(dp6902
g62
(dp6903
g70
I1
ssg71
g6897
sg64
(lp6904
I00
asbasbasbag57
(g73
g59
NtRp6905
(dp6906
g62
(dp6907
sg71
g6877
sg64
(lp6908
g57
(g78
g59
NtRp6909
(dp6910
g62
(dp6911
sg71
g6905
sg64
(lp6912
g57
(g58
g59
NtRp6913
(dp6914
g62
(dp6915
g70
I1
ssg71
g6909
sg64
(lp6916
g6332
asbasbasbasbasbasbasbag57
(g73
g59
NtRp6917
(dp6918
g62
(dp6919
sg71
g6861
sg64
(lp6920
g57
(g78
g59
NtRp6921
(dp6922
g62
(dp6923
sg71
g6917
sg64
(lp6924
g57
(g58
g59
NtRp6925
(dp6926
g62
(dp6927
g70
I2
ssg71
g6921
sg64
(lp6928
g57
(g66
g59
NtRp6929
(dp6930
g62
(dp6931
g70
I1
ssg71
Nsg64
(lp6932
g57
(g73
g59
NtRp6933
(dp6934
g62
(dp6935
sg71
g6929
sg64
(lp6936
g57
(g78
g59
NtRp6937
(dp6938
g62
(dp6939
sg71
g6933
sg64
(lp6940
g57
(g58
g59
NtRp6941
(dp6942
g62
(dp6943
g70
I1
ssg71
g6937
sg64
(lp6944
g6344
asbasbasbag57
(g73
g59
NtRp6945
(dp6946
g62
(dp6947
sg71
g6929
sg64
(lp6948
g57
(g78
g59
NtRp6949
(dp6950
g62
(dp6951
sg71
g6945
sg64
(lp6952
g57
(g58
g59
NtRp6953
(dp6954
g62
(dp6955
g70
I1
ssg71
g6949
sg64
(lp6956
I00
asbasbasbag57
(g73
g59
NtRp6957
(dp6958
g62
(dp6959
sg71
g6929
sg64
(lp6960
g57
(g78
g59
NtRp6961
(dp6962
g62
(dp6963
sg71
g6957
sg64
(lp6964
g57
(g58
g59
NtRp6965
(dp6966
g62
(dp6967
g70
I1
ssg71
g6961
sg64
(lp6968
g6342
asbasbasbag57
(g73
g59
NtRp6969
(dp6970
g62
(dp6971
sg71
g6929
sg64
(lp6972
g57
(g78
g59
NtRp6973
(dp6974
g62
(dp6975
sg71
g6969
sg64
(lp6976
g57
(g58
g59
NtRp6977
(dp6978
g62
(dp6979
g70
I1
ssg71
g6973
sg64
(lp6980
(lp6981
(g6358
I00
g6356
tp6982
a(g6368
I00
g6366
tp6983
a(g6378
I00
g6376
tp6984
a(g6388
I00
g6386
tp6985
a(g6398
I00
g6396
tp6986
a(g6408
I00
g6406
tp6987
a(g6418
I00
g6416
tp6988
a(g6428
I00
g6426
tp6989
a(g6438
I00
g6436
tp6990
aasbasbasbasbasbasbasbag57
(g73
g59
NtRp6991
(dp6992
g62
(dp6993
sg71
g6861
sg64
(lp6994
g57
(g78
g59
NtRp6995
(dp6996
g62
(dp6997
sg71
g6991
sg64
(lp6998
g57
(g58
g59
NtRp6999
(dp7000
g62
(dp7001
g70
I2
ssg71
g6995
sg64
(lp7002
g57
(g66
g59
NtRp7003
(dp7004
g62
(dp7005
g70
I1
ssg71
Nsg64
(lp7006
g57
(g73
g59
NtRp7007
(dp7008
g62
(dp7009
sg71
g7003
sg64
(lp7010
g57
(g78
g59
NtRp7011
(dp7012
g62
(dp7013
sg71
g7007
sg64
(lp7014
g57
(g58
g59
NtRp7015
(dp7016
g62
(dp7017
g70
I1
ssg71
g7011
sg64
(lp7018
g6448
asbasbasbag57
(g73
g59
NtRp7019
(dp7020
g62
(dp7021
sg71
g7003
sg64
(lp7022
g57
(g78
g59
NtRp7023
(dp7024
g62
(dp7025
sg71
g7019
sg64
(lp7026
g57
(g58
g59
NtRp7027
(dp7028
g62
(dp7029
g70
I1
ssg71
g7023
sg64
(lp7030
I00
asbasbasbag57
(g73
g59
NtRp7031
(dp7032
g62
(dp7033
sg71
g7003
sg64
(lp7034
g57
(g78
g59
NtRp7035
(dp7036
g62
(dp7037
sg71
g7031
sg64
(lp7038
g57
(g58
g59
NtRp7039
(dp7040
g62
(dp7041
g70
I1
ssg71
g7035
sg64
(lp7042
g6446
asbasbasbag57
(g73
g59
NtRp7043
(dp7044
g62
(dp7045
sg71
g7003
sg64
(lp7046
g57
(g78
g59
NtRp7047
(dp7048
g62
(dp7049
sg71
g7043
sg64
(lp7050
g57
(g58
g59
NtRp7051
(dp7052
g62
(dp7053
g70
I1
ssg71
g7047
sg64
(lp7054
(lp7055
(g6462
I00
g6460
tp7056
a(g6472
I00
g6470
tp7057
a(g6482
I00
g6480
tp7058
a(g6492
I00
g6490
tp7059
a(g6502
I00
g6500
tp7060
a(g6512
I00
g6510
tp7061
a(g6522
I00
g6520
tp7062
a(g6532
I00
g6530
tp7063
a(g6542
I00
g6540
tp7064
a(g6552
I00
g6550
tp7065
a(g6562
I00
g6560
tp7066
aasbasbasbasbasbasbasbag57
(g73
g59
NtRp7067
(dp7068
g62
(dp7069
sg71
g6861
sg64
(lp7070
g57
(g78
g59
NtRp7071
(dp7072
g62
(dp7073
sg71
g7067
sg64
(lp7074
g57
(g58
g59
NtRp7075
(dp7076
g62
(dp7077
g70
I2
ssg71
g7071
sg64
(lp7078
g57
(g66
g59
NtRp7079
(dp7080
g62
(dp7081
g70
I1
ssg71
Nsg64
(lp7082
g57
(g73
g59
NtRp7083
(dp7084
g62
(dp7085
sg71
g7079
sg64
(lp7086
g57
(g78
g59
NtRp7087
(dp7088
g62
(dp7089
sg71
g7083
sg64
(lp7090
g57
(g58
g59
NtRp7091
(dp7092
g62
(dp7093
g70
I1
ssg71
g7087
sg64
(lp7094
g6572
asbasbasbag57
(g73
g59
NtRp7095
(dp7096
g62
(dp7097
sg71
g7079
sg64
(lp7098
g57
(g78
g59
NtRp7099
(dp7100
g62
(dp7101
sg71
g7095
sg64
(lp7102
g57
(g58
g59
NtRp7103
(dp7104
g62
(dp7105
g70
I1
ssg71
g7099
sg64
(lp7106
I00
asbasbasbag57
(g73
g59
NtRp7107
(dp7108
g62
(dp7109
sg71
g7079
sg64
(lp7110
g57
(g78
g59
NtRp7111
(dp7112
g62
(dp7113
sg71
g7107
sg64
(lp7114
g57
(g58
g59
NtRp7115
(dp7116
g62
(dp7117
g70
I1
ssg71
g7111
sg64
(lp7118
g6570
asbasbasbag57
(g73
g59
NtRp7119
(dp7120
g62
(dp7121
sg71
g7079
sg64
(lp7122
g57
(g78
g59
NtRp7123
(dp7124
g62
(dp7125
sg71
g7119
sg64
(lp7126
g57
(g58
g59
NtRp7127
(dp7128
g62
(dp7129
g70
I1
ssg71
g7123
sg64
(lp7130
(lp7131
(g6586
I00
g6584
tp7132
a(g6596
I00
g6594
tp7133
a(g6606
I00
g6604
tp7134
a(g6616
I00
g6614
tp7135
a(g6626
I00
g6624
tp7136
a(g6636
I00
g6634
tp7137
a(g6646
I00
g6644
tp7138
a(g6656
I00
g6654
tp7139
a(g6666
I00
g6664
tp7140
a(g6676
I00
g6674
tp7141
a(g6686
I00
g6684
tp7142
a(g6696
I00
g6694
tp7143
a(g6706
I00
g6704
tp7144
a(g6716
I00
g6714
tp7145
a(g6726
I00
g6724
tp7146
a(g6736
I00
g6734
tp7147
aasbasbasbasbasbasbasbag57
(g73
g59
NtRp7148
(dp7149
g62
(dp7150
sg71
g6861
sg64
(lp7151
g57
(g78
g59
NtRp7152
(dp7153
g62
(dp7154
sg71
g7148
sg64
(lp7155
g57
(g58
g59
NtRp7156
(dp7157
g62
(dp7158
g70
I2
ssg71
g7152
sg64
(lp7159
g57
(g66
g59
NtRp7160
(dp7161
g62
(dp7162
g70
I1
ssg71
Nsg64
(lp7163
g57
(g73
g59
NtRp7164
(dp7165
g62
(dp7166
sg71
g7160
sg64
(lp7167
g57
(g78
g59
NtRp7168
(dp7169
g62
(dp7170
sg71
g7164
sg64
(lp7171
g57
(g58
g59
NtRp7172
(dp7173
g62
(dp7174
g70
I1
ssg71
g7168
sg64
(lp7175
g6747
asbasbasbag57
(g73
g59
NtRp7176
(dp7177
g62
(dp7178
sg71
g7160
sg64
(lp7179
g57
(g78
g59
NtRp7180
(dp7181
g62
(dp7182
sg71
g7176
sg64
(lp7183
g57
(g58
g59
NtRp7184
(dp7185
g62
(dp7186
g70
I1
ssg71
g7180
sg64
(lp7187
I00
asbasbasbag57
(g73
g59
NtRp7188
(dp7189
g62
(dp7190
sg71
g7160
sg64
(lp7191
g57
(g78
g59
NtRp7192
(dp7193
g62
(dp7194
sg71
g7188
sg64
(lp7195
g57
(g58
g59
NtRp7196
(dp7197
g62
(dp7198
g70
I1
ssg71
g7192
sg64
(lp7199
Nasbasbasbag57
(g73
g59
NtRp7200
(dp7201
g62
(dp7202
sg71
g7160
sg64
(lp7203
g57
(g78
g59
NtRp7204
(dp7205
g62
(dp7206
sg71
g7200
sg64
(lp7207
g57
(g58
g59
NtRp7208
(dp7209
g62
(dp7210
g70
I1
ssg71
g7204
sg64
(lp7211
(lp7212
(g6761
I00
g6759
tp7213
a(g6771
I00
g6769
tp7214
a(g6781
I00
g6779
tp7215
aasbasbasbasbasbasbasbag57
(g73
g59
NtRp7216
(dp7217
g62
(dp7218
sg71
g6861
sg64
(lp7219
g57
(g78
g59
NtRp7220
(dp7221
g62
(dp7222
sg71
g7216
sg64
(lp7223
g57
(g58
g59
NtRp7224
(dp7225
g62
(dp7226
g70
I2
ssg71
g7220
sg64
(lp7227
g57
(g66
g59
NtRp7228
(dp7229
g62
(dp7230
g70
I1
ssg71
Nsg64
(lp7231
g57
(g73
g59
NtRp7232
(dp7233
g62
(dp7234
sg71
g7228
sg64
(lp7235
g57
(g78
g59
NtRp7236
(dp7237
g62
(dp7238
sg71
g7232
sg64
(lp7239
g57
(g58
g59
NtRp7240
(dp7241
g62
(dp7242
g70
I1
ssg71
g7236
sg64
(lp7243
g6790
asbasbasbag57
(g73
g59
NtRp7244
(dp7245
g62
(dp7246
sg71
g7228
sg64
(lp7247
g57
(g78
g59
NtRp7248
(dp7249
g62
(dp7250
sg71
g7244
sg64
(lp7251
g57
(g58
g59
NtRp7252
(dp7253
g62
(dp7254
g70
I1
ssg71
g7248
sg64
(lp7255
I00
asbasbasbag57
(g73
g59
NtRp7256
(dp7257
g62
(dp7258
sg71
g7228
sg64
(lp7259
g57
(g78
g59
NtRp7260
(dp7261
g62
(dp7262
sg71
g7256
sg64
(lp7263
g57
(g58
g59
NtRp7264
(dp7265
g62
(dp7266
g70
I1
ssg71
g7260
sg64
(lp7267
Nasbasbasbag57
(g73
g59
NtRp7268
(dp7269
g62
(dp7270
sg71
g7228
sg64
(lp7271
g57
(g78
g59
NtRp7272
(dp7273
g62
(dp7274
sg71
g7268
sg64
(lp7275
g57
(g58
g59
NtRp7276
(dp7277
g62
(dp7278
g70
I1
ssg71
g7272
sg64
(lp7279
(lp7280
(g6804
I00
g6802
tp7281
a(g6813
I00
g6530
tp7282
a(g6822
I00
g6540
tp7283
aasbasbasbasbasbasbasbasbasbasbasbasbasbasbasbasbasbasbasbag57
(g73
g59
NtRp7284
(dp7285
g62
(dp7286
sg71
g5573
sg64
(lp7287
g57
(g78
g59
NtRp7288
(dp7289
g62
(dp7290
g82
g83
ssg71
g7284
sg64
(lp7291
S'meta'
p7292
asbag57
(g78
g59
NtRp7293
(dp7294
g62
(dp7295
g89
g90
ssg71
g7284
sg64
(lp7296
S':'
asbag57
(g78
g59
NtRp7297
(dp7298
g62
(dp7299
sg71
g7284
sg64
(lp7300
g57
(g58
g59
NtRp7301
(dp7302
g62
(dp7303
g70
I5
ssg71
g7297
sg64
(lp7304
g57
(g66
g59
NtRp7305
(dp7306
g62
(dp7307
g70
I4
ssg71
Nsg64
(lp7308
g57
(g73
g59
NtRp7309
(dp7310
g62
(dp7311
sg71
g7305
sg64
(lp7312
g57
(g78
g59
NtRp7313
(dp7314
g62
(dp7315
g82
g83
ssg71
g7309
sg64
(lp7316
S'author'
p7317
asbag57
(g78
g59
NtRp7318
(dp7319
g62
(dp7320
g89
g90
ssg71
g7309
sg64
(lp7321
S':'
asbag57
(g78
g59
NtRp7322
(dp7323
g62
(dp7324
sg71
g7309
sg64
(lp7325
g57
(g58
g59
NtRp7326
(dp7327
g62
(dp7328
g70
I4
ssg71
g7322
sg64
(lp7329
S'Your Name <you@example.com>'
p7330
asbasbasbag57
(g73
g59
NtRp7331
(dp7332
g62
(dp7333
sg71
g7305
sg64
(lp7334
g57
(g78
g59
NtRp7335
(dp7336
g62
(dp7337
g82
g83
ssg71
g7331
sg64
(lp7338
S'description'
p7339
asbag57
(g78
g59
NtRp7340
(dp7341
g62
(dp7342
g89
g90
ssg71
g7331
sg64
(lp7343
S':'
asbag57
(g78
g59
NtRp7344
(dp7345
g62
(dp7346
sg71
g7331
sg64
(lp7347
g57
(g58
g59
NtRp7348
(dp7349
g62
(dp7350
g70
I4
ssg71
g7344
sg64
(lp7351
S'a cool new app'
p7352
asbasbasbag57
(g73
g59
NtRp7353
(dp7354
g62
(dp7355
sg71
g7305
sg64
(lp7356
g57
(g78
g59
NtRp7357
(dp7358
g62
(dp7359
g82
g83
ssg71
g7353
sg64
(lp7360
S'generator'
p7361
asbag57
(g78
g59
NtRp7362
(dp7363
g62
(dp7364
g89
g90
ssg71
g7353
sg64
(lp7365
S':'
asbag57
(g78
g59
NtRp7366
(dp7367
g62
(dp7368
sg71
g7353
sg64
(lp7369
g57
(g58
g59
NtRp7370
(dp7371
g62
(dp7372
g70
I4
ssg71
g7366
sg64
(lp7373
S'Web2py Web Framework'
p7374
asbasbasbag57
(g73
g59
NtRp7375
(dp7376
g62
(dp7377
sg71
g7305
sg64
(lp7378
g57
(g78
g59
NtRp7379
(dp7380
g62
(dp7381
g82
g83
ssg71
g7375
sg64
(lp7382
S'keywords'
p7383
asbag57
(g78
g59
NtRp7384
(dp7385
g62
(dp7386
g89
g90
ssg71
g7375
sg64
(lp7387
S':'
asbag57
(g78
g59
NtRp7388
(dp7389
g62
(dp7390
sg71
g7375
sg64
(lp7391
g57
(g58
g59
NtRp7392
(dp7393
g62
(dp7394
g70
I4
ssg71
g7388
sg64
(lp7395
S'web2py, python, framework'
p7396
asbasbasbasbasbasbasbag57
(g73
g59
NtRp7397
(dp7398
g62
(dp7399
sg71
g5573
sg64
(lp7400
g57
(g78
g59
NtRp7401
(dp7402
g62
(dp7403
g82
g83
ssg71
g7397
sg64
(lp7404
S'models_to_run'
p7405
asbag57
(g78
g59
NtRp7406
(dp7407
g62
(dp7408
g89
g90
ssg71
g7397
sg64
(lp7409
S':'
asbag57
(g78
g59
NtRp7410
(dp7411
g62
(dp7412
sg71
g7397
sg64
(lp7413
g57
(g58
g59
NtRp7414
(dp7415
g62
(dp7416
g70
I5
ssg71
g7410
sg64
(lp7417
g57
(g66
g59
NtRp7418
(dp7419
g62
(dp7420
g70
I4
ssg71
Nsg64
(lp7421
g57
(g73
g59
NtRp7422
(dp7423
g62
(dp7424
sg71
g7418
sg64
(lp7425
g57
(g78
g59
NtRp7426
(dp7427
g62
(dp7428
sg71
g7422
sg64
(lp7429
g57
(g58
g59
NtRp7430
(dp7431
g62
(dp7432
g70
I4
ssg71
g7426
sg64
(lp7433
S'^\\w+\\.py$'
p7434
asbasbasbag57
(g73
g59
NtRp7435
(dp7436
g62
(dp7437
sg71
g7418
sg64
(lp7438
g57
(g78
g59
NtRp7439
(dp7440
g62
(dp7441
sg71
g7435
sg64
(lp7442
g57
(g58
g59
NtRp7443
(dp7444
g62
(dp7445
g70
I4
ssg71
g7439
sg64
(lp7446
S'^default/\\w+\\.py$'
p7447
asbasbasbag57
(g73
g59
NtRp7448
(dp7449
g62
(dp7450
sg71
g7418
sg64
(lp7451
g57
(g78
g59
NtRp7452
(dp7453
g62
(dp7454
sg71
g7448
sg64
(lp7455
g57
(g58
g59
NtRp7456
(dp7457
g62
(dp7458
g70
I4
ssg71
g7452
sg64
(lp7459
S'^default/index/\\w+\\.py$'
p7460
asbasbasbasbasbasbasbag57
(g73
g59
NtRp7461
(dp7462
g62
(dp7463
sg71
g5573
sg64
(lp7464
g57
(g78
g59
NtRp7465
(dp7466
g62
(dp7467
g82
g83
ssg71
g7461
sg64
(lp7468
S'postprocessing'
p7469
asbag57
(g78
g59
NtRp7470
(dp7471
g62
(dp7472
g89
g90
ssg71
g7461
sg64
(lp7473
S':'
asbag57
(g78
g59
NtRp7474
(dp7475
g62
(dp7476
sg71
g7461
sg64
(lp7477
g57
(g58
g59
NtRp7478
(dp7479
g62
(dp7480
g70
I5
ssg71
g7474
sg64
(lp7481
g57
(g66
g59
NtRp7482
(dp7483
g62
(dp7484
g70
I4
ssg71
Nsg64
(lp7485
sbasbasbasbag57
(g73
g59
NtRp7486
(dp7487
g62
(dp7488
sg71
g5573
sg64
(lp7489
g57
(g78
g59
NtRp7490
(dp7491
g62
(dp7492
g82
g83
ssg71
g7486
sg64
(lp7493
S'session_cookie_expires'
p7494
asbag57
(g78
g59
NtRp7495
(dp7496
g62
(dp7497
g89
g90
ssg71
g7486
sg64
(lp7498
S':'
asbag57
(g78
g59
NtRp7499
(dp7500
g62
(dp7501
sg71
g7486
sg64
(lp7502
g57
(g58
g59
NtRp7503
(dp7504
g62
(dp7505
g70
I5
ssg71
g7499
sg64
(lp7506
S'None'
p7507
asbasbasbag57
(g73
g59
NtRp7508
(dp7509
g62
(dp7510
sg71
g5573
sg64
(lp7511
g57
(g78
g59
NtRp7512
(dp7513
g62
(dp7514
g82
g83
ssg71
g7508
sg64
(lp7515
S'session_data_name'
p7516
asbag57
(g78
g59
NtRp7517
(dp7518
g62
(dp7519
g89
g90
ssg71
g7508
sg64
(lp7520
S':'
asbag57
(g78
g59
NtRp7521
(dp7522
g62
(dp7523
sg71
g7508
sg64
(lp7524
g57
(g58
g59
NtRp7525
(dp7526
g62
(dp7527
g70
I5
ssg71
g7521
sg64
(lp7528
S'session_data_reddit'
p7529
asbasbasbag57
(g73
g59
NtRp7530
(dp7531
g62
(dp7532
sg71
g5573
sg64
(lp7533
g57
(g78
g59
NtRp7534
(dp7535
g62
(dp7536
g82
g83
ssg71
g7530
sg64
(lp7537
S'session_file'
p7538
asbag57
(g78
g59
NtRp7539
(dp7540
g62
(dp7541
g89
g90
ssg71
g7530
sg64
(lp7542
S':'
asbag57
(g78
g59
NtRp7543
(dp7544
g62
(dp7545
sg71
g7530
sg64
(lp7546
g57
(g58
g59
NtRp7547
(dp7548
g62
(dp7549
g70
I5
ssg71
g7543
sg64
(lp7550
S"<open file '/home/pankaj/web2py/applications/reddit/sessions/127.0.0.1-24289f39-32a1-48fb-a367-22792fb8b813', mode 'rb+' at 0xae683a70>"
p7551
asbasbasbag57
(g73
g59
NtRp7552
(dp7553
g62
(dp7554
sg71
g5573
sg64
(lp7555
g57
(g78
g59
NtRp7556
(dp7557
g62
(dp7558
g82
g83
ssg71
g7552
sg64
(lp7559
S'session_filename'
p7560
asbag57
(g78
g59
NtRp7561
(dp7562
g62
(dp7563
g89
g90
ssg71
g7552
sg64
(lp7564
S':'
asbag57
(g78
g59
NtRp7565
(dp7566
g62
(dp7567
sg71
g7552
sg64
(lp7568
g57
(g58
g59
NtRp7569
(dp7570
g62
(dp7571
g70
I5
ssg71
g7565
sg64
(lp7572
S'/home/pankaj/web2py/applications/reddit/sessions/127.0.0.1-24289f39-32a1-48fb-a367-22792fb8b813'
p7573
asbasbasbag57
(g73
g59
NtRp7574
(dp7575
g62
(dp7576
sg71
g5573
sg64
(lp7577
g57
(g78
g59
NtRp7578
(dp7579
g62
(dp7580
g82
g83
ssg71
g7574
sg64
(lp7581
S'session_id'
p7582
asbag57
(g78
g59
NtRp7583
(dp7584
g62
(dp7585
g89
g90
ssg71
g7574
sg64
(lp7586
S':'
asbag57
(g78
g59
NtRp7587
(dp7588
g62
(dp7589
sg71
g7574
sg64
(lp7590
g57
(g58
g59
NtRp7591
(dp7592
g62
(dp7593
g70
I5
ssg71
g7587
sg64
(lp7594
g1777
asbasbasbag57
(g73
g59
NtRp7595
(dp7596
g62
(dp7597
sg71
g5573
sg64
(lp7598
g57
(g78
g59
NtRp7599
(dp7600
g62
(dp7601
g82
g83
ssg71
g7595
sg64
(lp7602
S'session_id_name'
p7603
asbag57
(g78
g59
NtRp7604
(dp7605
g62
(dp7606
g89
g90
ssg71
g7595
sg64
(lp7607
S':'
asbag57
(g78
g59
NtRp7608
(dp7609
g62
(dp7610
sg71
g7595
sg64
(lp7611
g57
(g58
g59
NtRp7612
(dp7613
g62
(dp7614
g70
I5
ssg71
g7608
sg64
(lp7615
g5630
asbasbasbag57
(g73
g59
NtRp7616
(dp7617
g62
(dp7618
sg71
g5573
sg64
(lp7619
g57
(g78
g59
NtRp7620
(dp7621
g62
(dp7622
g82
g83
ssg71
g7616
sg64
(lp7623
S'session_locked'
p7624
asbag57
(g78
g59
NtRp7625
(dp7626
g62
(dp7627
g89
g90
ssg71
g7616
sg64
(lp7628
S':'
asbag57
(g78
g59
NtRp7629
(dp7630
g62
(dp7631
sg71
g7616
sg64
(lp7632
g57
(g58
g59
NtRp7633
(dp7634
g62
(dp7635
g70
I5
ssg71
g7629
sg64
(lp7636
g3651
asbasbasbag57
(g73
g59
NtRp7637
(dp7638
g62
(dp7639
sg71
g5573
sg64
(lp7640
g57
(g78
g59
NtRp7641
(dp7642
g62
(dp7643
g82
g83
ssg71
g7637
sg64
(lp7644
S'session_new'
p7645
asbag57
(g78
g59
NtRp7646
(dp7647
g62
(dp7648
g89
g90
ssg71
g7637
sg64
(lp7649
S':'
asbag57
(g78
g59
NtRp7650
(dp7651
g62
(dp7652
sg71
g7637
sg64
(lp7653
g57
(g58
g59
NtRp7654
(dp7655
g62
(dp7656
g70
I5
ssg71
g7650
sg64
(lp7657
g100
asbasbasbag57
(g73
g59
NtRp7658
(dp7659
g62
(dp7660
sg71
g5573
sg64
(lp7661
g57
(g78
g59
NtRp7662
(dp7663
g62
(dp7664
g82
g83
ssg71
g7658
sg64
(lp7665
S'session_storage_type'
p7666
asbag57
(g78
g59
NtRp7667
(dp7668
g62
(dp7669
g89
g90
ssg71
g7658
sg64
(lp7670
S':'
asbag57
(g78
g59
NtRp7671
(dp7672
g62
(dp7673
sg71
g7658
sg64
(lp7674
g57
(g58
g59
NtRp7675
(dp7676
g62
(dp7677
g70
I5
ssg71
g7671
sg64
(lp7678
g5103
asbasbasbag57
(g73
g59
NtRp7679
(dp7680
g62
(dp7681
sg71
g5573
sg64
(lp7682
g57
(g78
g59
NtRp7683
(dp7684
g62
(dp7685
g82
g83
ssg71
g7679
sg64
(lp7686
S'status'
p7687
asbag57
(g78
g59
NtRp7688
(dp7689
g62
(dp7690
g89
g90
ssg71
g7679
sg64
(lp7691
S':'
asbag57
(g78
g59
NtRp7692
(dp7693
g62
(dp7694
sg71
g7679
sg64
(lp7695
g57
(g58
g59
NtRp7696
(dp7697
g62
(dp7698
g70
I5
ssg71
g7692
sg64
(lp7699
S'200'
p7700
asbasbasbag57
(g73
g59
NtRp7701
(dp7702
g62
(dp7703
sg71
g5573
sg64
(lp7704
g57
(g78
g59
NtRp7705
(dp7706
g62
(dp7707
g82
g83
ssg71
g7701
sg64
(lp7708
S'subtitle'
p7709
asbag57
(g78
g59
NtRp7710
(dp7711
g62
(dp7712
g89
g90
ssg71
g7701
sg64
(lp7713
S':'
asbag57
(g78
g59
NtRp7714
(dp7715
g62
(dp7716
sg71
g7701
sg64
(lp7717
g57
(g58
g59
NtRp7718
(dp7719
g62
(dp7720
g70
I5
ssg71
g7714
sg64
(lp7721
g6212
(S's\r\x00\x00\x00customize me!'
tRp7722
asbasbasbag57
(g73
g59
NtRp7723
(dp7724
g62
(dp7725
sg71
g5573
sg64
(lp7726
g57
(g78
g59
NtRp7727
(dp7728
g62
(dp7729
g82
g83
ssg71
g7723
sg64
(lp7730
S'title'
p7731
asbag57
(g78
g59
NtRp7732
(dp7733
g62
(dp7734
g89
g90
ssg71
g7723
sg64
(lp7735
S':'
asbag57
(g78
g59
NtRp7736
(dp7737
g62
(dp7738
sg71
g7723
sg64
(lp7739
g57
(g58
g59
NtRp7740
(dp7741
g62
(dp7742
g70
I5
ssg71
g7736
sg64
(lp7743
S'Reddit'
p7744
asbasbasbag57
(g73
g59
NtRp7745
(dp7746
g62
(dp7747
sg71
g5573
sg64
(lp7748
g57
(g78
g59
NtRp7749
(dp7750
g62
(dp7751
g82
g83
ssg71
g7745
sg64
(lp7752
S'view'
p7753
asbag57
(g78
g59
NtRp7754
(dp7755
g62
(dp7756
g89
g90
ssg71
g7745
sg64
(lp7757
S':'
asbag57
(g78
g59
NtRp7758
(dp7759
g62
(dp7760
sg71
g7745
sg64
(lp7761
g57
(g58
g59
NtRp7762
(dp7763
g62
(dp7764
g70
I5
ssg71
g7758
sg64
(lp7765
S'default/index.html'
p7766
asbasbasbasbasbsS'locals'
p7767
(dp7768
S'Service'
p7769
S"<class 'gluon.tools.Service'>"
p7770
sS'OBJECT'
p7771
S"<class 'gluon.html.OBJECT'>"
p7772
sS'SQLDB'
p7773
S"<class 'gluon.dal.DAL'>"
p7774
sg5156
S"<Storage {'_formkey[news/create]': '696c42b9-aec...login]': 'c792479c-9193-4faa-a73c-7aea4a6641bc'}>"
p7775
sS'LINK'
p7776
S"<class 'gluon.html.LINK'>"
p7777
sS'BR'
p7778
S"<class 'gluon.html.BR'>"
p7779
sS'local_import'
p7780
S'<function <lambda>>'
p7781
sS'OPTGROUP'
p7782
S"<class 'gluon.html.OPTGROUP'>"
p7783
sS'__package__'
p7784
S'None'
p7785
sS'PRE'
p7786
S"<class 'gluon.html.PRE'>"
p7787
sS'IS_INT_IN_RANGE'
p7788
S"<class 'gluon.validators.IS_INT_IN_RANGE'>"
p7789
sS'left_sidebar_enabled'
p7790
g100
sS'IS_LOWER'
p7791
S"<class 'gluon.validators.IS_LOWER'>"
p7792
sS'IS_STRONG'
p7793
S"<class 'gluon.validators.IS_STRONG'>"
p7794
sS'cache'
p7795
S'<gluon.cache.Cache object>'
p7796
sS'IS_IN_DB'
p7797
S"<class 'gluon.validators.IS_IN_DB'>"
p7798
sS'TAG'
p7799
S'<gluon.html.__TAG__ object>'
p7800
sS'SQLField'
p7801
S"<class 'gluon.dal.Field'>"
p7802
sS'mail'
p7803
S'<gluon.tools.Mail object>'
p7804
sS'BODY'
p7805
S"<class 'gluon.html.BODY'>"
p7806
sS'IS_DATE_IN_RANGE'
p7807
S"<class 'gluon.validators.IS_DATE_IN_RANGE'>"
p7808
sS'IFRAME'
p7809
S"<class 'gluon.html.IFRAME'>"
p7810
sS'URL'
p7811
S'<function URL>'
p7812
sS'__file__'
p7813
S"'/home/pankaj/web2py/applications/reddit/views/default/index.html'"
p7814
sS'db'
p7815
S'<DAL uri="sqlite://storage.sqlite">'
p7816
sS'auth'
p7817
S'<gluon.tools.Auth object>'
p7818
sS'P'
S"<class 'gluon.html.P'>"
p7819
sS'TFOOT'
p7820
S"<class 'gluon.html.TFOOT'>"
p7821
sS'XHTML'
p7822
S"<class 'gluon.html.XHTML'>"
p7823
sS'ON'
p7824
g3651
sS'OL'
p7825
S"<class 'gluon.html.OL'>"
p7826
sS'TEXTAREA'
p7827
S"<class 'gluon.html.TEXTAREA'>"
p7828
sS'MENU'
p7829
S"<class 'gluon.html.MENU'>"
p7830
sS'l'
S"<Row {'rating': 989, 'head': 'highest rating new...te': datetime.datetime(2013, 8, 29, 22, 24, 27)}>"
p7831
sS'cstore'
p7832
S'[<Row {\'usrid\': 1, \'rating\': 100, \'val\': \'more to...(2013, 8, 29, 23, 53, 59), \'newsid\': 2, \'id\': 7}>, <Row {\'usrid\': 1, \'rating\': 100, \'val\': \'hola it...(2013, 8, 29, 23, 32, 10), \'newsid\': 4, \'id\': 6}>, <Row {\'usrid\': 1, \'rating\': 100, \'val\': \'hello i...(2013, 8, 29, 23, 31, 48), \'newsid\': 6, \'id\': 5}>, <Row {\'usrid\': None, \'rating\': 100, \'val\': "that...me(2013, 8, 29, 2, 17, 1), \'newsid\': 4, \'id\': 4}>, <Row {\'usrid\': None, \'rating\': 100, \'val\': \'very...e(2013, 8, 29, 2, 14, 25), \'newsid\': 3, \'id\': 3}>, <Row {\'usrid\': None, \'rating\': 100, \'val\': \'oh n...e(2013, 8, 29, 2, 13, 45), \'newsid\': 2, \'id\': 2}>, <Row {\'usrid\': None, \'rating\': 100, \'val\': \'well...e(2013, 8, 29, 2, 12, 50), \'newsid\': 1, \'id\': 1}>]'
p7833
sS'IS_IMAGE'
p7834
S"<class 'gluon.validators.IS_IMAGE'>"
p7835
sS'EM'
p7836
S"<class 'gluon.html.EM'>"
p7837
sS'CODE'
p7838
S"<class 'gluon.html.CODE'>"
p7839
sS'HTTP'
p7840
S"<class 'gluon.http.HTTP'>"
p7841
sS'HR'
p7842
S"<class 'gluon.html.HR'>"
p7843
sS'IS_DATETIME'
p7844
S"<class 'gluon.validators.IS_DATETIME'>"
p7845
sS'STYLE'
p7846
S"<class 'gluon.html.STYLE'>"
p7847
sS'LABEL'
p7848
S"<class 'gluon.html.LABEL'>"
p7849
sS'CLEANUP'
p7850
S"<class 'gluon.validators.CLEANUP'>"
p7851
sS'plugins'
p7852
S'<gluon.tools.PluginManager object>'
p7853
sS'SELECT'
p7854
S"<class 'gluon.html.SELECT'>"
p7855
sS'use_janrain'
p7856
S'<function use_janrain>'
p7857
sS'CENTER'
p7858
S"<class 'gluon.html.CENTER'>"
p7859
sS'prettydate'
p7860
S'<function prettydate>'
p7861
sS'Crud'
p7862
S"<class 'gluon.tools.Crud'>"
p7863
sS'Auth'
p7864
S"<class 'gluon.tools.Auth'>"
p7865
sS'DEVELOPMENT_MENU'
p7866
g3651
sS'__builtins__'
p7867
S"{'ArithmeticError': <type 'exceptions.ArithmeticError'>, 'AssertionError': <type 'exceptions.AssertionError'>, 'AttributeError': <type 'exceptions.AttributeError'>, 'BaseException': <type 'exceptions.BaseException'>, 'BufferError': <type 'exceptions.BufferError'>, 'BytesWarning': <type 'exceptions.BytesWarning'>, 'DeprecationWarning': <type 'exceptions.DeprecationWarning'>, 'EOFError': <type 'exceptions.EOFError'>, 'Ellipsis': Ellipsis, 'EnvironmentError': <type 'exceptions.EnvironmentError'>, ...}"
p7868
sS'HTML'
p7869
S"<class 'gluon.html.HTML'>"
p7870
sS'SQLFORM'
p7871
S"<class 'gluon.sqlhtml.SQLFORM'>"
p7872
sS'LOAD'
p7873
S'<function LOAD>'
p7874
sS'redirect'
p7875
S'<function redirect>'
p7876
sS'FIELDSET'
p7877
S"<class 'gluon.html.FIELDSET'>"
p7878
sS'IS_EQUAL_TO'
p7879
S"<class 'gluon.validators.IS_EQUAL_TO'>"
p7880
sS'embed64'
p7881
S'<function embed64>'
p7882
sS'IS_LIST_OF'
p7883
S"<class 'gluon.validators.IS_LIST_OF'>"
p7884
sS'INPUT'
p7885
S"<class 'gluon.html.INPUT'>"
p7886
sS'EMBED'
p7887
S"<class 'gluon.html.EMBED'>"
p7888
sS'_'
S'<function _>'
p7889
sS'H2'
p7890
S"<class 'gluon.html.H2'>"
p7891
sS'H3'
p7892
S"<class 'gluon.html.H3'>"
p7893
sS'BUTTON'
p7894
S"<class 'gluon.html.BUTTON'>"
p7895
sS'H1'
p7896
S"<class 'gluon.html.H1'>"
p7897
sS'H6'
p7898
S"<class 'gluon.html.H6'>"
p7899
sS'H4'
p7900
S"<class 'gluon.html.H4'>"
p7901
sS'H5'
p7902
S"<class 'gluon.html.H5'>"
p7903
sS'UL'
p7904
S"<class 'gluon.html.UL'>"
p7905
sS'IS_UPPER'
p7906
S"<class 'gluon.validators.IS_UPPER'>"
p7907
sS'xmlescape'
p7908
S'<function xmlescape>'
p7909
sS'IS_TIME'
p7910
S"<class 'gluon.validators.IS_TIME'>"
p7911
sS'OPTION'
p7912
S"<class 'gluon.html.OPTION'>"
p7913
sS'TITLE'
p7914
S"<class 'gluon.html.TITLE'>"
p7915
sS'CRYPT'
p7916
S"<class 'gluon.validators.CRYPT'>"
p7917
sS'IS_EMPTY_OR'
p7918
S"<class 'gluon.validators.IS_EMPTY_OR'>"
p7919
sS'MARKMIN'
p7920
S"<class 'gluon.html.MARKMIN'>"
p7921
sS'__name__'
p7922
S"'__restricted__'"
p7923
sS'STRONG'
p7924
S"<class 'gluon.html.STRONG'>"
p7925
sS'COL'
p7926
S"<class 'gluon.html.COL'>"
p7927
sS'service'
p7928
S'<gluon.tools.Service object>'
p7929
sS'catg'
p7930
S'<Rows (4)>'
p7931
sS'is_mobile'
p7932
g100
sS'TABLE'
p7933
S"<class 'gluon.html.TABLE'>"
p7934
sS'IS_IPV4'
p7935
S"<class 'gluon.validators.IS_IPV4'>"
p7936
sS'IS_LENGTH'
p7937
S"<class 'gluon.validators.IS_LENGTH'>"
p7938
sS'XML'
p7939
S"<class 'gluon.html.XML'>"
p7940
sS'B'
S"<class 'gluon.html.B'>"
p7941
sS'IMG'
p7942
S"<class 'gluon.html.IMG'>"
p7943
sS'SQLTABLE'
p7944
S"<class 'gluon.sqlhtml.SQLTABLE'>"
p7945
sS'IS_MATCH'
p7946
S"<class 'gluon.validators.IS_MATCH'>"
p7947
sS'IS_ALPHANUMERIC'
p7948
S"<class 'gluon.validators.IS_ALPHANUMERIC'>"
p7949
sS'nstore'
p7950
S"[<Row {'rating': 989, 'head': 'highest rating new...te': datetime.datetime(2013, 8, 29, 22, 24, 27)}>, <Row {'rating': 162, 'head': 'dhoom coming', 'us...te': datetime.datetime(2013, 8, 30, 13, 55, 29)}>, <Row {'rating': 150, 'head': 'bpl in gachibowli'...ate': datetime.datetime(2013, 8, 30, 13, 8, 11)}>, <Row {'rating': 100, 'head': 'tute cancelled', '...ate': datetime.datetime(2013, 8, 30, 13, 52, 3)}>, <Row {'rating': 100, 'head': 'mid sems coming', ...ate': datetime.datetime(2013, 8, 30, 13, 5, 50)}>, <Row {'rating': 100, 'head': 'big B getting old'...ate': datetime.datetime(2013, 8, 29, 2, 10, 51)}>, <Row {'rating': 100, 'head': 'event organized', ...date': datetime.datetime(2013, 8, 29, 2, 9, 58)}>, <Row {'rating': 100, 'head': 'cbse board this ti...date': datetime.datetime(2013, 8, 29, 2, 9, 25)}>, <Row {'rating': 100, 'head': 'india wins gold me..., 'ndate': datetime.datetime(2013, 8, 29, 2, 7)}>, <Row {'rating': 85, 'head': 'football trials tod...ate': datetime.datetime(2013, 8, 30, 14, 2, 12)}>, <Row {'rating': 20, 'head': 'test news', 'usrnam...ate': datetime.datetime(2013, 8, 29, 3, 56, 24)}>]"
p7951
sS'SPAN'
p7952
S"<class 'gluon.html.SPAN'>"
p7953
sS'T'
S'<gluon.languages.translator object>'
p7954
sS'IS_SLUG'
p7955
S"<class 'gluon.validators.IS_SLUG'>"
p7956
sS'BEAUTIFY'
p7957
S"<class 'gluon.html.BEAUTIFY'>"
p7958
sS'META'
p7959
S"<class 'gluon.html.META'>"
p7960
sS'k'
S"<Row {'id': 4, 'name': 'entertainment'}>"
p7961
sS'IS_DATE'
p7962
S"<class 'gluon.validators.IS_DATE'>"
p7963
sS'IS_EMAIL'
p7964
S"<class 'gluon.validators.IS_EMAIL'>"
p7965
sS'IS_NOT_EMPTY'
p7966
S"<class 'gluon.validators.IS_NOT_EMPTY'>"
p7967
sS'IS_FLOAT_IN_RANGE'
p7968
S"<class 'gluon.validators.IS_FLOAT_IN_RANGE'>"
p7969
sS'TBODY'
p7970
S"<class 'gluon.html.TBODY'>"
p7971
sS'CAT'
p7972
S"<class 'gluon.html.CAT'>"
p7973
sS'Field'
p7974
S"<class 'gluon.dal.Field'>"
p7975
sS'middle_columns'
p7976
S"'span12'"
p7977
sS'DIV'
p7978
S"<class 'gluon.html.DIV'>"
p7979
sS'LEGEND'
p7980
S"<class 'gluon.html.LEGEND'>"
p7981
sS'COLGROUP'
p7982
S"<class 'gluon.html.COLGROUP'>"
p7983
sS'DAL'
p7984
S"<class 'gluon.dal.DAL'>"
p7985
sS'TT'
p7986
S"<class 'gluon.html.TT'>"
p7987
sS'TR'
p7988
S"<class 'gluon.html.TR'>"
p7989
sS'LI'
p7990
S"<class 'gluon.html.LI'>"
p7991
sS'right_sidebar_enabled'
p7992
g100
sS'TH'
p7993
S"<class 'gluon.html.TH'>"
p7994
sS'SCRIPT'
p7995
S"<class 'gluon.html.SCRIPT'>"
p7996
sS'TD'
p7997
S"<class 'gluon.html.TD'>"
p7998
sS'PluginManager'
p7999
S"<class 'gluon.tools.PluginManager'>"
p8000
sS'IS_URL'
p8001
S"<class 'gluon.validators.IS_URL'>"
p8002
sS'A'
S"<class 'gluon.html.A'>"
p8003
sS'HEAD'
p8004
S"<class 'gluon.html.HEAD'>"
p8005
sS'IS_DATETIME_IN_RANGE'
p8006
S"<class 'gluon.validators.IS_DATETIME_IN_RANGE'>"
p8007
sS'FORM'
p8008
S"<class 'gluon.html.FORM'>"
p8009
sS'I'
S"<class 'gluon.html.I'>"
p8010
sS'crud'
p8011
S'<gluon.tools.Crud object>'
p8012
sS'IS_NOT_IN_DB'
p8013
S"<class 'gluon.validators.IS_NOT_IN_DB'>"
p8014
sg5568
S"<Storage {'body': <cStringIO.StringO object at 0...a> at 0xb55a74c4>, 'view': 'default/index.html'}>"
p8015
sS'THEAD'
p8016
S"<class 'gluon.html.THEAD'>"
p8017
sS'IS_NULL_OR'
p8018
S"<class 'gluon.validators.IS_EMPTY_OR'>"
p8019
sg56
S"<Storage {'function': 'index', 'body': <cStringI...pplications/reddit/', 'post_vars': <Storage {}>}>"
p8020
sS'IS_EXPR'
p8021
S"<class 'gluon.validators.IS_EXPR'>"
p8022
sS'pcheck'
p8023
S'<Rows (1)>'
p8024
sS'IS_IN_SET'
p8025
S"<class 'gluon.validators.IS_IN_SET'>"
p8026
sS'IS_UPLOAD_FILENAME'
p8027
S"<class 'gluon.validators.IS_UPLOAD_FILENAME'>"
p8028
sS'IS_DECIMAL_IN_RANGE'
p8029
S"<class 'gluon.validators.IS_DECIMAL_IN_RANGE'>"
p8030
sssS'traceback'
p8031
S'Traceback (most recent call last):\n  File "/home/pankaj/web2py/gluon/restricted.py", line 212, in restricted\n    exec ccode in environment\n  File "/home/pankaj/web2py/applications/reddit/views/default/index.html", line 109, in <module>\nNameError: name \'check\' is not defined\n'
p8032
s.