(dp1
S'output'
p2
S"<type 'exceptions.AttributeError'> 'NoneType' object has no attribute 'id'"
p3
sS'layer'
p4
S'/home/pankaj/web2py/applications/reddit/views/default/index.html'
p5
sS'code'
p6
S'response.write(\'<!DOCTYPE html>\\n<!-- paulirish.com/2008/conditional-stylesheets-vs-css-hacks-answer-neither/ -->\\n<!--[if lt IE 7]><html class="ie ie6 ie-lte9 ie-lte8 ie-lte7 no-js" lang="\', escape=False)\nresponse.write(T.accepted_language or \'en\')\nresponse.write(\'"> <![endif]-->\\n<!--[if IE 7]><html class="ie ie7 ie-lte9 ie-lte8 ie-lte7 no-js" lang="\', escape=False)\nresponse.write(T.accepted_language or \'en\')\nresponse.write(\'"> <![endif]-->\\n<!--[if IE 8]><html class="ie ie8 ie-lte9 ie-lte8 no-js" lang="\', escape=False)\nresponse.write(T.accepted_language or \'en\')\nresponse.write(\'"> <![endif]-->\\n<!--[if IE 9]><html class="ie9 ie-lte9 no-js" lang="\', escape=False)\nresponse.write(T.accepted_language or \'en\')\nresponse.write(\'"> <![endif]-->\\n<!--[if (gt IE 9)|!(IE)]><!--> <html class="no-js" lang="\', escape=False)\nresponse.write(T.accepted_language or \'en\')\nresponse.write(\'"> <!--<![endif]-->\\n<head>\\n  <meta charset="utf-8" />\\n  <!-- www.phpied.com/conditional-comments-block-downloads/ -->\\n  <!-- Always force latest IE rendering engine\\n       (even in intranet) & Chrome Frame\\n       Remove this if you use the .htaccess -->\\n  <!--[if IE]>\\n      <meta http-equiv="X-UA-Compatible" content="IE=edge\', escape=False)\nresponse.write(not request.is_local and \',chrome=1\' or \'\')\nresponse.write(\'">\\n      <![endif]-->\\n\\n  <title>\', escape=False)\nresponse.write(response.title or request.application)\nresponse.write(\'</title>\\n\\n  <!-- http://dev.w3.org/html5/markup/meta.name.html -->\\n  <meta name="application-name" content="\', escape=False)\nresponse.write(request.application)\nresponse.write(\'" />\\n\\n  <!-- Speaking of Google, don\\\'t forget to set your site up:\\n       http://google.com/webmasters -->\\n  <meta name="google-site-verification" content="" />\\n\\n  <!--  Mobile Viewport Fix\\n        j.mp/mobileviewport & davidbcalhoun.com/2010/viewport-metatag\\n        device-width: Occupy full width of the screen in its current orientation\\n        initial-scale = 1.0 retains dimensions instead of zooming out if page height > device height\\n        user-scalable = yes allows the user to zoom in -->\\n  <meta name="viewport" content="width=device-width, initial-scale=1.0" />\\n\\n  <link rel="shortcut icon" href="\', escape=False)\nresponse.write(URL(\'static\',\'images/favicon.ico\'))\nresponse.write(\'" type="image/x-icon">\\n  <link rel="apple-touch-icon" href="\', escape=False)\nresponse.write(URL(\'static\',\'images/favicon.png\'))\nresponse.write(\'">\\n\\n  <!-- All JavaScript at the bottom, except for Modernizr which enables\\n       HTML5 elements & feature detects -->\\n  <script src="\', escape=False)\nresponse.write(URL(\'static\',\'js/modernizr.custom.js\'))\nresponse.write(\'"></script>\\n\\n  <!-- include stylesheets -->\\n  \', escape=False)\nresponse.files.append(URL(\'static\',\'css/web2py.css\'))\nresponse.files.append(URL(\'static\',\'css/bootstrap.min.css\'))\nresponse.files.append(URL(\'static\',\'css/bootstrap-responsive.min.css\'))\nresponse.files.append(URL(\'static\',\'css/web2py_bootstrap.css\'))\nresponse.write(\'\\n\\n  \', escape=False)\nresponse.write(\'<script type="text/javascript"><!--\\n    // These variables are used by the web2py_ajax_init function in web2py_ajax.js (which is loaded below).\\n    var w2p_ajax_confirm_message = "\', escape=False)\nresponse.write(T(\'Are you sure you want to delete this object?\'))\nresponse.write(\'";\\n    var w2p_ajax_date_format = "\', escape=False)\nresponse.write(T(\'%Y-%m-%d\'))\nresponse.write(\'";\\n    var w2p_ajax_datetime_format = "\', escape=False)\nresponse.write(T(\'%Y-%m-%d %H:%M:%S\'))\nresponse.write(\'";\\n    //--></script>\\n\', escape=False)\nresponse.files.insert(0,URL(\'static\',\'js/jquery.js\'))\nresponse.files.insert(1,URL(\'static\',\'css/calendar.css\'))\nresponse.files.insert(2,URL(\'static\',\'js/calendar.js\'))\nresponse.files.insert(3,URL(\'static\',\'js/web2py.js\'))\nresponse.include_meta()\nresponse.include_files()\nresponse.write(\'\\n\', escape=False)\nresponse.write(\'\\n\\n  \', escape=False)\n# using sidebars need to know what sidebar you want to use\nleft_sidebar_enabled = globals().get(\'left_sidebar_enabled\',False)\nright_sidebar_enabled = globals().get(\'right_sidebar_enabled\',False)\nmiddle_columns = {0:\'span12\',1:\'span9\',2:\'span6\'}[\n(left_sidebar_enabled and 1 or 0)+(right_sidebar_enabled and 1 or 0)]\nresponse.write(\'\\n\\n  <!-- uncomment here to load jquery-ui\\n       <link rel="stylesheet" href="http://ajax.googleapis.com/ajax/libs/jqueryui/1.8.16/themes/base/jquery-ui.css" type="text/css" media="all" />\\n       <script src="http://ajax.googleapis.com/ajax/libs/jqueryui/1.8.16/jquery-ui.min.js" type="text/javascript"></script>\\n       uncomment to load jquery-ui //-->\\n  <noscript><link href="\', escape=False)\nresponse.write(URL(\'static\', \'css/web2py_bootstrap_nojs.css\'))\nresponse.write(\'" rel="stylesheet" type="text/css" /></noscript>\\n  \', escape=False)\nresponse.write(\'\\n</head>\\n\\n<body>\\n  <!-- Navbar ================================================== -->\\n  <div class="navbar navbar-inverse navbar-fixed-top">\\n    <div class="flash">\', escape=False)\nresponse.write(response.flash or \'\')\nresponse.write(\'</div>\\n    <div class="navbar-inner">\\n      <div class="container">\\n        <!-- the next tag is necessary for bootstrap menus, do not remove -->\\n        <button type="button" class="btn btn-navbar" data-toggle="collapse" data-target=".nav-collapse">\\n          <span class="icon-bar"></span>\\n          <span class="icon-bar"></span>\\n          <span class="icon-bar"></span>\\n        </button>\\n\\t\', escape=False)\nresponse.write(response.logo or \'\')\nresponse.write(\'\\n        <ul id="navbar" class="nav pull-right">\', escape=False)\nresponse.write(\'auth\' in globals() and auth.navbar(mode="dropdown") or \'\')\nresponse.write(\'</ul>\\n        <div class="nav-collapse">\\n          \', escape=False)\nis_mobile=request.user_agent().is_mobile\nresponse.write(\'\\n          \', escape=False)\nif response.menu:\n    response.write(\'\\n          \', escape=False)\n    response.write(MENU(response.menu, _class=\'mobile-menu nav\' if is_mobile else \'nav\',mobile=is_mobile,li_class=\'dropdown\',ul_class=\'dropdown-menu\'))\n    response.write(\'\\n          \', escape=False)\n    pass\nresponse.write(\'\\n        </div><!--/.nav-collapse -->\\n      </div>\\n    </div>\\n  </div><!--/top navbar -->\\n\\n  <div class="container">\\n    <!-- Masthead ================================================== -->\\n    <header class="mastheader row" id="header">\\n        <div class="span12">\\n            <div class="page-header">\\n                <h1>\\n                    \', escape=False)\nresponse.write(response.title or request.application)\nresponse.write(\'\\n                    <small>\', escape=False)\nresponse.write(response.subtitle or \'\')\nresponse.write(\'</small>\\n                </h1>\\n            </div>\\n        </div>\\n    </header>\\n\\n    <section id="main" class="main row">\\n        \', escape=False)\nif left_sidebar_enabled:\n    response.write(\'\\n        <div class="span3 left-sidebar">\\n            \', escape=False)\n    response.write(\'\\n            <h3>Left Sidebar</h3>\\n            <p></p>\\n            \', escape=False)\n    response.write(\'\\n        </div>\\n        \', escape=False)\n    pass\nresponse.write(\'\\n\\n        <div class="\', escape=False)\nresponse.write(middle_columns)\nresponse.write(\'">\\n            \', escape=False)\nresponse.write(\'\\n            \', escape=False)\nresponse.write(\'\\n\', escape=False)\nfor l in nstore:\n    response.write(\'\\n\', escape=False)\n    response.write(l[\'head\'])\n    response.write(\'\\n<br/>\\n\', escape=False)\n    for m in cstore:\n        response.write(\'\\n\', escape=False)\n        if m[\'newsid\']==l[\'id\']:\n            response.write(\'\\n\', escape=False)\n            response.write(m[\'val\'])\n            response.write(\'\\n<br/>\\n\', escape=False)\n            pass\n        response.write(\'\\n\', escape=False)\n        pass\n    response.write(\'\\nCommment:\\n<form action="addc" method="post">\\n\\t<input type="text" name="cval" id="cval" placeholder="comment here" />\\n\\n\\t<input type="text" name="nid" id="cval" value="\', escape=False)\n    response.write(l[\'id\'])\n    response.write(\'"/>\\n\\t<input type="text" name="usrn" id="usrn" value=\', escape=False)\n    response.write(auth.user.id)\n    response.write(\' />\\n</form>\\n\\n<br/>\\n\', escape=False)\n    pass\nresponse.write(\'\\n\', escape=False)\nresponse.write(\'\\n            \', escape=False)\nresponse.write(\'\\n        </div>\\n\\n        \', escape=False)\nif right_sidebar_enabled:\n    response.write(\'\\n        <div class="span3">\\n            \', escape=False)\n    response.write(\'\\n            <h3>Right Sidebar</h3>\\n            <p></p>\\n            \', escape=False)\n    response.write(\'\\n        </div>\\n        \', escape=False)\n    pass\nresponse.write(\'\\n    </section><!--/main-->\\n\\n    <!-- Footer ================================================== -->\\n    <div class="row">\\n        <footer class="footer span12" id="footer">\\n            <div class="footer-content">\\n                \', escape=False)\nresponse.write(\' <!-- this is default footer -->\\n                <div class="copyright pull-left">\', escape=False)\nresponse.write(T(\'Copyright\'))\nresponse.write(\' &#169; \', escape=False)\nresponse.write(request.now.year)\nresponse.write(\'</div>\\n                <div id="poweredBy" class="pull-right">\\n                    \', escape=False)\nresponse.write(T(\'Powered by\'))\nresponse.write(\'\\n                    <a href="http://www.web2py.com/">web2py</a>\\n                </div>\\n                \', escape=False)\nresponse.write(\'\\n            </div>\\n        </footer>\\n    </div>\\n\\n  </div> <!-- /container -->\\n\\n  <!-- The javascript =============================================\\n       (Placed at the end of the document so the pages load faster) -->\\n  <script src="\', escape=False)\nresponse.write(URL(\'static\',\'js/bootstrap.min.js\'))\nresponse.write(\'"></script>\\n  <script src="\', escape=False)\nresponse.write(URL(\'static\',\'js/web2py_bootstrap.js\'))\nresponse.write(\'"></script>\\n  <!--[if lt IE 7 ]>\\n      <script src="\', escape=False)\nresponse.write(URL(\'static\',\'js/dd_belatedpng.js\'))\nresponse.write(\'"></script>\\n      <script> DD_belatedPNG.fix(\\\'img, .png_bg\\\'); //fix any <img> or .png_bg background-images </script>\\n      <![endif]-->\\n  \\n  \', escape=False)\nif response.google_analytics_id:\n    response.write(\'\\n  <script src="\', escape=False)\n    response.write(URL(\'static\',\'js/analytics.js\'))\n    response.write(\'"></script>\\n  <script type="text/javascript">\\n  analytics.initialize({\\n    \\\'Google Analytics\\\':{trackingId:\\\'\', escape=False)\n    response.write(response.google_analytics_id)\n    response.write("\'} \\n  });</script>\\n  ", escape=False)\n    pass\nresponse.write(\'\\n  <script src="\', escape=False)\nresponse.write(URL(\'static\',\'js/share.js\',vars=dict(static=URL(\'static\',\'images\'))))\nresponse.write(\'"></script>\\n</body>\\n</html>\\n\\n\', escape=False)'
p7
sS'snapshot'
p8
(dp9
S'exception'
p10
(dp11
S'__hash__'
p12
S"<method-wrapper '__hash__' of exceptions.AttributeError object>"
p13
sS'__setattr__'
p14
S"<method-wrapper '__setattr__' of exceptions.AttributeError object>"
p15
sS'__reduce_ex__'
p16
S'<built-in method __reduce_ex__ of exceptions.AttributeError object>'
p17
sS'__getslice__'
p18
S"<method-wrapper '__getslice__' of exceptions.AttributeError object>"
p19
sS'__getitem__'
p20
S"<method-wrapper '__getitem__' of exceptions.AttributeError object>"
p21
sS'__setstate__'
p22
S'<built-in method __setstate__ of exceptions.AttributeError object>'
p23
sS'__reduce__'
p24
S'<built-in method __reduce__ of exceptions.AttributeError object>'
p25
sS'__str__'
p26
S"<method-wrapper '__str__' of exceptions.AttributeError object>"
p27
sS'__format__'
p28
S'<built-in method __format__ of exceptions.AttributeError object>'
p29
sS'__getattribute__'
p30
S"<method-wrapper '__getattribute__' of exceptions.AttributeError object>"
p31
sS'__class__'
p32
S"<type 'exceptions.AttributeError'>"
p33
sS'__unicode__'
p34
S'<built-in method __unicode__ of exceptions.AttributeError object>'
p35
sS'__delattr__'
p36
S"<method-wrapper '__delattr__' of exceptions.AttributeError object>"
p37
sS'__subclasshook__'
p38
S'<built-in method __subclasshook__ of type object>'
p39
sS'__repr__'
p40
S"<method-wrapper '__repr__' of exceptions.AttributeError object>"
p41
sS'args'
p42
S'("\'NoneType\' object has no attribute \'id\'",)'
p43
sS'__dict__'
p44
S'{}'
p45
sS'__sizeof__'
p46
S'<built-in method __sizeof__ of exceptions.AttributeError object>'
p47
sS'__doc__'
p48
S"'Attribute not found.'"
p49
sS'__init__'
p50
S"<method-wrapper '__init__' of exceptions.AttributeError object>"
p51
sS'__new__'
p52
S'<built-in method __new__ of type object>'
p53
ssS'evalue'
p54
S"'NoneType' object has no attribute 'id'"
p55
sS'request'
p56
ccopy_reg
_reconstructor
p57
(cgluon.html
BEAUTIFY
p58
c__builtin__
object
p59
NtRp60
(dp61
S'attributes'
p62
(dp63
sS'components'
p64
(lp65
g57
(cgluon.html
TABLE
p66
g59
NtRp67
(dp68
g62
(dp69
S'level'
p70
I5
ssS'parent'
p71
Nsg64
(lp72
g57
(cgluon.html
TR
p73
g59
NtRp74
(dp75
g62
(dp76
sg71
g67
sg64
(lp77
g57
(cgluon.html
TD
p78
g59
NtRp79
(dp80
g62
(dp81
S'_style'
p82
S'font-weight:bold;vertical-align:top'
p83
ssg71
g74
sg64
(lp84
S'ajax'
p85
asbag57
(g78
g59
NtRp86
(dp87
g62
(dp88
S'_valign'
p89
S'top'
p90
ssg71
g74
sg64
(lp91
S':'
asbag57
(g78
g59
NtRp92
(dp93
g62
(dp94
sg71
g74
sg64
(lp95
g57
(g58
g59
NtRp96
(dp97
g62
(dp98
g70
I5
ssg71
g92
sg64
(lp99
S'False'
p100
asbasbasbag57
(g73
g59
NtRp101
(dp102
g62
(dp103
sg71
g67
sg64
(lp104
g57
(g78
g59
NtRp105
(dp106
g62
(dp107
g82
g83
ssg71
g101
sg64
(lp108
S'application'
p109
asbag57
(g78
g59
NtRp110
(dp111
g62
(dp112
g89
g90
ssg71
g101
sg64
(lp113
S':'
asbag57
(g78
g59
NtRp114
(dp115
g62
(dp116
sg71
g101
sg64
(lp117
g57
(g58
g59
NtRp118
(dp119
g62
(dp120
g70
I5
ssg71
g114
sg64
(lp121
S'reddit'
p122
asbasbasbag57
(g73
g59
NtRp123
(dp124
g62
(dp125
sg71
g67
sg64
(lp126
g57
(g78
g59
NtRp127
(dp128
g62
(dp129
g82
g83
ssg71
g123
sg64
(lp130
g42
asbag57
(g78
g59
NtRp131
(dp132
g62
(dp133
g89
g90
ssg71
g123
sg64
(lp134
S':'
asbag57
(g78
g59
NtRp135
(dp136
g62
(dp137
sg71
g123
sg64
(lp138
g57
(g58
g59
NtRp139
(dp140
g62
(dp141
g70
I5
ssg71
g135
sg64
(lp142
g57
(g66
g59
NtRp143
(dp144
g62
(dp145
g70
I4
ssg71
Nsg64
(lp146
sbasbasbasbag57
(g73
g59
NtRp147
(dp148
g62
(dp149
sg71
g67
sg64
(lp150
g57
(g78
g59
NtRp151
(dp152
g62
(dp153
g82
g83
ssg71
g147
sg64
(lp154
S'body'
p155
asbag57
(g78
g59
NtRp156
(dp157
g62
(dp158
g89
g90
ssg71
g147
sg64
(lp159
S':'
asbag57
(g78
g59
NtRp160
(dp161
g62
(dp162
sg71
g147
sg64
(lp163
g57
(g58
g59
NtRp164
(dp165
g62
(dp166
g70
I5
ssg71
g160
sg64
(lp167
S'<cStringIO.StringO object at 0xae206c60>'
p168
asbasbasbag57
(g73
g59
NtRp169
(dp170
g62
(dp171
sg71
g67
sg64
(lp172
g57
(g78
g59
NtRp173
(dp174
g62
(dp175
g82
g83
ssg71
g169
sg64
(lp176
S'cid'
p177
asbag57
(g78
g59
NtRp178
(dp179
g62
(dp180
g89
g90
ssg71
g169
sg64
(lp181
S':'
asbag57
(g78
g59
NtRp182
(dp183
g62
(dp184
sg71
g169
sg64
(lp185
g57
(g58
g59
NtRp186
(dp187
g62
(dp188
g70
I5
ssg71
g182
sg64
(lp189
S'None'
p190
asbasbasbag57
(g73
g59
NtRp191
(dp192
g62
(dp193
sg71
g67
sg64
(lp194
g57
(g78
g59
NtRp195
(dp196
g62
(dp197
g82
g83
ssg71
g191
sg64
(lp198
S'client'
p199
asbag57
(g78
g59
NtRp200
(dp201
g62
(dp202
g89
g90
ssg71
g191
sg64
(lp203
S':'
asbag57
(g78
g59
NtRp204
(dp205
g62
(dp206
sg71
g191
sg64
(lp207
g57
(g58
g59
NtRp208
(dp209
g62
(dp210
g70
I5
ssg71
g204
sg64
(lp211
S'127.0.0.1'
p212
asbasbasbag57
(g73
g59
NtRp213
(dp214
g62
(dp215
sg71
g67
sg64
(lp216
g57
(g78
g59
NtRp217
(dp218
g62
(dp219
g82
g83
ssg71
g213
sg64
(lp220
S'controller'
p221
asbag57
(g78
g59
NtRp222
(dp223
g62
(dp224
g89
g90
ssg71
g213
sg64
(lp225
S':'
asbag57
(g78
g59
NtRp226
(dp227
g62
(dp228
sg71
g213
sg64
(lp229
g57
(g58
g59
NtRp230
(dp231
g62
(dp232
g70
I5
ssg71
g226
sg64
(lp233
S'default'
p234
asbasbasbag57
(g73
g59
NtRp235
(dp236
g62
(dp237
sg71
g67
sg64
(lp238
g57
(g78
g59
NtRp239
(dp240
g62
(dp241
g82
g83
ssg71
g235
sg64
(lp242
S'cookies'
p243
asbag57
(g78
g59
NtRp244
(dp245
g62
(dp246
g89
g90
ssg71
g235
sg64
(lp247
S':'
asbag57
(g78
g59
NtRp248
(dp249
g62
(dp250
sg71
g235
sg64
(lp251
g57
(g58
g59
NtRp252
(dp253
g62
(dp254
g70
I5
ssg71
g248
sg64
(lp255
g57
(g66
g59
NtRp256
(dp257
g62
(dp258
g70
I4
ssg71
Nsg64
(lp259
g57
(g73
g59
NtRp260
(dp261
g62
(dp262
sg71
g256
sg64
(lp263
g57
(g78
g59
NtRp264
(dp265
g62
(dp266
g82
g83
ssg71
g260
sg64
(lp267
S'session_id_20120156_assignment_1'
p268
asbag57
(g78
g59
NtRp269
(dp270
g62
(dp271
g89
g90
ssg71
g260
sg64
(lp272
S':'
asbag57
(g78
g59
NtRp273
(dp274
g62
(dp275
sg71
g260
sg64
(lp276
g57
(g58
g59
NtRp277
(dp278
g62
(dp279
g70
I4
ssg71
g273
sg64
(lp280
S'127.0.0.1-6cad324c-0572-4be8-8f41-6fcaca863c93'
p281
ag57
(g66
g59
NtRp282
(dp283
g62
(dp284
g70
I3
ssg71
Nsg64
(lp285
g57
(g73
g59
NtRp286
(dp287
g62
(dp288
sg71
g282
sg64
(lp289
g57
(g78
g59
NtRp290
(dp291
g62
(dp292
g82
g83
ssg71
g286
sg64
(lp293
S'comment'
p294
asbag57
(g78
g59
NtRp295
(dp296
g62
(dp297
g89
g90
ssg71
g286
sg64
(lp298
S':'
asbag57
(g78
g59
NtRp299
(dp300
g62
(dp301
sg71
g286
sg64
(lp302
g57
(g58
g59
NtRp303
(dp304
g62
(dp305
g70
I3
ssg71
g299
sg64
(lp306
S''
asbasbasbag57
(g73
g59
NtRp307
(dp308
g62
(dp309
sg71
g282
sg64
(lp310
g57
(g78
g59
NtRp311
(dp312
g62
(dp313
g82
g83
ssg71
g307
sg64
(lp314
S'domain'
p315
asbag57
(g78
g59
NtRp316
(dp317
g62
(dp318
g89
g90
ssg71
g307
sg64
(lp319
S':'
asbag57
(g78
g59
NtRp320
(dp321
g62
(dp322
sg71
g307
sg64
(lp323
g57
(g58
g59
NtRp324
(dp325
g62
(dp326
g70
I3
ssg71
g320
sg64
(lp327
S''
asbasbasbag57
(g73
g59
NtRp328
(dp329
g62
(dp330
sg71
g282
sg64
(lp331
g57
(g78
g59
NtRp332
(dp333
g62
(dp334
g82
g83
ssg71
g328
sg64
(lp335
S'expires'
p336
asbag57
(g78
g59
NtRp337
(dp338
g62
(dp339
g89
g90
ssg71
g328
sg64
(lp340
S':'
asbag57
(g78
g59
NtRp341
(dp342
g62
(dp343
sg71
g328
sg64
(lp344
g57
(g58
g59
NtRp345
(dp346
g62
(dp347
g70
I3
ssg71
g341
sg64
(lp348
S''
asbasbasbag57
(g73
g59
NtRp349
(dp350
g62
(dp351
sg71
g282
sg64
(lp352
g57
(g78
g59
NtRp353
(dp354
g62
(dp355
g82
g83
ssg71
g349
sg64
(lp356
S'httponly'
p357
asbag57
(g78
g59
NtRp358
(dp359
g62
(dp360
g89
g90
ssg71
g349
sg64
(lp361
S':'
asbag57
(g78
g59
NtRp362
(dp363
g62
(dp364
sg71
g349
sg64
(lp365
g57
(g58
g59
NtRp366
(dp367
g62
(dp368
g70
I3
ssg71
g362
sg64
(lp369
S''
asbasbasbag57
(g73
g59
NtRp370
(dp371
g62
(dp372
sg71
g282
sg64
(lp373
g57
(g78
g59
NtRp374
(dp375
g62
(dp376
g82
g83
ssg71
g370
sg64
(lp377
S'max-age'
p378
asbag57
(g78
g59
NtRp379
(dp380
g62
(dp381
g89
g90
ssg71
g370
sg64
(lp382
S':'
asbag57
(g78
g59
NtRp383
(dp384
g62
(dp385
sg71
g370
sg64
(lp386
g57
(g58
g59
NtRp387
(dp388
g62
(dp389
g70
I3
ssg71
g383
sg64
(lp390
S''
asbasbasbag57
(g73
g59
NtRp391
(dp392
g62
(dp393
sg71
g282
sg64
(lp394
g57
(g78
g59
NtRp395
(dp396
g62
(dp397
g82
g83
ssg71
g391
sg64
(lp398
S'path'
p399
asbag57
(g78
g59
NtRp400
(dp401
g62
(dp402
g89
g90
ssg71
g391
sg64
(lp403
S':'
asbag57
(g78
g59
NtRp404
(dp405
g62
(dp406
sg71
g391
sg64
(lp407
g57
(g58
g59
NtRp408
(dp409
g62
(dp410
g70
I3
ssg71
g404
sg64
(lp411
S''
asbasbasbag57
(g73
g59
NtRp412
(dp413
g62
(dp414
sg71
g282
sg64
(lp415
g57
(g78
g59
NtRp416
(dp417
g62
(dp418
g82
g83
ssg71
g412
sg64
(lp419
S'secure'
p420
asbag57
(g78
g59
NtRp421
(dp422
g62
(dp423
g89
g90
ssg71
g412
sg64
(lp424
S':'
asbag57
(g78
g59
NtRp425
(dp426
g62
(dp427
sg71
g412
sg64
(lp428
g57
(g58
g59
NtRp429
(dp430
g62
(dp431
g70
I3
ssg71
g425
sg64
(lp432
S''
asbasbasbag57
(g73
g59
NtRp433
(dp434
g62
(dp435
sg71
g282
sg64
(lp436
g57
(g78
g59
NtRp437
(dp438
g62
(dp439
g82
g83
ssg71
g433
sg64
(lp440
S'version'
p441
asbag57
(g78
g59
NtRp442
(dp443
g62
(dp444
g89
g90
ssg71
g433
sg64
(lp445
S':'
asbag57
(g78
g59
NtRp446
(dp447
g62
(dp448
sg71
g433
sg64
(lp449
g57
(g58
g59
NtRp450
(dp451
g62
(dp452
g70
I3
ssg71
g446
sg64
(lp453
S''
asbasbasbasbasbasbasbag57
(g73
g59
NtRp454
(dp455
g62
(dp456
sg71
g256
sg64
(lp457
g57
(g78
g59
NtRp458
(dp459
g62
(dp460
g82
g83
ssg71
g454
sg64
(lp461
S'session_id_admin'
p462
asbag57
(g78
g59
NtRp463
(dp464
g62
(dp465
g89
g90
ssg71
g454
sg64
(lp466
S':'
asbag57
(g78
g59
NtRp467
(dp468
g62
(dp469
sg71
g454
sg64
(lp470
g57
(g58
g59
NtRp471
(dp472
g62
(dp473
g70
I4
ssg71
g467
sg64
(lp474
S'127.0.0.1-eea59e1b-9257-4df1-8c44-da77bf9e4ec2'
p475
ag57
(g66
g59
NtRp476
(dp477
g62
(dp478
g70
I3
ssg71
Nsg64
(lp479
g57
(g73
g59
NtRp480
(dp481
g62
(dp482
sg71
g476
sg64
(lp483
g57
(g78
g59
NtRp484
(dp485
g62
(dp486
g82
g83
ssg71
g480
sg64
(lp487
g294
asbag57
(g78
g59
NtRp488
(dp489
g62
(dp490
g89
g90
ssg71
g480
sg64
(lp491
S':'
asbag57
(g78
g59
NtRp492
(dp493
g62
(dp494
sg71
g480
sg64
(lp495
g57
(g58
g59
NtRp496
(dp497
g62
(dp498
g70
I3
ssg71
g492
sg64
(lp499
S''
asbasbasbag57
(g73
g59
NtRp500
(dp501
g62
(dp502
sg71
g476
sg64
(lp503
g57
(g78
g59
NtRp504
(dp505
g62
(dp506
g82
g83
ssg71
g500
sg64
(lp507
g315
asbag57
(g78
g59
NtRp508
(dp509
g62
(dp510
g89
g90
ssg71
g500
sg64
(lp511
S':'
asbag57
(g78
g59
NtRp512
(dp513
g62
(dp514
sg71
g500
sg64
(lp515
g57
(g58
g59
NtRp516
(dp517
g62
(dp518
g70
I3
ssg71
g512
sg64
(lp519
S''
asbasbasbag57
(g73
g59
NtRp520
(dp521
g62
(dp522
sg71
g476
sg64
(lp523
g57
(g78
g59
NtRp524
(dp525
g62
(dp526
g82
g83
ssg71
g520
sg64
(lp527
g336
asbag57
(g78
g59
NtRp528
(dp529
g62
(dp530
g89
g90
ssg71
g520
sg64
(lp531
S':'
asbag57
(g78
g59
NtRp532
(dp533
g62
(dp534
sg71
g520
sg64
(lp535
g57
(g58
g59
NtRp536
(dp537
g62
(dp538
g70
I3
ssg71
g532
sg64
(lp539
S''
asbasbasbag57
(g73
g59
NtRp540
(dp541
g62
(dp542
sg71
g476
sg64
(lp543
g57
(g78
g59
NtRp544
(dp545
g62
(dp546
g82
g83
ssg71
g540
sg64
(lp547
g357
asbag57
(g78
g59
NtRp548
(dp549
g62
(dp550
g89
g90
ssg71
g540
sg64
(lp551
S':'
asbag57
(g78
g59
NtRp552
(dp553
g62
(dp554
sg71
g540
sg64
(lp555
g57
(g58
g59
NtRp556
(dp557
g62
(dp558
g70
I3
ssg71
g552
sg64
(lp559
S''
asbasbasbag57
(g73
g59
NtRp560
(dp561
g62
(dp562
sg71
g476
sg64
(lp563
g57
(g78
g59
NtRp564
(dp565
g62
(dp566
g82
g83
ssg71
g560
sg64
(lp567
g378
asbag57
(g78
g59
NtRp568
(dp569
g62
(dp570
g89
g90
ssg71
g560
sg64
(lp571
S':'
asbag57
(g78
g59
NtRp572
(dp573
g62
(dp574
sg71
g560
sg64
(lp575
g57
(g58
g59
NtRp576
(dp577
g62
(dp578
g70
I3
ssg71
g572
sg64
(lp579
S''
asbasbasbag57
(g73
g59
NtRp580
(dp581
g62
(dp582
sg71
g476
sg64
(lp583
g57
(g78
g59
NtRp584
(dp585
g62
(dp586
g82
g83
ssg71
g580
sg64
(lp587
g399
asbag57
(g78
g59
NtRp588
(dp589
g62
(dp590
g89
g90
ssg71
g580
sg64
(lp591
S':'
asbag57
(g78
g59
NtRp592
(dp593
g62
(dp594
sg71
g580
sg64
(lp595
g57
(g58
g59
NtRp596
(dp597
g62
(dp598
g70
I3
ssg71
g592
sg64
(lp599
S''
asbasbasbag57
(g73
g59
NtRp600
(dp601
g62
(dp602
sg71
g476
sg64
(lp603
g57
(g78
g59
NtRp604
(dp605
g62
(dp606
g82
g83
ssg71
g600
sg64
(lp607
g420
asbag57
(g78
g59
NtRp608
(dp609
g62
(dp610
g89
g90
ssg71
g600
sg64
(lp611
S':'
asbag57
(g78
g59
NtRp612
(dp613
g62
(dp614
sg71
g600
sg64
(lp615
g57
(g58
g59
NtRp616
(dp617
g62
(dp618
g70
I3
ssg71
g612
sg64
(lp619
S''
asbasbasbag57
(g73
g59
NtRp620
(dp621
g62
(dp622
sg71
g476
sg64
(lp623
g57
(g78
g59
NtRp624
(dp625
g62
(dp626
g82
g83
ssg71
g620
sg64
(lp627
g441
asbag57
(g78
g59
NtRp628
(dp629
g62
(dp630
g89
g90
ssg71
g620
sg64
(lp631
S':'
asbag57
(g78
g59
NtRp632
(dp633
g62
(dp634
sg71
g620
sg64
(lp635
g57
(g58
g59
NtRp636
(dp637
g62
(dp638
g70
I3
ssg71
g632
sg64
(lp639
S''
asbasbasbasbasbasbasbag57
(g73
g59
NtRp640
(dp641
g62
(dp642
sg71
g256
sg64
(lp643
g57
(g78
g59
NtRp644
(dp645
g62
(dp646
g82
g83
ssg71
g640
sg64
(lp647
S'session_id_arihant'
p648
asbag57
(g78
g59
NtRp649
(dp650
g62
(dp651
g89
g90
ssg71
g640
sg64
(lp652
S':'
asbag57
(g78
g59
NtRp653
(dp654
g62
(dp655
sg71
g640
sg64
(lp656
g57
(g58
g59
NtRp657
(dp658
g62
(dp659
g70
I4
ssg71
g653
sg64
(lp660
S'127.0.0.1-fa99deb6-5977-491c-864a-b5d79c0d1842'
p661
ag57
(g66
g59
NtRp662
(dp663
g62
(dp664
g70
I3
ssg71
Nsg64
(lp665
g57
(g73
g59
NtRp666
(dp667
g62
(dp668
sg71
g662
sg64
(lp669
g57
(g78
g59
NtRp670
(dp671
g62
(dp672
g82
g83
ssg71
g666
sg64
(lp673
g294
asbag57
(g78
g59
NtRp674
(dp675
g62
(dp676
g89
g90
ssg71
g666
sg64
(lp677
S':'
asbag57
(g78
g59
NtRp678
(dp679
g62
(dp680
sg71
g666
sg64
(lp681
g57
(g58
g59
NtRp682
(dp683
g62
(dp684
g70
I3
ssg71
g678
sg64
(lp685
S''
asbasbasbag57
(g73
g59
NtRp686
(dp687
g62
(dp688
sg71
g662
sg64
(lp689
g57
(g78
g59
NtRp690
(dp691
g62
(dp692
g82
g83
ssg71
g686
sg64
(lp693
g315
asbag57
(g78
g59
NtRp694
(dp695
g62
(dp696
g89
g90
ssg71
g686
sg64
(lp697
S':'
asbag57
(g78
g59
NtRp698
(dp699
g62
(dp700
sg71
g686
sg64
(lp701
g57
(g58
g59
NtRp702
(dp703
g62
(dp704
g70
I3
ssg71
g698
sg64
(lp705
S''
asbasbasbag57
(g73
g59
NtRp706
(dp707
g62
(dp708
sg71
g662
sg64
(lp709
g57
(g78
g59
NtRp710
(dp711
g62
(dp712
g82
g83
ssg71
g706
sg64
(lp713
g336
asbag57
(g78
g59
NtRp714
(dp715
g62
(dp716
g89
g90
ssg71
g706
sg64
(lp717
S':'
asbag57
(g78
g59
NtRp718
(dp719
g62
(dp720
sg71
g706
sg64
(lp721
g57
(g58
g59
NtRp722
(dp723
g62
(dp724
g70
I3
ssg71
g718
sg64
(lp725
S''
asbasbasbag57
(g73
g59
NtRp726
(dp727
g62
(dp728
sg71
g662
sg64
(lp729
g57
(g78
g59
NtRp730
(dp731
g62
(dp732
g82
g83
ssg71
g726
sg64
(lp733
g357
asbag57
(g78
g59
NtRp734
(dp735
g62
(dp736
g89
g90
ssg71
g726
sg64
(lp737
S':'
asbag57
(g78
g59
NtRp738
(dp739
g62
(dp740
sg71
g726
sg64
(lp741
g57
(g58
g59
NtRp742
(dp743
g62
(dp744
g70
I3
ssg71
g738
sg64
(lp745
S''
asbasbasbag57
(g73
g59
NtRp746
(dp747
g62
(dp748
sg71
g662
sg64
(lp749
g57
(g78
g59
NtRp750
(dp751
g62
(dp752
g82
g83
ssg71
g746
sg64
(lp753
g378
asbag57
(g78
g59
NtRp754
(dp755
g62
(dp756
g89
g90
ssg71
g746
sg64
(lp757
S':'
asbag57
(g78
g59
NtRp758
(dp759
g62
(dp760
sg71
g746
sg64
(lp761
g57
(g58
g59
NtRp762
(dp763
g62
(dp764
g70
I3
ssg71
g758
sg64
(lp765
S''
asbasbasbag57
(g73
g59
NtRp766
(dp767
g62
(dp768
sg71
g662
sg64
(lp769
g57
(g78
g59
NtRp770
(dp771
g62
(dp772
g82
g83
ssg71
g766
sg64
(lp773
g399
asbag57
(g78
g59
NtRp774
(dp775
g62
(dp776
g89
g90
ssg71
g766
sg64
(lp777
S':'
asbag57
(g78
g59
NtRp778
(dp779
g62
(dp780
sg71
g766
sg64
(lp781
g57
(g58
g59
NtRp782
(dp783
g62
(dp784
g70
I3
ssg71
g778
sg64
(lp785
S''
asbasbasbag57
(g73
g59
NtRp786
(dp787
g62
(dp788
sg71
g662
sg64
(lp789
g57
(g78
g59
NtRp790
(dp791
g62
(dp792
g82
g83
ssg71
g786
sg64
(lp793
g420
asbag57
(g78
g59
NtRp794
(dp795
g62
(dp796
g89
g90
ssg71
g786
sg64
(lp797
S':'
asbag57
(g78
g59
NtRp798
(dp799
g62
(dp800
sg71
g786
sg64
(lp801
g57
(g58
g59
NtRp802
(dp803
g62
(dp804
g70
I3
ssg71
g798
sg64
(lp805
S''
asbasbasbag57
(g73
g59
NtRp806
(dp807
g62
(dp808
sg71
g662
sg64
(lp809
g57
(g78
g59
NtRp810
(dp811
g62
(dp812
g82
g83
ssg71
g806
sg64
(lp813
g441
asbag57
(g78
g59
NtRp814
(dp815
g62
(dp816
g89
g90
ssg71
g806
sg64
(lp817
S':'
asbag57
(g78
g59
NtRp818
(dp819
g62
(dp820
sg71
g806
sg64
(lp821
g57
(g58
g59
NtRp822
(dp823
g62
(dp824
g70
I3
ssg71
g818
sg64
(lp825
S''
asbasbasbasbasbasbasbag57
(g73
g59
NtRp826
(dp827
g62
(dp828
sg71
g256
sg64
(lp829
g57
(g78
g59
NtRp830
(dp831
g62
(dp832
g82
g83
ssg71
g826
sg64
(lp833
S'session_id_cataminder'
p834
asbag57
(g78
g59
NtRp835
(dp836
g62
(dp837
g89
g90
ssg71
g826
sg64
(lp838
S':'
asbag57
(g78
g59
NtRp839
(dp840
g62
(dp841
sg71
g826
sg64
(lp842
g57
(g58
g59
NtRp843
(dp844
g62
(dp845
g70
I4
ssg71
g839
sg64
(lp846
S'127.0.0.1-81b628a7-34a5-4e70-a95c-79ef710dcdbb'
p847
ag57
(g66
g59
NtRp848
(dp849
g62
(dp850
g70
I3
ssg71
Nsg64
(lp851
g57
(g73
g59
NtRp852
(dp853
g62
(dp854
sg71
g848
sg64
(lp855
g57
(g78
g59
NtRp856
(dp857
g62
(dp858
g82
g83
ssg71
g852
sg64
(lp859
g294
asbag57
(g78
g59
NtRp860
(dp861
g62
(dp862
g89
g90
ssg71
g852
sg64
(lp863
S':'
asbag57
(g78
g59
NtRp864
(dp865
g62
(dp866
sg71
g852
sg64
(lp867
g57
(g58
g59
NtRp868
(dp869
g62
(dp870
g70
I3
ssg71
g864
sg64
(lp871
S''
asbasbasbag57
(g73
g59
NtRp872
(dp873
g62
(dp874
sg71
g848
sg64
(lp875
g57
(g78
g59
NtRp876
(dp877
g62
(dp878
g82
g83
ssg71
g872
sg64
(lp879
g315
asbag57
(g78
g59
NtRp880
(dp881
g62
(dp882
g89
g90
ssg71
g872
sg64
(lp883
S':'
asbag57
(g78
g59
NtRp884
(dp885
g62
(dp886
sg71
g872
sg64
(lp887
g57
(g58
g59
NtRp888
(dp889
g62
(dp890
g70
I3
ssg71
g884
sg64
(lp891
S''
asbasbasbag57
(g73
g59
NtRp892
(dp893
g62
(dp894
sg71
g848
sg64
(lp895
g57
(g78
g59
NtRp896
(dp897
g62
(dp898
g82
g83
ssg71
g892
sg64
(lp899
g336
asbag57
(g78
g59
NtRp900
(dp901
g62
(dp902
g89
g90
ssg71
g892
sg64
(lp903
S':'
asbag57
(g78
g59
NtRp904
(dp905
g62
(dp906
sg71
g892
sg64
(lp907
g57
(g58
g59
NtRp908
(dp909
g62
(dp910
g70
I3
ssg71
g904
sg64
(lp911
S''
asbasbasbag57
(g73
g59
NtRp912
(dp913
g62
(dp914
sg71
g848
sg64
(lp915
g57
(g78
g59
NtRp916
(dp917
g62
(dp918
g82
g83
ssg71
g912
sg64
(lp919
g357
asbag57
(g78
g59
NtRp920
(dp921
g62
(dp922
g89
g90
ssg71
g912
sg64
(lp923
S':'
asbag57
(g78
g59
NtRp924
(dp925
g62
(dp926
sg71
g912
sg64
(lp927
g57
(g58
g59
NtRp928
(dp929
g62
(dp930
g70
I3
ssg71
g924
sg64
(lp931
S''
asbasbasbag57
(g73
g59
NtRp932
(dp933
g62
(dp934
sg71
g848
sg64
(lp935
g57
(g78
g59
NtRp936
(dp937
g62
(dp938
g82
g83
ssg71
g932
sg64
(lp939
g378
asbag57
(g78
g59
NtRp940
(dp941
g62
(dp942
g89
g90
ssg71
g932
sg64
(lp943
S':'
asbag57
(g78
g59
NtRp944
(dp945
g62
(dp946
sg71
g932
sg64
(lp947
g57
(g58
g59
NtRp948
(dp949
g62
(dp950
g70
I3
ssg71
g944
sg64
(lp951
S''
asbasbasbag57
(g73
g59
NtRp952
(dp953
g62
(dp954
sg71
g848
sg64
(lp955
g57
(g78
g59
NtRp956
(dp957
g62
(dp958
g82
g83
ssg71
g952
sg64
(lp959
g399
asbag57
(g78
g59
NtRp960
(dp961
g62
(dp962
g89
g90
ssg71
g952
sg64
(lp963
S':'
asbag57
(g78
g59
NtRp964
(dp965
g62
(dp966
sg71
g952
sg64
(lp967
g57
(g58
g59
NtRp968
(dp969
g62
(dp970
g70
I3
ssg71
g964
sg64
(lp971
S''
asbasbasbag57
(g73
g59
NtRp972
(dp973
g62
(dp974
sg71
g848
sg64
(lp975
g57
(g78
g59
NtRp976
(dp977
g62
(dp978
g82
g83
ssg71
g972
sg64
(lp979
g420
asbag57
(g78
g59
NtRp980
(dp981
g62
(dp982
g89
g90
ssg71
g972
sg64
(lp983
S':'
asbag57
(g78
g59
NtRp984
(dp985
g62
(dp986
sg71
g972
sg64
(lp987
g57
(g58
g59
NtRp988
(dp989
g62
(dp990
g70
I3
ssg71
g984
sg64
(lp991
S''
asbasbasbag57
(g73
g59
NtRp992
(dp993
g62
(dp994
sg71
g848
sg64
(lp995
g57
(g78
g59
NtRp996
(dp997
g62
(dp998
g82
g83
ssg71
g992
sg64
(lp999
g441
asbag57
(g78
g59
NtRp1000
(dp1001
g62
(dp1002
g89
g90
ssg71
g992
sg64
(lp1003
S':'
asbag57
(g78
g59
NtRp1004
(dp1005
g62
(dp1006
sg71
g992
sg64
(lp1007
g57
(g58
g59
NtRp1008
(dp1009
g62
(dp1010
g70
I3
ssg71
g1004
sg64
(lp1011
S''
asbasbasbasbasbasbasbag57
(g73
g59
NtRp1012
(dp1013
g62
(dp1014
sg71
g256
sg64
(lp1015
g57
(g78
g59
NtRp1016
(dp1017
g62
(dp1018
g82
g83
ssg71
g1012
sg64
(lp1019
S'session_id_courses'
p1020
asbag57
(g78
g59
NtRp1021
(dp1022
g62
(dp1023
g89
g90
ssg71
g1012
sg64
(lp1024
S':'
asbag57
(g78
g59
NtRp1025
(dp1026
g62
(dp1027
sg71
g1012
sg64
(lp1028
g57
(g58
g59
NtRp1029
(dp1030
g62
(dp1031
g70
I4
ssg71
g1025
sg64
(lp1032
S'127.0.0.1-1d46c4eb-fdfc-4abb-bb62-6bcf52d1fcaa'
p1033
ag57
(g66
g59
NtRp1034
(dp1035
g62
(dp1036
g70
I3
ssg71
Nsg64
(lp1037
g57
(g73
g59
NtRp1038
(dp1039
g62
(dp1040
sg71
g1034
sg64
(lp1041
g57
(g78
g59
NtRp1042
(dp1043
g62
(dp1044
g82
g83
ssg71
g1038
sg64
(lp1045
g294
asbag57
(g78
g59
NtRp1046
(dp1047
g62
(dp1048
g89
g90
ssg71
g1038
sg64
(lp1049
S':'
asbag57
(g78
g59
NtRp1050
(dp1051
g62
(dp1052
sg71
g1038
sg64
(lp1053
g57
(g58
g59
NtRp1054
(dp1055
g62
(dp1056
g70
I3
ssg71
g1050
sg64
(lp1057
S''
asbasbasbag57
(g73
g59
NtRp1058
(dp1059
g62
(dp1060
sg71
g1034
sg64
(lp1061
g57
(g78
g59
NtRp1062
(dp1063
g62
(dp1064
g82
g83
ssg71
g1058
sg64
(lp1065
g315
asbag57
(g78
g59
NtRp1066
(dp1067
g62
(dp1068
g89
g90
ssg71
g1058
sg64
(lp1069
S':'
asbag57
(g78
g59
NtRp1070
(dp1071
g62
(dp1072
sg71
g1058
sg64
(lp1073
g57
(g58
g59
NtRp1074
(dp1075
g62
(dp1076
g70
I3
ssg71
g1070
sg64
(lp1077
S''
asbasbasbag57
(g73
g59
NtRp1078
(dp1079
g62
(dp1080
sg71
g1034
sg64
(lp1081
g57
(g78
g59
NtRp1082
(dp1083
g62
(dp1084
g82
g83
ssg71
g1078
sg64
(lp1085
g336
asbag57
(g78
g59
NtRp1086
(dp1087
g62
(dp1088
g89
g90
ssg71
g1078
sg64
(lp1089
S':'
asbag57
(g78
g59
NtRp1090
(dp1091
g62
(dp1092
sg71
g1078
sg64
(lp1093
g57
(g58
g59
NtRp1094
(dp1095
g62
(dp1096
g70
I3
ssg71
g1090
sg64
(lp1097
S''
asbasbasbag57
(g73
g59
NtRp1098
(dp1099
g62
(dp1100
sg71
g1034
sg64
(lp1101
g57
(g78
g59
NtRp1102
(dp1103
g62
(dp1104
g82
g83
ssg71
g1098
sg64
(lp1105
g357
asbag57
(g78
g59
NtRp1106
(dp1107
g62
(dp1108
g89
g90
ssg71
g1098
sg64
(lp1109
S':'
asbag57
(g78
g59
NtRp1110
(dp1111
g62
(dp1112
sg71
g1098
sg64
(lp1113
g57
(g58
g59
NtRp1114
(dp1115
g62
(dp1116
g70
I3
ssg71
g1110
sg64
(lp1117
S''
asbasbasbag57
(g73
g59
NtRp1118
(dp1119
g62
(dp1120
sg71
g1034
sg64
(lp1121
g57
(g78
g59
NtRp1122
(dp1123
g62
(dp1124
g82
g83
ssg71
g1118
sg64
(lp1125
g378
asbag57
(g78
g59
NtRp1126
(dp1127
g62
(dp1128
g89
g90
ssg71
g1118
sg64
(lp1129
S':'
asbag57
(g78
g59
NtRp1130
(dp1131
g62
(dp1132
sg71
g1118
sg64
(lp1133
g57
(g58
g59
NtRp1134
(dp1135
g62
(dp1136
g70
I3
ssg71
g1130
sg64
(lp1137
S''
asbasbasbag57
(g73
g59
NtRp1138
(dp1139
g62
(dp1140
sg71
g1034
sg64
(lp1141
g57
(g78
g59
NtRp1142
(dp1143
g62
(dp1144
g82
g83
ssg71
g1138
sg64
(lp1145
g399
asbag57
(g78
g59
NtRp1146
(dp1147
g62
(dp1148
g89
g90
ssg71
g1138
sg64
(lp1149
S':'
asbag57
(g78
g59
NtRp1150
(dp1151
g62
(dp1152
sg71
g1138
sg64
(lp1153
g57
(g58
g59
NtRp1154
(dp1155
g62
(dp1156
g70
I3
ssg71
g1150
sg64
(lp1157
S''
asbasbasbag57
(g73
g59
NtRp1158
(dp1159
g62
(dp1160
sg71
g1034
sg64
(lp1161
g57
(g78
g59
NtRp1162
(dp1163
g62
(dp1164
g82
g83
ssg71
g1158
sg64
(lp1165
g420
asbag57
(g78
g59
NtRp1166
(dp1167
g62
(dp1168
g89
g90
ssg71
g1158
sg64
(lp1169
S':'
asbag57
(g78
g59
NtRp1170
(dp1171
g62
(dp1172
sg71
g1158
sg64
(lp1173
g57
(g58
g59
NtRp1174
(dp1175
g62
(dp1176
g70
I3
ssg71
g1170
sg64
(lp1177
S''
asbasbasbag57
(g73
g59
NtRp1178
(dp1179
g62
(dp1180
sg71
g1034
sg64
(lp1181
g57
(g78
g59
NtRp1182
(dp1183
g62
(dp1184
g82
g83
ssg71
g1178
sg64
(lp1185
g441
asbag57
(g78
g59
NtRp1186
(dp1187
g62
(dp1188
g89
g90
ssg71
g1178
sg64
(lp1189
S':'
asbag57
(g78
g59
NtRp1190
(dp1191
g62
(dp1192
sg71
g1178
sg64
(lp1193
g57
(g58
g59
NtRp1194
(dp1195
g62
(dp1196
g70
I3
ssg71
g1190
sg64
(lp1197
S''
asbasbasbasbasbasbasbag57
(g73
g59
NtRp1198
(dp1199
g62
(dp1200
sg71
g256
sg64
(lp1201
g57
(g78
g59
NtRp1202
(dp1203
g62
(dp1204
g82
g83
ssg71
g1198
sg64
(lp1205
S'session_id_iiit_fb'
p1206
asbag57
(g78
g59
NtRp1207
(dp1208
g62
(dp1209
g89
g90
ssg71
g1198
sg64
(lp1210
S':'
asbag57
(g78
g59
NtRp1211
(dp1212
g62
(dp1213
sg71
g1198
sg64
(lp1214
g57
(g58
g59
NtRp1215
(dp1216
g62
(dp1217
g70
I4
ssg71
g1211
sg64
(lp1218
S'127.0.0.1-04b7df24-4720-4bb5-98de-96b98776240d'
p1219
ag57
(g66
g59
NtRp1220
(dp1221
g62
(dp1222
g70
I3
ssg71
Nsg64
(lp1223
g57
(g73
g59
NtRp1224
(dp1225
g62
(dp1226
sg71
g1220
sg64
(lp1227
g57
(g78
g59
NtRp1228
(dp1229
g62
(dp1230
g82
g83
ssg71
g1224
sg64
(lp1231
g294
asbag57
(g78
g59
NtRp1232
(dp1233
g62
(dp1234
g89
g90
ssg71
g1224
sg64
(lp1235
S':'
asbag57
(g78
g59
NtRp1236
(dp1237
g62
(dp1238
sg71
g1224
sg64
(lp1239
g57
(g58
g59
NtRp1240
(dp1241
g62
(dp1242
g70
I3
ssg71
g1236
sg64
(lp1243
S''
asbasbasbag57
(g73
g59
NtRp1244
(dp1245
g62
(dp1246
sg71
g1220
sg64
(lp1247
g57
(g78
g59
NtRp1248
(dp1249
g62
(dp1250
g82
g83
ssg71
g1244
sg64
(lp1251
g315
asbag57
(g78
g59
NtRp1252
(dp1253
g62
(dp1254
g89
g90
ssg71
g1244
sg64
(lp1255
S':'
asbag57
(g78
g59
NtRp1256
(dp1257
g62
(dp1258
sg71
g1244
sg64
(lp1259
g57
(g58
g59
NtRp1260
(dp1261
g62
(dp1262
g70
I3
ssg71
g1256
sg64
(lp1263
S''
asbasbasbag57
(g73
g59
NtRp1264
(dp1265
g62
(dp1266
sg71
g1220
sg64
(lp1267
g57
(g78
g59
NtRp1268
(dp1269
g62
(dp1270
g82
g83
ssg71
g1264
sg64
(lp1271
g336
asbag57
(g78
g59
NtRp1272
(dp1273
g62
(dp1274
g89
g90
ssg71
g1264
sg64
(lp1275
S':'
asbag57
(g78
g59
NtRp1276
(dp1277
g62
(dp1278
sg71
g1264
sg64
(lp1279
g57
(g58
g59
NtRp1280
(dp1281
g62
(dp1282
g70
I3
ssg71
g1276
sg64
(lp1283
S''
asbasbasbag57
(g73
g59
NtRp1284
(dp1285
g62
(dp1286
sg71
g1220
sg64
(lp1287
g57
(g78
g59
NtRp1288
(dp1289
g62
(dp1290
g82
g83
ssg71
g1284
sg64
(lp1291
g357
asbag57
(g78
g59
NtRp1292
(dp1293
g62
(dp1294
g89
g90
ssg71
g1284
sg64
(lp1295
S':'
asbag57
(g78
g59
NtRp1296
(dp1297
g62
(dp1298
sg71
g1284
sg64
(lp1299
g57
(g58
g59
NtRp1300
(dp1301
g62
(dp1302
g70
I3
ssg71
g1296
sg64
(lp1303
S''
asbasbasbag57
(g73
g59
NtRp1304
(dp1305
g62
(dp1306
sg71
g1220
sg64
(lp1307
g57
(g78
g59
NtRp1308
(dp1309
g62
(dp1310
g82
g83
ssg71
g1304
sg64
(lp1311
g378
asbag57
(g78
g59
NtRp1312
(dp1313
g62
(dp1314
g89
g90
ssg71
g1304
sg64
(lp1315
S':'
asbag57
(g78
g59
NtRp1316
(dp1317
g62
(dp1318
sg71
g1304
sg64
(lp1319
g57
(g58
g59
NtRp1320
(dp1321
g62
(dp1322
g70
I3
ssg71
g1316
sg64
(lp1323
S''
asbasbasbag57
(g73
g59
NtRp1324
(dp1325
g62
(dp1326
sg71
g1220
sg64
(lp1327
g57
(g78
g59
NtRp1328
(dp1329
g62
(dp1330
g82
g83
ssg71
g1324
sg64
(lp1331
g399
asbag57
(g78
g59
NtRp1332
(dp1333
g62
(dp1334
g89
g90
ssg71
g1324
sg64
(lp1335
S':'
asbag57
(g78
g59
NtRp1336
(dp1337
g62
(dp1338
sg71
g1324
sg64
(lp1339
g57
(g58
g59
NtRp1340
(dp1341
g62
(dp1342
g70
I3
ssg71
g1336
sg64
(lp1343
S''
asbasbasbag57
(g73
g59
NtRp1344
(dp1345
g62
(dp1346
sg71
g1220
sg64
(lp1347
g57
(g78
g59
NtRp1348
(dp1349
g62
(dp1350
g82
g83
ssg71
g1344
sg64
(lp1351
g420
asbag57
(g78
g59
NtRp1352
(dp1353
g62
(dp1354
g89
g90
ssg71
g1344
sg64
(lp1355
S':'
asbag57
(g78
g59
NtRp1356
(dp1357
g62
(dp1358
sg71
g1344
sg64
(lp1359
g57
(g58
g59
NtRp1360
(dp1361
g62
(dp1362
g70
I3
ssg71
g1356
sg64
(lp1363
S''
asbasbasbag57
(g73
g59
NtRp1364
(dp1365
g62
(dp1366
sg71
g1220
sg64
(lp1367
g57
(g78
g59
NtRp1368
(dp1369
g62
(dp1370
g82
g83
ssg71
g1364
sg64
(lp1371
g441
asbag57
(g78
g59
NtRp1372
(dp1373
g62
(dp1374
g89
g90
ssg71
g1364
sg64
(lp1375
S':'
asbag57
(g78
g59
NtRp1376
(dp1377
g62
(dp1378
sg71
g1364
sg64
(lp1379
g57
(g58
g59
NtRp1380
(dp1381
g62
(dp1382
g70
I3
ssg71
g1376
sg64
(lp1383
S''
asbasbasbasbasbasbasbag57
(g73
g59
NtRp1384
(dp1385
g62
(dp1386
sg71
g256
sg64
(lp1387
g57
(g78
g59
NtRp1388
(dp1389
g62
(dp1390
g82
g83
ssg71
g1384
sg64
(lp1391
S'session_id_myapp'
p1392
asbag57
(g78
g59
NtRp1393
(dp1394
g62
(dp1395
g89
g90
ssg71
g1384
sg64
(lp1396
S':'
asbag57
(g78
g59
NtRp1397
(dp1398
g62
(dp1399
sg71
g1384
sg64
(lp1400
g57
(g58
g59
NtRp1401
(dp1402
g62
(dp1403
g70
I4
ssg71
g1397
sg64
(lp1404
S'127.0.0.1-f28af7a6-9d1e-4a86-bd34-27605492a231'
p1405
ag57
(g66
g59
NtRp1406
(dp1407
g62
(dp1408
g70
I3
ssg71
Nsg64
(lp1409
g57
(g73
g59
NtRp1410
(dp1411
g62
(dp1412
sg71
g1406
sg64
(lp1413
g57
(g78
g59
NtRp1414
(dp1415
g62
(dp1416
g82
g83
ssg71
g1410
sg64
(lp1417
g294
asbag57
(g78
g59
NtRp1418
(dp1419
g62
(dp1420
g89
g90
ssg71
g1410
sg64
(lp1421
S':'
asbag57
(g78
g59
NtRp1422
(dp1423
g62
(dp1424
sg71
g1410
sg64
(lp1425
g57
(g58
g59
NtRp1426
(dp1427
g62
(dp1428
g70
I3
ssg71
g1422
sg64
(lp1429
S''
asbasbasbag57
(g73
g59
NtRp1430
(dp1431
g62
(dp1432
sg71
g1406
sg64
(lp1433
g57
(g78
g59
NtRp1434
(dp1435
g62
(dp1436
g82
g83
ssg71
g1430
sg64
(lp1437
g315
asbag57
(g78
g59
NtRp1438
(dp1439
g62
(dp1440
g89
g90
ssg71
g1430
sg64
(lp1441
S':'
asbag57
(g78
g59
NtRp1442
(dp1443
g62
(dp1444
sg71
g1430
sg64
(lp1445
g57
(g58
g59
NtRp1446
(dp1447
g62
(dp1448
g70
I3
ssg71
g1442
sg64
(lp1449
S''
asbasbasbag57
(g73
g59
NtRp1450
(dp1451
g62
(dp1452
sg71
g1406
sg64
(lp1453
g57
(g78
g59
NtRp1454
(dp1455
g62
(dp1456
g82
g83
ssg71
g1450
sg64
(lp1457
g336
asbag57
(g78
g59
NtRp1458
(dp1459
g62
(dp1460
g89
g90
ssg71
g1450
sg64
(lp1461
S':'
asbag57
(g78
g59
NtRp1462
(dp1463
g62
(dp1464
sg71
g1450
sg64
(lp1465
g57
(g58
g59
NtRp1466
(dp1467
g62
(dp1468
g70
I3
ssg71
g1462
sg64
(lp1469
S''
asbasbasbag57
(g73
g59
NtRp1470
(dp1471
g62
(dp1472
sg71
g1406
sg64
(lp1473
g57
(g78
g59
NtRp1474
(dp1475
g62
(dp1476
g82
g83
ssg71
g1470
sg64
(lp1477
g357
asbag57
(g78
g59
NtRp1478
(dp1479
g62
(dp1480
g89
g90
ssg71
g1470
sg64
(lp1481
S':'
asbag57
(g78
g59
NtRp1482
(dp1483
g62
(dp1484
sg71
g1470
sg64
(lp1485
g57
(g58
g59
NtRp1486
(dp1487
g62
(dp1488
g70
I3
ssg71
g1482
sg64
(lp1489
S''
asbasbasbag57
(g73
g59
NtRp1490
(dp1491
g62
(dp1492
sg71
g1406
sg64
(lp1493
g57
(g78
g59
NtRp1494
(dp1495
g62
(dp1496
g82
g83
ssg71
g1490
sg64
(lp1497
g378
asbag57
(g78
g59
NtRp1498
(dp1499
g62
(dp1500
g89
g90
ssg71
g1490
sg64
(lp1501
S':'
asbag57
(g78
g59
NtRp1502
(dp1503
g62
(dp1504
sg71
g1490
sg64
(lp1505
g57
(g58
g59
NtRp1506
(dp1507
g62
(dp1508
g70
I3
ssg71
g1502
sg64
(lp1509
S''
asbasbasbag57
(g73
g59
NtRp1510
(dp1511
g62
(dp1512
sg71
g1406
sg64
(lp1513
g57
(g78
g59
NtRp1514
(dp1515
g62
(dp1516
g82
g83
ssg71
g1510
sg64
(lp1517
g399
asbag57
(g78
g59
NtRp1518
(dp1519
g62
(dp1520
g89
g90
ssg71
g1510
sg64
(lp1521
S':'
asbag57
(g78
g59
NtRp1522
(dp1523
g62
(dp1524
sg71
g1510
sg64
(lp1525
g57
(g58
g59
NtRp1526
(dp1527
g62
(dp1528
g70
I3
ssg71
g1522
sg64
(lp1529
S''
asbasbasbag57
(g73
g59
NtRp1530
(dp1531
g62
(dp1532
sg71
g1406
sg64
(lp1533
g57
(g78
g59
NtRp1534
(dp1535
g62
(dp1536
g82
g83
ssg71
g1530
sg64
(lp1537
g420
asbag57
(g78
g59
NtRp1538
(dp1539
g62
(dp1540
g89
g90
ssg71
g1530
sg64
(lp1541
S':'
asbag57
(g78
g59
NtRp1542
(dp1543
g62
(dp1544
sg71
g1530
sg64
(lp1545
g57
(g58
g59
NtRp1546
(dp1547
g62
(dp1548
g70
I3
ssg71
g1542
sg64
(lp1549
S''
asbasbasbag57
(g73
g59
NtRp1550
(dp1551
g62
(dp1552
sg71
g1406
sg64
(lp1553
g57
(g78
g59
NtRp1554
(dp1555
g62
(dp1556
g82
g83
ssg71
g1550
sg64
(lp1557
g441
asbag57
(g78
g59
NtRp1558
(dp1559
g62
(dp1560
g89
g90
ssg71
g1550
sg64
(lp1561
S':'
asbag57
(g78
g59
NtRp1562
(dp1563
g62
(dp1564
sg71
g1550
sg64
(lp1565
g57
(g58
g59
NtRp1566
(dp1567
g62
(dp1568
g70
I3
ssg71
g1562
sg64
(lp1569
S''
asbasbasbasbasbasbasbag57
(g73
g59
NtRp1570
(dp1571
g62
(dp1572
sg71
g256
sg64
(lp1573
g57
(g78
g59
NtRp1574
(dp1575
g62
(dp1576
g82
g83
ssg71
g1570
sg64
(lp1577
S'session_id_project'
p1578
asbag57
(g78
g59
NtRp1579
(dp1580
g62
(dp1581
g89
g90
ssg71
g1570
sg64
(lp1582
S':'
asbag57
(g78
g59
NtRp1583
(dp1584
g62
(dp1585
sg71
g1570
sg64
(lp1586
g57
(g58
g59
NtRp1587
(dp1588
g62
(dp1589
g70
I4
ssg71
g1583
sg64
(lp1590
S'127.0.0.1-029ca61b-f875-404a-b7ff-1634c44ab767'
p1591
ag57
(g66
g59
NtRp1592
(dp1593
g62
(dp1594
g70
I3
ssg71
Nsg64
(lp1595
g57
(g73
g59
NtRp1596
(dp1597
g62
(dp1598
sg71
g1592
sg64
(lp1599
g57
(g78
g59
NtRp1600
(dp1601
g62
(dp1602
g82
g83
ssg71
g1596
sg64
(lp1603
g294
asbag57
(g78
g59
NtRp1604
(dp1605
g62
(dp1606
g89
g90
ssg71
g1596
sg64
(lp1607
S':'
asbag57
(g78
g59
NtRp1608
(dp1609
g62
(dp1610
sg71
g1596
sg64
(lp1611
g57
(g58
g59
NtRp1612
(dp1613
g62
(dp1614
g70
I3
ssg71
g1608
sg64
(lp1615
S''
asbasbasbag57
(g73
g59
NtRp1616
(dp1617
g62
(dp1618
sg71
g1592
sg64
(lp1619
g57
(g78
g59
NtRp1620
(dp1621
g62
(dp1622
g82
g83
ssg71
g1616
sg64
(lp1623
g315
asbag57
(g78
g59
NtRp1624
(dp1625
g62
(dp1626
g89
g90
ssg71
g1616
sg64
(lp1627
S':'
asbag57
(g78
g59
NtRp1628
(dp1629
g62
(dp1630
sg71
g1616
sg64
(lp1631
g57
(g58
g59
NtRp1632
(dp1633
g62
(dp1634
g70
I3
ssg71
g1628
sg64
(lp1635
S''
asbasbasbag57
(g73
g59
NtRp1636
(dp1637
g62
(dp1638
sg71
g1592
sg64
(lp1639
g57
(g78
g59
NtRp1640
(dp1641
g62
(dp1642
g82
g83
ssg71
g1636
sg64
(lp1643
g336
asbag57
(g78
g59
NtRp1644
(dp1645
g62
(dp1646
g89
g90
ssg71
g1636
sg64
(lp1647
S':'
asbag57
(g78
g59
NtRp1648
(dp1649
g62
(dp1650
sg71
g1636
sg64
(lp1651
g57
(g58
g59
NtRp1652
(dp1653
g62
(dp1654
g70
I3
ssg71
g1648
sg64
(lp1655
S''
asbasbasbag57
(g73
g59
NtRp1656
(dp1657
g62
(dp1658
sg71
g1592
sg64
(lp1659
g57
(g78
g59
NtRp1660
(dp1661
g62
(dp1662
g82
g83
ssg71
g1656
sg64
(lp1663
g357
asbag57
(g78
g59
NtRp1664
(dp1665
g62
(dp1666
g89
g90
ssg71
g1656
sg64
(lp1667
S':'
asbag57
(g78
g59
NtRp1668
(dp1669
g62
(dp1670
sg71
g1656
sg64
(lp1671
g57
(g58
g59
NtRp1672
(dp1673
g62
(dp1674
g70
I3
ssg71
g1668
sg64
(lp1675
S''
asbasbasbag57
(g73
g59
NtRp1676
(dp1677
g62
(dp1678
sg71
g1592
sg64
(lp1679
g57
(g78
g59
NtRp1680
(dp1681
g62
(dp1682
g82
g83
ssg71
g1676
sg64
(lp1683
g378
asbag57
(g78
g59
NtRp1684
(dp1685
g62
(dp1686
g89
g90
ssg71
g1676
sg64
(lp1687
S':'
asbag57
(g78
g59
NtRp1688
(dp1689
g62
(dp1690
sg71
g1676
sg64
(lp1691
g57
(g58
g59
NtRp1692
(dp1693
g62
(dp1694
g70
I3
ssg71
g1688
sg64
(lp1695
S''
asbasbasbag57
(g73
g59
NtRp1696
(dp1697
g62
(dp1698
sg71
g1592
sg64
(lp1699
g57
(g78
g59
NtRp1700
(dp1701
g62
(dp1702
g82
g83
ssg71
g1696
sg64
(lp1703
g399
asbag57
(g78
g59
NtRp1704
(dp1705
g62
(dp1706
g89
g90
ssg71
g1696
sg64
(lp1707
S':'
asbag57
(g78
g59
NtRp1708
(dp1709
g62
(dp1710
sg71
g1696
sg64
(lp1711
g57
(g58
g59
NtRp1712
(dp1713
g62
(dp1714
g70
I3
ssg71
g1708
sg64
(lp1715
S''
asbasbasbag57
(g73
g59
NtRp1716
(dp1717
g62
(dp1718
sg71
g1592
sg64
(lp1719
g57
(g78
g59
NtRp1720
(dp1721
g62
(dp1722
g82
g83
ssg71
g1716
sg64
(lp1723
g420
asbag57
(g78
g59
NtRp1724
(dp1725
g62
(dp1726
g89
g90
ssg71
g1716
sg64
(lp1727
S':'
asbag57
(g78
g59
NtRp1728
(dp1729
g62
(dp1730
sg71
g1716
sg64
(lp1731
g57
(g58
g59
NtRp1732
(dp1733
g62
(dp1734
g70
I3
ssg71
g1728
sg64
(lp1735
S''
asbasbasbag57
(g73
g59
NtRp1736
(dp1737
g62
(dp1738
sg71
g1592
sg64
(lp1739
g57
(g78
g59
NtRp1740
(dp1741
g62
(dp1742
g82
g83
ssg71
g1736
sg64
(lp1743
g441
asbag57
(g78
g59
NtRp1744
(dp1745
g62
(dp1746
g89
g90
ssg71
g1736
sg64
(lp1747
S':'
asbag57
(g78
g59
NtRp1748
(dp1749
g62
(dp1750
sg71
g1736
sg64
(lp1751
g57
(g58
g59
NtRp1752
(dp1753
g62
(dp1754
g70
I3
ssg71
g1748
sg64
(lp1755
S''
asbasbasbasbasbasbasbag57
(g73
g59
NtRp1756
(dp1757
g62
(dp1758
sg71
g256
sg64
(lp1759
g57
(g78
g59
NtRp1760
(dp1761
g62
(dp1762
g82
g83
ssg71
g1756
sg64
(lp1763
S'session_id_reddit'
p1764
asbag57
(g78
g59
NtRp1765
(dp1766
g62
(dp1767
g89
g90
ssg71
g1756
sg64
(lp1768
S':'
asbag57
(g78
g59
NtRp1769
(dp1770
g62
(dp1771
sg71
g1756
sg64
(lp1772
g57
(g58
g59
NtRp1773
(dp1774
g62
(dp1775
g70
I4
ssg71
g1769
sg64
(lp1776
S'127.0.0.1-24289f39-32a1-48fb-a367-22792fb8b813'
p1777
ag57
(g66
g59
NtRp1778
(dp1779
g62
(dp1780
g70
I3
ssg71
Nsg64
(lp1781
g57
(g73
g59
NtRp1782
(dp1783
g62
(dp1784
sg71
g1778
sg64
(lp1785
g57
(g78
g59
NtRp1786
(dp1787
g62
(dp1788
g82
g83
ssg71
g1782
sg64
(lp1789
g294
asbag57
(g78
g59
NtRp1790
(dp1791
g62
(dp1792
g89
g90
ssg71
g1782
sg64
(lp1793
S':'
asbag57
(g78
g59
NtRp1794
(dp1795
g62
(dp1796
sg71
g1782
sg64
(lp1797
g57
(g58
g59
NtRp1798
(dp1799
g62
(dp1800
g70
I3
ssg71
g1794
sg64
(lp1801
S''
asbasbasbag57
(g73
g59
NtRp1802
(dp1803
g62
(dp1804
sg71
g1778
sg64
(lp1805
g57
(g78
g59
NtRp1806
(dp1807
g62
(dp1808
g82
g83
ssg71
g1802
sg64
(lp1809
g315
asbag57
(g78
g59
NtRp1810
(dp1811
g62
(dp1812
g89
g90
ssg71
g1802
sg64
(lp1813
S':'
asbag57
(g78
g59
NtRp1814
(dp1815
g62
(dp1816
sg71
g1802
sg64
(lp1817
g57
(g58
g59
NtRp1818
(dp1819
g62
(dp1820
g70
I3
ssg71
g1814
sg64
(lp1821
S''
asbasbasbag57
(g73
g59
NtRp1822
(dp1823
g62
(dp1824
sg71
g1778
sg64
(lp1825
g57
(g78
g59
NtRp1826
(dp1827
g62
(dp1828
g82
g83
ssg71
g1822
sg64
(lp1829
g336
asbag57
(g78
g59
NtRp1830
(dp1831
g62
(dp1832
g89
g90
ssg71
g1822
sg64
(lp1833
S':'
asbag57
(g78
g59
NtRp1834
(dp1835
g62
(dp1836
sg71
g1822
sg64
(lp1837
g57
(g58
g59
NtRp1838
(dp1839
g62
(dp1840
g70
I3
ssg71
g1834
sg64
(lp1841
S''
asbasbasbag57
(g73
g59
NtRp1842
(dp1843
g62
(dp1844
sg71
g1778
sg64
(lp1845
g57
(g78
g59
NtRp1846
(dp1847
g62
(dp1848
g82
g83
ssg71
g1842
sg64
(lp1849
g357
asbag57
(g78
g59
NtRp1850
(dp1851
g62
(dp1852
g89
g90
ssg71
g1842
sg64
(lp1853
S':'
asbag57
(g78
g59
NtRp1854
(dp1855
g62
(dp1856
sg71
g1842
sg64
(lp1857
g57
(g58
g59
NtRp1858
(dp1859
g62
(dp1860
g70
I3
ssg71
g1854
sg64
(lp1861
S''
asbasbasbag57
(g73
g59
NtRp1862
(dp1863
g62
(dp1864
sg71
g1778
sg64
(lp1865
g57
(g78
g59
NtRp1866
(dp1867
g62
(dp1868
g82
g83
ssg71
g1862
sg64
(lp1869
g378
asbag57
(g78
g59
NtRp1870
(dp1871
g62
(dp1872
g89
g90
ssg71
g1862
sg64
(lp1873
S':'
asbag57
(g78
g59
NtRp1874
(dp1875
g62
(dp1876
sg71
g1862
sg64
(lp1877
g57
(g58
g59
NtRp1878
(dp1879
g62
(dp1880
g70
I3
ssg71
g1874
sg64
(lp1881
S''
asbasbasbag57
(g73
g59
NtRp1882
(dp1883
g62
(dp1884
sg71
g1778
sg64
(lp1885
g57
(g78
g59
NtRp1886
(dp1887
g62
(dp1888
g82
g83
ssg71
g1882
sg64
(lp1889
g399
asbag57
(g78
g59
NtRp1890
(dp1891
g62
(dp1892
g89
g90
ssg71
g1882
sg64
(lp1893
S':'
asbag57
(g78
g59
NtRp1894
(dp1895
g62
(dp1896
sg71
g1882
sg64
(lp1897
g57
(g58
g59
NtRp1898
(dp1899
g62
(dp1900
g70
I3
ssg71
g1894
sg64
(lp1901
S''
asbasbasbag57
(g73
g59
NtRp1902
(dp1903
g62
(dp1904
sg71
g1778
sg64
(lp1905
g57
(g78
g59
NtRp1906
(dp1907
g62
(dp1908
g82
g83
ssg71
g1902
sg64
(lp1909
g420
asbag57
(g78
g59
NtRp1910
(dp1911
g62
(dp1912
g89
g90
ssg71
g1902
sg64
(lp1913
S':'
asbag57
(g78
g59
NtRp1914
(dp1915
g62
(dp1916
sg71
g1902
sg64
(lp1917
g57
(g58
g59
NtRp1918
(dp1919
g62
(dp1920
g70
I3
ssg71
g1914
sg64
(lp1921
S''
asbasbasbag57
(g73
g59
NtRp1922
(dp1923
g62
(dp1924
sg71
g1778
sg64
(lp1925
g57
(g78
g59
NtRp1926
(dp1927
g62
(dp1928
g82
g83
ssg71
g1922
sg64
(lp1929
g441
asbag57
(g78
g59
NtRp1930
(dp1931
g62
(dp1932
g89
g90
ssg71
g1922
sg64
(lp1933
S':'
asbag57
(g78
g59
NtRp1934
(dp1935
g62
(dp1936
sg71
g1922
sg64
(lp1937
g57
(g58
g59
NtRp1938
(dp1939
g62
(dp1940
g70
I3
ssg71
g1934
sg64
(lp1941
S''
asbasbasbasbasbasbasbag57
(g73
g59
NtRp1942
(dp1943
g62
(dp1944
sg71
g256
sg64
(lp1945
g57
(g78
g59
NtRp1946
(dp1947
g62
(dp1948
g82
g83
ssg71
g1942
sg64
(lp1949
S'session_id_testlayout'
p1950
asbag57
(g78
g59
NtRp1951
(dp1952
g62
(dp1953
g89
g90
ssg71
g1942
sg64
(lp1954
S':'
asbag57
(g78
g59
NtRp1955
(dp1956
g62
(dp1957
sg71
g1942
sg64
(lp1958
g57
(g58
g59
NtRp1959
(dp1960
g62
(dp1961
g70
I4
ssg71
g1955
sg64
(lp1962
S'127.0.0.1-0b2689a2-d3bd-4ee8-ad96-af4d7e3e9ad1'
p1963
ag57
(g66
g59
NtRp1964
(dp1965
g62
(dp1966
g70
I3
ssg71
Nsg64
(lp1967
g57
(g73
g59
NtRp1968
(dp1969
g62
(dp1970
sg71
g1964
sg64
(lp1971
g57
(g78
g59
NtRp1972
(dp1973
g62
(dp1974
g82
g83
ssg71
g1968
sg64
(lp1975
g294
asbag57
(g78
g59
NtRp1976
(dp1977
g62
(dp1978
g89
g90
ssg71
g1968
sg64
(lp1979
S':'
asbag57
(g78
g59
NtRp1980
(dp1981
g62
(dp1982
sg71
g1968
sg64
(lp1983
g57
(g58
g59
NtRp1984
(dp1985
g62
(dp1986
g70
I3
ssg71
g1980
sg64
(lp1987
S''
asbasbasbag57
(g73
g59
NtRp1988
(dp1989
g62
(dp1990
sg71
g1964
sg64
(lp1991
g57
(g78
g59
NtRp1992
(dp1993
g62
(dp1994
g82
g83
ssg71
g1988
sg64
(lp1995
g315
asbag57
(g78
g59
NtRp1996
(dp1997
g62
(dp1998
g89
g90
ssg71
g1988
sg64
(lp1999
S':'
asbag57
(g78
g59
NtRp2000
(dp2001
g62
(dp2002
sg71
g1988
sg64
(lp2003
g57
(g58
g59
NtRp2004
(dp2005
g62
(dp2006
g70
I3
ssg71
g2000
sg64
(lp2007
S''
asbasbasbag57
(g73
g59
NtRp2008
(dp2009
g62
(dp2010
sg71
g1964
sg64
(lp2011
g57
(g78
g59
NtRp2012
(dp2013
g62
(dp2014
g82
g83
ssg71
g2008
sg64
(lp2015
g336
asbag57
(g78
g59
NtRp2016
(dp2017
g62
(dp2018
g89
g90
ssg71
g2008
sg64
(lp2019
S':'
asbag57
(g78
g59
NtRp2020
(dp2021
g62
(dp2022
sg71
g2008
sg64
(lp2023
g57
(g58
g59
NtRp2024
(dp2025
g62
(dp2026
g70
I3
ssg71
g2020
sg64
(lp2027
S''
asbasbasbag57
(g73
g59
NtRp2028
(dp2029
g62
(dp2030
sg71
g1964
sg64
(lp2031
g57
(g78
g59
NtRp2032
(dp2033
g62
(dp2034
g82
g83
ssg71
g2028
sg64
(lp2035
g357
asbag57
(g78
g59
NtRp2036
(dp2037
g62
(dp2038
g89
g90
ssg71
g2028
sg64
(lp2039
S':'
asbag57
(g78
g59
NtRp2040
(dp2041
g62
(dp2042
sg71
g2028
sg64
(lp2043
g57
(g58
g59
NtRp2044
(dp2045
g62
(dp2046
g70
I3
ssg71
g2040
sg64
(lp2047
S''
asbasbasbag57
(g73
g59
NtRp2048
(dp2049
g62
(dp2050
sg71
g1964
sg64
(lp2051
g57
(g78
g59
NtRp2052
(dp2053
g62
(dp2054
g82
g83
ssg71
g2048
sg64
(lp2055
g378
asbag57
(g78
g59
NtRp2056
(dp2057
g62
(dp2058
g89
g90
ssg71
g2048
sg64
(lp2059
S':'
asbag57
(g78
g59
NtRp2060
(dp2061
g62
(dp2062
sg71
g2048
sg64
(lp2063
g57
(g58
g59
NtRp2064
(dp2065
g62
(dp2066
g70
I3
ssg71
g2060
sg64
(lp2067
S''
asbasbasbag57
(g73
g59
NtRp2068
(dp2069
g62
(dp2070
sg71
g1964
sg64
(lp2071
g57
(g78
g59
NtRp2072
(dp2073
g62
(dp2074
g82
g83
ssg71
g2068
sg64
(lp2075
g399
asbag57
(g78
g59
NtRp2076
(dp2077
g62
(dp2078
g89
g90
ssg71
g2068
sg64
(lp2079
S':'
asbag57
(g78
g59
NtRp2080
(dp2081
g62
(dp2082
sg71
g2068
sg64
(lp2083
g57
(g58
g59
NtRp2084
(dp2085
g62
(dp2086
g70
I3
ssg71
g2080
sg64
(lp2087
S''
asbasbasbag57
(g73
g59
NtRp2088
(dp2089
g62
(dp2090
sg71
g1964
sg64
(lp2091
g57
(g78
g59
NtRp2092
(dp2093
g62
(dp2094
g82
g83
ssg71
g2088
sg64
(lp2095
g420
asbag57
(g78
g59
NtRp2096
(dp2097
g62
(dp2098
g89
g90
ssg71
g2088
sg64
(lp2099
S':'
asbag57
(g78
g59
NtRp2100
(dp2101
g62
(dp2102
sg71
g2088
sg64
(lp2103
g57
(g58
g59
NtRp2104
(dp2105
g62
(dp2106
g70
I3
ssg71
g2100
sg64
(lp2107
S''
asbasbasbag57
(g73
g59
NtRp2108
(dp2109
g62
(dp2110
sg71
g1964
sg64
(lp2111
g57
(g78
g59
NtRp2112
(dp2113
g62
(dp2114
g82
g83
ssg71
g2108
sg64
(lp2115
g441
asbag57
(g78
g59
NtRp2116
(dp2117
g62
(dp2118
g89
g90
ssg71
g2108
sg64
(lp2119
S':'
asbag57
(g78
g59
NtRp2120
(dp2121
g62
(dp2122
sg71
g2108
sg64
(lp2123
g57
(g58
g59
NtRp2124
(dp2125
g62
(dp2126
g70
I3
ssg71
g2120
sg64
(lp2127
S''
asbasbasbasbasbasbasbag57
(g73
g59
NtRp2128
(dp2129
g62
(dp2130
sg71
g256
sg64
(lp2131
g57
(g78
g59
NtRp2132
(dp2133
g62
(dp2134
g82
g83
ssg71
g2128
sg64
(lp2135
S'session_id_try'
p2136
asbag57
(g78
g59
NtRp2137
(dp2138
g62
(dp2139
g89
g90
ssg71
g2128
sg64
(lp2140
S':'
asbag57
(g78
g59
NtRp2141
(dp2142
g62
(dp2143
sg71
g2128
sg64
(lp2144
g57
(g58
g59
NtRp2145
(dp2146
g62
(dp2147
g70
I4
ssg71
g2141
sg64
(lp2148
S'127.0.0.1-4d514347-24a9-48c9-9e7c-4ac4f4a70173'
p2149
ag57
(g66
g59
NtRp2150
(dp2151
g62
(dp2152
g70
I3
ssg71
Nsg64
(lp2153
g57
(g73
g59
NtRp2154
(dp2155
g62
(dp2156
sg71
g2150
sg64
(lp2157
g57
(g78
g59
NtRp2158
(dp2159
g62
(dp2160
g82
g83
ssg71
g2154
sg64
(lp2161
g294
asbag57
(g78
g59
NtRp2162
(dp2163
g62
(dp2164
g89
g90
ssg71
g2154
sg64
(lp2165
S':'
asbag57
(g78
g59
NtRp2166
(dp2167
g62
(dp2168
sg71
g2154
sg64
(lp2169
g57
(g58
g59
NtRp2170
(dp2171
g62
(dp2172
g70
I3
ssg71
g2166
sg64
(lp2173
S''
asbasbasbag57
(g73
g59
NtRp2174
(dp2175
g62
(dp2176
sg71
g2150
sg64
(lp2177
g57
(g78
g59
NtRp2178
(dp2179
g62
(dp2180
g82
g83
ssg71
g2174
sg64
(lp2181
g315
asbag57
(g78
g59
NtRp2182
(dp2183
g62
(dp2184
g89
g90
ssg71
g2174
sg64
(lp2185
S':'
asbag57
(g78
g59
NtRp2186
(dp2187
g62
(dp2188
sg71
g2174
sg64
(lp2189
g57
(g58
g59
NtRp2190
(dp2191
g62
(dp2192
g70
I3
ssg71
g2186
sg64
(lp2193
S''
asbasbasbag57
(g73
g59
NtRp2194
(dp2195
g62
(dp2196
sg71
g2150
sg64
(lp2197
g57
(g78
g59
NtRp2198
(dp2199
g62
(dp2200
g82
g83
ssg71
g2194
sg64
(lp2201
g336
asbag57
(g78
g59
NtRp2202
(dp2203
g62
(dp2204
g89
g90
ssg71
g2194
sg64
(lp2205
S':'
asbag57
(g78
g59
NtRp2206
(dp2207
g62
(dp2208
sg71
g2194
sg64
(lp2209
g57
(g58
g59
NtRp2210
(dp2211
g62
(dp2212
g70
I3
ssg71
g2206
sg64
(lp2213
S''
asbasbasbag57
(g73
g59
NtRp2214
(dp2215
g62
(dp2216
sg71
g2150
sg64
(lp2217
g57
(g78
g59
NtRp2218
(dp2219
g62
(dp2220
g82
g83
ssg71
g2214
sg64
(lp2221
g357
asbag57
(g78
g59
NtRp2222
(dp2223
g62
(dp2224
g89
g90
ssg71
g2214
sg64
(lp2225
S':'
asbag57
(g78
g59
NtRp2226
(dp2227
g62
(dp2228
sg71
g2214
sg64
(lp2229
g57
(g58
g59
NtRp2230
(dp2231
g62
(dp2232
g70
I3
ssg71
g2226
sg64
(lp2233
S''
asbasbasbag57
(g73
g59
NtRp2234
(dp2235
g62
(dp2236
sg71
g2150
sg64
(lp2237
g57
(g78
g59
NtRp2238
(dp2239
g62
(dp2240
g82
g83
ssg71
g2234
sg64
(lp2241
g378
asbag57
(g78
g59
NtRp2242
(dp2243
g62
(dp2244
g89
g90
ssg71
g2234
sg64
(lp2245
S':'
asbag57
(g78
g59
NtRp2246
(dp2247
g62
(dp2248
sg71
g2234
sg64
(lp2249
g57
(g58
g59
NtRp2250
(dp2251
g62
(dp2252
g70
I3
ssg71
g2246
sg64
(lp2253
S''
asbasbasbag57
(g73
g59
NtRp2254
(dp2255
g62
(dp2256
sg71
g2150
sg64
(lp2257
g57
(g78
g59
NtRp2258
(dp2259
g62
(dp2260
g82
g83
ssg71
g2254
sg64
(lp2261
g399
asbag57
(g78
g59
NtRp2262
(dp2263
g62
(dp2264
g89
g90
ssg71
g2254
sg64
(lp2265
S':'
asbag57
(g78
g59
NtRp2266
(dp2267
g62
(dp2268
sg71
g2254
sg64
(lp2269
g57
(g58
g59
NtRp2270
(dp2271
g62
(dp2272
g70
I3
ssg71
g2266
sg64
(lp2273
S''
asbasbasbag57
(g73
g59
NtRp2274
(dp2275
g62
(dp2276
sg71
g2150
sg64
(lp2277
g57
(g78
g59
NtRp2278
(dp2279
g62
(dp2280
g82
g83
ssg71
g2274
sg64
(lp2281
g420
asbag57
(g78
g59
NtRp2282
(dp2283
g62
(dp2284
g89
g90
ssg71
g2274
sg64
(lp2285
S':'
asbag57
(g78
g59
NtRp2286
(dp2287
g62
(dp2288
sg71
g2274
sg64
(lp2289
g57
(g58
g59
NtRp2290
(dp2291
g62
(dp2292
g70
I3
ssg71
g2286
sg64
(lp2293
S''
asbasbasbag57
(g73
g59
NtRp2294
(dp2295
g62
(dp2296
sg71
g2150
sg64
(lp2297
g57
(g78
g59
NtRp2298
(dp2299
g62
(dp2300
g82
g83
ssg71
g2294
sg64
(lp2301
g441
asbag57
(g78
g59
NtRp2302
(dp2303
g62
(dp2304
g89
g90
ssg71
g2294
sg64
(lp2305
S':'
asbag57
(g78
g59
NtRp2306
(dp2307
g62
(dp2308
sg71
g2294
sg64
(lp2309
g57
(g58
g59
NtRp2310
(dp2311
g62
(dp2312
g70
I3
ssg71
g2306
sg64
(lp2313
S''
asbasbasbasbasbasbasbag57
(g73
g59
NtRp2314
(dp2315
g62
(dp2316
sg71
g256
sg64
(lp2317
g57
(g78
g59
NtRp2318
(dp2319
g62
(dp2320
g82
g83
ssg71
g2314
sg64
(lp2321
S'session_id_vikramahuja'
p2322
asbag57
(g78
g59
NtRp2323
(dp2324
g62
(dp2325
g89
g90
ssg71
g2314
sg64
(lp2326
S':'
asbag57
(g78
g59
NtRp2327
(dp2328
g62
(dp2329
sg71
g2314
sg64
(lp2330
g57
(g58
g59
NtRp2331
(dp2332
g62
(dp2333
g70
I4
ssg71
g2327
sg64
(lp2334
S'127.0.0.1-a555d16d-54b5-476d-a152-f88918b513fe'
p2335
ag57
(g66
g59
NtRp2336
(dp2337
g62
(dp2338
g70
I3
ssg71
Nsg64
(lp2339
g57
(g73
g59
NtRp2340
(dp2341
g62
(dp2342
sg71
g2336
sg64
(lp2343
g57
(g78
g59
NtRp2344
(dp2345
g62
(dp2346
g82
g83
ssg71
g2340
sg64
(lp2347
g294
asbag57
(g78
g59
NtRp2348
(dp2349
g62
(dp2350
g89
g90
ssg71
g2340
sg64
(lp2351
S':'
asbag57
(g78
g59
NtRp2352
(dp2353
g62
(dp2354
sg71
g2340
sg64
(lp2355
g57
(g58
g59
NtRp2356
(dp2357
g62
(dp2358
g70
I3
ssg71
g2352
sg64
(lp2359
S''
asbasbasbag57
(g73
g59
NtRp2360
(dp2361
g62
(dp2362
sg71
g2336
sg64
(lp2363
g57
(g78
g59
NtRp2364
(dp2365
g62
(dp2366
g82
g83
ssg71
g2360
sg64
(lp2367
g315
asbag57
(g78
g59
NtRp2368
(dp2369
g62
(dp2370
g89
g90
ssg71
g2360
sg64
(lp2371
S':'
asbag57
(g78
g59
NtRp2372
(dp2373
g62
(dp2374
sg71
g2360
sg64
(lp2375
g57
(g58
g59
NtRp2376
(dp2377
g62
(dp2378
g70
I3
ssg71
g2372
sg64
(lp2379
S''
asbasbasbag57
(g73
g59
NtRp2380
(dp2381
g62
(dp2382
sg71
g2336
sg64
(lp2383
g57
(g78
g59
NtRp2384
(dp2385
g62
(dp2386
g82
g83
ssg71
g2380
sg64
(lp2387
g336
asbag57
(g78
g59
NtRp2388
(dp2389
g62
(dp2390
g89
g90
ssg71
g2380
sg64
(lp2391
S':'
asbag57
(g78
g59
NtRp2392
(dp2393
g62
(dp2394
sg71
g2380
sg64
(lp2395
g57
(g58
g59
NtRp2396
(dp2397
g62
(dp2398
g70
I3
ssg71
g2392
sg64
(lp2399
S''
asbasbasbag57
(g73
g59
NtRp2400
(dp2401
g62
(dp2402
sg71
g2336
sg64
(lp2403
g57
(g78
g59
NtRp2404
(dp2405
g62
(dp2406
g82
g83
ssg71
g2400
sg64
(lp2407
g357
asbag57
(g78
g59
NtRp2408
(dp2409
g62
(dp2410
g89
g90
ssg71
g2400
sg64
(lp2411
S':'
asbag57
(g78
g59
NtRp2412
(dp2413
g62
(dp2414
sg71
g2400
sg64
(lp2415
g57
(g58
g59
NtRp2416
(dp2417
g62
(dp2418
g70
I3
ssg71
g2412
sg64
(lp2419
S''
asbasbasbag57
(g73
g59
NtRp2420
(dp2421
g62
(dp2422
sg71
g2336
sg64
(lp2423
g57
(g78
g59
NtRp2424
(dp2425
g62
(dp2426
g82
g83
ssg71
g2420
sg64
(lp2427
g378
asbag57
(g78
g59
NtRp2428
(dp2429
g62
(dp2430
g89
g90
ssg71
g2420
sg64
(lp2431
S':'
asbag57
(g78
g59
NtRp2432
(dp2433
g62
(dp2434
sg71
g2420
sg64
(lp2435
g57
(g58
g59
NtRp2436
(dp2437
g62
(dp2438
g70
I3
ssg71
g2432
sg64
(lp2439
S''
asbasbasbag57
(g73
g59
NtRp2440
(dp2441
g62
(dp2442
sg71
g2336
sg64
(lp2443
g57
(g78
g59
NtRp2444
(dp2445
g62
(dp2446
g82
g83
ssg71
g2440
sg64
(lp2447
g399
asbag57
(g78
g59
NtRp2448
(dp2449
g62
(dp2450
g89
g90
ssg71
g2440
sg64
(lp2451
S':'
asbag57
(g78
g59
NtRp2452
(dp2453
g62
(dp2454
sg71
g2440
sg64
(lp2455
g57
(g58
g59
NtRp2456
(dp2457
g62
(dp2458
g70
I3
ssg71
g2452
sg64
(lp2459
S''
asbasbasbag57
(g73
g59
NtRp2460
(dp2461
g62
(dp2462
sg71
g2336
sg64
(lp2463
g57
(g78
g59
NtRp2464
(dp2465
g62
(dp2466
g82
g83
ssg71
g2460
sg64
(lp2467
g420
asbag57
(g78
g59
NtRp2468
(dp2469
g62
(dp2470
g89
g90
ssg71
g2460
sg64
(lp2471
S':'
asbag57
(g78
g59
NtRp2472
(dp2473
g62
(dp2474
sg71
g2460
sg64
(lp2475
g57
(g58
g59
NtRp2476
(dp2477
g62
(dp2478
g70
I3
ssg71
g2472
sg64
(lp2479
S''
asbasbasbag57
(g73
g59
NtRp2480
(dp2481
g62
(dp2482
sg71
g2336
sg64
(lp2483
g57
(g78
g59
NtRp2484
(dp2485
g62
(dp2486
g82
g83
ssg71
g2480
sg64
(lp2487
g441
asbag57
(g78
g59
NtRp2488
(dp2489
g62
(dp2490
g89
g90
ssg71
g2480
sg64
(lp2491
S':'
asbag57
(g78
g59
NtRp2492
(dp2493
g62
(dp2494
sg71
g2480
sg64
(lp2495
g57
(g58
g59
NtRp2496
(dp2497
g62
(dp2498
g70
I3
ssg71
g2492
sg64
(lp2499
S''
asbasbasbasbasbasbasbag57
(g73
g59
NtRp2500
(dp2501
g62
(dp2502
sg71
g256
sg64
(lp2503
g57
(g78
g59
NtRp2504
(dp2505
g62
(dp2506
g82
g83
ssg71
g2500
sg64
(lp2507
S'session_id_welcome'
p2508
asbag57
(g78
g59
NtRp2509
(dp2510
g62
(dp2511
g89
g90
ssg71
g2500
sg64
(lp2512
S':'
asbag57
(g78
g59
NtRp2513
(dp2514
g62
(dp2515
sg71
g2500
sg64
(lp2516
g57
(g58
g59
NtRp2517
(dp2518
g62
(dp2519
g70
I4
ssg71
g2513
sg64
(lp2520
S'127.0.0.1-a85dd4d7-ab1c-49ab-856d-4173a26ef319'
p2521
ag57
(g66
g59
NtRp2522
(dp2523
g62
(dp2524
g70
I3
ssg71
Nsg64
(lp2525
g57
(g73
g59
NtRp2526
(dp2527
g62
(dp2528
sg71
g2522
sg64
(lp2529
g57
(g78
g59
NtRp2530
(dp2531
g62
(dp2532
g82
g83
ssg71
g2526
sg64
(lp2533
g294
asbag57
(g78
g59
NtRp2534
(dp2535
g62
(dp2536
g89
g90
ssg71
g2526
sg64
(lp2537
S':'
asbag57
(g78
g59
NtRp2538
(dp2539
g62
(dp2540
sg71
g2526
sg64
(lp2541
g57
(g58
g59
NtRp2542
(dp2543
g62
(dp2544
g70
I3
ssg71
g2538
sg64
(lp2545
S''
asbasbasbag57
(g73
g59
NtRp2546
(dp2547
g62
(dp2548
sg71
g2522
sg64
(lp2549
g57
(g78
g59
NtRp2550
(dp2551
g62
(dp2552
g82
g83
ssg71
g2546
sg64
(lp2553
g315
asbag57
(g78
g59
NtRp2554
(dp2555
g62
(dp2556
g89
g90
ssg71
g2546
sg64
(lp2557
S':'
asbag57
(g78
g59
NtRp2558
(dp2559
g62
(dp2560
sg71
g2546
sg64
(lp2561
g57
(g58
g59
NtRp2562
(dp2563
g62
(dp2564
g70
I3
ssg71
g2558
sg64
(lp2565
S''
asbasbasbag57
(g73
g59
NtRp2566
(dp2567
g62
(dp2568
sg71
g2522
sg64
(lp2569
g57
(g78
g59
NtRp2570
(dp2571
g62
(dp2572
g82
g83
ssg71
g2566
sg64
(lp2573
g336
asbag57
(g78
g59
NtRp2574
(dp2575
g62
(dp2576
g89
g90
ssg71
g2566
sg64
(lp2577
S':'
asbag57
(g78
g59
NtRp2578
(dp2579
g62
(dp2580
sg71
g2566
sg64
(lp2581
g57
(g58
g59
NtRp2582
(dp2583
g62
(dp2584
g70
I3
ssg71
g2578
sg64
(lp2585
S''
asbasbasbag57
(g73
g59
NtRp2586
(dp2587
g62
(dp2588
sg71
g2522
sg64
(lp2589
g57
(g78
g59
NtRp2590
(dp2591
g62
(dp2592
g82
g83
ssg71
g2586
sg64
(lp2593
g357
asbag57
(g78
g59
NtRp2594
(dp2595
g62
(dp2596
g89
g90
ssg71
g2586
sg64
(lp2597
S':'
asbag57
(g78
g59
NtRp2598
(dp2599
g62
(dp2600
sg71
g2586
sg64
(lp2601
g57
(g58
g59
NtRp2602
(dp2603
g62
(dp2604
g70
I3
ssg71
g2598
sg64
(lp2605
S''
asbasbasbag57
(g73
g59
NtRp2606
(dp2607
g62
(dp2608
sg71
g2522
sg64
(lp2609
g57
(g78
g59
NtRp2610
(dp2611
g62
(dp2612
g82
g83
ssg71
g2606
sg64
(lp2613
g378
asbag57
(g78
g59
NtRp2614
(dp2615
g62
(dp2616
g89
g90
ssg71
g2606
sg64
(lp2617
S':'
asbag57
(g78
g59
NtRp2618
(dp2619
g62
(dp2620
sg71
g2606
sg64
(lp2621
g57
(g58
g59
NtRp2622
(dp2623
g62
(dp2624
g70
I3
ssg71
g2618
sg64
(lp2625
S''
asbasbasbag57
(g73
g59
NtRp2626
(dp2627
g62
(dp2628
sg71
g2522
sg64
(lp2629
g57
(g78
g59
NtRp2630
(dp2631
g62
(dp2632
g82
g83
ssg71
g2626
sg64
(lp2633
g399
asbag57
(g78
g59
NtRp2634
(dp2635
g62
(dp2636
g89
g90
ssg71
g2626
sg64
(lp2637
S':'
asbag57
(g78
g59
NtRp2638
(dp2639
g62
(dp2640
sg71
g2626
sg64
(lp2641
g57
(g58
g59
NtRp2642
(dp2643
g62
(dp2644
g70
I3
ssg71
g2638
sg64
(lp2645
S''
asbasbasbag57
(g73
g59
NtRp2646
(dp2647
g62
(dp2648
sg71
g2522
sg64
(lp2649
g57
(g78
g59
NtRp2650
(dp2651
g62
(dp2652
g82
g83
ssg71
g2646
sg64
(lp2653
g420
asbag57
(g78
g59
NtRp2654
(dp2655
g62
(dp2656
g89
g90
ssg71
g2646
sg64
(lp2657
S':'
asbag57
(g78
g59
NtRp2658
(dp2659
g62
(dp2660
sg71
g2646
sg64
(lp2661
g57
(g58
g59
NtRp2662
(dp2663
g62
(dp2664
g70
I3
ssg71
g2658
sg64
(lp2665
S''
asbasbasbag57
(g73
g59
NtRp2666
(dp2667
g62
(dp2668
sg71
g2522
sg64
(lp2669
g57
(g78
g59
NtRp2670
(dp2671
g62
(dp2672
g82
g83
ssg71
g2666
sg64
(lp2673
g441
asbag57
(g78
g59
NtRp2674
(dp2675
g62
(dp2676
g89
g90
ssg71
g2666
sg64
(lp2677
S':'
asbag57
(g78
g59
NtRp2678
(dp2679
g62
(dp2680
sg71
g2666
sg64
(lp2681
g57
(g58
g59
NtRp2682
(dp2683
g62
(dp2684
g70
I3
ssg71
g2678
sg64
(lp2685
S''
asbasbasbasbasbasbasbasbasbasbasbag57
(g73
g59
NtRp2686
(dp2687
g62
(dp2688
sg71
g67
sg64
(lp2689
g57
(g78
g59
NtRp2690
(dp2691
g62
(dp2692
g82
g83
ssg71
g2686
sg64
(lp2693
S'env'
p2694
asbag57
(g78
g59
NtRp2695
(dp2696
g62
(dp2697
g89
g90
ssg71
g2686
sg64
(lp2698
S':'
asbag57
(g78
g59
NtRp2699
(dp2700
g62
(dp2701
sg71
g2686
sg64
(lp2702
g57
(g58
g59
NtRp2703
(dp2704
g62
(dp2705
g70
I5
ssg71
g2699
sg64
(lp2706
g57
(g66
g59
NtRp2707
(dp2708
g62
(dp2709
g70
I4
ssg71
Nsg64
(lp2710
g57
(g73
g59
NtRp2711
(dp2712
g62
(dp2713
sg71
g2707
sg64
(lp2714
g57
(g78
g59
NtRp2715
(dp2716
g62
(dp2717
g82
g83
ssg71
g2711
sg64
(lp2718
S'app_folders'
p2719
asbag57
(g78
g59
NtRp2720
(dp2721
g62
(dp2722
g89
g90
ssg71
g2711
sg64
(lp2723
S':'
asbag57
(g78
g59
NtRp2724
(dp2725
g62
(dp2726
sg71
g2711
sg64
(lp2727
g57
(g58
g59
NtRp2728
(dp2729
g62
(dp2730
g70
I4
ssg71
g2724
sg64
(lp2731
S"set(['/home/pankaj/web2py/applications/admin/', '/home/pankaj/web2py/applications/welcome/', '/home/pankaj/web2py/applications/reddit/'])"
p2732
asbasbasbag57
(g73
g59
NtRp2733
(dp2734
g62
(dp2735
sg71
g2707
sg64
(lp2736
g57
(g78
g59
NtRp2737
(dp2738
g62
(dp2739
g82
g83
ssg71
g2733
sg64
(lp2740
S'applications_parent'
p2741
asbag57
(g78
g59
NtRp2742
(dp2743
g62
(dp2744
g89
g90
ssg71
g2733
sg64
(lp2745
S':'
asbag57
(g78
g59
NtRp2746
(dp2747
g62
(dp2748
sg71
g2733
sg64
(lp2749
g57
(g58
g59
NtRp2750
(dp2751
g62
(dp2752
g70
I4
ssg71
g2746
sg64
(lp2753
S'/home/pankaj/web2py'
p2754
asbasbasbag57
(g73
g59
NtRp2755
(dp2756
g62
(dp2757
sg71
g2707
sg64
(lp2758
g57
(g78
g59
NtRp2759
(dp2760
g62
(dp2761
g82
g83
ssg71
g2755
sg64
(lp2762
S'cmd_args'
p2763
asbag57
(g78
g59
NtRp2764
(dp2765
g62
(dp2766
g89
g90
ssg71
g2755
sg64
(lp2767
S':'
asbag57
(g78
g59
NtRp2768
(dp2769
g62
(dp2770
sg71
g2755
sg64
(lp2771
g57
(g58
g59
NtRp2772
(dp2773
g62
(dp2774
g70
I4
ssg71
g2768
sg64
(lp2775
g57
(g66
g59
NtRp2776
(dp2777
g62
(dp2778
g70
I3
ssg71
Nsg64
(lp2779
sbasbasbasbag57
(g73
g59
NtRp2780
(dp2781
g62
(dp2782
sg71
g2707
sg64
(lp2783
g57
(g78
g59
NtRp2784
(dp2785
g62
(dp2786
g82
g83
ssg71
g2780
sg64
(lp2787
S'cmd_options'
p2788
asbag57
(g78
g59
NtRp2789
(dp2790
g62
(dp2791
g89
g90
ssg71
g2780
sg64
(lp2792
S':'
asbag57
(g78
g59
NtRp2793
(dp2794
g62
(dp2795
sg71
g2780
sg64
(lp2796
g57
(g58
g59
NtRp2797
(dp2798
g62
(dp2799
g70
I4
ssg71
g2793
sg64
(lp2800
S"<Values at 0x9843dcc: {'verbose': False, 'ip': '127.0.0.1', 'with_scheduler': False, 'ips': [], 'shutdown_timeout': 5, 'taskbar': False, 'port': 8000, 'maxthreads': None, 'softcron': False, 'server_name': 'pankaj-HP-Pavilion-dv4-Notebook-PC', 'bpython': False, 'nogui': False, 'pid_filename': 'httpserver.pid', 'extcron': False, 'runcron': False, 'run_system_tests': False, 'test': None, 'folder': '/home/pankaj/web2py', 'config': '', 'import_models': False, 'winservice': '', 'shell': None, 'run': '', 'log_filename': 'httpserver.log', 'debuglevel': 30, 'args': [''], 'socket_timeout': 5, 'ssl_ca_certificate': None, 'scheduler': None, 'profiler_filename': None, 'ssl_private_key': '', 'scheduler_groups': None, 'password': '<ask>', 'request_queue_size': 5, 'ssl_certificate': '', 'cronjob': False, 'numthreads': None, 'quiet': False, 'interfaces': None, 'minthreads': None, 'timeout': 10, 'plain': False, 'nobanner': False}>"
p2801
asbasbasbag57
(g73
g59
NtRp2802
(dp2803
g62
(dp2804
sg71
g2707
sg64
(lp2805
g57
(g78
g59
NtRp2806
(dp2807
g62
(dp2808
g82
g83
ssg71
g2802
sg64
(lp2809
S'db_sessions'
p2810
asbag57
(g78
g59
NtRp2811
(dp2812
g62
(dp2813
g89
g90
ssg71
g2802
sg64
(lp2814
S':'
asbag57
(g78
g59
NtRp2815
(dp2816
g62
(dp2817
sg71
g2802
sg64
(lp2818
g57
(g58
g59
NtRp2819
(dp2820
g62
(dp2821
g70
I4
ssg71
g2815
sg64
(lp2822
S'set([])'
p2823
asbasbasbag57
(g73
g59
NtRp2824
(dp2825
g62
(dp2826
sg71
g2707
sg64
(lp2827
g57
(g78
g59
NtRp2828
(dp2829
g62
(dp2830
g82
g83
ssg71
g2824
sg64
(lp2831
S'debugging'
p2832
asbag57
(g78
g59
NtRp2833
(dp2834
g62
(dp2835
g89
g90
ssg71
g2824
sg64
(lp2836
S':'
asbag57
(g78
g59
NtRp2837
(dp2838
g62
(dp2839
sg71
g2824
sg64
(lp2840
g57
(g58
g59
NtRp2841
(dp2842
g62
(dp2843
g70
I4
ssg71
g2837
sg64
(lp2844
g100
asbasbasbag57
(g73
g59
NtRp2845
(dp2846
g62
(dp2847
sg71
g2707
sg64
(lp2848
g57
(g78
g59
NtRp2849
(dp2850
g62
(dp2851
g82
g83
ssg71
g2845
sg64
(lp2852
S'gluon_parent'
p2853
asbag57
(g78
g59
NtRp2854
(dp2855
g62
(dp2856
g89
g90
ssg71
g2845
sg64
(lp2857
S':'
asbag57
(g78
g59
NtRp2858
(dp2859
g62
(dp2860
sg71
g2845
sg64
(lp2861
g57
(g58
g59
NtRp2862
(dp2863
g62
(dp2864
g70
I4
ssg71
g2858
sg64
(lp2865
S'/home/pankaj/web2py'
p2866
asbasbasbag57
(g73
g59
NtRp2867
(dp2868
g62
(dp2869
sg71
g2707
sg64
(lp2870
g57
(g78
g59
NtRp2871
(dp2872
g62
(dp2873
g82
g83
ssg71
g2867
sg64
(lp2874
S'http_accept'
p2875
asbag57
(g78
g59
NtRp2876
(dp2877
g62
(dp2878
g89
g90
ssg71
g2867
sg64
(lp2879
S':'
asbag57
(g78
g59
NtRp2880
(dp2881
g62
(dp2882
sg71
g2867
sg64
(lp2883
g57
(g58
g59
NtRp2884
(dp2885
g62
(dp2886
g70
I4
ssg71
g2880
sg64
(lp2887
S'text/html,application/xhtml+xml,application/xml;q=0.9,*/*;q=0.8'
p2888
asbasbasbag57
(g73
g59
NtRp2889
(dp2890
g62
(dp2891
sg71
g2707
sg64
(lp2892
g57
(g78
g59
NtRp2893
(dp2894
g62
(dp2895
g82
g83
ssg71
g2889
sg64
(lp2896
S'http_accept_encoding'
p2897
asbag57
(g78
g59
NtRp2898
(dp2899
g62
(dp2900
g89
g90
ssg71
g2889
sg64
(lp2901
S':'
asbag57
(g78
g59
NtRp2902
(dp2903
g62
(dp2904
sg71
g2889
sg64
(lp2905
g57
(g58
g59
NtRp2906
(dp2907
g62
(dp2908
g70
I4
ssg71
g2902
sg64
(lp2909
S'gzip, deflate'
p2910
asbasbasbag57
(g73
g59
NtRp2911
(dp2912
g62
(dp2913
sg71
g2707
sg64
(lp2914
g57
(g78
g59
NtRp2915
(dp2916
g62
(dp2917
g82
g83
ssg71
g2911
sg64
(lp2918
S'http_accept_language'
p2919
asbag57
(g78
g59
NtRp2920
(dp2921
g62
(dp2922
g89
g90
ssg71
g2911
sg64
(lp2923
S':'
asbag57
(g78
g59
NtRp2924
(dp2925
g62
(dp2926
sg71
g2911
sg64
(lp2927
g57
(g58
g59
NtRp2928
(dp2929
g62
(dp2930
g70
I4
ssg71
g2924
sg64
(lp2931
S'en-US,en;q=0.5'
p2932
asbasbasbag57
(g73
g59
NtRp2933
(dp2934
g62
(dp2935
sg71
g2707
sg64
(lp2936
g57
(g78
g59
NtRp2937
(dp2938
g62
(dp2939
g82
g83
ssg71
g2933
sg64
(lp2940
S'http_cache_control'
p2941
asbag57
(g78
g59
NtRp2942
(dp2943
g62
(dp2944
g89
g90
ssg71
g2933
sg64
(lp2945
S':'
asbag57
(g78
g59
NtRp2946
(dp2947
g62
(dp2948
sg71
g2933
sg64
(lp2949
g57
(g58
g59
NtRp2950
(dp2951
g62
(dp2952
g70
I4
ssg71
g2946
sg64
(lp2953
S'max-age=0'
p2954
asbasbasbag57
(g73
g59
NtRp2955
(dp2956
g62
(dp2957
sg71
g2707
sg64
(lp2958
g57
(g78
g59
NtRp2959
(dp2960
g62
(dp2961
g82
g83
ssg71
g2955
sg64
(lp2962
S'http_connection'
p2963
asbag57
(g78
g59
NtRp2964
(dp2965
g62
(dp2966
g89
g90
ssg71
g2955
sg64
(lp2967
S':'
asbag57
(g78
g59
NtRp2968
(dp2969
g62
(dp2970
sg71
g2955
sg64
(lp2971
g57
(g58
g59
NtRp2972
(dp2973
g62
(dp2974
g70
I4
ssg71
g2968
sg64
(lp2975
S'keep-alive'
p2976
asbasbasbag57
(g73
g59
NtRp2977
(dp2978
g62
(dp2979
sg71
g2707
sg64
(lp2980
g57
(g78
g59
NtRp2981
(dp2982
g62
(dp2983
g82
g83
ssg71
g2977
sg64
(lp2984
S'http_cookie'
p2985
asbag57
(g78
g59
NtRp2986
(dp2987
g62
(dp2988
g89
g90
ssg71
g2977
sg64
(lp2989
S':'
asbag57
(g78
g59
NtRp2990
(dp2991
g62
(dp2992
sg71
g2977
sg64
(lp2993
g57
(g58
g59
NtRp2994
(dp2995
g62
(dp2996
g70
I4
ssg71
g2990
sg64
(lp2997
S'session_id_welcome=127.0.0.1-a85dd4d7-ab1c-49ab-856d-4173a26ef319; session_id_admin=127.0.0.1-eea59e1b-9257-4df1-8c44-da77bf9e4ec2; session_id_20120156_assignment_1=127.0.0.1-6cad324c-0572-4be8-8f41-6fcaca863c93; session_id_arihant=127.0.0.1-fa99deb6-5977-491c-864a-b5d79c0d1842; session_id_cataminder=127.0.0.1-81b628a7-34a5-4e70-a95c-79ef710dcdbb; session_id_courses=127.0.0.1-1d46c4eb-fdfc-4abb-bb62-6bcf52d1fcaa; session_id_iiit_fb=127.0.0.1-04b7df24-4720-4bb5-98de-96b98776240d; session_id_myapp=127.0.0.1-f28af7a6-9d1e-4a86-bd34-27605492a231; session_id_project=127.0.0.1-029ca61b-f875-404a-b7ff-1634c44ab767; session_id_testlayout=127.0.0.1-0b2689a2-d3bd-4ee8-ad96-af4d7e3e9ad1; session_id_try=127.0.0.1-4d514347-24a9-48c9-9e7c-4ac4f4a70173; session_id_vikramahuja=127.0.0.1-a555d16d-54b5-476d-a152-f88918b513fe; session_id_reddit=127.0.0.1-24289f39-32a1-48fb-a367-22792fb8b813'
p2998
asbasbasbag57
(g73
g59
NtRp2999
(dp3000
g62
(dp3001
sg71
g2707
sg64
(lp3002
g57
(g78
g59
NtRp3003
(dp3004
g62
(dp3005
g82
g83
ssg71
g2999
sg64
(lp3006
S'http_host'
p3007
asbag57
(g78
g59
NtRp3008
(dp3009
g62
(dp3010
g89
g90
ssg71
g2999
sg64
(lp3011
S':'
asbag57
(g78
g59
NtRp3012
(dp3013
g62
(dp3014
sg71
g2999
sg64
(lp3015
g57
(g58
g59
NtRp3016
(dp3017
g62
(dp3018
g70
I4
ssg71
g3012
sg64
(lp3019
S'127.0.0.1:8000'
p3020
asbasbasbag57
(g73
g59
NtRp3021
(dp3022
g62
(dp3023
sg71
g2707
sg64
(lp3024
g57
(g78
g59
NtRp3025
(dp3026
g62
(dp3027
g82
g83
ssg71
g3021
sg64
(lp3028
S'http_user_agent'
p3029
asbag57
(g78
g59
NtRp3030
(dp3031
g62
(dp3032
g89
g90
ssg71
g3021
sg64
(lp3033
S':'
asbag57
(g78
g59
NtRp3034
(dp3035
g62
(dp3036
sg71
g3021
sg64
(lp3037
g57
(g58
g59
NtRp3038
(dp3039
g62
(dp3040
g70
I4
ssg71
g3034
sg64
(lp3041
S'Mozilla/5.0 (X11; Ubuntu; Linux i686; rv:22.0) Gecko/20100101 Firefox/22.0'
p3042
asbasbasbag57
(g73
g59
NtRp3043
(dp3044
g62
(dp3045
sg71
g2707
sg64
(lp3046
g57
(g78
g59
NtRp3047
(dp3048
g62
(dp3049
g82
g83
ssg71
g3043
sg64
(lp3050
S'is_jython'
p3051
asbag57
(g78
g59
NtRp3052
(dp3053
g62
(dp3054
g89
g90
ssg71
g3043
sg64
(lp3055
S':'
asbag57
(g78
g59
NtRp3056
(dp3057
g62
(dp3058
sg71
g3043
sg64
(lp3059
g57
(g58
g59
NtRp3060
(dp3061
g62
(dp3062
g70
I4
ssg71
g3056
sg64
(lp3063
g100
asbasbasbag57
(g73
g59
NtRp3064
(dp3065
g62
(dp3066
sg71
g2707
sg64
(lp3067
g57
(g78
g59
NtRp3068
(dp3069
g62
(dp3070
g82
g83
ssg71
g3064
sg64
(lp3071
S'is_pypy'
p3072
asbag57
(g78
g59
NtRp3073
(dp3074
g62
(dp3075
g89
g90
ssg71
g3064
sg64
(lp3076
S':'
asbag57
(g78
g59
NtRp3077
(dp3078
g62
(dp3079
sg71
g3064
sg64
(lp3080
g57
(g58
g59
NtRp3081
(dp3082
g62
(dp3083
g70
I4
ssg71
g3077
sg64
(lp3084
g100
asbasbasbag57
(g73
g59
NtRp3085
(dp3086
g62
(dp3087
sg71
g2707
sg64
(lp3088
g57
(g78
g59
NtRp3089
(dp3090
g62
(dp3091
g82
g83
ssg71
g3085
sg64
(lp3092
S'local_hosts'
p3093
asbag57
(g78
g59
NtRp3094
(dp3095
g62
(dp3096
g89
g90
ssg71
g3085
sg64
(lp3097
S':'
asbag57
(g78
g59
NtRp3098
(dp3099
g62
(dp3100
sg71
g3085
sg64
(lp3101
g57
(g58
g59
NtRp3102
(dp3103
g62
(dp3104
g70
I4
ssg71
g3098
sg64
(lp3105
g57
(g66
g59
NtRp3106
(dp3107
g62
(dp3108
g70
I3
ssg71
Nsg64
(lp3109
g57
(g73
g59
NtRp3110
(dp3111
g62
(dp3112
sg71
g3106
sg64
(lp3113
g57
(g78
g59
NtRp3114
(dp3115
g62
(dp3116
sg71
g3110
sg64
(lp3117
g57
(g58
g59
NtRp3118
(dp3119
g62
(dp3120
g70
I3
ssg71
g3114
sg64
(lp3121
S'pankaj-HP-Pavilion-dv4-Notebook-PC'
p3122
asbasbasbag57
(g73
g59
NtRp3123
(dp3124
g62
(dp3125
sg71
g3106
sg64
(lp3126
g57
(g78
g59
NtRp3127
(dp3128
g62
(dp3129
sg71
g3123
sg64
(lp3130
g57
(g58
g59
NtRp3131
(dp3132
g62
(dp3133
g70
I3
ssg71
g3127
sg64
(lp3134
S'::1'
p3135
asbasbasbag57
(g73
g59
NtRp3136
(dp3137
g62
(dp3138
sg71
g3106
sg64
(lp3139
g57
(g78
g59
NtRp3140
(dp3141
g62
(dp3142
sg71
g3136
sg64
(lp3143
g57
(g58
g59
NtRp3144
(dp3145
g62
(dp3146
g70
I3
ssg71
g3140
sg64
(lp3147
S'127.0.1.1'
p3148
asbasbasbag57
(g73
g59
NtRp3149
(dp3150
g62
(dp3151
sg71
g3106
sg64
(lp3152
g57
(g78
g59
NtRp3153
(dp3154
g62
(dp3155
sg71
g3149
sg64
(lp3156
g57
(g58
g59
NtRp3157
(dp3158
g62
(dp3159
g70
I3
ssg71
g3153
sg64
(lp3160
S'::ffff:127.0.0.1'
p3161
asbasbasbag57
(g73
g59
NtRp3162
(dp3163
g62
(dp3164
sg71
g3106
sg64
(lp3165
g57
(g78
g59
NtRp3166
(dp3167
g62
(dp3168
sg71
g3162
sg64
(lp3169
g57
(g58
g59
NtRp3170
(dp3171
g62
(dp3172
g70
I3
ssg71
g3166
sg64
(lp3173
S'127.0.0.1'
p3174
asbasbasbasbasbasbasbag57
(g73
g59
NtRp3175
(dp3176
g62
(dp3177
sg71
g2707
sg64
(lp3178
g57
(g78
g59
NtRp3179
(dp3180
g62
(dp3181
g82
g83
ssg71
g3175
sg64
(lp3182
S'path_info'
p3183
asbag57
(g78
g59
NtRp3184
(dp3185
g62
(dp3186
g89
g90
ssg71
g3175
sg64
(lp3187
S':'
asbag57
(g78
g59
NtRp3188
(dp3189
g62
(dp3190
sg71
g3175
sg64
(lp3191
g57
(g58
g59
NtRp3192
(dp3193
g62
(dp3194
g70
I4
ssg71
g3188
sg64
(lp3195
S'/reddit/'
p3196
asbasbasbag57
(g73
g59
NtRp3197
(dp3198
g62
(dp3199
sg71
g2707
sg64
(lp3200
g57
(g78
g59
NtRp3201
(dp3202
g62
(dp3203
g82
g83
ssg71
g3197
sg64
(lp3204
S'query_string'
p3205
asbag57
(g78
g59
NtRp3206
(dp3207
g62
(dp3208
g89
g90
ssg71
g3197
sg64
(lp3209
S':'
asbag57
(g78
g59
NtRp3210
(dp3211
g62
(dp3212
sg71
g3197
sg64
(lp3213
g57
(g58
g59
NtRp3214
(dp3215
g62
(dp3216
g70
I4
ssg71
g3210
sg64
(lp3217
S''
asbasbasbag57
(g73
g59
NtRp3218
(dp3219
g62
(dp3220
sg71
g2707
sg64
(lp3221
g57
(g78
g59
NtRp3222
(dp3223
g62
(dp3224
g82
g83
ssg71
g3218
sg64
(lp3225
S'remote_addr'
p3226
asbag57
(g78
g59
NtRp3227
(dp3228
g62
(dp3229
g89
g90
ssg71
g3218
sg64
(lp3230
S':'
asbag57
(g78
g59
NtRp3231
(dp3232
g62
(dp3233
sg71
g3218
sg64
(lp3234
g57
(g58
g59
NtRp3235
(dp3236
g62
(dp3237
g70
I4
ssg71
g3231
sg64
(lp3238
g212
asbasbasbag57
(g73
g59
NtRp3239
(dp3240
g62
(dp3241
sg71
g2707
sg64
(lp3242
g57
(g78
g59
NtRp3243
(dp3244
g62
(dp3245
g82
g83
ssg71
g3239
sg64
(lp3246
S'remote_port'
p3247
asbag57
(g78
g59
NtRp3248
(dp3249
g62
(dp3250
g89
g90
ssg71
g3239
sg64
(lp3251
S':'
asbag57
(g78
g59
NtRp3252
(dp3253
g62
(dp3254
sg71
g3239
sg64
(lp3255
g57
(g58
g59
NtRp3256
(dp3257
g62
(dp3258
g70
I4
ssg71
g3252
sg64
(lp3259
S'58324'
p3260
asbasbasbag57
(g73
g59
NtRp3261
(dp3262
g62
(dp3263
sg71
g2707
sg64
(lp3264
g57
(g78
g59
NtRp3265
(dp3266
g62
(dp3267
g82
g83
ssg71
g3261
sg64
(lp3268
S'request_method'
p3269
asbag57
(g78
g59
NtRp3270
(dp3271
g62
(dp3272
g89
g90
ssg71
g3261
sg64
(lp3273
S':'
asbag57
(g78
g59
NtRp3274
(dp3275
g62
(dp3276
sg71
g3261
sg64
(lp3277
g57
(g58
g59
NtRp3278
(dp3279
g62
(dp3280
g70
I4
ssg71
g3274
sg64
(lp3281
S'GET'
p3282
asbasbasbag57
(g73
g59
NtRp3283
(dp3284
g62
(dp3285
sg71
g2707
sg64
(lp3286
g57
(g78
g59
NtRp3287
(dp3288
g62
(dp3289
g82
g83
ssg71
g3283
sg64
(lp3290
S'request_uri'
p3291
asbag57
(g78
g59
NtRp3292
(dp3293
g62
(dp3294
g89
g90
ssg71
g3283
sg64
(lp3295
S':'
asbag57
(g78
g59
NtRp3296
(dp3297
g62
(dp3298
sg71
g3283
sg64
(lp3299
g57
(g58
g59
NtRp3300
(dp3301
g62
(dp3302
g70
I4
ssg71
g3296
sg64
(lp3303
g3196
asbasbasbag57
(g73
g59
NtRp3304
(dp3305
g62
(dp3306
sg71
g2707
sg64
(lp3307
g57
(g78
g59
NtRp3308
(dp3309
g62
(dp3310
g82
g83
ssg71
g3304
sg64
(lp3311
S'script_name'
p3312
asbag57
(g78
g59
NtRp3313
(dp3314
g62
(dp3315
g89
g90
ssg71
g3304
sg64
(lp3316
S':'
asbag57
(g78
g59
NtRp3317
(dp3318
g62
(dp3319
sg71
g3304
sg64
(lp3320
g57
(g58
g59
NtRp3321
(dp3322
g62
(dp3323
g70
I4
ssg71
g3317
sg64
(lp3324
S''
asbasbasbag57
(g73
g59
NtRp3325
(dp3326
g62
(dp3327
sg71
g2707
sg64
(lp3328
g57
(g78
g59
NtRp3329
(dp3330
g62
(dp3331
g82
g83
ssg71
g3325
sg64
(lp3332
S'server_name'
p3333
asbag57
(g78
g59
NtRp3334
(dp3335
g62
(dp3336
g89
g90
ssg71
g3325
sg64
(lp3337
S':'
asbag57
(g78
g59
NtRp3338
(dp3339
g62
(dp3340
sg71
g3325
sg64
(lp3341
g57
(g58
g59
NtRp3342
(dp3343
g62
(dp3344
g70
I4
ssg71
g3338
sg64
(lp3345
S'pankaj-HP-Pavilion-dv4-Notebook-PC'
p3346
asbasbasbag57
(g73
g59
NtRp3347
(dp3348
g62
(dp3349
sg71
g2707
sg64
(lp3350
g57
(g78
g59
NtRp3351
(dp3352
g62
(dp3353
g82
g83
ssg71
g3347
sg64
(lp3354
S'server_port'
p3355
asbag57
(g78
g59
NtRp3356
(dp3357
g62
(dp3358
g89
g90
ssg71
g3347
sg64
(lp3359
S':'
asbag57
(g78
g59
NtRp3360
(dp3361
g62
(dp3362
sg71
g3347
sg64
(lp3363
g57
(g58
g59
NtRp3364
(dp3365
g62
(dp3366
g70
I4
ssg71
g3360
sg64
(lp3367
S'8000'
p3368
asbasbasbag57
(g73
g59
NtRp3369
(dp3370
g62
(dp3371
sg71
g2707
sg64
(lp3372
g57
(g78
g59
NtRp3373
(dp3374
g62
(dp3375
g82
g83
ssg71
g3369
sg64
(lp3376
S'server_protocol'
p3377
asbag57
(g78
g59
NtRp3378
(dp3379
g62
(dp3380
g89
g90
ssg71
g3369
sg64
(lp3381
S':'
asbag57
(g78
g59
NtRp3382
(dp3383
g62
(dp3384
sg71
g3369
sg64
(lp3385
g57
(g58
g59
NtRp3386
(dp3387
g62
(dp3388
g70
I4
ssg71
g3382
sg64
(lp3389
S'HTTP/1.1'
p3390
asbasbasbag57
(g73
g59
NtRp3391
(dp3392
g62
(dp3393
sg71
g2707
sg64
(lp3394
g57
(g78
g59
NtRp3395
(dp3396
g62
(dp3397
g82
g83
ssg71
g3391
sg64
(lp3398
S'server_software'
p3399
asbag57
(g78
g59
NtRp3400
(dp3401
g62
(dp3402
g89
g90
ssg71
g3391
sg64
(lp3403
S':'
asbag57
(g78
g59
NtRp3404
(dp3405
g62
(dp3406
sg71
g3391
sg64
(lp3407
g57
(g58
g59
NtRp3408
(dp3409
g62
(dp3410
g70
I4
ssg71
g3404
sg64
(lp3411
S'Rocket 1.2.6'
p3412
asbasbasbag57
(g73
g59
NtRp3413
(dp3414
g62
(dp3415
sg71
g2707
sg64
(lp3416
g57
(g78
g59
NtRp3417
(dp3418
g62
(dp3419
g82
g83
ssg71
g3413
sg64
(lp3420
S'web2py_path'
p3421
asbag57
(g78
g59
NtRp3422
(dp3423
g62
(dp3424
g89
g90
ssg71
g3413
sg64
(lp3425
S':'
asbag57
(g78
g59
NtRp3426
(dp3427
g62
(dp3428
sg71
g3413
sg64
(lp3429
g57
(g58
g59
NtRp3430
(dp3431
g62
(dp3432
g70
I4
ssg71
g3426
sg64
(lp3433
g2754
asbasbasbag57
(g73
g59
NtRp3434
(dp3435
g62
(dp3436
sg71
g2707
sg64
(lp3437
g57
(g78
g59
NtRp3438
(dp3439
g62
(dp3440
g82
g83
ssg71
g3434
sg64
(lp3441
S'web2py_version'
p3442
asbag57
(g78
g59
NtRp3443
(dp3444
g62
(dp3445
g89
g90
ssg71
g3434
sg64
(lp3446
S':'
asbag57
(g78
g59
NtRp3447
(dp3448
g62
(dp3449
sg71
g3434
sg64
(lp3450
g57
(g58
g59
NtRp3451
(dp3452
g62
(dp3453
g70
I4
ssg71
g3447
sg64
(lp3454
g57
(g66
g59
NtRp3455
(dp3456
g62
(dp3457
g70
I3
ssg71
Nsg64
(lp3458
g57
(g73
g59
NtRp3459
(dp3460
g62
(dp3461
sg71
g3455
sg64
(lp3462
g57
(g78
g59
NtRp3463
(dp3464
g62
(dp3465
sg71
g3459
sg64
(lp3466
g57
(g58
g59
NtRp3467
(dp3468
g62
(dp3469
g70
I3
ssg71
g3463
sg64
(lp3470
S'2'
asbasbasbag57
(g73
g59
NtRp3471
(dp3472
g62
(dp3473
sg71
g3455
sg64
(lp3474
g57
(g78
g59
NtRp3475
(dp3476
g62
(dp3477
sg71
g3471
sg64
(lp3478
g57
(g58
g59
NtRp3479
(dp3480
g62
(dp3481
g70
I3
ssg71
g3475
sg64
(lp3482
S'3'
asbasbasbag57
(g73
g59
NtRp3483
(dp3484
g62
(dp3485
sg71
g3455
sg64
(lp3486
g57
(g78
g59
NtRp3487
(dp3488
g62
(dp3489
sg71
g3483
sg64
(lp3490
g57
(g58
g59
NtRp3491
(dp3492
g62
(dp3493
g70
I3
ssg71
g3487
sg64
(lp3494
S'2'
asbasbasbag57
(g73
g59
NtRp3495
(dp3496
g62
(dp3497
sg71
g3455
sg64
(lp3498
g57
(g78
g59
NtRp3499
(dp3500
g62
(dp3501
sg71
g3495
sg64
(lp3502
g57
(g58
g59
NtRp3503
(dp3504
g62
(dp3505
g70
I3
ssg71
g3499
sg64
(lp3506
S'datetime.datetime(2012, 12, 17, 15, 3, 30)'
p3507
asbasbasbag57
(g73
g59
NtRp3508
(dp3509
g62
(dp3510
sg71
g3455
sg64
(lp3511
g57
(g78
g59
NtRp3512
(dp3513
g62
(dp3514
sg71
g3508
sg64
(lp3515
g57
(g58
g59
NtRp3516
(dp3517
g62
(dp3518
g70
I3
ssg71
g3512
sg64
(lp3519
S'stable'
p3520
asbasbasbasbasbasbasbag57
(g73
g59
NtRp3521
(dp3522
g62
(dp3523
sg71
g2707
sg64
(lp3524
g57
(g78
g59
NtRp3525
(dp3526
g62
(dp3527
g82
g83
ssg71
g3521
sg64
(lp3528
S'wsgi_errors'
p3529
asbag57
(g78
g59
NtRp3530
(dp3531
g62
(dp3532
g89
g90
ssg71
g3521
sg64
(lp3533
S':'
asbag57
(g78
g59
NtRp3534
(dp3535
g62
(dp3536
sg71
g3521
sg64
(lp3537
g57
(g58
g59
NtRp3538
(dp3539
g62
(dp3540
g70
I4
ssg71
g3534
sg64
(lp3541
S"<open file '<stderr>', mode 'w' at 0xb73000d0>"
p3542
asbasbasbag57
(g73
g59
NtRp3543
(dp3544
g62
(dp3545
sg71
g2707
sg64
(lp3546
g57
(g78
g59
NtRp3547
(dp3548
g62
(dp3549
g82
g83
ssg71
g3543
sg64
(lp3550
S'wsgi_file_wrapper'
p3551
asbag57
(g78
g59
NtRp3552
(dp3553
g62
(dp3554
g89
g90
ssg71
g3543
sg64
(lp3555
S':'
asbag57
(g78
g59
NtRp3556
(dp3557
g62
(dp3558
sg71
g3543
sg64
(lp3559
g57
(g58
g59
NtRp3560
(dp3561
g62
(dp3562
g70
I4
ssg71
g3556
sg64
(lp3563
S'<class wsgiref.util.FileWrapper at 0x980905c>'
p3564
asbasbasbag57
(g73
g59
NtRp3565
(dp3566
g62
(dp3567
sg71
g2707
sg64
(lp3568
g57
(g78
g59
NtRp3569
(dp3570
g62
(dp3571
g82
g83
ssg71
g3565
sg64
(lp3572
S'wsgi_input'
p3573
asbag57
(g78
g59
NtRp3574
(dp3575
g62
(dp3576
g89
g90
ssg71
g3565
sg64
(lp3577
S':'
asbag57
(g78
g59
NtRp3578
(dp3579
g62
(dp3580
sg71
g3565
sg64
(lp3581
g57
(g58
g59
NtRp3582
(dp3583
g62
(dp3584
g70
I4
ssg71
g3578
sg64
(lp3585
S'<socket._fileobject object at 0x9cf942c>'
p3586
asbasbasbag57
(g73
g59
NtRp3587
(dp3588
g62
(dp3589
sg71
g2707
sg64
(lp3590
g57
(g78
g59
NtRp3591
(dp3592
g62
(dp3593
g82
g83
ssg71
g3587
sg64
(lp3594
S'wsgi_multiprocess'
p3595
asbag57
(g78
g59
NtRp3596
(dp3597
g62
(dp3598
g89
g90
ssg71
g3587
sg64
(lp3599
S':'
asbag57
(g78
g59
NtRp3600
(dp3601
g62
(dp3602
sg71
g3587
sg64
(lp3603
g57
(g58
g59
NtRp3604
(dp3605
g62
(dp3606
g70
I4
ssg71
g3600
sg64
(lp3607
g100
asbasbasbag57
(g73
g59
NtRp3608
(dp3609
g62
(dp3610
sg71
g2707
sg64
(lp3611
g57
(g78
g59
NtRp3612
(dp3613
g62
(dp3614
g82
g83
ssg71
g3608
sg64
(lp3615
S'wsgi_multithread'
p3616
asbag57
(g78
g59
NtRp3617
(dp3618
g62
(dp3619
g89
g90
ssg71
g3608
sg64
(lp3620
S':'
asbag57
(g78
g59
NtRp3621
(dp3622
g62
(dp3623
sg71
g3608
sg64
(lp3624
g57
(g58
g59
NtRp3625
(dp3626
g62
(dp3627
g70
I4
ssg71
g3621
sg64
(lp3628
S'True'
p3629
asbasbasbag57
(g73
g59
NtRp3630
(dp3631
g62
(dp3632
sg71
g2707
sg64
(lp3633
g57
(g78
g59
NtRp3634
(dp3635
g62
(dp3636
g82
g83
ssg71
g3630
sg64
(lp3637
S'wsgi_run_once'
p3638
asbag57
(g78
g59
NtRp3639
(dp3640
g62
(dp3641
g89
g90
ssg71
g3630
sg64
(lp3642
S':'
asbag57
(g78
g59
NtRp3643
(dp3644
g62
(dp3645
sg71
g3630
sg64
(lp3646
g57
(g58
g59
NtRp3647
(dp3648
g62
(dp3649
g70
I4
ssg71
g3643
sg64
(lp3650
g100
asbasbasbag57
(g73
g59
NtRp3651
(dp3652
g62
(dp3653
sg71
g2707
sg64
(lp3654
g57
(g78
g59
NtRp3655
(dp3656
g62
(dp3657
g82
g83
ssg71
g3651
sg64
(lp3658
S'wsgi_url_scheme'
p3659
asbag57
(g78
g59
NtRp3660
(dp3661
g62
(dp3662
g89
g90
ssg71
g3651
sg64
(lp3663
S':'
asbag57
(g78
g59
NtRp3664
(dp3665
g62
(dp3666
sg71
g3651
sg64
(lp3667
g57
(g58
g59
NtRp3668
(dp3669
g62
(dp3670
g70
I4
ssg71
g3664
sg64
(lp3671
S'http'
p3672
asbasbasbag57
(g73
g59
NtRp3673
(dp3674
g62
(dp3675
sg71
g2707
sg64
(lp3676
g57
(g78
g59
NtRp3677
(dp3678
g62
(dp3679
g82
g83
ssg71
g3673
sg64
(lp3680
S'wsgi_version'
p3681
asbag57
(g78
g59
NtRp3682
(dp3683
g62
(dp3684
g89
g90
ssg71
g3673
sg64
(lp3685
S':'
asbag57
(g78
g59
NtRp3686
(dp3687
g62
(dp3688
sg71
g3673
sg64
(lp3689
g57
(g58
g59
NtRp3690
(dp3691
g62
(dp3692
g70
I4
ssg71
g3686
sg64
(lp3693
g57
(g66
g59
NtRp3694
(dp3695
g62
(dp3696
g70
I3
ssg71
Nsg64
(lp3697
g57
(g73
g59
NtRp3698
(dp3699
g62
(dp3700
sg71
g3694
sg64
(lp3701
g57
(g78
g59
NtRp3702
(dp3703
g62
(dp3704
sg71
g3698
sg64
(lp3705
g57
(g58
g59
NtRp3706
(dp3707
g62
(dp3708
g70
I3
ssg71
g3702
sg64
(lp3709
S'1'
asbasbasbag57
(g73
g59
NtRp3710
(dp3711
g62
(dp3712
sg71
g3694
sg64
(lp3713
g57
(g78
g59
NtRp3714
(dp3715
g62
(dp3716
sg71
g3710
sg64
(lp3717
g57
(g58
g59
NtRp3718
(dp3719
g62
(dp3720
g70
I3
ssg71
g3714
sg64
(lp3721
S'0'
asbasbasbasbasbasbasbasbasbasbasbag57
(g73
g59
NtRp3722
(dp3723
g62
(dp3724
sg71
g67
sg64
(lp3725
g57
(g78
g59
NtRp3726
(dp3727
g62
(dp3728
g82
g83
ssg71
g3722
sg64
(lp3729
S'extension'
p3730
asbag57
(g78
g59
NtRp3731
(dp3732
g62
(dp3733
g89
g90
ssg71
g3722
sg64
(lp3734
S':'
asbag57
(g78
g59
NtRp3735
(dp3736
g62
(dp3737
sg71
g3722
sg64
(lp3738
g57
(g58
g59
NtRp3739
(dp3740
g62
(dp3741
g70
I5
ssg71
g3735
sg64
(lp3742
S'html'
p3743
asbasbasbag57
(g73
g59
NtRp3744
(dp3745
g62
(dp3746
sg71
g67
sg64
(lp3747
g57
(g78
g59
NtRp3748
(dp3749
g62
(dp3750
g82
g83
ssg71
g3744
sg64
(lp3751
S'folder'
p3752
asbag57
(g78
g59
NtRp3753
(dp3754
g62
(dp3755
g89
g90
ssg71
g3744
sg64
(lp3756
S':'
asbag57
(g78
g59
NtRp3757
(dp3758
g62
(dp3759
sg71
g3744
sg64
(lp3760
g57
(g58
g59
NtRp3761
(dp3762
g62
(dp3763
g70
I5
ssg71
g3757
sg64
(lp3764
S'/home/pankaj/web2py/applications/reddit/'
p3765
asbasbasbag57
(g73
g59
NtRp3766
(dp3767
g62
(dp3768
sg71
g67
sg64
(lp3769
g57
(g78
g59
NtRp3770
(dp3771
g62
(dp3772
g82
g83
ssg71
g3766
sg64
(lp3773
S'function'
p3774
asbag57
(g78
g59
NtRp3775
(dp3776
g62
(dp3777
g89
g90
ssg71
g3766
sg64
(lp3778
S':'
asbag57
(g78
g59
NtRp3779
(dp3780
g62
(dp3781
sg71
g3766
sg64
(lp3782
g57
(g58
g59
NtRp3783
(dp3784
g62
(dp3785
g70
I5
ssg71
g3779
sg64
(lp3786
S'index'
p3787
asbasbasbag57
(g73
g59
NtRp3788
(dp3789
g62
(dp3790
sg71
g67
sg64
(lp3791
g57
(g78
g59
NtRp3792
(dp3793
g62
(dp3794
g82
g83
ssg71
g3788
sg64
(lp3795
S'get_vars'
p3796
asbag57
(g78
g59
NtRp3797
(dp3798
g62
(dp3799
g89
g90
ssg71
g3788
sg64
(lp3800
S':'
asbag57
(g78
g59
NtRp3801
(dp3802
g62
(dp3803
sg71
g3788
sg64
(lp3804
g57
(g58
g59
NtRp3805
(dp3806
g62
(dp3807
g70
I5
ssg71
g3801
sg64
(lp3808
g57
(g66
g59
NtRp3809
(dp3810
g62
(dp3811
g70
I4
ssg71
Nsg64
(lp3812
sbasbasbasbag57
(g73
g59
NtRp3813
(dp3814
g62
(dp3815
sg71
g67
sg64
(lp3816
g57
(g78
g59
NtRp3817
(dp3818
g62
(dp3819
g82
g83
ssg71
g3813
sg64
(lp3820
S'global_settings'
p3821
asbag57
(g78
g59
NtRp3822
(dp3823
g62
(dp3824
g89
g90
ssg71
g3813
sg64
(lp3825
S':'
asbag57
(g78
g59
NtRp3826
(dp3827
g62
(dp3828
sg71
g3813
sg64
(lp3829
g57
(g58
g59
NtRp3830
(dp3831
g62
(dp3832
g70
I5
ssg71
g3826
sg64
(lp3833
g57
(g66
g59
NtRp3834
(dp3835
g62
(dp3836
g70
I4
ssg71
Nsg64
(lp3837
g57
(g73
g59
NtRp3838
(dp3839
g62
(dp3840
sg71
g3834
sg64
(lp3841
g57
(g78
g59
NtRp3842
(dp3843
g62
(dp3844
g82
g83
ssg71
g3838
sg64
(lp3845
g2719
asbag57
(g78
g59
NtRp3846
(dp3847
g62
(dp3848
g89
g90
ssg71
g3838
sg64
(lp3849
S':'
asbag57
(g78
g59
NtRp3850
(dp3851
g62
(dp3852
sg71
g3838
sg64
(lp3853
g57
(g58
g59
NtRp3854
(dp3855
g62
(dp3856
g70
I4
ssg71
g3850
sg64
(lp3857
S"set(['/home/pankaj/web2py/applications/admin/', '/home/pankaj/web2py/applications/welcome/', '/home/pankaj/web2py/applications/reddit/'])"
p3858
asbasbasbag57
(g73
g59
NtRp3859
(dp3860
g62
(dp3861
sg71
g3834
sg64
(lp3862
g57
(g78
g59
NtRp3863
(dp3864
g62
(dp3865
g82
g83
ssg71
g3859
sg64
(lp3866
g2741
asbag57
(g78
g59
NtRp3867
(dp3868
g62
(dp3869
g89
g90
ssg71
g3859
sg64
(lp3870
S':'
asbag57
(g78
g59
NtRp3871
(dp3872
g62
(dp3873
sg71
g3859
sg64
(lp3874
g57
(g58
g59
NtRp3875
(dp3876
g62
(dp3877
g70
I4
ssg71
g3871
sg64
(lp3878
g2754
asbasbasbag57
(g73
g59
NtRp3879
(dp3880
g62
(dp3881
sg71
g3834
sg64
(lp3882
g57
(g78
g59
NtRp3883
(dp3884
g62
(dp3885
g82
g83
ssg71
g3879
sg64
(lp3886
g2763
asbag57
(g78
g59
NtRp3887
(dp3888
g62
(dp3889
g89
g90
ssg71
g3879
sg64
(lp3890
S':'
asbag57
(g78
g59
NtRp3891
(dp3892
g62
(dp3893
sg71
g3879
sg64
(lp3894
g57
(g58
g59
NtRp3895
(dp3896
g62
(dp3897
g70
I4
ssg71
g3891
sg64
(lp3898
g57
(g66
g59
NtRp3899
(dp3900
g62
(dp3901
g70
I3
ssg71
Nsg64
(lp3902
sbasbasbasbag57
(g73
g59
NtRp3903
(dp3904
g62
(dp3905
sg71
g3834
sg64
(lp3906
g57
(g78
g59
NtRp3907
(dp3908
g62
(dp3909
g82
g83
ssg71
g3903
sg64
(lp3910
g2788
asbag57
(g78
g59
NtRp3911
(dp3912
g62
(dp3913
g89
g90
ssg71
g3903
sg64
(lp3914
S':'
asbag57
(g78
g59
NtRp3915
(dp3916
g62
(dp3917
sg71
g3903
sg64
(lp3918
g57
(g58
g59
NtRp3919
(dp3920
g62
(dp3921
g70
I4
ssg71
g3915
sg64
(lp3922
S"<Values at 0x9843dcc: {'verbose': False, 'ip': '127.0.0.1', 'with_scheduler': False, 'ips': [], 'shutdown_timeout': 5, 'taskbar': False, 'port': 8000, 'maxthreads': None, 'softcron': False, 'server_name': 'pankaj-HP-Pavilion-dv4-Notebook-PC', 'bpython': False, 'nogui': False, 'pid_filename': 'httpserver.pid', 'extcron': False, 'runcron': False, 'run_system_tests': False, 'test': None, 'folder': '/home/pankaj/web2py', 'config': '', 'import_models': False, 'winservice': '', 'shell': None, 'run': '', 'log_filename': 'httpserver.log', 'debuglevel': 30, 'args': [''], 'socket_timeout': 5, 'ssl_ca_certificate': None, 'scheduler': None, 'profiler_filename': None, 'ssl_private_key': '', 'scheduler_groups': None, 'password': '<ask>', 'request_queue_size': 5, 'ssl_certificate': '', 'cronjob': False, 'numthreads': None, 'quiet': False, 'interfaces': None, 'minthreads': None, 'timeout': 10, 'plain': False, 'nobanner': False}>"
p3923
asbasbasbag57
(g73
g59
NtRp3924
(dp3925
g62
(dp3926
sg71
g3834
sg64
(lp3927
g57
(g78
g59
NtRp3928
(dp3929
g62
(dp3930
g82
g83
ssg71
g3924
sg64
(lp3931
g2810
asbag57
(g78
g59
NtRp3932
(dp3933
g62
(dp3934
g89
g90
ssg71
g3924
sg64
(lp3935
S':'
asbag57
(g78
g59
NtRp3936
(dp3937
g62
(dp3938
sg71
g3924
sg64
(lp3939
g57
(g58
g59
NtRp3940
(dp3941
g62
(dp3942
g70
I4
ssg71
g3936
sg64
(lp3943
S'set([])'
p3944
asbasbasbag57
(g73
g59
NtRp3945
(dp3946
g62
(dp3947
sg71
g3834
sg64
(lp3948
g57
(g78
g59
NtRp3949
(dp3950
g62
(dp3951
g82
g83
ssg71
g3945
sg64
(lp3952
g2832
asbag57
(g78
g59
NtRp3953
(dp3954
g62
(dp3955
g89
g90
ssg71
g3945
sg64
(lp3956
S':'
asbag57
(g78
g59
NtRp3957
(dp3958
g62
(dp3959
sg71
g3945
sg64
(lp3960
g57
(g58
g59
NtRp3961
(dp3962
g62
(dp3963
g70
I4
ssg71
g3957
sg64
(lp3964
g100
asbasbasbag57
(g73
g59
NtRp3965
(dp3966
g62
(dp3967
sg71
g3834
sg64
(lp3968
g57
(g78
g59
NtRp3969
(dp3970
g62
(dp3971
g82
g83
ssg71
g3965
sg64
(lp3972
g2853
asbag57
(g78
g59
NtRp3973
(dp3974
g62
(dp3975
g89
g90
ssg71
g3965
sg64
(lp3976
S':'
asbag57
(g78
g59
NtRp3977
(dp3978
g62
(dp3979
sg71
g3965
sg64
(lp3980
g57
(g58
g59
NtRp3981
(dp3982
g62
(dp3983
g70
I4
ssg71
g3977
sg64
(lp3984
g2866
asbasbasbag57
(g73
g59
NtRp3985
(dp3986
g62
(dp3987
sg71
g3834
sg64
(lp3988
g57
(g78
g59
NtRp3989
(dp3990
g62
(dp3991
g82
g83
ssg71
g3985
sg64
(lp3992
g3051
asbag57
(g78
g59
NtRp3993
(dp3994
g62
(dp3995
g89
g90
ssg71
g3985
sg64
(lp3996
S':'
asbag57
(g78
g59
NtRp3997
(dp3998
g62
(dp3999
sg71
g3985
sg64
(lp4000
g57
(g58
g59
NtRp4001
(dp4002
g62
(dp4003
g70
I4
ssg71
g3997
sg64
(lp4004
g100
asbasbasbag57
(g73
g59
NtRp4005
(dp4006
g62
(dp4007
sg71
g3834
sg64
(lp4008
g57
(g78
g59
NtRp4009
(dp4010
g62
(dp4011
g82
g83
ssg71
g4005
sg64
(lp4012
g3072
asbag57
(g78
g59
NtRp4013
(dp4014
g62
(dp4015
g89
g90
ssg71
g4005
sg64
(lp4016
S':'
asbag57
(g78
g59
NtRp4017
(dp4018
g62
(dp4019
sg71
g4005
sg64
(lp4020
g57
(g58
g59
NtRp4021
(dp4022
g62
(dp4023
g70
I4
ssg71
g4017
sg64
(lp4024
g100
asbasbasbag57
(g73
g59
NtRp4025
(dp4026
g62
(dp4027
sg71
g3834
sg64
(lp4028
g57
(g78
g59
NtRp4029
(dp4030
g62
(dp4031
g82
g83
ssg71
g4025
sg64
(lp4032
g3093
asbag57
(g78
g59
NtRp4033
(dp4034
g62
(dp4035
g89
g90
ssg71
g4025
sg64
(lp4036
S':'
asbag57
(g78
g59
NtRp4037
(dp4038
g62
(dp4039
sg71
g4025
sg64
(lp4040
g57
(g58
g59
NtRp4041
(dp4042
g62
(dp4043
g70
I4
ssg71
g4037
sg64
(lp4044
g57
(g66
g59
NtRp4045
(dp4046
g62
(dp4047
g70
I3
ssg71
Nsg64
(lp4048
g57
(g73
g59
NtRp4049
(dp4050
g62
(dp4051
sg71
g4045
sg64
(lp4052
g57
(g78
g59
NtRp4053
(dp4054
g62
(dp4055
sg71
g4049
sg64
(lp4056
g57
(g58
g59
NtRp4057
(dp4058
g62
(dp4059
g70
I3
ssg71
g4053
sg64
(lp4060
g3122
asbasbasbag57
(g73
g59
NtRp4061
(dp4062
g62
(dp4063
sg71
g4045
sg64
(lp4064
g57
(g78
g59
NtRp4065
(dp4066
g62
(dp4067
sg71
g4061
sg64
(lp4068
g57
(g58
g59
NtRp4069
(dp4070
g62
(dp4071
g70
I3
ssg71
g4065
sg64
(lp4072
g3135
asbasbasbag57
(g73
g59
NtRp4073
(dp4074
g62
(dp4075
sg71
g4045
sg64
(lp4076
g57
(g78
g59
NtRp4077
(dp4078
g62
(dp4079
sg71
g4073
sg64
(lp4080
g57
(g58
g59
NtRp4081
(dp4082
g62
(dp4083
g70
I3
ssg71
g4077
sg64
(lp4084
g3148
asbasbasbag57
(g73
g59
NtRp4085
(dp4086
g62
(dp4087
sg71
g4045
sg64
(lp4088
g57
(g78
g59
NtRp4089
(dp4090
g62
(dp4091
sg71
g4085
sg64
(lp4092
g57
(g58
g59
NtRp4093
(dp4094
g62
(dp4095
g70
I3
ssg71
g4089
sg64
(lp4096
g3161
asbasbasbag57
(g73
g59
NtRp4097
(dp4098
g62
(dp4099
sg71
g4045
sg64
(lp4100
g57
(g78
g59
NtRp4101
(dp4102
g62
(dp4103
sg71
g4097
sg64
(lp4104
g57
(g58
g59
NtRp4105
(dp4106
g62
(dp4107
g70
I3
ssg71
g4101
sg64
(lp4108
g3174
asbasbasbasbasbasbasbag57
(g73
g59
NtRp4109
(dp4110
g62
(dp4111
sg71
g3834
sg64
(lp4112
g57
(g78
g59
NtRp4113
(dp4114
g62
(dp4115
g82
g83
ssg71
g4109
sg64
(lp4116
g3442
asbag57
(g78
g59
NtRp4117
(dp4118
g62
(dp4119
g89
g90
ssg71
g4109
sg64
(lp4120
S':'
asbag57
(g78
g59
NtRp4121
(dp4122
g62
(dp4123
sg71
g4109
sg64
(lp4124
g57
(g58
g59
NtRp4125
(dp4126
g62
(dp4127
g70
I4
ssg71
g4121
sg64
(lp4128
g57
(g66
g59
NtRp4129
(dp4130
g62
(dp4131
g70
I3
ssg71
Nsg64
(lp4132
g57
(g73
g59
NtRp4133
(dp4134
g62
(dp4135
sg71
g4129
sg64
(lp4136
g57
(g78
g59
NtRp4137
(dp4138
g62
(dp4139
sg71
g4133
sg64
(lp4140
g57
(g58
g59
NtRp4141
(dp4142
g62
(dp4143
g70
I3
ssg71
g4137
sg64
(lp4144
S'2'
asbasbasbag57
(g73
g59
NtRp4145
(dp4146
g62
(dp4147
sg71
g4129
sg64
(lp4148
g57
(g78
g59
NtRp4149
(dp4150
g62
(dp4151
sg71
g4145
sg64
(lp4152
g57
(g58
g59
NtRp4153
(dp4154
g62
(dp4155
g70
I3
ssg71
g4149
sg64
(lp4156
S'3'
asbasbasbag57
(g73
g59
NtRp4157
(dp4158
g62
(dp4159
sg71
g4129
sg64
(lp4160
g57
(g78
g59
NtRp4161
(dp4162
g62
(dp4163
sg71
g4157
sg64
(lp4164
g57
(g58
g59
NtRp4165
(dp4166
g62
(dp4167
g70
I3
ssg71
g4161
sg64
(lp4168
S'2'
asbasbasbag57
(g73
g59
NtRp4169
(dp4170
g62
(dp4171
sg71
g4129
sg64
(lp4172
g57
(g78
g59
NtRp4173
(dp4174
g62
(dp4175
sg71
g4169
sg64
(lp4176
g57
(g58
g59
NtRp4177
(dp4178
g62
(dp4179
g70
I3
ssg71
g4173
sg64
(lp4180
S'datetime.datetime(2012, 12, 17, 15, 3, 30)'
p4181
asbasbasbag57
(g73
g59
NtRp4182
(dp4183
g62
(dp4184
sg71
g4129
sg64
(lp4185
g57
(g78
g59
NtRp4186
(dp4187
g62
(dp4188
sg71
g4182
sg64
(lp4189
g57
(g58
g59
NtRp4190
(dp4191
g62
(dp4192
g70
I3
ssg71
g4186
sg64
(lp4193
g3520
asbasbasbasbasbasbasbasbasbasbasbag57
(g73
g59
NtRp4194
(dp4195
g62
(dp4196
sg71
g67
sg64
(lp4197
g57
(g78
g59
NtRp4198
(dp4199
g62
(dp4200
g82
g83
ssg71
g4194
sg64
(lp4201
S'is_https'
p4202
asbag57
(g78
g59
NtRp4203
(dp4204
g62
(dp4205
g89
g90
ssg71
g4194
sg64
(lp4206
S':'
asbag57
(g78
g59
NtRp4207
(dp4208
g62
(dp4209
sg71
g4194
sg64
(lp4210
g57
(g58
g59
NtRp4211
(dp4212
g62
(dp4213
g70
I5
ssg71
g4207
sg64
(lp4214
g100
asbasbasbag57
(g73
g59
NtRp4215
(dp4216
g62
(dp4217
sg71
g67
sg64
(lp4218
g57
(g78
g59
NtRp4219
(dp4220
g62
(dp4221
g82
g83
ssg71
g4215
sg64
(lp4222
S'is_local'
p4223
asbag57
(g78
g59
NtRp4224
(dp4225
g62
(dp4226
g89
g90
ssg71
g4215
sg64
(lp4227
S':'
asbag57
(g78
g59
NtRp4228
(dp4229
g62
(dp4230
sg71
g4215
sg64
(lp4231
g57
(g58
g59
NtRp4232
(dp4233
g62
(dp4234
g70
I5
ssg71
g4228
sg64
(lp4235
g3629
asbasbasbag57
(g73
g59
NtRp4236
(dp4237
g62
(dp4238
sg71
g67
sg64
(lp4239
g57
(g78
g59
NtRp4240
(dp4241
g62
(dp4242
g82
g83
ssg71
g4236
sg64
(lp4243
S'is_restful'
p4244
asbag57
(g78
g59
NtRp4245
(dp4246
g62
(dp4247
g89
g90
ssg71
g4236
sg64
(lp4248
S':'
asbag57
(g78
g59
NtRp4249
(dp4250
g62
(dp4251
sg71
g4236
sg64
(lp4252
g57
(g58
g59
NtRp4253
(dp4254
g62
(dp4255
g70
I5
ssg71
g4249
sg64
(lp4256
g100
asbasbasbag57
(g73
g59
NtRp4257
(dp4258
g62
(dp4259
sg71
g67
sg64
(lp4260
g57
(g78
g59
NtRp4261
(dp4262
g62
(dp4263
g82
g83
ssg71
g4257
sg64
(lp4264
S'now'
p4265
asbag57
(g78
g59
NtRp4266
(dp4267
g62
(dp4268
g89
g90
ssg71
g4257
sg64
(lp4269
S':'
asbag57
(g78
g59
NtRp4270
(dp4271
g62
(dp4272
sg71
g4257
sg64
(lp4273
g57
(g58
g59
NtRp4274
(dp4275
g62
(dp4276
g70
I5
ssg71
g4270
sg64
(lp4277
S'datetime.datetime(2013, 8, 29, 22, 49, 55, 503594)'
p4278
asbasbasbag57
(g73
g59
NtRp4279
(dp4280
g62
(dp4281
sg71
g67
sg64
(lp4282
g57
(g78
g59
NtRp4283
(dp4284
g62
(dp4285
g82
g83
ssg71
g4279
sg64
(lp4286
S'post_vars'
p4287
asbag57
(g78
g59
NtRp4288
(dp4289
g62
(dp4290
g89
g90
ssg71
g4279
sg64
(lp4291
S':'
asbag57
(g78
g59
NtRp4292
(dp4293
g62
(dp4294
sg71
g4279
sg64
(lp4295
g57
(g58
g59
NtRp4296
(dp4297
g62
(dp4298
g70
I5
ssg71
g4292
sg64
(lp4299
g57
(g66
g59
NtRp4300
(dp4301
g62
(dp4302
g70
I4
ssg71
Nsg64
(lp4303
sbasbasbasbag57
(g73
g59
NtRp4304
(dp4305
g62
(dp4306
sg71
g67
sg64
(lp4307
g57
(g78
g59
NtRp4308
(dp4309
g62
(dp4310
g82
g83
ssg71
g4304
sg64
(lp4311
S'raw_args'
p4312
asbag57
(g78
g59
NtRp4313
(dp4314
g62
(dp4315
g89
g90
ssg71
g4304
sg64
(lp4316
S':'
asbag57
(g78
g59
NtRp4317
(dp4318
g62
(dp4319
sg71
g4304
sg64
(lp4320
g57
(g58
g59
NtRp4321
(dp4322
g62
(dp4323
g70
I5
ssg71
g4317
sg64
(lp4324
S''
asbasbasbag57
(g73
g59
NtRp4325
(dp4326
g62
(dp4327
sg71
g67
sg64
(lp4328
g57
(g78
g59
NtRp4329
(dp4330
g62
(dp4331
g82
g83
ssg71
g4325
sg64
(lp4332
S'raw_extension'
p4333
asbag57
(g78
g59
NtRp4334
(dp4335
g62
(dp4336
g89
g90
ssg71
g4325
sg64
(lp4337
S':'
asbag57
(g78
g59
NtRp4338
(dp4339
g62
(dp4340
sg71
g4325
sg64
(lp4341
g57
(g58
g59
NtRp4342
(dp4343
g62
(dp4344
g70
I5
ssg71
g4338
sg64
(lp4345
S'None'
p4346
asbasbasbag57
(g73
g59
NtRp4347
(dp4348
g62
(dp4349
sg71
g67
sg64
(lp4350
g57
(g78
g59
NtRp4351
(dp4352
g62
(dp4353
g82
g83
ssg71
g4347
sg64
(lp4354
S'url'
p4355
asbag57
(g78
g59
NtRp4356
(dp4357
g62
(dp4358
g89
g90
ssg71
g4347
sg64
(lp4359
S':'
asbag57
(g78
g59
NtRp4360
(dp4361
g62
(dp4362
sg71
g4347
sg64
(lp4363
g57
(g58
g59
NtRp4364
(dp4365
g62
(dp4366
g70
I5
ssg71
g4360
sg64
(lp4367
g3196
asbasbasbag57
(g73
g59
NtRp4368
(dp4369
g62
(dp4370
sg71
g67
sg64
(lp4371
g57
(g78
g59
NtRp4372
(dp4373
g62
(dp4374
g82
g83
ssg71
g4368
sg64
(lp4375
S'utcnow'
p4376
asbag57
(g78
g59
NtRp4377
(dp4378
g62
(dp4379
g89
g90
ssg71
g4368
sg64
(lp4380
S':'
asbag57
(g78
g59
NtRp4381
(dp4382
g62
(dp4383
sg71
g4368
sg64
(lp4384
g57
(g58
g59
NtRp4385
(dp4386
g62
(dp4387
g70
I5
ssg71
g4381
sg64
(lp4388
S'datetime.datetime(2013, 8, 29, 17, 19, 55, 503624)'
p4389
asbasbasbag57
(g73
g59
NtRp4390
(dp4391
g62
(dp4392
sg71
g67
sg64
(lp4393
g57
(g78
g59
NtRp4394
(dp4395
g62
(dp4396
g82
g83
ssg71
g4390
sg64
(lp4397
S'uuid'
p4398
asbag57
(g78
g59
NtRp4399
(dp4400
g62
(dp4401
g89
g90
ssg71
g4390
sg64
(lp4402
S':'
asbag57
(g78
g59
NtRp4403
(dp4404
g62
(dp4405
sg71
g4390
sg64
(lp4406
g57
(g58
g59
NtRp4407
(dp4408
g62
(dp4409
g70
I5
ssg71
g4403
sg64
(lp4410
S'reddit/127.0.0.1.2013-08-29.22-49-55.8f8c4fb5-986d-4610-94fa-a2cf4545d304'
p4411
asbasbasbag57
(g73
g59
NtRp4412
(dp4413
g62
(dp4414
sg71
g67
sg64
(lp4415
g57
(g78
g59
NtRp4416
(dp4417
g62
(dp4418
g82
g83
ssg71
g4412
sg64
(lp4419
S'vars'
p4420
asbag57
(g78
g59
NtRp4421
(dp4422
g62
(dp4423
g89
g90
ssg71
g4412
sg64
(lp4424
S':'
asbag57
(g78
g59
NtRp4425
(dp4426
g62
(dp4427
sg71
g4412
sg64
(lp4428
g57
(g58
g59
NtRp4429
(dp4430
g62
(dp4431
g70
I5
ssg71
g4425
sg64
(lp4432
g57
(g66
g59
NtRp4433
(dp4434
g62
(dp4435
g70
I4
ssg71
Nsg64
(lp4436
sbasbasbasbag57
(g73
g59
NtRp4437
(dp4438
g62
(dp4439
sg71
g67
sg64
(lp4440
g57
(g78
g59
NtRp4441
(dp4442
g62
(dp4443
g82
g83
ssg71
g4437
sg64
(lp4444
S'wsgi'
p4445
asbag57
(g78
g59
NtRp4446
(dp4447
g62
(dp4448
g89
g90
ssg71
g4437
sg64
(lp4449
S':'
asbag57
(g78
g59
NtRp4450
(dp4451
g62
(dp4452
sg71
g4437
sg64
(lp4453
g57
(g58
g59
NtRp4454
(dp4455
g62
(dp4456
g70
I5
ssg71
g4450
sg64
(lp4457
g57
(g66
g59
NtRp4458
(dp4459
g62
(dp4460
g70
I4
ssg71
Nsg64
(lp4461
g57
(g73
g59
NtRp4462
(dp4463
g62
(dp4464
sg71
g4458
sg64
(lp4465
g57
(g78
g59
NtRp4466
(dp4467
g62
(dp4468
g82
g83
ssg71
g4462
sg64
(lp4469
S'environ'
p4470
asbag57
(g78
g59
NtRp4471
(dp4472
g62
(dp4473
g89
g90
ssg71
g4462
sg64
(lp4474
S':'
asbag57
(g78
g59
NtRp4475
(dp4476
g62
(dp4477
sg71
g4462
sg64
(lp4478
g57
(g58
g59
NtRp4479
(dp4480
g62
(dp4481
g70
I4
ssg71
g4475
sg64
(lp4482
g57
(g66
g59
NtRp4483
(dp4484
g62
(dp4485
g70
I3
ssg71
Nsg64
(lp4486
g57
(g73
g59
NtRp4487
(dp4488
g62
(dp4489
sg71
g4483
sg64
(lp4490
g57
(g78
g59
NtRp4491
(dp4492
g62
(dp4493
g82
g83
ssg71
g4487
sg64
(lp4494
S'HTTP_ACCEPT'
p4495
asbag57
(g78
g59
NtRp4496
(dp4497
g62
(dp4498
g89
g90
ssg71
g4487
sg64
(lp4499
S':'
asbag57
(g78
g59
NtRp4500
(dp4501
g62
(dp4502
sg71
g4487
sg64
(lp4503
g57
(g58
g59
NtRp4504
(dp4505
g62
(dp4506
g70
I3
ssg71
g4500
sg64
(lp4507
g2888
asbasbasbag57
(g73
g59
NtRp4508
(dp4509
g62
(dp4510
sg71
g4483
sg64
(lp4511
g57
(g78
g59
NtRp4512
(dp4513
g62
(dp4514
g82
g83
ssg71
g4508
sg64
(lp4515
S'HTTP_ACCEPT_ENCODING'
p4516
asbag57
(g78
g59
NtRp4517
(dp4518
g62
(dp4519
g89
g90
ssg71
g4508
sg64
(lp4520
S':'
asbag57
(g78
g59
NtRp4521
(dp4522
g62
(dp4523
sg71
g4508
sg64
(lp4524
g57
(g58
g59
NtRp4525
(dp4526
g62
(dp4527
g70
I3
ssg71
g4521
sg64
(lp4528
g2910
asbasbasbag57
(g73
g59
NtRp4529
(dp4530
g62
(dp4531
sg71
g4483
sg64
(lp4532
g57
(g78
g59
NtRp4533
(dp4534
g62
(dp4535
g82
g83
ssg71
g4529
sg64
(lp4536
S'HTTP_ACCEPT_LANGUAGE'
p4537
asbag57
(g78
g59
NtRp4538
(dp4539
g62
(dp4540
g89
g90
ssg71
g4529
sg64
(lp4541
S':'
asbag57
(g78
g59
NtRp4542
(dp4543
g62
(dp4544
sg71
g4529
sg64
(lp4545
g57
(g58
g59
NtRp4546
(dp4547
g62
(dp4548
g70
I3
ssg71
g4542
sg64
(lp4549
g2932
asbasbasbag57
(g73
g59
NtRp4550
(dp4551
g62
(dp4552
sg71
g4483
sg64
(lp4553
g57
(g78
g59
NtRp4554
(dp4555
g62
(dp4556
g82
g83
ssg71
g4550
sg64
(lp4557
S'HTTP_CACHE_CONTROL'
p4558
asbag57
(g78
g59
NtRp4559
(dp4560
g62
(dp4561
g89
g90
ssg71
g4550
sg64
(lp4562
S':'
asbag57
(g78
g59
NtRp4563
(dp4564
g62
(dp4565
sg71
g4550
sg64
(lp4566
g57
(g58
g59
NtRp4567
(dp4568
g62
(dp4569
g70
I3
ssg71
g4563
sg64
(lp4570
g2954
asbasbasbag57
(g73
g59
NtRp4571
(dp4572
g62
(dp4573
sg71
g4483
sg64
(lp4574
g57
(g78
g59
NtRp4575
(dp4576
g62
(dp4577
g82
g83
ssg71
g4571
sg64
(lp4578
S'HTTP_CONNECTION'
p4579
asbag57
(g78
g59
NtRp4580
(dp4581
g62
(dp4582
g89
g90
ssg71
g4571
sg64
(lp4583
S':'
asbag57
(g78
g59
NtRp4584
(dp4585
g62
(dp4586
sg71
g4571
sg64
(lp4587
g57
(g58
g59
NtRp4588
(dp4589
g62
(dp4590
g70
I3
ssg71
g4584
sg64
(lp4591
g2976
asbasbasbag57
(g73
g59
NtRp4592
(dp4593
g62
(dp4594
sg71
g4483
sg64
(lp4595
g57
(g78
g59
NtRp4596
(dp4597
g62
(dp4598
g82
g83
ssg71
g4592
sg64
(lp4599
S'HTTP_COOKIE'
p4600
asbag57
(g78
g59
NtRp4601
(dp4602
g62
(dp4603
g89
g90
ssg71
g4592
sg64
(lp4604
S':'
asbag57
(g78
g59
NtRp4605
(dp4606
g62
(dp4607
sg71
g4592
sg64
(lp4608
g57
(g58
g59
NtRp4609
(dp4610
g62
(dp4611
g70
I3
ssg71
g4605
sg64
(lp4612
g2998
asbasbasbag57
(g73
g59
NtRp4613
(dp4614
g62
(dp4615
sg71
g4483
sg64
(lp4616
g57
(g78
g59
NtRp4617
(dp4618
g62
(dp4619
g82
g83
ssg71
g4613
sg64
(lp4620
S'HTTP_HOST'
p4621
asbag57
(g78
g59
NtRp4622
(dp4623
g62
(dp4624
g89
g90
ssg71
g4613
sg64
(lp4625
S':'
asbag57
(g78
g59
NtRp4626
(dp4627
g62
(dp4628
sg71
g4613
sg64
(lp4629
g57
(g58
g59
NtRp4630
(dp4631
g62
(dp4632
g70
I3
ssg71
g4626
sg64
(lp4633
g3020
asbasbasbag57
(g73
g59
NtRp4634
(dp4635
g62
(dp4636
sg71
g4483
sg64
(lp4637
g57
(g78
g59
NtRp4638
(dp4639
g62
(dp4640
g82
g83
ssg71
g4634
sg64
(lp4641
S'HTTP_USER_AGENT'
p4642
asbag57
(g78
g59
NtRp4643
(dp4644
g62
(dp4645
g89
g90
ssg71
g4634
sg64
(lp4646
S':'
asbag57
(g78
g59
NtRp4647
(dp4648
g62
(dp4649
sg71
g4634
sg64
(lp4650
g57
(g58
g59
NtRp4651
(dp4652
g62
(dp4653
g70
I3
ssg71
g4647
sg64
(lp4654
g3042
asbasbasbag57
(g73
g59
NtRp4655
(dp4656
g62
(dp4657
sg71
g4483
sg64
(lp4658
g57
(g78
g59
NtRp4659
(dp4660
g62
(dp4661
g82
g83
ssg71
g4655
sg64
(lp4662
S'PATH_INFO'
p4663
asbag57
(g78
g59
NtRp4664
(dp4665
g62
(dp4666
g89
g90
ssg71
g4655
sg64
(lp4667
S':'
asbag57
(g78
g59
NtRp4668
(dp4669
g62
(dp4670
sg71
g4655
sg64
(lp4671
g57
(g58
g59
NtRp4672
(dp4673
g62
(dp4674
g70
I3
ssg71
g4668
sg64
(lp4675
g3196
asbasbasbag57
(g73
g59
NtRp4676
(dp4677
g62
(dp4678
sg71
g4483
sg64
(lp4679
g57
(g78
g59
NtRp4680
(dp4681
g62
(dp4682
g82
g83
ssg71
g4676
sg64
(lp4683
S'QUERY_STRING'
p4684
asbag57
(g78
g59
NtRp4685
(dp4686
g62
(dp4687
g89
g90
ssg71
g4676
sg64
(lp4688
S':'
asbag57
(g78
g59
NtRp4689
(dp4690
g62
(dp4691
sg71
g4676
sg64
(lp4692
g57
(g58
g59
NtRp4693
(dp4694
g62
(dp4695
g70
I3
ssg71
g4689
sg64
(lp4696
S''
asbasbasbag57
(g73
g59
NtRp4697
(dp4698
g62
(dp4699
sg71
g4483
sg64
(lp4700
g57
(g78
g59
NtRp4701
(dp4702
g62
(dp4703
g82
g83
ssg71
g4697
sg64
(lp4704
S'REMOTE_ADDR'
p4705
asbag57
(g78
g59
NtRp4706
(dp4707
g62
(dp4708
g89
g90
ssg71
g4697
sg64
(lp4709
S':'
asbag57
(g78
g59
NtRp4710
(dp4711
g62
(dp4712
sg71
g4697
sg64
(lp4713
g57
(g58
g59
NtRp4714
(dp4715
g62
(dp4716
g70
I3
ssg71
g4710
sg64
(lp4717
g212
asbasbasbag57
(g73
g59
NtRp4718
(dp4719
g62
(dp4720
sg71
g4483
sg64
(lp4721
g57
(g78
g59
NtRp4722
(dp4723
g62
(dp4724
g82
g83
ssg71
g4718
sg64
(lp4725
S'REMOTE_PORT'
p4726
asbag57
(g78
g59
NtRp4727
(dp4728
g62
(dp4729
g89
g90
ssg71
g4718
sg64
(lp4730
S':'
asbag57
(g78
g59
NtRp4731
(dp4732
g62
(dp4733
sg71
g4718
sg64
(lp4734
g57
(g58
g59
NtRp4735
(dp4736
g62
(dp4737
g70
I3
ssg71
g4731
sg64
(lp4738
g3260
asbasbasbag57
(g73
g59
NtRp4739
(dp4740
g62
(dp4741
sg71
g4483
sg64
(lp4742
g57
(g78
g59
NtRp4743
(dp4744
g62
(dp4745
g82
g83
ssg71
g4739
sg64
(lp4746
S'REQUEST_METHOD'
p4747
asbag57
(g78
g59
NtRp4748
(dp4749
g62
(dp4750
g89
g90
ssg71
g4739
sg64
(lp4751
S':'
asbag57
(g78
g59
NtRp4752
(dp4753
g62
(dp4754
sg71
g4739
sg64
(lp4755
g57
(g58
g59
NtRp4756
(dp4757
g62
(dp4758
g70
I3
ssg71
g4752
sg64
(lp4759
g3282
asbasbasbag57
(g73
g59
NtRp4760
(dp4761
g62
(dp4762
sg71
g4483
sg64
(lp4763
g57
(g78
g59
NtRp4764
(dp4765
g62
(dp4766
g82
g83
ssg71
g4760
sg64
(lp4767
S'REQUEST_URI'
p4768
asbag57
(g78
g59
NtRp4769
(dp4770
g62
(dp4771
g89
g90
ssg71
g4760
sg64
(lp4772
S':'
asbag57
(g78
g59
NtRp4773
(dp4774
g62
(dp4775
sg71
g4760
sg64
(lp4776
g57
(g58
g59
NtRp4777
(dp4778
g62
(dp4779
g70
I3
ssg71
g4773
sg64
(lp4780
g3196
asbasbasbag57
(g73
g59
NtRp4781
(dp4782
g62
(dp4783
sg71
g4483
sg64
(lp4784
g57
(g78
g59
NtRp4785
(dp4786
g62
(dp4787
g82
g83
ssg71
g4781
sg64
(lp4788
S'SCRIPT_NAME'
p4789
asbag57
(g78
g59
NtRp4790
(dp4791
g62
(dp4792
g89
g90
ssg71
g4781
sg64
(lp4793
S':'
asbag57
(g78
g59
NtRp4794
(dp4795
g62
(dp4796
sg71
g4781
sg64
(lp4797
g57
(g58
g59
NtRp4798
(dp4799
g62
(dp4800
g70
I3
ssg71
g4794
sg64
(lp4801
S''
asbasbasbag57
(g73
g59
NtRp4802
(dp4803
g62
(dp4804
sg71
g4483
sg64
(lp4805
g57
(g78
g59
NtRp4806
(dp4807
g62
(dp4808
g82
g83
ssg71
g4802
sg64
(lp4809
S'SERVER_NAME'
p4810
asbag57
(g78
g59
NtRp4811
(dp4812
g62
(dp4813
g89
g90
ssg71
g4802
sg64
(lp4814
S':'
asbag57
(g78
g59
NtRp4815
(dp4816
g62
(dp4817
sg71
g4802
sg64
(lp4818
g57
(g58
g59
NtRp4819
(dp4820
g62
(dp4821
g70
I3
ssg71
g4815
sg64
(lp4822
g3346
asbasbasbag57
(g73
g59
NtRp4823
(dp4824
g62
(dp4825
sg71
g4483
sg64
(lp4826
g57
(g78
g59
NtRp4827
(dp4828
g62
(dp4829
g82
g83
ssg71
g4823
sg64
(lp4830
S'SERVER_PORT'
p4831
asbag57
(g78
g59
NtRp4832
(dp4833
g62
(dp4834
g89
g90
ssg71
g4823
sg64
(lp4835
S':'
asbag57
(g78
g59
NtRp4836
(dp4837
g62
(dp4838
sg71
g4823
sg64
(lp4839
g57
(g58
g59
NtRp4840
(dp4841
g62
(dp4842
g70
I3
ssg71
g4836
sg64
(lp4843
g3368
asbasbasbag57
(g73
g59
NtRp4844
(dp4845
g62
(dp4846
sg71
g4483
sg64
(lp4847
g57
(g78
g59
NtRp4848
(dp4849
g62
(dp4850
g82
g83
ssg71
g4844
sg64
(lp4851
S'SERVER_PROTOCOL'
p4852
asbag57
(g78
g59
NtRp4853
(dp4854
g62
(dp4855
g89
g90
ssg71
g4844
sg64
(lp4856
S':'
asbag57
(g78
g59
NtRp4857
(dp4858
g62
(dp4859
sg71
g4844
sg64
(lp4860
g57
(g58
g59
NtRp4861
(dp4862
g62
(dp4863
g70
I3
ssg71
g4857
sg64
(lp4864
g3390
asbasbasbag57
(g73
g59
NtRp4865
(dp4866
g62
(dp4867
sg71
g4483
sg64
(lp4868
g57
(g78
g59
NtRp4869
(dp4870
g62
(dp4871
g82
g83
ssg71
g4865
sg64
(lp4872
S'SERVER_SOFTWARE'
p4873
asbag57
(g78
g59
NtRp4874
(dp4875
g62
(dp4876
g89
g90
ssg71
g4865
sg64
(lp4877
S':'
asbag57
(g78
g59
NtRp4878
(dp4879
g62
(dp4880
sg71
g4865
sg64
(lp4881
g57
(g58
g59
NtRp4882
(dp4883
g62
(dp4884
g70
I3
ssg71
g4878
sg64
(lp4885
g3412
asbasbasbag57
(g73
g59
NtRp4886
(dp4887
g62
(dp4888
sg71
g4483
sg64
(lp4889
g57
(g78
g59
NtRp4890
(dp4891
g62
(dp4892
g82
g83
ssg71
g4886
sg64
(lp4893
S'wsgi.errors'
p4894
asbag57
(g78
g59
NtRp4895
(dp4896
g62
(dp4897
g89
g90
ssg71
g4886
sg64
(lp4898
S':'
asbag57
(g78
g59
NtRp4899
(dp4900
g62
(dp4901
sg71
g4886
sg64
(lp4902
g57
(g58
g59
NtRp4903
(dp4904
g62
(dp4905
g70
I3
ssg71
g4899
sg64
(lp4906
S"<open file '<stderr>', mode 'w' at 0xb73000d0>"
p4907
asbasbasbag57
(g73
g59
NtRp4908
(dp4909
g62
(dp4910
sg71
g4483
sg64
(lp4911
g57
(g78
g59
NtRp4912
(dp4913
g62
(dp4914
g82
g83
ssg71
g4908
sg64
(lp4915
S'wsgi.file_wrapper'
p4916
asbag57
(g78
g59
NtRp4917
(dp4918
g62
(dp4919
g89
g90
ssg71
g4908
sg64
(lp4920
S':'
asbag57
(g78
g59
NtRp4921
(dp4922
g62
(dp4923
sg71
g4908
sg64
(lp4924
g57
(g58
g59
NtRp4925
(dp4926
g62
(dp4927
g70
I3
ssg71
g4921
sg64
(lp4928
S'<class wsgiref.util.FileWrapper at 0x980905c>'
p4929
asbasbasbag57
(g73
g59
NtRp4930
(dp4931
g62
(dp4932
sg71
g4483
sg64
(lp4933
g57
(g78
g59
NtRp4934
(dp4935
g62
(dp4936
g82
g83
ssg71
g4930
sg64
(lp4937
S'wsgi.input'
p4938
asbag57
(g78
g59
NtRp4939
(dp4940
g62
(dp4941
g89
g90
ssg71
g4930
sg64
(lp4942
S':'
asbag57
(g78
g59
NtRp4943
(dp4944
g62
(dp4945
sg71
g4930
sg64
(lp4946
g57
(g58
g59
NtRp4947
(dp4948
g62
(dp4949
g70
I3
ssg71
g4943
sg64
(lp4950
S'<cStringIO.StringO object at 0xae206c60>'
p4951
asbasbasbag57
(g73
g59
NtRp4952
(dp4953
g62
(dp4954
sg71
g4483
sg64
(lp4955
g57
(g78
g59
NtRp4956
(dp4957
g62
(dp4958
g82
g83
ssg71
g4952
sg64
(lp4959
S'wsgi.multiprocess'
p4960
asbag57
(g78
g59
NtRp4961
(dp4962
g62
(dp4963
g89
g90
ssg71
g4952
sg64
(lp4964
S':'
asbag57
(g78
g59
NtRp4965
(dp4966
g62
(dp4967
sg71
g4952
sg64
(lp4968
g57
(g58
g59
NtRp4969
(dp4970
g62
(dp4971
g70
I3
ssg71
g4965
sg64
(lp4972
g100
asbasbasbag57
(g73
g59
NtRp4973
(dp4974
g62
(dp4975
sg71
g4483
sg64
(lp4976
g57
(g78
g59
NtRp4977
(dp4978
g62
(dp4979
g82
g83
ssg71
g4973
sg64
(lp4980
S'wsgi.multithread'
p4981
asbag57
(g78
g59
NtRp4982
(dp4983
g62
(dp4984
g89
g90
ssg71
g4973
sg64
(lp4985
S':'
asbag57
(g78
g59
NtRp4986
(dp4987
g62
(dp4988
sg71
g4973
sg64
(lp4989
g57
(g58
g59
NtRp4990
(dp4991
g62
(dp4992
g70
I3
ssg71
g4986
sg64
(lp4993
g3629
asbasbasbag57
(g73
g59
NtRp4994
(dp4995
g62
(dp4996
sg71
g4483
sg64
(lp4997
g57
(g78
g59
NtRp4998
(dp4999
g62
(dp5000
g82
g83
ssg71
g4994
sg64
(lp5001
S'wsgi.run_once'
p5002
asbag57
(g78
g59
NtRp5003
(dp5004
g62
(dp5005
g89
g90
ssg71
g4994
sg64
(lp5006
S':'
asbag57
(g78
g59
NtRp5007
(dp5008
g62
(dp5009
sg71
g4994
sg64
(lp5010
g57
(g58
g59
NtRp5011
(dp5012
g62
(dp5013
g70
I3
ssg71
g5007
sg64
(lp5014
g100
asbasbasbag57
(g73
g59
NtRp5015
(dp5016
g62
(dp5017
sg71
g4483
sg64
(lp5018
g57
(g78
g59
NtRp5019
(dp5020
g62
(dp5021
g82
g83
ssg71
g5015
sg64
(lp5022
S'wsgi.url_scheme'
p5023
asbag57
(g78
g59
NtRp5024
(dp5025
g62
(dp5026
g89
g90
ssg71
g5015
sg64
(lp5027
S':'
asbag57
(g78
g59
NtRp5028
(dp5029
g62
(dp5030
sg71
g5015
sg64
(lp5031
g57
(g58
g59
NtRp5032
(dp5033
g62
(dp5034
g70
I3
ssg71
g5028
sg64
(lp5035
g3672
asbasbasbag57
(g73
g59
NtRp5036
(dp5037
g62
(dp5038
sg71
g4483
sg64
(lp5039
g57
(g78
g59
NtRp5040
(dp5041
g62
(dp5042
g82
g83
ssg71
g5036
sg64
(lp5043
S'wsgi.version'
p5044
asbag57
(g78
g59
NtRp5045
(dp5046
g62
(dp5047
g89
g90
ssg71
g5036
sg64
(lp5048
S':'
asbag57
(g78
g59
NtRp5049
(dp5050
g62
(dp5051
sg71
g5036
sg64
(lp5052
g57
(g58
g59
NtRp5053
(dp5054
g62
(dp5055
g70
I3
ssg71
g5049
sg64
(lp5056
S'1'
asbasbasbasbasbasbasbasbasbasbasbasbasbsS'frames'
p5057
(lp5058
(dp5059
S'file'
p5060
S'/home/pankaj/web2py/gluon/restricted.py'
p5061
sS'dump'
p5062
(dp5063
S'environment'
p5064
S"{'A': <class 'gluon.html.A'>, 'Auth': <class 'gluon.tools.Auth'>, 'B': <class 'gluon.html.B'>, 'BEAUTIFY': <class 'gluon.html.BEAUTIFY'>, 'BODY': <class 'gluon.html.BODY'>, 'BR': <class 'gluon.html.BR'>, 'BUTTON': <class 'gluon.html.BUTTON'>, 'CAT': <class 'gluon.html.CAT'>, 'CENTER': <class 'gluon.html.CENTER'>, 'CLEANUP': <class 'gluon.validators.CLEANUP'>, ...}"
p5065
sS'ccode'
p5066
S'<code object <module> at 0xae49d608, file "/home...cations/reddit/views/default/index.html", line 1>'
p5067
ssS'lnum'
p5068
I212
sS'lines'
p5069
(dp5070
I207
S'    try:'
p5071
sI208
S'        if isinstance(code, types.CodeType):'
p5072
sI209
S'            ccode = code'
p5073
sI210
S'        else:'
p5074
sI211
S'            ccode = compile2(code, layer)'
p5075
sI212
S'        exec ccode in environment'
p5076
sI213
S'    except HTTP:'
p5077
sI214
S'        raise'
p5078
sI215
S'    except RestrictedError:'
p5079
sI216
S'        # do not encapsulate (obfuscate) the original RestrictedError'
p5080
ssS'call'
p5081
S'(code=\'response.write(\\\'<!DOCTYPE html>\\\\n<!-- paulirish...."></script>\\\\n</body>\\\\n</html>\\\\n\\\\n\\\', escape=False)\', environment={\'A\': <class \'gluon.html.A\'>, \'Auth\': <class \'gluon.tools.Auth\'>, \'B\': <class \'gluon.html.B\'>, \'BEAUTIFY\': <class \'gluon.html.BEAUTIFY\'>, \'BODY\': <class \'gluon.html.BODY\'>, \'BR\': <class \'gluon.html.BR\'>, \'BUTTON\': <class \'gluon.html.BUTTON\'>, \'CAT\': <class \'gluon.html.CAT\'>, \'CENTER\': <class \'gluon.html.CENTER\'>, \'CLEANUP\': <class \'gluon.validators.CLEANUP\'>, ...}, layer=\'/home/pankaj/web2py/applications/reddit/views/default/index.html\')'
p5082
sS'func'
p5083
S'restricted'
p5084
sa(dp5085
g5060
S'/home/pankaj/web2py/applications/reddit/views/default/index.html'
p5086
sg5062
(dp5087
sg5068
I97
sg5069
(dp5088
I96
S'    response.write(\'"/>\\n\\t<input type="text" name="usrn" id="usrn" value=\', escape=False)'
p5089
sI97
S'    response.write(auth.user.id)'
p5090
sI98
S"    response.write(' />\\n</form>\\n\\n<br/>\\n', escape=False)"
p5091
sI99
S'    pass'
p5092
sI100
S"response.write('\\n', escape=False)"
p5093
sI101
S"response.write('\\n            ', escape=False)"
p5094
sI102
S"response.write('\\n        </div>\\n\\n        ', escape=False)"
p5095
sI103
S'if right_sidebar_enabled:'
p5096
sI104
S'    response.write(\'\\n        <div class="span3">\\n            \', escape=False)'
p5097
sI105
S"    response.write('\\n            <h3>Right Sidebar</h3>\\n            <p></p>\\n            ', escape=False)"
p5098
sI106
S"    response.write('\\n        </div>\\n        ', escape=False)"
p5099
sI107
S'    pass'
p5100
sI88
S"            response.write('\\n', escape=False)"
p5101
sI89
S"            response.write(m['val'])"
p5102
sI90
S"            response.write('\\n<br/>\\n', escape=False)"
p5103
sI91
S'            pass'
p5104
sI92
S"        response.write('\\n', escape=False)"
p5105
sI93
S'        pass'
p5106
sI94
S'    response.write(\'\\nCommment:\\n<form action="addc" method="post">\\n\\t<input type="text" name="cval" id="cval" placeholder="comment here" />\\n\\n\\t<input type="text" name="nid" id="cval" value="\', escape=False)'
p5107
sI95
S"    response.write(l['id'])"
p5108
ssg5081
S'()'
p5109
sg5083
S'<module>'
p5110
sasS'pyver'
p5111
S'Python 2.7.3: /usr/bin/python'
p5112
sS'session'
p5113
g57
(g58
g59
NtRp5114
(dp5115
g62
(dp5116
sg64
(lp5117
g57
(g66
g59
NtRp5118
(dp5119
g62
(dp5120
g70
I5
ssg71
Nsg64
(lp5121
g57
(g73
g59
NtRp5122
(dp5123
g62
(dp5124
sg71
g5118
sg64
(lp5125
g57
(g78
g59
NtRp5126
(dp5127
g62
(dp5128
g82
g83
ssg71
g5122
sg64
(lp5129
S'last_orderby'
p5130
asbag57
(g78
g59
NtRp5131
(dp5132
g62
(dp5133
g89
g90
ssg71
g5122
sg64
(lp5134
S':'
asbag57
(g78
g59
NtRp5135
(dp5136
g62
(dp5137
sg71
g5122
sg64
(lp5138
g57
(g58
g59
NtRp5139
(dp5140
g62
(dp5141
g70
I5
ssg71
g5135
sg64
(lp5142
S'None'
p5143
asbasbasbag57
(g73
g59
NtRp5144
(dp5145
g62
(dp5146
sg71
g5118
sg64
(lp5147
g57
(g78
g59
NtRp5148
(dp5149
g62
(dp5150
g82
g83
ssg71
g5144
sg64
(lp5151
S'last_query'
p5152
asbag57
(g78
g59
NtRp5153
(dp5154
g62
(dp5155
g89
g90
ssg71
g5144
sg64
(lp5156
S':'
asbag57
(g78
g59
NtRp5157
(dp5158
g62
(dp5159
sg71
g5144
sg64
(lp5160
g57
(g58
g59
NtRp5161
(dp5162
g62
(dp5163
g70
I5
ssg71
g5157
sg64
(lp5164
S'db.comments.id>0'
p5165
asbasbasbasbasbsS'etype'
p5166
S"<type 'exceptions.AttributeError'>"
p5167
sS'date'
p5168
S'Thu Aug 29 22:49:55 2013'
p5169
sS'response'
p5170
g57
(g58
g59
NtRp5171
(dp5172
g62
(dp5173
sg64
(lp5174
g57
(g66
g59
NtRp5175
(dp5176
g62
(dp5177
g70
I5
ssg71
Nsg64
(lp5178
g57
(g73
g59
NtRp5179
(dp5180
g62
(dp5181
sg71
g5175
sg64
(lp5182
g57
(g78
g59
NtRp5183
(dp5184
g62
(dp5185
g82
g83
ssg71
g5179
sg64
(lp5186
g155
asbag57
(g78
g59
NtRp5187
(dp5188
g62
(dp5189
g89
g90
ssg71
g5179
sg64
(lp5190
S':'
asbag57
(g78
g59
NtRp5191
(dp5192
g62
(dp5193
sg71
g5179
sg64
(lp5194
g57
(g58
g59
NtRp5195
(dp5196
g62
(dp5197
g70
I5
ssg71
g5191
sg64
(lp5198
S'<cStringIO.StringO object at 0x9e42860>'
p5199
asbasbasbag57
(g73
g59
NtRp5200
(dp5201
g62
(dp5202
sg71
g5175
sg64
(lp5203
g57
(g78
g59
NtRp5204
(dp5205
g62
(dp5206
g82
g83
ssg71
g5200
sg64
(lp5207
g243
asbag57
(g78
g59
NtRp5208
(dp5209
g62
(dp5210
g89
g90
ssg71
g5200
sg64
(lp5211
S':'
asbag57
(g78
g59
NtRp5212
(dp5213
g62
(dp5214
sg71
g5200
sg64
(lp5215
g57
(g58
g59
NtRp5216
(dp5217
g62
(dp5218
g70
I5
ssg71
g5212
sg64
(lp5219
g57
(g66
g59
NtRp5220
(dp5221
g62
(dp5222
g70
I4
ssg71
Nsg64
(lp5223
g57
(g73
g59
NtRp5224
(dp5225
g62
(dp5226
sg71
g5220
sg64
(lp5227
g57
(g78
g59
NtRp5228
(dp5229
g62
(dp5230
g82
g83
ssg71
g5224
sg64
(lp5231
S'session_id_reddit'
p5232
asbag57
(g78
g59
NtRp5233
(dp5234
g62
(dp5235
g89
g90
ssg71
g5224
sg64
(lp5236
S':'
asbag57
(g78
g59
NtRp5237
(dp5238
g62
(dp5239
sg71
g5224
sg64
(lp5240
g57
(g58
g59
NtRp5241
(dp5242
g62
(dp5243
g70
I4
ssg71
g5237
sg64
(lp5244
g1777
ag57
(g66
g59
NtRp5245
(dp5246
g62
(dp5247
g70
I3
ssg71
Nsg64
(lp5248
g57
(g73
g59
NtRp5249
(dp5250
g62
(dp5251
sg71
g5245
sg64
(lp5252
g57
(g78
g59
NtRp5253
(dp5254
g62
(dp5255
g82
g83
ssg71
g5249
sg64
(lp5256
g294
asbag57
(g78
g59
NtRp5257
(dp5258
g62
(dp5259
g89
g90
ssg71
g5249
sg64
(lp5260
S':'
asbag57
(g78
g59
NtRp5261
(dp5262
g62
(dp5263
sg71
g5249
sg64
(lp5264
g57
(g58
g59
NtRp5265
(dp5266
g62
(dp5267
g70
I3
ssg71
g5261
sg64
(lp5268
S''
asbasbasbag57
(g73
g59
NtRp5269
(dp5270
g62
(dp5271
sg71
g5245
sg64
(lp5272
g57
(g78
g59
NtRp5273
(dp5274
g62
(dp5275
g82
g83
ssg71
g5269
sg64
(lp5276
g315
asbag57
(g78
g59
NtRp5277
(dp5278
g62
(dp5279
g89
g90
ssg71
g5269
sg64
(lp5280
S':'
asbag57
(g78
g59
NtRp5281
(dp5282
g62
(dp5283
sg71
g5269
sg64
(lp5284
g57
(g58
g59
NtRp5285
(dp5286
g62
(dp5287
g70
I3
ssg71
g5281
sg64
(lp5288
S''
asbasbasbag57
(g73
g59
NtRp5289
(dp5290
g62
(dp5291
sg71
g5245
sg64
(lp5292
g57
(g78
g59
NtRp5293
(dp5294
g62
(dp5295
g82
g83
ssg71
g5289
sg64
(lp5296
g336
asbag57
(g78
g59
NtRp5297
(dp5298
g62
(dp5299
g89
g90
ssg71
g5289
sg64
(lp5300
S':'
asbag57
(g78
g59
NtRp5301
(dp5302
g62
(dp5303
sg71
g5289
sg64
(lp5304
g57
(g58
g59
NtRp5305
(dp5306
g62
(dp5307
g70
I3
ssg71
g5301
sg64
(lp5308
S''
asbasbasbag57
(g73
g59
NtRp5309
(dp5310
g62
(dp5311
sg71
g5245
sg64
(lp5312
g57
(g78
g59
NtRp5313
(dp5314
g62
(dp5315
g82
g83
ssg71
g5309
sg64
(lp5316
g357
asbag57
(g78
g59
NtRp5317
(dp5318
g62
(dp5319
g89
g90
ssg71
g5309
sg64
(lp5320
S':'
asbag57
(g78
g59
NtRp5321
(dp5322
g62
(dp5323
sg71
g5309
sg64
(lp5324
g57
(g58
g59
NtRp5325
(dp5326
g62
(dp5327
g70
I3
ssg71
g5321
sg64
(lp5328
S''
asbasbasbag57
(g73
g59
NtRp5329
(dp5330
g62
(dp5331
sg71
g5245
sg64
(lp5332
g57
(g78
g59
NtRp5333
(dp5334
g62
(dp5335
g82
g83
ssg71
g5329
sg64
(lp5336
g378
asbag57
(g78
g59
NtRp5337
(dp5338
g62
(dp5339
g89
g90
ssg71
g5329
sg64
(lp5340
S':'
asbag57
(g78
g59
NtRp5341
(dp5342
g62
(dp5343
sg71
g5329
sg64
(lp5344
g57
(g58
g59
NtRp5345
(dp5346
g62
(dp5347
g70
I3
ssg71
g5341
sg64
(lp5348
S''
asbasbasbag57
(g73
g59
NtRp5349
(dp5350
g62
(dp5351
sg71
g5245
sg64
(lp5352
g57
(g78
g59
NtRp5353
(dp5354
g62
(dp5355
g82
g83
ssg71
g5349
sg64
(lp5356
g399
asbag57
(g78
g59
NtRp5357
(dp5358
g62
(dp5359
g89
g90
ssg71
g5349
sg64
(lp5360
S':'
asbag57
(g78
g59
NtRp5361
(dp5362
g62
(dp5363
sg71
g5349
sg64
(lp5364
g57
(g58
g59
NtRp5365
(dp5366
g62
(dp5367
g70
I3
ssg71
g5361
sg64
(lp5368
S'/'
asbasbasbag57
(g73
g59
NtRp5369
(dp5370
g62
(dp5371
sg71
g5245
sg64
(lp5372
g57
(g78
g59
NtRp5373
(dp5374
g62
(dp5375
g82
g83
ssg71
g5369
sg64
(lp5376
g420
asbag57
(g78
g59
NtRp5377
(dp5378
g62
(dp5379
g89
g90
ssg71
g5369
sg64
(lp5380
S':'
asbag57
(g78
g59
NtRp5381
(dp5382
g62
(dp5383
sg71
g5369
sg64
(lp5384
g57
(g58
g59
NtRp5385
(dp5386
g62
(dp5387
g70
I3
ssg71
g5381
sg64
(lp5388
S''
asbasbasbag57
(g73
g59
NtRp5389
(dp5390
g62
(dp5391
sg71
g5245
sg64
(lp5392
g57
(g78
g59
NtRp5393
(dp5394
g62
(dp5395
g82
g83
ssg71
g5389
sg64
(lp5396
g441
asbag57
(g78
g59
NtRp5397
(dp5398
g62
(dp5399
g89
g90
ssg71
g5389
sg64
(lp5400
S':'
asbag57
(g78
g59
NtRp5401
(dp5402
g62
(dp5403
sg71
g5389
sg64
(lp5404
g57
(g58
g59
NtRp5405
(dp5406
g62
(dp5407
g70
I3
ssg71
g5401
sg64
(lp5408
S''
asbasbasbasbasbasbasbasbasbasbasbag57
(g73
g59
NtRp5409
(dp5410
g62
(dp5411
sg71
g5175
sg64
(lp5412
g57
(g78
g59
NtRp5413
(dp5414
g62
(dp5415
g82
g83
ssg71
g5409
sg64
(lp5416
S'delimiters'
p5417
asbag57
(g78
g59
NtRp5418
(dp5419
g62
(dp5420
g89
g90
ssg71
g5409
sg64
(lp5421
S':'
asbag57
(g78
g59
NtRp5422
(dp5423
g62
(dp5424
sg71
g5409
sg64
(lp5425
g57
(g58
g59
NtRp5426
(dp5427
g62
(dp5428
g70
I5
ssg71
g5422
sg64
(lp5429
g57
(g66
g59
NtRp5430
(dp5431
g62
(dp5432
g70
I4
ssg71
Nsg64
(lp5433
g57
(g73
g59
NtRp5434
(dp5435
g62
(dp5436
sg71
g5430
sg64
(lp5437
g57
(g78
g59
NtRp5438
(dp5439
g62
(dp5440
sg71
g5434
sg64
(lp5441
g57
(g58
g59
NtRp5442
(dp5443
g62
(dp5444
g70
I4
ssg71
g5438
sg64
(lp5445
S'{{'
p5446
asbasbasbag57
(g73
g59
NtRp5447
(dp5448
g62
(dp5449
sg71
g5430
sg64
(lp5450
g57
(g78
g59
NtRp5451
(dp5452
g62
(dp5453
sg71
g5447
sg64
(lp5454
g57
(g58
g59
NtRp5455
(dp5456
g62
(dp5457
g70
I4
ssg71
g5451
sg64
(lp5458
S'}}'
p5459
asbasbasbasbasbasbasbag57
(g73
g59
NtRp5460
(dp5461
g62
(dp5462
sg71
g5175
sg64
(lp5463
g57
(g78
g59
NtRp5464
(dp5465
g62
(dp5466
g82
g83
ssg71
g5460
sg64
(lp5467
S'files'
p5468
asbag57
(g78
g59
NtRp5469
(dp5470
g62
(dp5471
g89
g90
ssg71
g5460
sg64
(lp5472
S':'
asbag57
(g78
g59
NtRp5473
(dp5474
g62
(dp5475
sg71
g5460
sg64
(lp5476
g57
(g58
g59
NtRp5477
(dp5478
g62
(dp5479
g70
I5
ssg71
g5473
sg64
(lp5480
g57
(g66
g59
NtRp5481
(dp5482
g62
(dp5483
g70
I4
ssg71
Nsg64
(lp5484
g57
(g73
g59
NtRp5485
(dp5486
g62
(dp5487
sg71
g5481
sg64
(lp5488
g57
(g78
g59
NtRp5489
(dp5490
g62
(dp5491
sg71
g5485
sg64
(lp5492
g57
(g58
g59
NtRp5493
(dp5494
g62
(dp5495
g70
I4
ssg71
g5489
sg64
(lp5496
S'/reddit/static/js/jquery.js'
p5497
asbasbasbag57
(g73
g59
NtRp5498
(dp5499
g62
(dp5500
sg71
g5481
sg64
(lp5501
g57
(g78
g59
NtRp5502
(dp5503
g62
(dp5504
sg71
g5498
sg64
(lp5505
g57
(g58
g59
NtRp5506
(dp5507
g62
(dp5508
g70
I4
ssg71
g5502
sg64
(lp5509
S'/reddit/static/css/calendar.css'
p5510
asbasbasbag57
(g73
g59
NtRp5511
(dp5512
g62
(dp5513
sg71
g5481
sg64
(lp5514
g57
(g78
g59
NtRp5515
(dp5516
g62
(dp5517
sg71
g5511
sg64
(lp5518
g57
(g58
g59
NtRp5519
(dp5520
g62
(dp5521
g70
I4
ssg71
g5515
sg64
(lp5522
S'/reddit/static/js/calendar.js'
p5523
asbasbasbag57
(g73
g59
NtRp5524
(dp5525
g62
(dp5526
sg71
g5481
sg64
(lp5527
g57
(g78
g59
NtRp5528
(dp5529
g62
(dp5530
sg71
g5524
sg64
(lp5531
g57
(g58
g59
NtRp5532
(dp5533
g62
(dp5534
g70
I4
ssg71
g5528
sg64
(lp5535
S'/reddit/static/js/web2py.js'
p5536
asbasbasbag57
(g73
g59
NtRp5537
(dp5538
g62
(dp5539
sg71
g5481
sg64
(lp5540
g57
(g78
g59
NtRp5541
(dp5542
g62
(dp5543
sg71
g5537
sg64
(lp5544
g57
(g58
g59
NtRp5545
(dp5546
g62
(dp5547
g70
I4
ssg71
g5541
sg64
(lp5548
S'/reddit/static/css/web2py.css'
p5549
asbasbasbag57
(g73
g59
NtRp5550
(dp5551
g62
(dp5552
sg71
g5481
sg64
(lp5553
g57
(g78
g59
NtRp5554
(dp5555
g62
(dp5556
sg71
g5550
sg64
(lp5557
g57
(g58
g59
NtRp5558
(dp5559
g62
(dp5560
g70
I4
ssg71
g5554
sg64
(lp5561
S'/reddit/static/css/bootstrap.min.css'
p5562
asbasbasbag57
(g73
g59
NtRp5563
(dp5564
g62
(dp5565
sg71
g5481
sg64
(lp5566
g57
(g78
g59
NtRp5567
(dp5568
g62
(dp5569
sg71
g5563
sg64
(lp5570
g57
(g58
g59
NtRp5571
(dp5572
g62
(dp5573
g70
I4
ssg71
g5567
sg64
(lp5574
S'/reddit/static/css/bootstrap-responsive.min.css'
p5575
asbasbasbag57
(g73
g59
NtRp5576
(dp5577
g62
(dp5578
sg71
g5481
sg64
(lp5579
g57
(g78
g59
NtRp5580
(dp5581
g62
(dp5582
sg71
g5576
sg64
(lp5583
g57
(g58
g59
NtRp5584
(dp5585
g62
(dp5586
g70
I4
ssg71
g5580
sg64
(lp5587
S'/reddit/static/css/web2py_bootstrap.css'
p5588
asbasbasbasbasbasbasbag57
(g73
g59
NtRp5589
(dp5590
g62
(dp5591
sg71
g5175
sg64
(lp5592
g57
(g78
g59
NtRp5593
(dp5594
g62
(dp5595
g82
g83
ssg71
g5589
sg64
(lp5596
S'flash'
p5597
asbag57
(g78
g59
NtRp5598
(dp5599
g62
(dp5600
g89
g90
ssg71
g5589
sg64
(lp5601
S':'
asbag57
(g78
g59
NtRp5602
(dp5603
g62
(dp5604
sg71
g5589
sg64
(lp5605
g57
(g58
g59
NtRp5606
(dp5607
g62
(dp5608
g70
I5
ssg71
g5602
sg64
(lp5609
cgluon.languages
lazyT_unpickle
p5610
(S's\x16\x00\x00\x00Welcome to Reddit.com!'
tRp5611
asbasbasbag57
(g73
g59
NtRp5612
(dp5613
g62
(dp5614
sg71
g5175
sg64
(lp5615
g57
(g78
g59
NtRp5616
(dp5617
g62
(dp5618
g82
g83
ssg71
g5612
sg64
(lp5619
S'generic_patterns'
p5620
asbag57
(g78
g59
NtRp5621
(dp5622
g62
(dp5623
g89
g90
ssg71
g5612
sg64
(lp5624
S':'
asbag57
(g78
g59
NtRp5625
(dp5626
g62
(dp5627
sg71
g5612
sg64
(lp5628
g57
(g58
g59
NtRp5629
(dp5630
g62
(dp5631
g70
I5
ssg71
g5625
sg64
(lp5632
g57
(g66
g59
NtRp5633
(dp5634
g62
(dp5635
g70
I4
ssg71
Nsg64
(lp5636
g57
(g73
g59
NtRp5637
(dp5638
g62
(dp5639
sg71
g5633
sg64
(lp5640
g57
(g78
g59
NtRp5641
(dp5642
g62
(dp5643
sg71
g5637
sg64
(lp5644
g57
(g58
g59
NtRp5645
(dp5646
g62
(dp5647
g70
I4
ssg71
g5641
sg64
(lp5648
S'*'
asbasbasbasbasbasbasbag57
(g73
g59
NtRp5649
(dp5650
g62
(dp5651
sg71
g5175
sg64
(lp5652
g57
(g78
g59
NtRp5653
(dp5654
g62
(dp5655
g82
g83
ssg71
g5649
sg64
(lp5656
S'google_analytics_id'
p5657
asbag57
(g78
g59
NtRp5658
(dp5659
g62
(dp5660
g89
g90
ssg71
g5649
sg64
(lp5661
S':'
asbag57
(g78
g59
NtRp5662
(dp5663
g62
(dp5664
sg71
g5649
sg64
(lp5665
g57
(g58
g59
NtRp5666
(dp5667
g62
(dp5668
g70
I5
ssg71
g5662
sg64
(lp5669
S'None'
p5670
asbasbasbag57
(g73
g59
NtRp5671
(dp5672
g62
(dp5673
sg71
g5175
sg64
(lp5674
g57
(g78
g59
NtRp5675
(dp5676
g62
(dp5677
g82
g83
ssg71
g5671
sg64
(lp5678
S'headers'
p5679
asbag57
(g78
g59
NtRp5680
(dp5681
g62
(dp5682
g89
g90
ssg71
g5671
sg64
(lp5683
S':'
asbag57
(g78
g59
NtRp5684
(dp5685
g62
(dp5686
sg71
g5671
sg64
(lp5687
g57
(g58
g59
NtRp5688
(dp5689
g62
(dp5690
g70
I5
ssg71
g5684
sg64
(lp5691
g57
(g66
g59
NtRp5692
(dp5693
g62
(dp5694
g70
I4
ssg71
Nsg64
(lp5695
g57
(g73
g59
NtRp5696
(dp5697
g62
(dp5698
sg71
g5692
sg64
(lp5699
g57
(g78
g59
NtRp5700
(dp5701
g62
(dp5702
g82
g83
ssg71
g5696
sg64
(lp5703
S'X-Powered-By'
p5704
asbag57
(g78
g59
NtRp5705
(dp5706
g62
(dp5707
g89
g90
ssg71
g5696
sg64
(lp5708
S':'
asbag57
(g78
g59
NtRp5709
(dp5710
g62
(dp5711
sg71
g5696
sg64
(lp5712
g57
(g58
g59
NtRp5713
(dp5714
g62
(dp5715
g70
I4
ssg71
g5709
sg64
(lp5716
S'web2py'
p5717
asbasbasbasbasbasbasbag57
(g73
g59
NtRp5718
(dp5719
g62
(dp5720
sg71
g5175
sg64
(lp5721
g57
(g78
g59
NtRp5722
(dp5723
g62
(dp5724
g82
g83
ssg71
g5718
sg64
(lp5725
S'logo'
p5726
asbag57
(g78
g59
NtRp5727
(dp5728
g62
(dp5729
g89
g90
ssg71
g5718
sg64
(lp5730
S':'
asbag57
(g78
g59
NtRp5731
(dp5732
g62
(dp5733
sg71
g5718
sg64
(lp5734
g57
(g58
g59
NtRp5735
(dp5736
g62
(dp5737
g70
I5
ssg71
g5731
sg64
(lp5738
g57
(cgluon.html
A
p5739
g59
NtRp5740
(dp5741
g62
(dp5742
S'_class'
p5743
S'brand'
p5744
sS'_href'
p5745
S'http://www.web2py.com/'
p5746
ssg71
Nsg64
(lp5747
g57
(cgluon.html
B
p5748
g59
NtRp5749
(dp5750
g62
(dp5751
sg71
g5740
sg64
(lp5752
S'web'
p5753
ag57
(cgluon.html
SPAN
p5754
g59
NtRp5755
(dp5756
g62
(dp5757
sg71
g5749
sg64
(lp5758
I2
asbaS'py'
p5759
asbacgluon.html
XML_unpickle
p5760
(S's\r\x00\x00\x00&trade;&nbsp;'
tRp5761
asbasbasbasbag57
(g73
g59
NtRp5762
(dp5763
g62
(dp5764
sg71
g5175
sg64
(lp5765
g57
(g78
g59
NtRp5766
(dp5767
g62
(dp5768
g82
g83
ssg71
g5762
sg64
(lp5769
S'menu'
p5770
asbag57
(g78
g59
NtRp5771
(dp5772
g62
(dp5773
g89
g90
ssg71
g5762
sg64
(lp5774
S':'
asbag57
(g78
g59
NtRp5775
(dp5776
g62
(dp5777
sg71
g5762
sg64
(lp5778
g57
(g58
g59
NtRp5779
(dp5780
g62
(dp5781
g70
I5
ssg71
g5775
sg64
(lp5782
g57
(g66
g59
NtRp5783
(dp5784
g62
(dp5785
g70
I4
ssg71
Nsg64
(lp5786
g57
(g73
g59
NtRp5787
(dp5788
g62
(dp5789
sg71
g5783
sg64
(lp5790
g57
(g78
g59
NtRp5791
(dp5792
g62
(dp5793
sg71
g5787
sg64
(lp5794
g57
(g58
g59
NtRp5795
(dp5796
g62
(dp5797
g70
I4
ssg71
g5791
sg64
(lp5798
g57
(g66
g59
NtRp5799
(dp5800
g62
(dp5801
g70
I3
ssg71
Nsg64
(lp5802
g57
(g73
g59
NtRp5803
(dp5804
g62
(dp5805
sg71
g5799
sg64
(lp5806
g57
(g78
g59
NtRp5807
(dp5808
g62
(dp5809
sg71
g5803
sg64
(lp5810
g57
(g58
g59
NtRp5811
(dp5812
g62
(dp5813
g70
I3
ssg71
g5807
sg64
(lp5814
g5610
(S's\x04\x00\x00\x00Home'
tRp5815
asbasbasbag57
(g73
g59
NtRp5816
(dp5817
g62
(dp5818
sg71
g5799
sg64
(lp5819
g57
(g78
g59
NtRp5820
(dp5821
g62
(dp5822
sg71
g5816
sg64
(lp5823
g57
(g58
g59
NtRp5824
(dp5825
g62
(dp5826
g70
I3
ssg71
g5820
sg64
(lp5827
g100
asbasbasbag57
(g73
g59
NtRp5828
(dp5829
g62
(dp5830
sg71
g5799
sg64
(lp5831
g57
(g78
g59
NtRp5832
(dp5833
g62
(dp5834
sg71
g5828
sg64
(lp5835
g57
(g58
g59
NtRp5836
(dp5837
g62
(dp5838
g70
I3
ssg71
g5832
sg64
(lp5839
S'/reddit/default/index'
p5840
asbasbasbag57
(g73
g59
NtRp5841
(dp5842
g62
(dp5843
sg71
g5799
sg64
(lp5844
g57
(g78
g59
NtRp5845
(dp5846
g62
(dp5847
sg71
g5841
sg64
(lp5848
g57
(g58
g59
NtRp5849
(dp5850
g62
(dp5851
g70
I3
ssg71
g5845
sg64
(lp5852
g57
(g66
g59
NtRp5853
(dp5854
g62
(dp5855
g70
I2
ssg71
Nsg64
(lp5856
sbasbasbasbasbasbasbasbag57
(g73
g59
NtRp5857
(dp5858
g62
(dp5859
sg71
g5783
sg64
(lp5860
g57
(g78
g59
NtRp5861
(dp5862
g62
(dp5863
sg71
g5857
sg64
(lp5864
g57
(g58
g59
NtRp5865
(dp5866
g62
(dp5867
g70
I4
ssg71
g5861
sg64
(lp5868
g57
(g66
g59
NtRp5869
(dp5870
g62
(dp5871
g70
I3
ssg71
Nsg64
(lp5872
g57
(g73
g59
NtRp5873
(dp5874
g62
(dp5875
sg71
g5869
sg64
(lp5876
g57
(g78
g59
NtRp5877
(dp5878
g62
(dp5879
sg71
g5873
sg64
(lp5880
g57
(g58
g59
NtRp5881
(dp5882
g62
(dp5883
g70
I3
ssg71
g5877
sg64
(lp5884
g57
(g5754
g59
NtRp5885
(dp5886
g62
(dp5887
g5743
S'highlighted'
p5888
ssg71
g57
(g5739
g59
NtRp5889
(dp5890
g62
(dp5891
g5745
S'http://web2py.com'
p5892
ssg71
g57
(cgluon.html
LI
p5893
g59
NtRp5894
(dp5895
g62
(dp5896
g5743
S'dropdown'
p5897
ssg71
g57
(cgluon.html
UL
p5898
g59
NtRp5899
(dp5900
g62
(dp5901
S'mobile'
p5902
I00
sS'ul_class'
p5903
S'dropdown-menu'
p5904
sS'li_last'
p5905
S'web2py-menu-last'
p5906
sS'li_class'
p5907
g5897
sS'li_first'
p5908
S'web2py-menu-first'
p5909
sg5743
S'nav'
p5910
sS'li_active'
p5911
S'web2py-menu-active'
p5912
ssg71
Nsg64
(lp5913
g57
(g5893
g59
NtRp5914
(dp5915
g62
(dp5916
g5743
g5909
ssg71
g5899
sg64
(lp5917
g57
(g5739
g59
NtRp5918
(dp5919
g62
(dp5920
g5745
g5840
ssg71
g5914
sg64
(lp5921
g5815
asbasbag5894
asbsg64
(lp5922
g5889
ag57
(g5898
g59
NtRp5923
(dp5924
g62
(dp5925
g5743
g5904
ssg71
g5894
sg64
(lp5926
g57
(g5893
g59
NtRp5927
(dp5928
g62
(dp5929
sg71
g5923
sg64
(lp5930
g57
(g5739
g59
NtRp5931
(dp5932
g62
(dp5933
g5745
S'/admin/default/site'
p5934
ssg71
g5927
sg64
(lp5935
g5610
(S's\x08\x00\x00\x00My Sites'
tRp5936
asbasbag57
(g5893
g59
NtRp5937
(dp5938
g62
(dp5939
g5743
g5897
ssg71
g5923
sg64
(lp5940
g57
(g5739
g59
NtRp5941
(dp5942
g62
(dp5943
g5745
S'/admin/default/design/reddit'
p5944
ssg71
g5937
sg64
(lp5945
g5610
(S's\x08\x00\x00\x00This App'
tRp5946
asbag57
(g5898
g59
NtRp5947
(dp5948
g62
(dp5949
g5743
g5904
ssg71
g5937
sg64
(lp5950
g57
(g5893
g59
NtRp5951
(dp5952
g62
(dp5953
sg71
g5947
sg64
(lp5954
g57
(g5739
g59
NtRp5955
(dp5956
g62
(dp5957
g5745
S'/admin/default/edit/reddit/controllers/default.py'
p5958
ssg71
g5951
sg64
(lp5959
g5610
(S's\n\x00\x00\x00Controller'
tRp5960
asbasbag57
(g5893
g59
NtRp5961
(dp5962
g62
(dp5963
sg71
g5947
sg64
(lp5964
g57
(g5739
g59
NtRp5965
(dp5966
g62
(dp5967
g5745
S'/admin/default/edit/reddit/views/default/index.html'
p5968
ssg71
g5961
sg64
(lp5969
g5610
(S's\x04\x00\x00\x00View'
tRp5970
asbasbag57
(g5893
g59
NtRp5971
(dp5972
g62
(dp5973
sg71
g5947
sg64
(lp5974
g57
(g5739
g59
NtRp5975
(dp5976
g62
(dp5977
g5745
S'/admin/default/edit/reddit/views/layout.html'
p5978
ssg71
g5971
sg64
(lp5979
g5610
(S's\x06\x00\x00\x00Layout'
tRp5980
asbasbag57
(g5893
g59
NtRp5981
(dp5982
g62
(dp5983
sg71
g5947
sg64
(lp5984
g57
(g5739
g59
NtRp5985
(dp5986
g62
(dp5987
g5745
S'/admin/default/edit/reddit/static/css/web2py.css'
p5988
ssg71
g5981
sg64
(lp5989
g5610
(S's\n\x00\x00\x00Stylesheet'
tRp5990
asbasbag57
(g5893
g59
NtRp5991
(dp5992
g62
(dp5993
sg71
g5947
sg64
(lp5994
g57
(g5739
g59
NtRp5995
(dp5996
g62
(dp5997
g5745
S'/admin/default/edit/reddit/models/db.py'
p5998
ssg71
g5991
sg64
(lp5999
g5610
(S's\x08\x00\x00\x00DB Model'
tRp6000
asbasbag57
(g5893
g59
NtRp6001
(dp6002
g62
(dp6003
sg71
g5947
sg64
(lp6004
g57
(g5739
g59
NtRp6005
(dp6006
g62
(dp6007
g5745
S'/admin/default/edit/reddit/models/menu.py'
p6008
ssg71
g6001
sg64
(lp6009
g5610
(S's\n\x00\x00\x00Menu Model'
tRp6010
asbasbag57
(g5893
g59
NtRp6011
(dp6012
g62
(dp6013
sg71
g5947
sg64
(lp6014
g57
(g5739
g59
NtRp6015
(dp6016
g62
(dp6017
g5745
S'/reddit/appadmin/index'
p6018
ssg71
g6011
sg64
(lp6019
g5610
(S's\x08\x00\x00\x00Database'
tRp6020
asbasbag57
(g5893
g59
NtRp6021
(dp6022
g62
(dp6023
sg71
g5947
sg64
(lp6024
g57
(g5739
g59
NtRp6025
(dp6026
g62
(dp6027
g5745
S'/admin/default/errors/reddit'
p6028
ssg71
g6021
sg64
(lp6029
g5610
(S's\x06\x00\x00\x00Errors'
tRp6030
asbasbag57
(g5893
g59
NtRp6031
(dp6032
g62
(dp6033
sg71
g5947
sg64
(lp6034
g57
(g5739
g59
NtRp6035
(dp6036
g62
(dp6037
g5745
S'/admin/default/about/reddit'
p6038
ssg71
g6031
sg64
(lp6039
g5610
(S's\x05\x00\x00\x00About'
tRp6040
asbasbasbasbag57
(g5893
g59
NtRp6041
(dp6042
g62
(dp6043
g5743
g5897
ssg71
g5923
sg64
(lp6044
g57
(g5739
g59
NtRp6045
(dp6046
g62
(dp6047
g5745
S'http://www.web2py.com'
p6048
ssg71
g6041
sg64
(lp6049
S'web2py.com'
p6050
asbag57
(g5898
g59
NtRp6051
(dp6052
g62
(dp6053
g5743
g5904
ssg71
g6041
sg64
(lp6054
g57
(g5893
g59
NtRp6055
(dp6056
g62
(dp6057
sg71
g6051
sg64
(lp6058
g57
(g5739
g59
NtRp6059
(dp6060
g62
(dp6061
g5745
S'http://www.web2py.com/examples/default/download'
p6062
ssg71
g6055
sg64
(lp6063
g5610
(S's\x08\x00\x00\x00Download'
tRp6064
asbasbag57
(g5893
g59
NtRp6065
(dp6066
g62
(dp6067
sg71
g6051
sg64
(lp6068
g57
(g5739
g59
NtRp6069
(dp6070
g62
(dp6071
g5745
S'http://www.web2py.com/examples/default/support'
p6072
ssg71
g6065
sg64
(lp6073
g5610
(S's\x07\x00\x00\x00Support'
tRp6074
asbasbag57
(g5893
g59
NtRp6075
(dp6076
g62
(dp6077
sg71
g6051
sg64
(lp6078
g57
(g5739
g59
NtRp6079
(dp6080
g62
(dp6081
g5745
S'http://web2py.com/demo_admin'
p6082
ssg71
g6075
sg64
(lp6083
g5610
(S's\x04\x00\x00\x00Demo'
tRp6084
asbasbag57
(g5893
g59
NtRp6085
(dp6086
g62
(dp6087
sg71
g6051
sg64
(lp6088
g57
(g5739
g59
NtRp6089
(dp6090
g62
(dp6091
g5745
S'http://web2py.com/examples/default/examples'
p6092
ssg71
g6085
sg64
(lp6093
g5610
(S's\x0e\x00\x00\x00Quick Examples'
tRp6094
asbasbag57
(g5893
g59
NtRp6095
(dp6096
g62
(dp6097
sg71
g6051
sg64
(lp6098
g57
(g5739
g59
NtRp6099
(dp6100
g62
(dp6101
g5745
S'http://web2py.com/AlterEgo'
p6102
ssg71
g6095
sg64
(lp6103
g5610
(S's\x03\x00\x00\x00FAQ'
tRp6104
asbasbag57
(g5893
g59
NtRp6105
(dp6106
g62
(dp6107
sg71
g6051
sg64
(lp6108
g57
(g5739
g59
NtRp6109
(dp6110
g62
(dp6111
g5745
S'http://www.web2py.com/examples/default/videos/'
p6112
ssg71
g6105
sg64
(lp6113
g5610
(S's\x06\x00\x00\x00Videos'
tRp6114
asbasbag57
(g5893
g59
NtRp6115
(dp6116
g62
(dp6117
sg71
g6051
sg64
(lp6118
g57
(g5739
g59
NtRp6119
(dp6120
g62
(dp6121
g5745
S'http://web2py.com/appliances'
p6122
ssg71
g6115
sg64
(lp6123
g5610
(S's\x11\x00\x00\x00Free Applications'
tRp6124
asbasbag57
(g5893
g59
NtRp6125
(dp6126
g62
(dp6127
sg71
g6051
sg64
(lp6128
g57
(g5739
g59
NtRp6129
(dp6130
g62
(dp6131
g5745
S'http://web2py.com/plugins'
p6132
ssg71
g6125
sg64
(lp6133
g5610
(S's\x07\x00\x00\x00Plugins'
tRp6134
asbasbag57
(g5893
g59
NtRp6135
(dp6136
g62
(dp6137
sg71
g6051
sg64
(lp6138
g57
(g5739
g59
NtRp6139
(dp6140
g62
(dp6141
g5745
S'http://web2py.com/layouts'
p6142
ssg71
g6135
sg64
(lp6143
g5610
(S's\x07\x00\x00\x00Layouts'
tRp6144
asbasbag57
(g5893
g59
NtRp6145
(dp6146
g62
(dp6147
sg71
g6051
sg64
(lp6148
g57
(g5739
g59
NtRp6149
(dp6150
g62
(dp6151
g5745
S'http://web2pyslices.com/'
p6152
ssg71
g6145
sg64
(lp6153
g5610
(S's\x07\x00\x00\x00Recipes'
tRp6154
asbasbag57
(g5893
g59
NtRp6155
(dp6156
g62
(dp6157
sg71
g6051
sg64
(lp6158
g57
(g5739
g59
NtRp6159
(dp6160
g62
(dp6161
g5745
S'http://web2py.com/semantic'
p6162
ssg71
g6155
sg64
(lp6163
g5610
(S's\x08\x00\x00\x00Semantic'
tRp6164
asbasbasbasbag57
(g5893
g59
NtRp6165
(dp6166
g62
(dp6167
g5743
g5897
ssg71
g5923
sg64
(lp6168
g57
(g5739
g59
NtRp6169
(dp6170
g62
(dp6171
g5745
S'http://www.web2py.com/book'
p6172
ssg71
g6165
sg64
(lp6173
g5610
(S's\r\x00\x00\x00Documentation'
tRp6174
asbag57
(g5898
g59
NtRp6175
(dp6176
g62
(dp6177
g5743
g5904
ssg71
g6165
sg64
(lp6178
g57
(g5893
g59
NtRp6179
(dp6180
g62
(dp6181
sg71
g6175
sg64
(lp6182
g57
(g5739
g59
NtRp6183
(dp6184
g62
(dp6185
g5745
S'http://www.web2py.com/book/default/chapter/00'
p6186
ssg71
g6179
sg64
(lp6187
g5610
(S's\x07\x00\x00\x00Preface'
tRp6188
asbasbag57
(g5893
g59
NtRp6189
(dp6190
g62
(dp6191
sg71
g6175
sg64
(lp6192
g57
(g5739
g59
NtRp6193
(dp6194
g62
(dp6195
g5745
S'http://www.web2py.com/book/default/chapter/01'
p6196
ssg71
g6189
sg64
(lp6197
g5610
(S's\x0c\x00\x00\x00Introduction'
tRp6198
asbasbag57
(g5893
g59
NtRp6199
(dp6200
g62
(dp6201
sg71
g6175
sg64
(lp6202
g57
(g5739
g59
NtRp6203
(dp6204
g62
(dp6205
g5745
S'http://www.web2py.com/book/default/chapter/02'
p6206
ssg71
g6199
sg64
(lp6207
g5610
(S's\x06\x00\x00\x00Python'
tRp6208
asbasbag57
(g5893
g59
NtRp6209
(dp6210
g62
(dp6211
sg71
g6175
sg64
(lp6212
g57
(g5739
g59
NtRp6213
(dp6214
g62
(dp6215
g5745
S'http://www.web2py.com/book/default/chapter/03'
p6216
ssg71
g6209
sg64
(lp6217
g5610
(S's\x08\x00\x00\x00Overview'
tRp6218
asbasbag57
(g5893
g59
NtRp6219
(dp6220
g62
(dp6221
sg71
g6175
sg64
(lp6222
g57
(g5739
g59
NtRp6223
(dp6224
g62
(dp6225
g5745
S'http://www.web2py.com/book/default/chapter/04'
p6226
ssg71
g6219
sg64
(lp6227
g5610
(S's\x08\x00\x00\x00The Core'
tRp6228
asbasbag57
(g5893
g59
NtRp6229
(dp6230
g62
(dp6231
sg71
g6175
sg64
(lp6232
g57
(g5739
g59
NtRp6233
(dp6234
g62
(dp6235
g5745
S'http://www.web2py.com/book/default/chapter/05'
p6236
ssg71
g6229
sg64
(lp6237
g5610
(S's\t\x00\x00\x00The Views'
tRp6238
asbasbag57
(g5893
g59
NtRp6239
(dp6240
g62
(dp6241
sg71
g6175
sg64
(lp6242
g57
(g5739
g59
NtRp6243
(dp6244
g62
(dp6245
g5745
S'http://www.web2py.com/book/default/chapter/06'
p6246
ssg71
g6239
sg64
(lp6247
g5610
(S's\x08\x00\x00\x00Database'
tRp6248
asbasbag57
(g5893
g59
NtRp6249
(dp6250
g62
(dp6251
sg71
g6175
sg64
(lp6252
g57
(g5739
g59
NtRp6253
(dp6254
g62
(dp6255
g5745
S'http://www.web2py.com/book/default/chapter/07'
p6256
ssg71
g6249
sg64
(lp6257
g5610
(S's\x14\x00\x00\x00Forms and Validators'
tRp6258
asbasbag57
(g5893
g59
NtRp6259
(dp6260
g62
(dp6261
sg71
g6175
sg64
(lp6262
g57
(g5739
g59
NtRp6263
(dp6264
g62
(dp6265
g5745
S'http://www.web2py.com/book/default/chapter/08'
p6266
ssg71
g6259
sg64
(lp6267
g5610
(S's\r\x00\x00\x00Email and SMS'
tRp6268
asbasbag57
(g5893
g59
NtRp6269
(dp6270
g62
(dp6271
sg71
g6175
sg64
(lp6272
g57
(g5739
g59
NtRp6273
(dp6274
g62
(dp6275
g5745
S'http://www.web2py.com/book/default/chapter/09'
p6276
ssg71
g6269
sg64
(lp6277
g5610
(S's\x0e\x00\x00\x00Access Control'
tRp6278
asbasbag57
(g5893
g59
NtRp6279
(dp6280
g62
(dp6281
sg71
g6175
sg64
(lp6282
g57
(g5739
g59
NtRp6283
(dp6284
g62
(dp6285
g5745
S'http://www.web2py.com/book/default/chapter/10'
p6286
ssg71
g6279
sg64
(lp6287
g5610
(S's\x08\x00\x00\x00Services'
tRp6288
asbasbag57
(g5893
g59
NtRp6289
(dp6290
g62
(dp6291
sg71
g6175
sg64
(lp6292
g57
(g5739
g59
NtRp6293
(dp6294
g62
(dp6295
g5745
S'http://www.web2py.com/book/default/chapter/11'
p6296
ssg71
g6289
sg64
(lp6297
g5610
(S's\x0c\x00\x00\x00Ajax Recipes'
tRp6298
asbasbag57
(g5893
g59
NtRp6299
(dp6300
g62
(dp6301
sg71
g6175
sg64
(lp6302
g57
(g5739
g59
NtRp6303
(dp6304
g62
(dp6305
g5745
S'http://www.web2py.com/book/default/chapter/12'
p6306
ssg71
g6299
sg64
(lp6307
g5610
(S's\x16\x00\x00\x00Components and Plugins'
tRp6308
asbasbag57
(g5893
g59
NtRp6309
(dp6310
g62
(dp6311
sg71
g6175
sg64
(lp6312
g57
(g5739
g59
NtRp6313
(dp6314
g62
(dp6315
g5745
S'http://www.web2py.com/book/default/chapter/13'
p6316
ssg71
g6309
sg64
(lp6317
g5610
(S's\x12\x00\x00\x00Deployment Recipes'
tRp6318
asbasbag57
(g5893
g59
NtRp6319
(dp6320
g62
(dp6321
sg71
g6175
sg64
(lp6322
g57
(g5739
g59
NtRp6323
(dp6324
g62
(dp6325
g5745
S'http://www.web2py.com/book/default/chapter/14'
p6326
ssg71
g6319
sg64
(lp6327
g5610
(S's\r\x00\x00\x00Other Recipes'
tRp6328
asbasbag57
(g5893
g59
NtRp6329
(dp6330
g62
(dp6331
sg71
g6175
sg64
(lp6332
g57
(g5739
g59
NtRp6333
(dp6334
g62
(dp6335
g5745
S'http://stores.lulu.com/web2py'
p6336
ssg71
g6329
sg64
(lp6337
g5610
(S's\r\x00\x00\x00Buy this book'
tRp6338
asbasbasbasbag57
(g5893
g59
NtRp6339
(dp6340
g62
(dp6341
g5743
g5897
ssg71
g5923
sg64
(lp6342
g57
(g5739
g59
NtRp6343
(dp6344
g62
(dp6345
S'_onclick'
p6346
S'javascript:void(0);return false;'
p6347
sg5745
S'#'
ssg71
g6339
sg64
(lp6348
g5610
(S's\t\x00\x00\x00Community'
tRp6349
asbag57
(g5898
g59
NtRp6350
(dp6351
g62
(dp6352
g5743
g5904
ssg71
g6339
sg64
(lp6353
g57
(g5893
g59
NtRp6354
(dp6355
g62
(dp6356
sg71
g6350
sg64
(lp6357
g57
(g5739
g59
NtRp6358
(dp6359
g62
(dp6360
g5745
S'http://www.web2py.com/examples/default/usergroups'
p6361
ssg71
g6354
sg64
(lp6362
g5610
(S's\x06\x00\x00\x00Groups'
tRp6363
asbasbag57
(g5893
g59
NtRp6364
(dp6365
g62
(dp6366
sg71
g6350
sg64
(lp6367
g57
(g5739
g59
NtRp6368
(dp6369
g62
(dp6370
g5745
S'http://twitter.com/web2py'
p6371
ssg71
g6364
sg64
(lp6372
g5610
(S's\x07\x00\x00\x00Twitter'
tRp6373
asbasbag57
(g5893
g59
NtRp6374
(dp6375
g62
(dp6376
sg71
g6350
sg64
(lp6377
g57
(g5739
g59
NtRp6378
(dp6379
g62
(dp6380
g5745
S'http://webchat.freenode.net/?channels=web2py'
p6381
ssg71
g6374
sg64
(lp6382
g5610
(S's\t\x00\x00\x00Live Chat'
tRp6383
asbasbasbasbag57
(g5893
g59
NtRp6384
(dp6385
g62
(dp6386
g5743
g5897
ssg71
g5923
sg64
(lp6387
g57
(g5739
g59
NtRp6388
(dp6389
g62
(dp6390
g6346
g6347
sg5745
S'#'
ssg71
g6384
sg64
(lp6391
g5610
(S's\x07\x00\x00\x00Plugins'
tRp6392
asbag57
(g5898
g59
NtRp6393
(dp6394
g62
(dp6395
g5743
g5904
ssg71
g6384
sg64
(lp6396
g57
(g5893
g59
NtRp6397
(dp6398
g62
(dp6399
sg71
g6393
sg64
(lp6400
g57
(g5739
g59
NtRp6401
(dp6402
g62
(dp6403
g5745
S'http://web2py.com/examples/default/download'
p6404
ssg71
g6397
sg64
(lp6405
S'plugin_wiki'
p6406
asbasbag57
(g5893
g59
NtRp6407
(dp6408
g62
(dp6409
sg71
g6393
sg64
(lp6410
g57
(g5739
g59
NtRp6411
(dp6412
g62
(dp6413
g5745
g6132
ssg71
g6407
sg64
(lp6414
g5610
(S's\r\x00\x00\x00Other Plugins'
tRp6415
asbasbag57
(g5893
g59
NtRp6416
(dp6417
g62
(dp6418
sg71
g6393
sg64
(lp6419
g57
(g5739
g59
NtRp6420
(dp6421
g62
(dp6422
g5745
g6142
ssg71
g6416
sg64
(lp6423
g5610
(S's\x0e\x00\x00\x00Layout Plugins'
tRp6424
asbasbasbasbasbasbsg64
(lp6425
g5885
asbsg64
(lp6426
g5717
asbasbasbasbag57
(g73
g59
NtRp6427
(dp6428
g62
(dp6429
sg71
g5869
sg64
(lp6430
g57
(g78
g59
NtRp6431
(dp6432
g62
(dp6433
sg71
g6427
sg64
(lp6434
g57
(g58
g59
NtRp6435
(dp6436
g62
(dp6437
g70
I3
ssg71
g6431
sg64
(lp6438
g100
asbasbasbag57
(g73
g59
NtRp6439
(dp6440
g62
(dp6441
sg71
g5869
sg64
(lp6442
g57
(g78
g59
NtRp6443
(dp6444
g62
(dp6445
sg71
g6439
sg64
(lp6446
g57
(g58
g59
NtRp6447
(dp6448
g62
(dp6449
g70
I3
ssg71
g6443
sg64
(lp6450
g5892
asbasbasbag57
(g73
g59
NtRp6451
(dp6452
g62
(dp6453
sg71
g5869
sg64
(lp6454
g57
(g78
g59
NtRp6455
(dp6456
g62
(dp6457
sg71
g6451
sg64
(lp6458
g57
(g58
g59
NtRp6459
(dp6460
g62
(dp6461
g70
I3
ssg71
g6455
sg64
(lp6462
g57
(g66
g59
NtRp6463
(dp6464
g62
(dp6465
g70
I2
ssg71
Nsg64
(lp6466
g57
(g73
g59
NtRp6467
(dp6468
g62
(dp6469
sg71
g6463
sg64
(lp6470
g57
(g78
g59
NtRp6471
(dp6472
g62
(dp6473
sg71
g6467
sg64
(lp6474
g57
(g58
g59
NtRp6475
(dp6476
g62
(dp6477
g70
I2
ssg71
g6471
sg64
(lp6478
g57
(g66
g59
NtRp6479
(dp6480
g62
(dp6481
g70
I1
ssg71
Nsg64
(lp6482
g57
(g73
g59
NtRp6483
(dp6484
g62
(dp6485
sg71
g6479
sg64
(lp6486
g57
(g78
g59
NtRp6487
(dp6488
g62
(dp6489
sg71
g6483
sg64
(lp6490
g57
(g58
g59
NtRp6491
(dp6492
g62
(dp6493
g70
I1
ssg71
g6487
sg64
(lp6494
g5936
asbasbasbag57
(g73
g59
NtRp6495
(dp6496
g62
(dp6497
sg71
g6479
sg64
(lp6498
g57
(g78
g59
NtRp6499
(dp6500
g62
(dp6501
sg71
g6495
sg64
(lp6502
g57
(g58
g59
NtRp6503
(dp6504
g62
(dp6505
g70
I1
ssg71
g6499
sg64
(lp6506
I00
asbasbasbag57
(g73
g59
NtRp6507
(dp6508
g62
(dp6509
sg71
g6479
sg64
(lp6510
g57
(g78
g59
NtRp6511
(dp6512
g62
(dp6513
sg71
g6507
sg64
(lp6514
g57
(g58
g59
NtRp6515
(dp6516
g62
(dp6517
g70
I1
ssg71
g6511
sg64
(lp6518
g5934
asbasbasbasbasbasbasbag57
(g73
g59
NtRp6519
(dp6520
g62
(dp6521
sg71
g6463
sg64
(lp6522
g57
(g78
g59
NtRp6523
(dp6524
g62
(dp6525
sg71
g6519
sg64
(lp6526
g57
(g58
g59
NtRp6527
(dp6528
g62
(dp6529
g70
I2
ssg71
g6523
sg64
(lp6530
g57
(g66
g59
NtRp6531
(dp6532
g62
(dp6533
g70
I1
ssg71
Nsg64
(lp6534
g57
(g73
g59
NtRp6535
(dp6536
g62
(dp6537
sg71
g6531
sg64
(lp6538
g57
(g78
g59
NtRp6539
(dp6540
g62
(dp6541
sg71
g6535
sg64
(lp6542
g57
(g58
g59
NtRp6543
(dp6544
g62
(dp6545
g70
I1
ssg71
g6539
sg64
(lp6546
g5946
asbasbasbag57
(g73
g59
NtRp6547
(dp6548
g62
(dp6549
sg71
g6531
sg64
(lp6550
g57
(g78
g59
NtRp6551
(dp6552
g62
(dp6553
sg71
g6547
sg64
(lp6554
g57
(g58
g59
NtRp6555
(dp6556
g62
(dp6557
g70
I1
ssg71
g6551
sg64
(lp6558
I00
asbasbasbag57
(g73
g59
NtRp6559
(dp6560
g62
(dp6561
sg71
g6531
sg64
(lp6562
g57
(g78
g59
NtRp6563
(dp6564
g62
(dp6565
sg71
g6559
sg64
(lp6566
g57
(g58
g59
NtRp6567
(dp6568
g62
(dp6569
g70
I1
ssg71
g6563
sg64
(lp6570
g5944
asbasbasbag57
(g73
g59
NtRp6571
(dp6572
g62
(dp6573
sg71
g6531
sg64
(lp6574
g57
(g78
g59
NtRp6575
(dp6576
g62
(dp6577
sg71
g6571
sg64
(lp6578
g57
(g58
g59
NtRp6579
(dp6580
g62
(dp6581
g70
I1
ssg71
g6575
sg64
(lp6582
(lp6583
(g5960
I00
g5958
tp6584
a(g5970
I00
g5968
tp6585
a(g5980
I00
g5978
tp6586
a(g5990
I00
g5988
tp6587
a(g6000
I00
g5998
tp6588
a(g6010
I00
g6008
tp6589
a(g6020
I00
g6018
tp6590
a(g6030
I00
g6028
tp6591
a(g6040
I00
g6038
tp6592
aasbasbasbasbasbasbasbag57
(g73
g59
NtRp6593
(dp6594
g62
(dp6595
sg71
g6463
sg64
(lp6596
g57
(g78
g59
NtRp6597
(dp6598
g62
(dp6599
sg71
g6593
sg64
(lp6600
g57
(g58
g59
NtRp6601
(dp6602
g62
(dp6603
g70
I2
ssg71
g6597
sg64
(lp6604
g57
(g66
g59
NtRp6605
(dp6606
g62
(dp6607
g70
I1
ssg71
Nsg64
(lp6608
g57
(g73
g59
NtRp6609
(dp6610
g62
(dp6611
sg71
g6605
sg64
(lp6612
g57
(g78
g59
NtRp6613
(dp6614
g62
(dp6615
sg71
g6609
sg64
(lp6616
g57
(g58
g59
NtRp6617
(dp6618
g62
(dp6619
g70
I1
ssg71
g6613
sg64
(lp6620
g6050
asbasbasbag57
(g73
g59
NtRp6621
(dp6622
g62
(dp6623
sg71
g6605
sg64
(lp6624
g57
(g78
g59
NtRp6625
(dp6626
g62
(dp6627
sg71
g6621
sg64
(lp6628
g57
(g58
g59
NtRp6629
(dp6630
g62
(dp6631
g70
I1
ssg71
g6625
sg64
(lp6632
I00
asbasbasbag57
(g73
g59
NtRp6633
(dp6634
g62
(dp6635
sg71
g6605
sg64
(lp6636
g57
(g78
g59
NtRp6637
(dp6638
g62
(dp6639
sg71
g6633
sg64
(lp6640
g57
(g58
g59
NtRp6641
(dp6642
g62
(dp6643
g70
I1
ssg71
g6637
sg64
(lp6644
g6048
asbasbasbag57
(g73
g59
NtRp6645
(dp6646
g62
(dp6647
sg71
g6605
sg64
(lp6648
g57
(g78
g59
NtRp6649
(dp6650
g62
(dp6651
sg71
g6645
sg64
(lp6652
g57
(g58
g59
NtRp6653
(dp6654
g62
(dp6655
g70
I1
ssg71
g6649
sg64
(lp6656
(lp6657
(g6064
I00
g6062
tp6658
a(g6074
I00
g6072
tp6659
a(g6084
I00
g6082
tp6660
a(g6094
I00
g6092
tp6661
a(g6104
I00
g6102
tp6662
a(g6114
I00
g6112
tp6663
a(g6124
I00
g6122
tp6664
a(g6134
I00
g6132
tp6665
a(g6144
I00
g6142
tp6666
a(g6154
I00
g6152
tp6667
a(g6164
I00
g6162
tp6668
aasbasbasbasbasbasbasbag57
(g73
g59
NtRp6669
(dp6670
g62
(dp6671
sg71
g6463
sg64
(lp6672
g57
(g78
g59
NtRp6673
(dp6674
g62
(dp6675
sg71
g6669
sg64
(lp6676
g57
(g58
g59
NtRp6677
(dp6678
g62
(dp6679
g70
I2
ssg71
g6673
sg64
(lp6680
g57
(g66
g59
NtRp6681
(dp6682
g62
(dp6683
g70
I1
ssg71
Nsg64
(lp6684
g57
(g73
g59
NtRp6685
(dp6686
g62
(dp6687
sg71
g6681
sg64
(lp6688
g57
(g78
g59
NtRp6689
(dp6690
g62
(dp6691
sg71
g6685
sg64
(lp6692
g57
(g58
g59
NtRp6693
(dp6694
g62
(dp6695
g70
I1
ssg71
g6689
sg64
(lp6696
g6174
asbasbasbag57
(g73
g59
NtRp6697
(dp6698
g62
(dp6699
sg71
g6681
sg64
(lp6700
g57
(g78
g59
NtRp6701
(dp6702
g62
(dp6703
sg71
g6697
sg64
(lp6704
g57
(g58
g59
NtRp6705
(dp6706
g62
(dp6707
g70
I1
ssg71
g6701
sg64
(lp6708
I00
asbasbasbag57
(g73
g59
NtRp6709
(dp6710
g62
(dp6711
sg71
g6681
sg64
(lp6712
g57
(g78
g59
NtRp6713
(dp6714
g62
(dp6715
sg71
g6709
sg64
(lp6716
g57
(g58
g59
NtRp6717
(dp6718
g62
(dp6719
g70
I1
ssg71
g6713
sg64
(lp6720
g6172
asbasbasbag57
(g73
g59
NtRp6721
(dp6722
g62
(dp6723
sg71
g6681
sg64
(lp6724
g57
(g78
g59
NtRp6725
(dp6726
g62
(dp6727
sg71
g6721
sg64
(lp6728
g57
(g58
g59
NtRp6729
(dp6730
g62
(dp6731
g70
I1
ssg71
g6725
sg64
(lp6732
(lp6733
(g6188
I00
g6186
tp6734
a(g6198
I00
g6196
tp6735
a(g6208
I00
g6206
tp6736
a(g6218
I00
g6216
tp6737
a(g6228
I00
g6226
tp6738
a(g6238
I00
g6236
tp6739
a(g6248
I00
g6246
tp6740
a(g6258
I00
g6256
tp6741
a(g6268
I00
g6266
tp6742
a(g6278
I00
g6276
tp6743
a(g6288
I00
g6286
tp6744
a(g6298
I00
g6296
tp6745
a(g6308
I00
g6306
tp6746
a(g6318
I00
g6316
tp6747
a(g6328
I00
g6326
tp6748
a(g6338
I00
g6336
tp6749
aasbasbasbasbasbasbasbag57
(g73
g59
NtRp6750
(dp6751
g62
(dp6752
sg71
g6463
sg64
(lp6753
g57
(g78
g59
NtRp6754
(dp6755
g62
(dp6756
sg71
g6750
sg64
(lp6757
g57
(g58
g59
NtRp6758
(dp6759
g62
(dp6760
g70
I2
ssg71
g6754
sg64
(lp6761
g57
(g66
g59
NtRp6762
(dp6763
g62
(dp6764
g70
I1
ssg71
Nsg64
(lp6765
g57
(g73
g59
NtRp6766
(dp6767
g62
(dp6768
sg71
g6762
sg64
(lp6769
g57
(g78
g59
NtRp6770
(dp6771
g62
(dp6772
sg71
g6766
sg64
(lp6773
g57
(g58
g59
NtRp6774
(dp6775
g62
(dp6776
g70
I1
ssg71
g6770
sg64
(lp6777
g6349
asbasbasbag57
(g73
g59
NtRp6778
(dp6779
g62
(dp6780
sg71
g6762
sg64
(lp6781
g57
(g78
g59
NtRp6782
(dp6783
g62
(dp6784
sg71
g6778
sg64
(lp6785
g57
(g58
g59
NtRp6786
(dp6787
g62
(dp6788
g70
I1
ssg71
g6782
sg64
(lp6789
I00
asbasbasbag57
(g73
g59
NtRp6790
(dp6791
g62
(dp6792
sg71
g6762
sg64
(lp6793
g57
(g78
g59
NtRp6794
(dp6795
g62
(dp6796
sg71
g6790
sg64
(lp6797
g57
(g58
g59
NtRp6798
(dp6799
g62
(dp6800
g70
I1
ssg71
g6794
sg64
(lp6801
Nasbasbasbag57
(g73
g59
NtRp6802
(dp6803
g62
(dp6804
sg71
g6762
sg64
(lp6805
g57
(g78
g59
NtRp6806
(dp6807
g62
(dp6808
sg71
g6802
sg64
(lp6809
g57
(g58
g59
NtRp6810
(dp6811
g62
(dp6812
g70
I1
ssg71
g6806
sg64
(lp6813
(lp6814
(g6363
I00
g6361
tp6815
a(g6373
I00
g6371
tp6816
a(g6383
I00
g6381
tp6817
aasbasbasbasbasbasbasbag57
(g73
g59
NtRp6818
(dp6819
g62
(dp6820
sg71
g6463
sg64
(lp6821
g57
(g78
g59
NtRp6822
(dp6823
g62
(dp6824
sg71
g6818
sg64
(lp6825
g57
(g58
g59
NtRp6826
(dp6827
g62
(dp6828
g70
I2
ssg71
g6822
sg64
(lp6829
g57
(g66
g59
NtRp6830
(dp6831
g62
(dp6832
g70
I1
ssg71
Nsg64
(lp6833
g57
(g73
g59
NtRp6834
(dp6835
g62
(dp6836
sg71
g6830
sg64
(lp6837
g57
(g78
g59
NtRp6838
(dp6839
g62
(dp6840
sg71
g6834
sg64
(lp6841
g57
(g58
g59
NtRp6842
(dp6843
g62
(dp6844
g70
I1
ssg71
g6838
sg64
(lp6845
g6392
asbasbasbag57
(g73
g59
NtRp6846
(dp6847
g62
(dp6848
sg71
g6830
sg64
(lp6849
g57
(g78
g59
NtRp6850
(dp6851
g62
(dp6852
sg71
g6846
sg64
(lp6853
g57
(g58
g59
NtRp6854
(dp6855
g62
(dp6856
g70
I1
ssg71
g6850
sg64
(lp6857
I00
asbasbasbag57
(g73
g59
NtRp6858
(dp6859
g62
(dp6860
sg71
g6830
sg64
(lp6861
g57
(g78
g59
NtRp6862
(dp6863
g62
(dp6864
sg71
g6858
sg64
(lp6865
g57
(g58
g59
NtRp6866
(dp6867
g62
(dp6868
g70
I1
ssg71
g6862
sg64
(lp6869
Nasbasbasbag57
(g73
g59
NtRp6870
(dp6871
g62
(dp6872
sg71
g6830
sg64
(lp6873
g57
(g78
g59
NtRp6874
(dp6875
g62
(dp6876
sg71
g6870
sg64
(lp6877
g57
(g58
g59
NtRp6878
(dp6879
g62
(dp6880
g70
I1
ssg71
g6874
sg64
(lp6881
(lp6882
(g6406
I00
g6404
tp6883
a(g6415
I00
g6132
tp6884
a(g6424
I00
g6142
tp6885
aasbasbasbasbasbasbasbasbasbasbasbasbasbasbasbasbasbasbasbag57
(g73
g59
NtRp6886
(dp6887
g62
(dp6888
sg71
g5175
sg64
(lp6889
g57
(g78
g59
NtRp6890
(dp6891
g62
(dp6892
g82
g83
ssg71
g6886
sg64
(lp6893
S'meta'
p6894
asbag57
(g78
g59
NtRp6895
(dp6896
g62
(dp6897
g89
g90
ssg71
g6886
sg64
(lp6898
S':'
asbag57
(g78
g59
NtRp6899
(dp6900
g62
(dp6901
sg71
g6886
sg64
(lp6902
g57
(g58
g59
NtRp6903
(dp6904
g62
(dp6905
g70
I5
ssg71
g6899
sg64
(lp6906
g57
(g66
g59
NtRp6907
(dp6908
g62
(dp6909
g70
I4
ssg71
Nsg64
(lp6910
g57
(g73
g59
NtRp6911
(dp6912
g62
(dp6913
sg71
g6907
sg64
(lp6914
g57
(g78
g59
NtRp6915
(dp6916
g62
(dp6917
g82
g83
ssg71
g6911
sg64
(lp6918
S'author'
p6919
asbag57
(g78
g59
NtRp6920
(dp6921
g62
(dp6922
g89
g90
ssg71
g6911
sg64
(lp6923
S':'
asbag57
(g78
g59
NtRp6924
(dp6925
g62
(dp6926
sg71
g6911
sg64
(lp6927
g57
(g58
g59
NtRp6928
(dp6929
g62
(dp6930
g70
I4
ssg71
g6924
sg64
(lp6931
S'Your Name <you@example.com>'
p6932
asbasbasbag57
(g73
g59
NtRp6933
(dp6934
g62
(dp6935
sg71
g6907
sg64
(lp6936
g57
(g78
g59
NtRp6937
(dp6938
g62
(dp6939
g82
g83
ssg71
g6933
sg64
(lp6940
S'description'
p6941
asbag57
(g78
g59
NtRp6942
(dp6943
g62
(dp6944
g89
g90
ssg71
g6933
sg64
(lp6945
S':'
asbag57
(g78
g59
NtRp6946
(dp6947
g62
(dp6948
sg71
g6933
sg64
(lp6949
g57
(g58
g59
NtRp6950
(dp6951
g62
(dp6952
g70
I4
ssg71
g6946
sg64
(lp6953
S'a cool new app'
p6954
asbasbasbag57
(g73
g59
NtRp6955
(dp6956
g62
(dp6957
sg71
g6907
sg64
(lp6958
g57
(g78
g59
NtRp6959
(dp6960
g62
(dp6961
g82
g83
ssg71
g6955
sg64
(lp6962
S'generator'
p6963
asbag57
(g78
g59
NtRp6964
(dp6965
g62
(dp6966
g89
g90
ssg71
g6955
sg64
(lp6967
S':'
asbag57
(g78
g59
NtRp6968
(dp6969
g62
(dp6970
sg71
g6955
sg64
(lp6971
g57
(g58
g59
NtRp6972
(dp6973
g62
(dp6974
g70
I4
ssg71
g6968
sg64
(lp6975
S'Web2py Web Framework'
p6976
asbasbasbag57
(g73
g59
NtRp6977
(dp6978
g62
(dp6979
sg71
g6907
sg64
(lp6980
g57
(g78
g59
NtRp6981
(dp6982
g62
(dp6983
g82
g83
ssg71
g6977
sg64
(lp6984
S'keywords'
p6985
asbag57
(g78
g59
NtRp6986
(dp6987
g62
(dp6988
g89
g90
ssg71
g6977
sg64
(lp6989
S':'
asbag57
(g78
g59
NtRp6990
(dp6991
g62
(dp6992
sg71
g6977
sg64
(lp6993
g57
(g58
g59
NtRp6994
(dp6995
g62
(dp6996
g70
I4
ssg71
g6990
sg64
(lp6997
S'web2py, python, framework'
p6998
asbasbasbasbasbasbasbag57
(g73
g59
NtRp6999
(dp7000
g62
(dp7001
sg71
g5175
sg64
(lp7002
g57
(g78
g59
NtRp7003
(dp7004
g62
(dp7005
g82
g83
ssg71
g6999
sg64
(lp7006
S'models_to_run'
p7007
asbag57
(g78
g59
NtRp7008
(dp7009
g62
(dp7010
g89
g90
ssg71
g6999
sg64
(lp7011
S':'
asbag57
(g78
g59
NtRp7012
(dp7013
g62
(dp7014
sg71
g6999
sg64
(lp7015
g57
(g58
g59
NtRp7016
(dp7017
g62
(dp7018
g70
I5
ssg71
g7012
sg64
(lp7019
g57
(g66
g59
NtRp7020
(dp7021
g62
(dp7022
g70
I4
ssg71
Nsg64
(lp7023
g57
(g73
g59
NtRp7024
(dp7025
g62
(dp7026
sg71
g7020
sg64
(lp7027
g57
(g78
g59
NtRp7028
(dp7029
g62
(dp7030
sg71
g7024
sg64
(lp7031
g57
(g58
g59
NtRp7032
(dp7033
g62
(dp7034
g70
I4
ssg71
g7028
sg64
(lp7035
S'^\\w+\\.py$'
p7036
asbasbasbag57
(g73
g59
NtRp7037
(dp7038
g62
(dp7039
sg71
g7020
sg64
(lp7040
g57
(g78
g59
NtRp7041
(dp7042
g62
(dp7043
sg71
g7037
sg64
(lp7044
g57
(g58
g59
NtRp7045
(dp7046
g62
(dp7047
g70
I4
ssg71
g7041
sg64
(lp7048
S'^default/\\w+\\.py$'
p7049
asbasbasbag57
(g73
g59
NtRp7050
(dp7051
g62
(dp7052
sg71
g7020
sg64
(lp7053
g57
(g78
g59
NtRp7054
(dp7055
g62
(dp7056
sg71
g7050
sg64
(lp7057
g57
(g58
g59
NtRp7058
(dp7059
g62
(dp7060
g70
I4
ssg71
g7054
sg64
(lp7061
S'^default/index/\\w+\\.py$'
p7062
asbasbasbasbasbasbasbag57
(g73
g59
NtRp7063
(dp7064
g62
(dp7065
sg71
g5175
sg64
(lp7066
g57
(g78
g59
NtRp7067
(dp7068
g62
(dp7069
g82
g83
ssg71
g7063
sg64
(lp7070
S'postprocessing'
p7071
asbag57
(g78
g59
NtRp7072
(dp7073
g62
(dp7074
g89
g90
ssg71
g7063
sg64
(lp7075
S':'
asbag57
(g78
g59
NtRp7076
(dp7077
g62
(dp7078
sg71
g7063
sg64
(lp7079
g57
(g58
g59
NtRp7080
(dp7081
g62
(dp7082
g70
I5
ssg71
g7076
sg64
(lp7083
g57
(g66
g59
NtRp7084
(dp7085
g62
(dp7086
g70
I4
ssg71
Nsg64
(lp7087
sbasbasbasbag57
(g73
g59
NtRp7088
(dp7089
g62
(dp7090
sg71
g5175
sg64
(lp7091
g57
(g78
g59
NtRp7092
(dp7093
g62
(dp7094
g82
g83
ssg71
g7088
sg64
(lp7095
S'session_cookie_expires'
p7096
asbag57
(g78
g59
NtRp7097
(dp7098
g62
(dp7099
g89
g90
ssg71
g7088
sg64
(lp7100
S':'
asbag57
(g78
g59
NtRp7101
(dp7102
g62
(dp7103
sg71
g7088
sg64
(lp7104
g57
(g58
g59
NtRp7105
(dp7106
g62
(dp7107
g70
I5
ssg71
g7101
sg64
(lp7108
S'None'
p7109
asbasbasbag57
(g73
g59
NtRp7110
(dp7111
g62
(dp7112
sg71
g5175
sg64
(lp7113
g57
(g78
g59
NtRp7114
(dp7115
g62
(dp7116
g82
g83
ssg71
g7110
sg64
(lp7117
S'session_data_name'
p7118
asbag57
(g78
g59
NtRp7119
(dp7120
g62
(dp7121
g89
g90
ssg71
g7110
sg64
(lp7122
S':'
asbag57
(g78
g59
NtRp7123
(dp7124
g62
(dp7125
sg71
g7110
sg64
(lp7126
g57
(g58
g59
NtRp7127
(dp7128
g62
(dp7129
g70
I5
ssg71
g7123
sg64
(lp7130
S'session_data_reddit'
p7131
asbasbasbag57
(g73
g59
NtRp7132
(dp7133
g62
(dp7134
sg71
g5175
sg64
(lp7135
g57
(g78
g59
NtRp7136
(dp7137
g62
(dp7138
g82
g83
ssg71
g7132
sg64
(lp7139
S'session_file'
p7140
asbag57
(g78
g59
NtRp7141
(dp7142
g62
(dp7143
g89
g90
ssg71
g7132
sg64
(lp7144
S':'
asbag57
(g78
g59
NtRp7145
(dp7146
g62
(dp7147
sg71
g7132
sg64
(lp7148
g57
(g58
g59
NtRp7149
(dp7150
g62
(dp7151
g70
I5
ssg71
g7145
sg64
(lp7152
S"<open file '/home/pankaj/web2py/applications/reddit/sessions/127.0.0.1-24289f39-32a1-48fb-a367-22792fb8b813', mode 'rb+' at 0xae4bfee8>"
p7153
asbasbasbag57
(g73
g59
NtRp7154
(dp7155
g62
(dp7156
sg71
g5175
sg64
(lp7157
g57
(g78
g59
NtRp7158
(dp7159
g62
(dp7160
g82
g83
ssg71
g7154
sg64
(lp7161
S'session_filename'
p7162
asbag57
(g78
g59
NtRp7163
(dp7164
g62
(dp7165
g89
g90
ssg71
g7154
sg64
(lp7166
S':'
asbag57
(g78
g59
NtRp7167
(dp7168
g62
(dp7169
sg71
g7154
sg64
(lp7170
g57
(g58
g59
NtRp7171
(dp7172
g62
(dp7173
g70
I5
ssg71
g7167
sg64
(lp7174
S'/home/pankaj/web2py/applications/reddit/sessions/127.0.0.1-24289f39-32a1-48fb-a367-22792fb8b813'
p7175
asbasbasbag57
(g73
g59
NtRp7176
(dp7177
g62
(dp7178
sg71
g5175
sg64
(lp7179
g57
(g78
g59
NtRp7180
(dp7181
g62
(dp7182
g82
g83
ssg71
g7176
sg64
(lp7183
S'session_id'
p7184
asbag57
(g78
g59
NtRp7185
(dp7186
g62
(dp7187
g89
g90
ssg71
g7176
sg64
(lp7188
S':'
asbag57
(g78
g59
NtRp7189
(dp7190
g62
(dp7191
sg71
g7176
sg64
(lp7192
g57
(g58
g59
NtRp7193
(dp7194
g62
(dp7195
g70
I5
ssg71
g7189
sg64
(lp7196
g1777
asbasbasbag57
(g73
g59
NtRp7197
(dp7198
g62
(dp7199
sg71
g5175
sg64
(lp7200
g57
(g78
g59
NtRp7201
(dp7202
g62
(dp7203
g82
g83
ssg71
g7197
sg64
(lp7204
S'session_id_name'
p7205
asbag57
(g78
g59
NtRp7206
(dp7207
g62
(dp7208
g89
g90
ssg71
g7197
sg64
(lp7209
S':'
asbag57
(g78
g59
NtRp7210
(dp7211
g62
(dp7212
sg71
g7197
sg64
(lp7213
g57
(g58
g59
NtRp7214
(dp7215
g62
(dp7216
g70
I5
ssg71
g7210
sg64
(lp7217
g5232
asbasbasbag57
(g73
g59
NtRp7218
(dp7219
g62
(dp7220
sg71
g5175
sg64
(lp7221
g57
(g78
g59
NtRp7222
(dp7223
g62
(dp7224
g82
g83
ssg71
g7218
sg64
(lp7225
S'session_locked'
p7226
asbag57
(g78
g59
NtRp7227
(dp7228
g62
(dp7229
g89
g90
ssg71
g7218
sg64
(lp7230
S':'
asbag57
(g78
g59
NtRp7231
(dp7232
g62
(dp7233
sg71
g7218
sg64
(lp7234
g57
(g58
g59
NtRp7235
(dp7236
g62
(dp7237
g70
I5
ssg71
g7231
sg64
(lp7238
g3629
asbasbasbag57
(g73
g59
NtRp7239
(dp7240
g62
(dp7241
sg71
g5175
sg64
(lp7242
g57
(g78
g59
NtRp7243
(dp7244
g62
(dp7245
g82
g83
ssg71
g7239
sg64
(lp7246
S'session_new'
p7247
asbag57
(g78
g59
NtRp7248
(dp7249
g62
(dp7250
g89
g90
ssg71
g7239
sg64
(lp7251
S':'
asbag57
(g78
g59
NtRp7252
(dp7253
g62
(dp7254
sg71
g7239
sg64
(lp7255
g57
(g58
g59
NtRp7256
(dp7257
g62
(dp7258
g70
I5
ssg71
g7252
sg64
(lp7259
g100
asbasbasbag57
(g73
g59
NtRp7260
(dp7261
g62
(dp7262
sg71
g5175
sg64
(lp7263
g57
(g78
g59
NtRp7264
(dp7265
g62
(dp7266
g82
g83
ssg71
g7260
sg64
(lp7267
S'session_storage_type'
p7268
asbag57
(g78
g59
NtRp7269
(dp7270
g62
(dp7271
g89
g90
ssg71
g7260
sg64
(lp7272
S':'
asbag57
(g78
g59
NtRp7273
(dp7274
g62
(dp7275
sg71
g7260
sg64
(lp7276
g57
(g58
g59
NtRp7277
(dp7278
g62
(dp7279
g70
I5
ssg71
g7273
sg64
(lp7280
g5060
asbasbasbag57
(g73
g59
NtRp7281
(dp7282
g62
(dp7283
sg71
g5175
sg64
(lp7284
g57
(g78
g59
NtRp7285
(dp7286
g62
(dp7287
g82
g83
ssg71
g7281
sg64
(lp7288
S'status'
p7289
asbag57
(g78
g59
NtRp7290
(dp7291
g62
(dp7292
g89
g90
ssg71
g7281
sg64
(lp7293
S':'
asbag57
(g78
g59
NtRp7294
(dp7295
g62
(dp7296
sg71
g7281
sg64
(lp7297
g57
(g58
g59
NtRp7298
(dp7299
g62
(dp7300
g70
I5
ssg71
g7294
sg64
(lp7301
S'200'
p7302
asbasbasbag57
(g73
g59
NtRp7303
(dp7304
g62
(dp7305
sg71
g5175
sg64
(lp7306
g57
(g78
g59
NtRp7307
(dp7308
g62
(dp7309
g82
g83
ssg71
g7303
sg64
(lp7310
S'subtitle'
p7311
asbag57
(g78
g59
NtRp7312
(dp7313
g62
(dp7314
g89
g90
ssg71
g7303
sg64
(lp7315
S':'
asbag57
(g78
g59
NtRp7316
(dp7317
g62
(dp7318
sg71
g7303
sg64
(lp7319
g57
(g58
g59
NtRp7320
(dp7321
g62
(dp7322
g70
I5
ssg71
g7316
sg64
(lp7323
g5610
(S's\r\x00\x00\x00customize me!'
tRp7324
asbasbasbag57
(g73
g59
NtRp7325
(dp7326
g62
(dp7327
sg71
g5175
sg64
(lp7328
g57
(g78
g59
NtRp7329
(dp7330
g62
(dp7331
g82
g83
ssg71
g7325
sg64
(lp7332
S'title'
p7333
asbag57
(g78
g59
NtRp7334
(dp7335
g62
(dp7336
g89
g90
ssg71
g7325
sg64
(lp7337
S':'
asbag57
(g78
g59
NtRp7338
(dp7339
g62
(dp7340
sg71
g7325
sg64
(lp7341
g57
(g58
g59
NtRp7342
(dp7343
g62
(dp7344
g70
I5
ssg71
g7338
sg64
(lp7345
S'Reddit'
p7346
asbasbasbag57
(g73
g59
NtRp7347
(dp7348
g62
(dp7349
sg71
g5175
sg64
(lp7350
g57
(g78
g59
NtRp7351
(dp7352
g62
(dp7353
g82
g83
ssg71
g7347
sg64
(lp7354
S'view'
p7355
asbag57
(g78
g59
NtRp7356
(dp7357
g62
(dp7358
g89
g90
ssg71
g7347
sg64
(lp7359
S':'
asbag57
(g78
g59
NtRp7360
(dp7361
g62
(dp7362
sg71
g7347
sg64
(lp7363
g57
(g58
g59
NtRp7364
(dp7365
g62
(dp7366
g70
I5
ssg71
g7360
sg64
(lp7367
S'default/index.html'
p7368
asbasbasbasbasbsS'locals'
p7369
(dp7370
S'Service'
p7371
S"<class 'gluon.tools.Service'>"
p7372
sS'OBJECT'
p7373
S"<class 'gluon.html.OBJECT'>"
p7374
sS'SQLDB'
p7375
S"<class 'gluon.dal.DAL'>"
p7376
sg5113
S"<Storage {'_formkey[news/create]': '3202fc24-dbe...ssion_hash': '227dd353a95c2227522a481d1fc4bead'}>"
p7377
sS'LINK'
p7378
S"<class 'gluon.html.LINK'>"
p7379
sS'BR'
p7380
S"<class 'gluon.html.BR'>"
p7381
sS'local_import'
p7382
S'<function <lambda>>'
p7383
sS'OPTGROUP'
p7384
S"<class 'gluon.html.OPTGROUP'>"
p7385
sS'__package__'
p7386
S'None'
p7387
sS'PRE'
p7388
S"<class 'gluon.html.PRE'>"
p7389
sS'IS_INT_IN_RANGE'
p7390
S"<class 'gluon.validators.IS_INT_IN_RANGE'>"
p7391
sS'left_sidebar_enabled'
p7392
g100
sS'IS_LOWER'
p7393
S"<class 'gluon.validators.IS_LOWER'>"
p7394
sS'IS_STRONG'
p7395
S"<class 'gluon.validators.IS_STRONG'>"
p7396
sS'cache'
p7397
S'<gluon.cache.Cache object>'
p7398
sS'IS_IN_DB'
p7399
S"<class 'gluon.validators.IS_IN_DB'>"
p7400
sS'TAG'
p7401
S'<gluon.html.__TAG__ object>'
p7402
sS'SQLField'
p7403
S"<class 'gluon.dal.Field'>"
p7404
sS'mail'
p7405
S'<gluon.tools.Mail object>'
p7406
sS'BODY'
p7407
S"<class 'gluon.html.BODY'>"
p7408
sS'IS_DATE_IN_RANGE'
p7409
S"<class 'gluon.validators.IS_DATE_IN_RANGE'>"
p7410
sS'IFRAME'
p7411
S"<class 'gluon.html.IFRAME'>"
p7412
sS'URL'
p7413
S'<function URL>'
p7414
sS'__file__'
p7415
S"'/home/pankaj/web2py/applications/reddit/views/default/index.html'"
p7416
sS'db'
p7417
S'<DAL uri="sqlite://storage.sqlite">'
p7418
sS'auth'
p7419
S'<gluon.tools.Auth object>'
p7420
sS'P'
S"<class 'gluon.html.P'>"
p7421
sS'TFOOT'
p7422
S"<class 'gluon.html.TFOOT'>"
p7423
sS'XHTML'
p7424
S"<class 'gluon.html.XHTML'>"
p7425
sS'ON'
p7426
g3629
sS'OL'
p7427
S"<class 'gluon.html.OL'>"
p7428
sS'TEXTAREA'
p7429
S"<class 'gluon.html.TEXTAREA'>"
p7430
sS'MENU'
p7431
S"<class 'gluon.html.MENU'>"
p7432
sS'l'
S"<Row {'rating': 1000, 'head': 'highest rating ne...te': datetime.datetime(2013, 8, 29, 22, 24, 27)}>"
p7433
sS'cstore'
p7434
S'[<Row {\'usrid\': None, \'rating\': 100, \'val\': "that...me(2013, 8, 29, 2, 17, 1), \'newsid\': 4, \'id\': 4}>, <Row {\'usrid\': None, \'rating\': 100, \'val\': \'very...e(2013, 8, 29, 2, 14, 25), \'newsid\': 3, \'id\': 3}>, <Row {\'usrid\': None, \'rating\': 100, \'val\': \'oh n...e(2013, 8, 29, 2, 13, 45), \'newsid\': 2, \'id\': 2}>, <Row {\'usrid\': None, \'rating\': 100, \'val\': \'well...e(2013, 8, 29, 2, 12, 50), \'newsid\': 1, \'id\': 1}>]'
p7435
sS'IS_IMAGE'
p7436
S"<class 'gluon.validators.IS_IMAGE'>"
p7437
sS'EM'
p7438
S"<class 'gluon.html.EM'>"
p7439
sS'CODE'
p7440
S"<class 'gluon.html.CODE'>"
p7441
sS'HTTP'
p7442
S"<class 'gluon.http.HTTP'>"
p7443
sS'HR'
p7444
S"<class 'gluon.html.HR'>"
p7445
sS'IS_DATETIME'
p7446
S"<class 'gluon.validators.IS_DATETIME'>"
p7447
sS'STYLE'
p7448
S"<class 'gluon.html.STYLE'>"
p7449
sS'LABEL'
p7450
S"<class 'gluon.html.LABEL'>"
p7451
sS'CLEANUP'
p7452
S"<class 'gluon.validators.CLEANUP'>"
p7453
sS'plugins'
p7454
S'<gluon.tools.PluginManager object>'
p7455
sS'SELECT'
p7456
S"<class 'gluon.html.SELECT'>"
p7457
sS'use_janrain'
p7458
S'<function use_janrain>'
p7459
sS'CENTER'
p7460
S"<class 'gluon.html.CENTER'>"
p7461
sS'prettydate'
p7462
S'<function prettydate>'
p7463
sS'Crud'
p7464
S"<class 'gluon.tools.Crud'>"
p7465
sS'Auth'
p7466
S"<class 'gluon.tools.Auth'>"
p7467
sS'DEVELOPMENT_MENU'
p7468
g3629
sS'__builtins__'
p7469
S"{'ArithmeticError': <type 'exceptions.ArithmeticError'>, 'AssertionError': <type 'exceptions.AssertionError'>, 'AttributeError': <type 'exceptions.AttributeError'>, 'BaseException': <type 'exceptions.BaseException'>, 'BufferError': <type 'exceptions.BufferError'>, 'BytesWarning': <type 'exceptions.BytesWarning'>, 'DeprecationWarning': <type 'exceptions.DeprecationWarning'>, 'EOFError': <type 'exceptions.EOFError'>, 'Ellipsis': Ellipsis, 'EnvironmentError': <type 'exceptions.EnvironmentError'>, ...}"
p7470
sS'HTML'
p7471
S"<class 'gluon.html.HTML'>"
p7472
sS'SQLFORM'
p7473
S"<class 'gluon.sqlhtml.SQLFORM'>"
p7474
sS'LOAD'
p7475
S'<function LOAD>'
p7476
sS'redirect'
p7477
S'<function redirect>'
p7478
sS'FIELDSET'
p7479
S"<class 'gluon.html.FIELDSET'>"
p7480
sS'IS_EQUAL_TO'
p7481
S"<class 'gluon.validators.IS_EQUAL_TO'>"
p7482
sS'embed64'
p7483
S'<function embed64>'
p7484
sS'IS_LIST_OF'
p7485
S"<class 'gluon.validators.IS_LIST_OF'>"
p7486
sS'INPUT'
p7487
S"<class 'gluon.html.INPUT'>"
p7488
sS'EMBED'
p7489
S"<class 'gluon.html.EMBED'>"
p7490
sS'_'
S'<function _>'
p7491
sS'H2'
p7492
S"<class 'gluon.html.H2'>"
p7493
sS'H3'
p7494
S"<class 'gluon.html.H3'>"
p7495
sS'BUTTON'
p7496
S"<class 'gluon.html.BUTTON'>"
p7497
sS'H1'
p7498
S"<class 'gluon.html.H1'>"
p7499
sS'H6'
p7500
S"<class 'gluon.html.H6'>"
p7501
sS'H4'
p7502
S"<class 'gluon.html.H4'>"
p7503
sS'H5'
p7504
S"<class 'gluon.html.H5'>"
p7505
sS'UL'
p7506
S"<class 'gluon.html.UL'>"
p7507
sS'IS_UPPER'
p7508
S"<class 'gluon.validators.IS_UPPER'>"
p7509
sS'xmlescape'
p7510
S'<function xmlescape>'
p7511
sS'IS_TIME'
p7512
S"<class 'gluon.validators.IS_TIME'>"
p7513
sS'OPTION'
p7514
S"<class 'gluon.html.OPTION'>"
p7515
sS'TITLE'
p7516
S"<class 'gluon.html.TITLE'>"
p7517
sS'CRYPT'
p7518
S"<class 'gluon.validators.CRYPT'>"
p7519
sS'IS_EMPTY_OR'
p7520
S"<class 'gluon.validators.IS_EMPTY_OR'>"
p7521
sS'MARKMIN'
p7522
S"<class 'gluon.html.MARKMIN'>"
p7523
sS'__name__'
p7524
S"'__restricted__'"
p7525
sS'STRONG'
p7526
S"<class 'gluon.html.STRONG'>"
p7527
sS'COL'
p7528
S"<class 'gluon.html.COL'>"
p7529
sS'service'
p7530
S'<gluon.tools.Service object>'
p7531
sS'SCRIPT'
p7532
S"<class 'gluon.html.SCRIPT'>"
p7533
sS'is_mobile'
p7534
g100
sS'TABLE'
p7535
S"<class 'gluon.html.TABLE'>"
p7536
sS'IS_IPV4'
p7537
S"<class 'gluon.validators.IS_IPV4'>"
p7538
sS'IS_LENGTH'
p7539
S"<class 'gluon.validators.IS_LENGTH'>"
p7540
sS'XML'
p7541
S"<class 'gluon.html.XML'>"
p7542
sS'B'
S"<class 'gluon.html.B'>"
p7543
sS'IMG'
p7544
S"<class 'gluon.html.IMG'>"
p7545
sS'SQLTABLE'
p7546
S"<class 'gluon.sqlhtml.SQLTABLE'>"
p7547
sS'IS_MATCH'
p7548
S"<class 'gluon.validators.IS_MATCH'>"
p7549
sS'IS_ALPHANUMERIC'
p7550
S"<class 'gluon.validators.IS_ALPHANUMERIC'>"
p7551
sS'nstore'
p7552
S"[<Row {'rating': 1000, 'head': 'highest rating ne...te': datetime.datetime(2013, 8, 29, 22, 24, 27)}>, <Row {'rating': 100, 'head': 'big B getting old'...ate': datetime.datetime(2013, 8, 29, 2, 10, 51)}>, <Row {'rating': 100, 'head': 'event organized', ...date': datetime.datetime(2013, 8, 29, 2, 9, 58)}>, <Row {'rating': 100, 'head': 'cbse board this ti...date': datetime.datetime(2013, 8, 29, 2, 9, 25)}>, <Row {'rating': 100, 'head': 'india wins gold me..., 'ndate': datetime.datetime(2013, 8, 29, 2, 7)}>, <Row {'rating': 20, 'head': 'test news', 'usrnam...ate': datetime.datetime(2013, 8, 29, 3, 56, 24)}>]"
p7553
sS'SPAN'
p7554
S"<class 'gluon.html.SPAN'>"
p7555
sS'IS_SLUG'
p7556
S"<class 'gluon.validators.IS_SLUG'>"
p7557
sS'BEAUTIFY'
p7558
S"<class 'gluon.html.BEAUTIFY'>"
p7559
sS'META'
p7560
S"<class 'gluon.html.META'>"
p7561
sS'IS_DATE'
p7562
S"<class 'gluon.validators.IS_DATE'>"
p7563
sS'IS_EMAIL'
p7564
S"<class 'gluon.validators.IS_EMAIL'>"
p7565
sS'IS_NOT_EMPTY'
p7566
S"<class 'gluon.validators.IS_NOT_EMPTY'>"
p7567
sS'm'
S"<Row {'usrid': None, 'rating': 100, 'val': 'well...e(2013, 8, 29, 2, 12, 50), 'newsid': 1, 'id': 1}>"
p7568
sS'TBODY'
p7569
S"<class 'gluon.html.TBODY'>"
p7570
sS'CAT'
p7571
S"<class 'gluon.html.CAT'>"
p7572
sS'Field'
p7573
S"<class 'gluon.dal.Field'>"
p7574
sS'middle_columns'
p7575
S"'span12'"
p7576
sS'DIV'
p7577
S"<class 'gluon.html.DIV'>"
p7578
sS'LEGEND'
p7579
S"<class 'gluon.html.LEGEND'>"
p7580
sS'COLGROUP'
p7581
S"<class 'gluon.html.COLGROUP'>"
p7582
sS'DAL'
p7583
S"<class 'gluon.dal.DAL'>"
p7584
sS'TT'
p7585
S"<class 'gluon.html.TT'>"
p7586
sS'TR'
p7587
S"<class 'gluon.html.TR'>"
p7588
sS'LI'
p7589
S"<class 'gluon.html.LI'>"
p7590
sS'right_sidebar_enabled'
p7591
g100
sS'TH'
p7592
S"<class 'gluon.html.TH'>"
p7593
sS'TD'
p7594
S"<class 'gluon.html.TD'>"
p7595
sS'PluginManager'
p7596
S"<class 'gluon.tools.PluginManager'>"
p7597
sS'IS_URL'
p7598
S"<class 'gluon.validators.IS_URL'>"
p7599
sS'A'
S"<class 'gluon.html.A'>"
p7600
sS'HEAD'
p7601
S"<class 'gluon.html.HEAD'>"
p7602
sS'IS_DATETIME_IN_RANGE'
p7603
S"<class 'gluon.validators.IS_DATETIME_IN_RANGE'>"
p7604
sS'FORM'
p7605
S"<class 'gluon.html.FORM'>"
p7606
sS'I'
S"<class 'gluon.html.I'>"
p7607
sS'crud'
p7608
S'<gluon.tools.Crud object>'
p7609
sS'IS_NOT_IN_DB'
p7610
S"<class 'gluon.validators.IS_NOT_IN_DB'>"
p7611
sg5170
S"<Storage {'body': <cStringIO.StringO object at 0...da> at 0x9f00294>, 'view': 'default/index.html'}>"
p7612
sS'THEAD'
p7613
S"<class 'gluon.html.THEAD'>"
p7614
sS'IS_NULL_OR'
p7615
S"<class 'gluon.validators.IS_EMPTY_OR'>"
p7616
sS'IS_FLOAT_IN_RANGE'
p7617
S"<class 'gluon.validators.IS_FLOAT_IN_RANGE'>"
p7618
sg56
S"<Storage {'function': 'index', 'body': <cStringI...pplications/reddit/', 'post_vars': <Storage {}>}>"
p7619
sS'IS_EXPR'
p7620
S"<class 'gluon.validators.IS_EXPR'>"
p7621
sS'T'
S'<gluon.languages.translator object>'
p7622
sS'IS_IN_SET'
p7623
S"<class 'gluon.validators.IS_IN_SET'>"
p7624
sS'IS_UPLOAD_FILENAME'
p7625
S"<class 'gluon.validators.IS_UPLOAD_FILENAME'>"
p7626
sS'IS_DECIMAL_IN_RANGE'
p7627
S"<class 'gluon.validators.IS_DECIMAL_IN_RANGE'>"
p7628
sssS'traceback'
p7629
S'Traceback (most recent call last):\n  File "/home/pankaj/web2py/gluon/restricted.py", line 212, in restricted\n    exec ccode in environment\n  File "/home/pankaj/web2py/applications/reddit/views/default/index.html", line 97, in <module>\nAttributeError: \'NoneType\' object has no attribute \'id\'\n'
p7630
s.