(dp1
S'output'
p2
S'<type \'exceptions.SyntaxError\'> invalid table/column name "state" is a "ALL" reserved SQL keyword'
p3
sS'layer'
p4
S'/home/pankaj/web2py/applications/reddit/models/db.py'
p5
sS'code'
p6
S"# -*- coding: utf-8 -*-\n\n#########################################################################\n## This scaffolding model makes your app work on Google App Engine too\n## File is released under public domain and you can use without limitations\n#########################################################################\n\n## if SSL/HTTPS is properly configured and you want all HTTP requests to\n## be redirected to HTTPS, uncomment the line below:\n# request.requires_https()\n\nif not request.env.web2py_runtime_gae:\n    ## if NOT running on Google App Engine use SQLite or other DB\n    db = DAL('sqlite://storage.sqlite',pool_size=1,check_reserved=['all'])\nelse:\n    ## connect to Google BigTable (optional 'google:datastore://namespace')\n    db = DAL('google:datastore')\n    ## store sessions and tickets there\n    session.connect(request, response, db=db)\n    ## or store session in Memcache, Redis, etc.\n    ## from gluon.contrib.memdb import MEMDB\n    ## from google.appengine.api.memcache import Client\n    ## session.connect(request, response, db = MEMDB(Client()))\n\n## by default give a view/generic.extension to all actions from localhost\n## none otherwise. a pattern can be 'controller/function.extension'\nresponse.generic_patterns = ['*'] if request.is_local else []\n## (optional) optimize handling of static files\n# response.optimize_css = 'concat,minify,inline'\n# response.optimize_js = 'concat,minify,inline'\n\n#########################################################################\n## Here is sample code if you need for\n## - email capabilities\n## - authentication (registration, login, logout, ... )\n## - authorization (role based authorization)\n## - services (xml, csv, json, xmlrpc, jsonrpc, amf, rss)\n## - old style crud actions\n## (more options discussed in gluon/tools.py)\n#########################################################################\n\nfrom gluon.tools import Auth, Crud, Service, PluginManager, prettydate\nauth = Auth(db)\ncrud, service, plugins = Crud(db), Service(), PluginManager()\n\n## create all tables needed by auth if not custom tables\nauth.define_tables(username=False, signature=False)\n\n## configure email\nmail = auth.settings.mailer\nmail.settings.server = 'logging' or 'smtp.gmail.com:587'\nmail.settings.sender = 'you@gmail.com'\nmail.settings.login = 'username:password'\n\n## configure auth policy\nauth.settings.registration_requires_verification = False\nauth.settings.registration_requires_approval = False\nauth.settings.reset_password_requires_verification = True\n\n## if you need to use OpenID, Facebook, MySpace, Twitter, Linkedin, etc.\n## register with janrain.com, write your domain:api_key in private/janrain.key\nfrom gluon.contrib.login_methods.rpx_account import use_janrain\nuse_janrain(auth, filename='private/janrain.key')\n\n#########################################################################\n## Define your tables below (or better in another model file) for example\n##\n## >>> db.define_table('mytable',Field('myfield','string'))\n##\n## Fields can be 'string','text','password','integer','double','boolean'\n##       'date','time','datetime','blob','upload', 'reference TABLENAME'\n## There is an implicit 'id integer autoincrement' field\n## Consult manual for more options, validators, etc.\n##\n## More API examples for controllers:\n##\n## >>> db.mytable.insert(myfield='value')\n## >>> rows=db(db.mytable.myfield=='value').select(db.mytable.ALL)\n## >>> for row in rows: print row.id, row.myfield\n#########################################################################\n\ndb.define_table('category',\n\t\tdb.Field('name','string',requires=IS_NOT_EMPTY(),label='Category'))\n\ndb.define_table('news',\n\t\tdb.Field('head','string',requires=IS_NOT_EMPTY(),label='Heading'),\n\t\tdb.Field('nurl','string',requires=IS_URL(),label='Link'),\n\t\tdb.Field('cat','string',db.category,requires=IS_IN_DB(db,'category.name'),label='Category'),\n\t\tdb.Field('usrname','string',writable=False,requires=IS_NOT_EMPTY(),label='Username'),\n\t\tdb.Field('ndate','datetime',default=request.now,writable=False,label='Date'),\n\t\tdb.Field('rating','integer',default=100,label='Rating')\n\t\t)\n\ndb.define_table('comments',\n\t\tdb.Field('val','text',requires=IS_NOT_EMPTY()),\n\t\tdb.Field('newsid','integer',requires=IS_NOT_EMPTY()),\n\t\tdb.Field('usrid','integer',writable=False,requires=IS_NOT_EMPTY(),label='User Id'),\n\t\tdb.Field('cdate','datetime',default=request.now,writable=False,label='Date'),\n\t\tdb.Field('rating','integer',default=100,label='Rating')\n\t\t)\ndb.define_table('state',\n\t\tdb.Field('newsid','integer',requires=IS_NOT_EMPTY()),\n\t\tdb.Field('usrid','integer',writable=False,requires=IS_NOT_EMPTY(),label='User Id'),\n\t\tdb.Field('flag','integer',requires=IS_NOT_EMPTY(),default=-1))\n\n\n\n\n## after defining tables, uncomment below to enable auditing\n# auth.enable_record_versioning(db)\n"
p7
sS'snapshot'
p8
(dp9
S'exception'
p10
(dp11
S'__getslice__'
p12
S"<method-wrapper '__getslice__' of exceptions.SyntaxError object>"
p13
sS'text'
p14
S'None'
p15
sS'__str__'
p16
S"<method-wrapper '__str__' of exceptions.SyntaxError object>"
p17
sS'__reduce__'
p18
S'<built-in method __reduce__ of exceptions.SyntaxError object>'
p19
sS'__dict__'
p20
S'{}'
p21
sS'__sizeof__'
p22
S'<built-in method __sizeof__ of exceptions.SyntaxError object>'
p23
sS'__init__'
p24
S"<method-wrapper '__init__' of exceptions.SyntaxError object>"
p25
sS'__setattr__'
p26
S"<method-wrapper '__setattr__' of exceptions.SyntaxError object>"
p27
sS'__reduce_ex__'
p28
S'<built-in method __reduce_ex__ of exceptions.SyntaxError object>'
p29
sS'__new__'
p30
S'<built-in method __new__ of type object>'
p31
sS'__format__'
p32
S'<built-in method __format__ of exceptions.SyntaxError object>'
p33
sS'__class__'
p34
S"<type 'exceptions.SyntaxError'>"
p35
sS'filename'
p36
S'None'
p37
sS'lineno'
p38
S'None'
p39
sS'msg'
p40
S'\'invalid table/column name "state" is a "ALL" reserved SQL keyword\''
p41
sS'__doc__'
p42
S"'Invalid syntax.'"
p43
sS'__getitem__'
p44
S"<method-wrapper '__getitem__' of exceptions.SyntaxError object>"
p45
sS'__setstate__'
p46
S'<built-in method __setstate__ of exceptions.SyntaxError object>'
p47
sS'__getattribute__'
p48
S"<method-wrapper '__getattribute__' of exceptions.SyntaxError object>"
p49
sS'print_file_and_line'
p50
S'None'
p51
sS'args'
p52
S'(\'invalid table/column name "state" is a "ALL" reserved SQL keyword\',)'
p53
sS'__subclasshook__'
p54
S'<built-in method __subclasshook__ of type object>'
p55
sS'offset'
p56
S'None'
p57
sS'__unicode__'
p58
S'<built-in method __unicode__ of exceptions.SyntaxError object>'
p59
sS'__delattr__'
p60
S"<method-wrapper '__delattr__' of exceptions.SyntaxError object>"
p61
sS'__repr__'
p62
S"<method-wrapper '__repr__' of exceptions.SyntaxError object>"
p63
sS'__hash__'
p64
S"<method-wrapper '__hash__' of exceptions.SyntaxError object>"
p65
ssS'evalue'
p66
S'invalid table/column name "state" is a "ALL" reserved SQL keyword'
p67
sS'request'
p68
ccopy_reg
_reconstructor
p69
(cgluon.html
BEAUTIFY
p70
c__builtin__
object
p71
NtRp72
(dp73
S'attributes'
p74
(dp75
sS'components'
p76
(lp77
g69
(cgluon.html
TABLE
p78
g71
NtRp79
(dp80
g74
(dp81
S'level'
p82
I5
ssS'parent'
p83
Nsg76
(lp84
g69
(cgluon.html
TR
p85
g71
NtRp86
(dp87
g74
(dp88
sg83
g79
sg76
(lp89
g69
(cgluon.html
TD
p90
g71
NtRp91
(dp92
g74
(dp93
S'_style'
p94
S'font-weight:bold;vertical-align:top'
p95
ssg83
g86
sg76
(lp96
S'ajax'
p97
asbag69
(g90
g71
NtRp98
(dp99
g74
(dp100
S'_valign'
p101
S'top'
p102
ssg83
g86
sg76
(lp103
S':'
asbag69
(g90
g71
NtRp104
(dp105
g74
(dp106
sg83
g86
sg76
(lp107
g69
(g70
g71
NtRp108
(dp109
g74
(dp110
g82
I5
ssg83
g104
sg76
(lp111
S'False'
p112
asbasbasbag69
(g85
g71
NtRp113
(dp114
g74
(dp115
sg83
g79
sg76
(lp116
g69
(g90
g71
NtRp117
(dp118
g74
(dp119
g94
g95
ssg83
g113
sg76
(lp120
S'application'
p121
asbag69
(g90
g71
NtRp122
(dp123
g74
(dp124
g101
g102
ssg83
g113
sg76
(lp125
S':'
asbag69
(g90
g71
NtRp126
(dp127
g74
(dp128
sg83
g113
sg76
(lp129
g69
(g70
g71
NtRp130
(dp131
g74
(dp132
g82
I5
ssg83
g126
sg76
(lp133
S'reddit'
p134
asbasbasbag69
(g85
g71
NtRp135
(dp136
g74
(dp137
sg83
g79
sg76
(lp138
g69
(g90
g71
NtRp139
(dp140
g74
(dp141
g94
g95
ssg83
g135
sg76
(lp142
g52
asbag69
(g90
g71
NtRp143
(dp144
g74
(dp145
g101
g102
ssg83
g135
sg76
(lp146
S':'
asbag69
(g90
g71
NtRp147
(dp148
g74
(dp149
sg83
g135
sg76
(lp150
g69
(g70
g71
NtRp151
(dp152
g74
(dp153
g82
I5
ssg83
g147
sg76
(lp154
g69
(g78
g71
NtRp155
(dp156
g74
(dp157
g82
I4
ssg83
Nsg76
(lp158
sbasbasbasbag69
(g85
g71
NtRp159
(dp160
g74
(dp161
sg83
g79
sg76
(lp162
g69
(g90
g71
NtRp163
(dp164
g74
(dp165
g94
g95
ssg83
g159
sg76
(lp166
S'body'
p167
asbag69
(g90
g71
NtRp168
(dp169
g74
(dp170
g101
g102
ssg83
g159
sg76
(lp171
S':'
asbag69
(g90
g71
NtRp172
(dp173
g74
(dp174
sg83
g159
sg76
(lp175
g69
(g70
g71
NtRp176
(dp177
g74
(dp178
g82
I5
ssg83
g172
sg76
(lp179
S'<cStringIO.StringO object at 0xae1849c0>'
p180
asbasbasbag69
(g85
g71
NtRp181
(dp182
g74
(dp183
sg83
g79
sg76
(lp184
g69
(g90
g71
NtRp185
(dp186
g74
(dp187
g94
g95
ssg83
g181
sg76
(lp188
S'cid'
p189
asbag69
(g90
g71
NtRp190
(dp191
g74
(dp192
g101
g102
ssg83
g181
sg76
(lp193
S':'
asbag69
(g90
g71
NtRp194
(dp195
g74
(dp196
sg83
g181
sg76
(lp197
g69
(g70
g71
NtRp198
(dp199
g74
(dp200
g82
I5
ssg83
g194
sg76
(lp201
S'None'
p202
asbasbasbag69
(g85
g71
NtRp203
(dp204
g74
(dp205
sg83
g79
sg76
(lp206
g69
(g90
g71
NtRp207
(dp208
g74
(dp209
g94
g95
ssg83
g203
sg76
(lp210
S'client'
p211
asbag69
(g90
g71
NtRp212
(dp213
g74
(dp214
g101
g102
ssg83
g203
sg76
(lp215
S':'
asbag69
(g90
g71
NtRp216
(dp217
g74
(dp218
sg83
g203
sg76
(lp219
g69
(g70
g71
NtRp220
(dp221
g74
(dp222
g82
I5
ssg83
g216
sg76
(lp223
S'127.0.0.1'
p224
asbasbasbag69
(g85
g71
NtRp225
(dp226
g74
(dp227
sg83
g79
sg76
(lp228
g69
(g90
g71
NtRp229
(dp230
g74
(dp231
g94
g95
ssg83
g225
sg76
(lp232
S'controller'
p233
asbag69
(g90
g71
NtRp234
(dp235
g74
(dp236
g101
g102
ssg83
g225
sg76
(lp237
S':'
asbag69
(g90
g71
NtRp238
(dp239
g74
(dp240
sg83
g225
sg76
(lp241
g69
(g70
g71
NtRp242
(dp243
g74
(dp244
g82
I5
ssg83
g238
sg76
(lp245
S'default'
p246
asbasbasbag69
(g85
g71
NtRp247
(dp248
g74
(dp249
sg83
g79
sg76
(lp250
g69
(g90
g71
NtRp251
(dp252
g74
(dp253
g94
g95
ssg83
g247
sg76
(lp254
S'cookies'
p255
asbag69
(g90
g71
NtRp256
(dp257
g74
(dp258
g101
g102
ssg83
g247
sg76
(lp259
S':'
asbag69
(g90
g71
NtRp260
(dp261
g74
(dp262
sg83
g247
sg76
(lp263
g69
(g70
g71
NtRp264
(dp265
g74
(dp266
g82
I5
ssg83
g260
sg76
(lp267
g69
(g78
g71
NtRp268
(dp269
g74
(dp270
g82
I4
ssg83
Nsg76
(lp271
g69
(g85
g71
NtRp272
(dp273
g74
(dp274
sg83
g268
sg76
(lp275
g69
(g90
g71
NtRp276
(dp277
g74
(dp278
g94
g95
ssg83
g272
sg76
(lp279
S'session_id_20120156_assignment_1'
p280
asbag69
(g90
g71
NtRp281
(dp282
g74
(dp283
g101
g102
ssg83
g272
sg76
(lp284
S':'
asbag69
(g90
g71
NtRp285
(dp286
g74
(dp287
sg83
g272
sg76
(lp288
g69
(g70
g71
NtRp289
(dp290
g74
(dp291
g82
I4
ssg83
g285
sg76
(lp292
S'127.0.0.1-6cad324c-0572-4be8-8f41-6fcaca863c93'
p293
ag69
(g78
g71
NtRp294
(dp295
g74
(dp296
g82
I3
ssg83
Nsg76
(lp297
g69
(g85
g71
NtRp298
(dp299
g74
(dp300
sg83
g294
sg76
(lp301
g69
(g90
g71
NtRp302
(dp303
g74
(dp304
g94
g95
ssg83
g298
sg76
(lp305
S'comment'
p306
asbag69
(g90
g71
NtRp307
(dp308
g74
(dp309
g101
g102
ssg83
g298
sg76
(lp310
S':'
asbag69
(g90
g71
NtRp311
(dp312
g74
(dp313
sg83
g298
sg76
(lp314
g69
(g70
g71
NtRp315
(dp316
g74
(dp317
g82
I3
ssg83
g311
sg76
(lp318
S''
asbasbasbag69
(g85
g71
NtRp319
(dp320
g74
(dp321
sg83
g294
sg76
(lp322
g69
(g90
g71
NtRp323
(dp324
g74
(dp325
g94
g95
ssg83
g319
sg76
(lp326
S'domain'
p327
asbag69
(g90
g71
NtRp328
(dp329
g74
(dp330
g101
g102
ssg83
g319
sg76
(lp331
S':'
asbag69
(g90
g71
NtRp332
(dp333
g74
(dp334
sg83
g319
sg76
(lp335
g69
(g70
g71
NtRp336
(dp337
g74
(dp338
g82
I3
ssg83
g332
sg76
(lp339
S''
asbasbasbag69
(g85
g71
NtRp340
(dp341
g74
(dp342
sg83
g294
sg76
(lp343
g69
(g90
g71
NtRp344
(dp345
g74
(dp346
g94
g95
ssg83
g340
sg76
(lp347
S'expires'
p348
asbag69
(g90
g71
NtRp349
(dp350
g74
(dp351
g101
g102
ssg83
g340
sg76
(lp352
S':'
asbag69
(g90
g71
NtRp353
(dp354
g74
(dp355
sg83
g340
sg76
(lp356
g69
(g70
g71
NtRp357
(dp358
g74
(dp359
g82
I3
ssg83
g353
sg76
(lp360
S''
asbasbasbag69
(g85
g71
NtRp361
(dp362
g74
(dp363
sg83
g294
sg76
(lp364
g69
(g90
g71
NtRp365
(dp366
g74
(dp367
g94
g95
ssg83
g361
sg76
(lp368
S'httponly'
p369
asbag69
(g90
g71
NtRp370
(dp371
g74
(dp372
g101
g102
ssg83
g361
sg76
(lp373
S':'
asbag69
(g90
g71
NtRp374
(dp375
g74
(dp376
sg83
g361
sg76
(lp377
g69
(g70
g71
NtRp378
(dp379
g74
(dp380
g82
I3
ssg83
g374
sg76
(lp381
S''
asbasbasbag69
(g85
g71
NtRp382
(dp383
g74
(dp384
sg83
g294
sg76
(lp385
g69
(g90
g71
NtRp386
(dp387
g74
(dp388
g94
g95
ssg83
g382
sg76
(lp389
S'max-age'
p390
asbag69
(g90
g71
NtRp391
(dp392
g74
(dp393
g101
g102
ssg83
g382
sg76
(lp394
S':'
asbag69
(g90
g71
NtRp395
(dp396
g74
(dp397
sg83
g382
sg76
(lp398
g69
(g70
g71
NtRp399
(dp400
g74
(dp401
g82
I3
ssg83
g395
sg76
(lp402
S''
asbasbasbag69
(g85
g71
NtRp403
(dp404
g74
(dp405
sg83
g294
sg76
(lp406
g69
(g90
g71
NtRp407
(dp408
g74
(dp409
g94
g95
ssg83
g403
sg76
(lp410
S'path'
p411
asbag69
(g90
g71
NtRp412
(dp413
g74
(dp414
g101
g102
ssg83
g403
sg76
(lp415
S':'
asbag69
(g90
g71
NtRp416
(dp417
g74
(dp418
sg83
g403
sg76
(lp419
g69
(g70
g71
NtRp420
(dp421
g74
(dp422
g82
I3
ssg83
g416
sg76
(lp423
S''
asbasbasbag69
(g85
g71
NtRp424
(dp425
g74
(dp426
sg83
g294
sg76
(lp427
g69
(g90
g71
NtRp428
(dp429
g74
(dp430
g94
g95
ssg83
g424
sg76
(lp431
S'secure'
p432
asbag69
(g90
g71
NtRp433
(dp434
g74
(dp435
g101
g102
ssg83
g424
sg76
(lp436
S':'
asbag69
(g90
g71
NtRp437
(dp438
g74
(dp439
sg83
g424
sg76
(lp440
g69
(g70
g71
NtRp441
(dp442
g74
(dp443
g82
I3
ssg83
g437
sg76
(lp444
S''
asbasbasbag69
(g85
g71
NtRp445
(dp446
g74
(dp447
sg83
g294
sg76
(lp448
g69
(g90
g71
NtRp449
(dp450
g74
(dp451
g94
g95
ssg83
g445
sg76
(lp452
S'version'
p453
asbag69
(g90
g71
NtRp454
(dp455
g74
(dp456
g101
g102
ssg83
g445
sg76
(lp457
S':'
asbag69
(g90
g71
NtRp458
(dp459
g74
(dp460
sg83
g445
sg76
(lp461
g69
(g70
g71
NtRp462
(dp463
g74
(dp464
g82
I3
ssg83
g458
sg76
(lp465
S''
asbasbasbasbasbasbasbag69
(g85
g71
NtRp466
(dp467
g74
(dp468
sg83
g268
sg76
(lp469
g69
(g90
g71
NtRp470
(dp471
g74
(dp472
g94
g95
ssg83
g466
sg76
(lp473
S'session_id_admin'
p474
asbag69
(g90
g71
NtRp475
(dp476
g74
(dp477
g101
g102
ssg83
g466
sg76
(lp478
S':'
asbag69
(g90
g71
NtRp479
(dp480
g74
(dp481
sg83
g466
sg76
(lp482
g69
(g70
g71
NtRp483
(dp484
g74
(dp485
g82
I4
ssg83
g479
sg76
(lp486
S'127.0.0.1-eea59e1b-9257-4df1-8c44-da77bf9e4ec2'
p487
ag69
(g78
g71
NtRp488
(dp489
g74
(dp490
g82
I3
ssg83
Nsg76
(lp491
g69
(g85
g71
NtRp492
(dp493
g74
(dp494
sg83
g488
sg76
(lp495
g69
(g90
g71
NtRp496
(dp497
g74
(dp498
g94
g95
ssg83
g492
sg76
(lp499
g306
asbag69
(g90
g71
NtRp500
(dp501
g74
(dp502
g101
g102
ssg83
g492
sg76
(lp503
S':'
asbag69
(g90
g71
NtRp504
(dp505
g74
(dp506
sg83
g492
sg76
(lp507
g69
(g70
g71
NtRp508
(dp509
g74
(dp510
g82
I3
ssg83
g504
sg76
(lp511
S''
asbasbasbag69
(g85
g71
NtRp512
(dp513
g74
(dp514
sg83
g488
sg76
(lp515
g69
(g90
g71
NtRp516
(dp517
g74
(dp518
g94
g95
ssg83
g512
sg76
(lp519
g327
asbag69
(g90
g71
NtRp520
(dp521
g74
(dp522
g101
g102
ssg83
g512
sg76
(lp523
S':'
asbag69
(g90
g71
NtRp524
(dp525
g74
(dp526
sg83
g512
sg76
(lp527
g69
(g70
g71
NtRp528
(dp529
g74
(dp530
g82
I3
ssg83
g524
sg76
(lp531
S''
asbasbasbag69
(g85
g71
NtRp532
(dp533
g74
(dp534
sg83
g488
sg76
(lp535
g69
(g90
g71
NtRp536
(dp537
g74
(dp538
g94
g95
ssg83
g532
sg76
(lp539
g348
asbag69
(g90
g71
NtRp540
(dp541
g74
(dp542
g101
g102
ssg83
g532
sg76
(lp543
S':'
asbag69
(g90
g71
NtRp544
(dp545
g74
(dp546
sg83
g532
sg76
(lp547
g69
(g70
g71
NtRp548
(dp549
g74
(dp550
g82
I3
ssg83
g544
sg76
(lp551
S''
asbasbasbag69
(g85
g71
NtRp552
(dp553
g74
(dp554
sg83
g488
sg76
(lp555
g69
(g90
g71
NtRp556
(dp557
g74
(dp558
g94
g95
ssg83
g552
sg76
(lp559
g369
asbag69
(g90
g71
NtRp560
(dp561
g74
(dp562
g101
g102
ssg83
g552
sg76
(lp563
S':'
asbag69
(g90
g71
NtRp564
(dp565
g74
(dp566
sg83
g552
sg76
(lp567
g69
(g70
g71
NtRp568
(dp569
g74
(dp570
g82
I3
ssg83
g564
sg76
(lp571
S''
asbasbasbag69
(g85
g71
NtRp572
(dp573
g74
(dp574
sg83
g488
sg76
(lp575
g69
(g90
g71
NtRp576
(dp577
g74
(dp578
g94
g95
ssg83
g572
sg76
(lp579
g390
asbag69
(g90
g71
NtRp580
(dp581
g74
(dp582
g101
g102
ssg83
g572
sg76
(lp583
S':'
asbag69
(g90
g71
NtRp584
(dp585
g74
(dp586
sg83
g572
sg76
(lp587
g69
(g70
g71
NtRp588
(dp589
g74
(dp590
g82
I3
ssg83
g584
sg76
(lp591
S''
asbasbasbag69
(g85
g71
NtRp592
(dp593
g74
(dp594
sg83
g488
sg76
(lp595
g69
(g90
g71
NtRp596
(dp597
g74
(dp598
g94
g95
ssg83
g592
sg76
(lp599
g411
asbag69
(g90
g71
NtRp600
(dp601
g74
(dp602
g101
g102
ssg83
g592
sg76
(lp603
S':'
asbag69
(g90
g71
NtRp604
(dp605
g74
(dp606
sg83
g592
sg76
(lp607
g69
(g70
g71
NtRp608
(dp609
g74
(dp610
g82
I3
ssg83
g604
sg76
(lp611
S''
asbasbasbag69
(g85
g71
NtRp612
(dp613
g74
(dp614
sg83
g488
sg76
(lp615
g69
(g90
g71
NtRp616
(dp617
g74
(dp618
g94
g95
ssg83
g612
sg76
(lp619
g432
asbag69
(g90
g71
NtRp620
(dp621
g74
(dp622
g101
g102
ssg83
g612
sg76
(lp623
S':'
asbag69
(g90
g71
NtRp624
(dp625
g74
(dp626
sg83
g612
sg76
(lp627
g69
(g70
g71
NtRp628
(dp629
g74
(dp630
g82
I3
ssg83
g624
sg76
(lp631
S''
asbasbasbag69
(g85
g71
NtRp632
(dp633
g74
(dp634
sg83
g488
sg76
(lp635
g69
(g90
g71
NtRp636
(dp637
g74
(dp638
g94
g95
ssg83
g632
sg76
(lp639
g453
asbag69
(g90
g71
NtRp640
(dp641
g74
(dp642
g101
g102
ssg83
g632
sg76
(lp643
S':'
asbag69
(g90
g71
NtRp644
(dp645
g74
(dp646
sg83
g632
sg76
(lp647
g69
(g70
g71
NtRp648
(dp649
g74
(dp650
g82
I3
ssg83
g644
sg76
(lp651
S''
asbasbasbasbasbasbasbag69
(g85
g71
NtRp652
(dp653
g74
(dp654
sg83
g268
sg76
(lp655
g69
(g90
g71
NtRp656
(dp657
g74
(dp658
g94
g95
ssg83
g652
sg76
(lp659
S'session_id_arihant'
p660
asbag69
(g90
g71
NtRp661
(dp662
g74
(dp663
g101
g102
ssg83
g652
sg76
(lp664
S':'
asbag69
(g90
g71
NtRp665
(dp666
g74
(dp667
sg83
g652
sg76
(lp668
g69
(g70
g71
NtRp669
(dp670
g74
(dp671
g82
I4
ssg83
g665
sg76
(lp672
S'127.0.0.1-fa99deb6-5977-491c-864a-b5d79c0d1842'
p673
ag69
(g78
g71
NtRp674
(dp675
g74
(dp676
g82
I3
ssg83
Nsg76
(lp677
g69
(g85
g71
NtRp678
(dp679
g74
(dp680
sg83
g674
sg76
(lp681
g69
(g90
g71
NtRp682
(dp683
g74
(dp684
g94
g95
ssg83
g678
sg76
(lp685
g306
asbag69
(g90
g71
NtRp686
(dp687
g74
(dp688
g101
g102
ssg83
g678
sg76
(lp689
S':'
asbag69
(g90
g71
NtRp690
(dp691
g74
(dp692
sg83
g678
sg76
(lp693
g69
(g70
g71
NtRp694
(dp695
g74
(dp696
g82
I3
ssg83
g690
sg76
(lp697
S''
asbasbasbag69
(g85
g71
NtRp698
(dp699
g74
(dp700
sg83
g674
sg76
(lp701
g69
(g90
g71
NtRp702
(dp703
g74
(dp704
g94
g95
ssg83
g698
sg76
(lp705
g327
asbag69
(g90
g71
NtRp706
(dp707
g74
(dp708
g101
g102
ssg83
g698
sg76
(lp709
S':'
asbag69
(g90
g71
NtRp710
(dp711
g74
(dp712
sg83
g698
sg76
(lp713
g69
(g70
g71
NtRp714
(dp715
g74
(dp716
g82
I3
ssg83
g710
sg76
(lp717
S''
asbasbasbag69
(g85
g71
NtRp718
(dp719
g74
(dp720
sg83
g674
sg76
(lp721
g69
(g90
g71
NtRp722
(dp723
g74
(dp724
g94
g95
ssg83
g718
sg76
(lp725
g348
asbag69
(g90
g71
NtRp726
(dp727
g74
(dp728
g101
g102
ssg83
g718
sg76
(lp729
S':'
asbag69
(g90
g71
NtRp730
(dp731
g74
(dp732
sg83
g718
sg76
(lp733
g69
(g70
g71
NtRp734
(dp735
g74
(dp736
g82
I3
ssg83
g730
sg76
(lp737
S''
asbasbasbag69
(g85
g71
NtRp738
(dp739
g74
(dp740
sg83
g674
sg76
(lp741
g69
(g90
g71
NtRp742
(dp743
g74
(dp744
g94
g95
ssg83
g738
sg76
(lp745
g369
asbag69
(g90
g71
NtRp746
(dp747
g74
(dp748
g101
g102
ssg83
g738
sg76
(lp749
S':'
asbag69
(g90
g71
NtRp750
(dp751
g74
(dp752
sg83
g738
sg76
(lp753
g69
(g70
g71
NtRp754
(dp755
g74
(dp756
g82
I3
ssg83
g750
sg76
(lp757
S''
asbasbasbag69
(g85
g71
NtRp758
(dp759
g74
(dp760
sg83
g674
sg76
(lp761
g69
(g90
g71
NtRp762
(dp763
g74
(dp764
g94
g95
ssg83
g758
sg76
(lp765
g390
asbag69
(g90
g71
NtRp766
(dp767
g74
(dp768
g101
g102
ssg83
g758
sg76
(lp769
S':'
asbag69
(g90
g71
NtRp770
(dp771
g74
(dp772
sg83
g758
sg76
(lp773
g69
(g70
g71
NtRp774
(dp775
g74
(dp776
g82
I3
ssg83
g770
sg76
(lp777
S''
asbasbasbag69
(g85
g71
NtRp778
(dp779
g74
(dp780
sg83
g674
sg76
(lp781
g69
(g90
g71
NtRp782
(dp783
g74
(dp784
g94
g95
ssg83
g778
sg76
(lp785
g411
asbag69
(g90
g71
NtRp786
(dp787
g74
(dp788
g101
g102
ssg83
g778
sg76
(lp789
S':'
asbag69
(g90
g71
NtRp790
(dp791
g74
(dp792
sg83
g778
sg76
(lp793
g69
(g70
g71
NtRp794
(dp795
g74
(dp796
g82
I3
ssg83
g790
sg76
(lp797
S''
asbasbasbag69
(g85
g71
NtRp798
(dp799
g74
(dp800
sg83
g674
sg76
(lp801
g69
(g90
g71
NtRp802
(dp803
g74
(dp804
g94
g95
ssg83
g798
sg76
(lp805
g432
asbag69
(g90
g71
NtRp806
(dp807
g74
(dp808
g101
g102
ssg83
g798
sg76
(lp809
S':'
asbag69
(g90
g71
NtRp810
(dp811
g74
(dp812
sg83
g798
sg76
(lp813
g69
(g70
g71
NtRp814
(dp815
g74
(dp816
g82
I3
ssg83
g810
sg76
(lp817
S''
asbasbasbag69
(g85
g71
NtRp818
(dp819
g74
(dp820
sg83
g674
sg76
(lp821
g69
(g90
g71
NtRp822
(dp823
g74
(dp824
g94
g95
ssg83
g818
sg76
(lp825
g453
asbag69
(g90
g71
NtRp826
(dp827
g74
(dp828
g101
g102
ssg83
g818
sg76
(lp829
S':'
asbag69
(g90
g71
NtRp830
(dp831
g74
(dp832
sg83
g818
sg76
(lp833
g69
(g70
g71
NtRp834
(dp835
g74
(dp836
g82
I3
ssg83
g830
sg76
(lp837
S''
asbasbasbasbasbasbasbag69
(g85
g71
NtRp838
(dp839
g74
(dp840
sg83
g268
sg76
(lp841
g69
(g90
g71
NtRp842
(dp843
g74
(dp844
g94
g95
ssg83
g838
sg76
(lp845
S'session_id_cataminder'
p846
asbag69
(g90
g71
NtRp847
(dp848
g74
(dp849
g101
g102
ssg83
g838
sg76
(lp850
S':'
asbag69
(g90
g71
NtRp851
(dp852
g74
(dp853
sg83
g838
sg76
(lp854
g69
(g70
g71
NtRp855
(dp856
g74
(dp857
g82
I4
ssg83
g851
sg76
(lp858
S'127.0.0.1-81b628a7-34a5-4e70-a95c-79ef710dcdbb'
p859
ag69
(g78
g71
NtRp860
(dp861
g74
(dp862
g82
I3
ssg83
Nsg76
(lp863
g69
(g85
g71
NtRp864
(dp865
g74
(dp866
sg83
g860
sg76
(lp867
g69
(g90
g71
NtRp868
(dp869
g74
(dp870
g94
g95
ssg83
g864
sg76
(lp871
g306
asbag69
(g90
g71
NtRp872
(dp873
g74
(dp874
g101
g102
ssg83
g864
sg76
(lp875
S':'
asbag69
(g90
g71
NtRp876
(dp877
g74
(dp878
sg83
g864
sg76
(lp879
g69
(g70
g71
NtRp880
(dp881
g74
(dp882
g82
I3
ssg83
g876
sg76
(lp883
S''
asbasbasbag69
(g85
g71
NtRp884
(dp885
g74
(dp886
sg83
g860
sg76
(lp887
g69
(g90
g71
NtRp888
(dp889
g74
(dp890
g94
g95
ssg83
g884
sg76
(lp891
g327
asbag69
(g90
g71
NtRp892
(dp893
g74
(dp894
g101
g102
ssg83
g884
sg76
(lp895
S':'
asbag69
(g90
g71
NtRp896
(dp897
g74
(dp898
sg83
g884
sg76
(lp899
g69
(g70
g71
NtRp900
(dp901
g74
(dp902
g82
I3
ssg83
g896
sg76
(lp903
S''
asbasbasbag69
(g85
g71
NtRp904
(dp905
g74
(dp906
sg83
g860
sg76
(lp907
g69
(g90
g71
NtRp908
(dp909
g74
(dp910
g94
g95
ssg83
g904
sg76
(lp911
g348
asbag69
(g90
g71
NtRp912
(dp913
g74
(dp914
g101
g102
ssg83
g904
sg76
(lp915
S':'
asbag69
(g90
g71
NtRp916
(dp917
g74
(dp918
sg83
g904
sg76
(lp919
g69
(g70
g71
NtRp920
(dp921
g74
(dp922
g82
I3
ssg83
g916
sg76
(lp923
S''
asbasbasbag69
(g85
g71
NtRp924
(dp925
g74
(dp926
sg83
g860
sg76
(lp927
g69
(g90
g71
NtRp928
(dp929
g74
(dp930
g94
g95
ssg83
g924
sg76
(lp931
g369
asbag69
(g90
g71
NtRp932
(dp933
g74
(dp934
g101
g102
ssg83
g924
sg76
(lp935
S':'
asbag69
(g90
g71
NtRp936
(dp937
g74
(dp938
sg83
g924
sg76
(lp939
g69
(g70
g71
NtRp940
(dp941
g74
(dp942
g82
I3
ssg83
g936
sg76
(lp943
S''
asbasbasbag69
(g85
g71
NtRp944
(dp945
g74
(dp946
sg83
g860
sg76
(lp947
g69
(g90
g71
NtRp948
(dp949
g74
(dp950
g94
g95
ssg83
g944
sg76
(lp951
g390
asbag69
(g90
g71
NtRp952
(dp953
g74
(dp954
g101
g102
ssg83
g944
sg76
(lp955
S':'
asbag69
(g90
g71
NtRp956
(dp957
g74
(dp958
sg83
g944
sg76
(lp959
g69
(g70
g71
NtRp960
(dp961
g74
(dp962
g82
I3
ssg83
g956
sg76
(lp963
S''
asbasbasbag69
(g85
g71
NtRp964
(dp965
g74
(dp966
sg83
g860
sg76
(lp967
g69
(g90
g71
NtRp968
(dp969
g74
(dp970
g94
g95
ssg83
g964
sg76
(lp971
g411
asbag69
(g90
g71
NtRp972
(dp973
g74
(dp974
g101
g102
ssg83
g964
sg76
(lp975
S':'
asbag69
(g90
g71
NtRp976
(dp977
g74
(dp978
sg83
g964
sg76
(lp979
g69
(g70
g71
NtRp980
(dp981
g74
(dp982
g82
I3
ssg83
g976
sg76
(lp983
S''
asbasbasbag69
(g85
g71
NtRp984
(dp985
g74
(dp986
sg83
g860
sg76
(lp987
g69
(g90
g71
NtRp988
(dp989
g74
(dp990
g94
g95
ssg83
g984
sg76
(lp991
g432
asbag69
(g90
g71
NtRp992
(dp993
g74
(dp994
g101
g102
ssg83
g984
sg76
(lp995
S':'
asbag69
(g90
g71
NtRp996
(dp997
g74
(dp998
sg83
g984
sg76
(lp999
g69
(g70
g71
NtRp1000
(dp1001
g74
(dp1002
g82
I3
ssg83
g996
sg76
(lp1003
S''
asbasbasbag69
(g85
g71
NtRp1004
(dp1005
g74
(dp1006
sg83
g860
sg76
(lp1007
g69
(g90
g71
NtRp1008
(dp1009
g74
(dp1010
g94
g95
ssg83
g1004
sg76
(lp1011
g453
asbag69
(g90
g71
NtRp1012
(dp1013
g74
(dp1014
g101
g102
ssg83
g1004
sg76
(lp1015
S':'
asbag69
(g90
g71
NtRp1016
(dp1017
g74
(dp1018
sg83
g1004
sg76
(lp1019
g69
(g70
g71
NtRp1020
(dp1021
g74
(dp1022
g82
I3
ssg83
g1016
sg76
(lp1023
S''
asbasbasbasbasbasbasbag69
(g85
g71
NtRp1024
(dp1025
g74
(dp1026
sg83
g268
sg76
(lp1027
g69
(g90
g71
NtRp1028
(dp1029
g74
(dp1030
g94
g95
ssg83
g1024
sg76
(lp1031
S'session_id_courses'
p1032
asbag69
(g90
g71
NtRp1033
(dp1034
g74
(dp1035
g101
g102
ssg83
g1024
sg76
(lp1036
S':'
asbag69
(g90
g71
NtRp1037
(dp1038
g74
(dp1039
sg83
g1024
sg76
(lp1040
g69
(g70
g71
NtRp1041
(dp1042
g74
(dp1043
g82
I4
ssg83
g1037
sg76
(lp1044
S'127.0.0.1-1d46c4eb-fdfc-4abb-bb62-6bcf52d1fcaa'
p1045
ag69
(g78
g71
NtRp1046
(dp1047
g74
(dp1048
g82
I3
ssg83
Nsg76
(lp1049
g69
(g85
g71
NtRp1050
(dp1051
g74
(dp1052
sg83
g1046
sg76
(lp1053
g69
(g90
g71
NtRp1054
(dp1055
g74
(dp1056
g94
g95
ssg83
g1050
sg76
(lp1057
g306
asbag69
(g90
g71
NtRp1058
(dp1059
g74
(dp1060
g101
g102
ssg83
g1050
sg76
(lp1061
S':'
asbag69
(g90
g71
NtRp1062
(dp1063
g74
(dp1064
sg83
g1050
sg76
(lp1065
g69
(g70
g71
NtRp1066
(dp1067
g74
(dp1068
g82
I3
ssg83
g1062
sg76
(lp1069
S''
asbasbasbag69
(g85
g71
NtRp1070
(dp1071
g74
(dp1072
sg83
g1046
sg76
(lp1073
g69
(g90
g71
NtRp1074
(dp1075
g74
(dp1076
g94
g95
ssg83
g1070
sg76
(lp1077
g327
asbag69
(g90
g71
NtRp1078
(dp1079
g74
(dp1080
g101
g102
ssg83
g1070
sg76
(lp1081
S':'
asbag69
(g90
g71
NtRp1082
(dp1083
g74
(dp1084
sg83
g1070
sg76
(lp1085
g69
(g70
g71
NtRp1086
(dp1087
g74
(dp1088
g82
I3
ssg83
g1082
sg76
(lp1089
S''
asbasbasbag69
(g85
g71
NtRp1090
(dp1091
g74
(dp1092
sg83
g1046
sg76
(lp1093
g69
(g90
g71
NtRp1094
(dp1095
g74
(dp1096
g94
g95
ssg83
g1090
sg76
(lp1097
g348
asbag69
(g90
g71
NtRp1098
(dp1099
g74
(dp1100
g101
g102
ssg83
g1090
sg76
(lp1101
S':'
asbag69
(g90
g71
NtRp1102
(dp1103
g74
(dp1104
sg83
g1090
sg76
(lp1105
g69
(g70
g71
NtRp1106
(dp1107
g74
(dp1108
g82
I3
ssg83
g1102
sg76
(lp1109
S''
asbasbasbag69
(g85
g71
NtRp1110
(dp1111
g74
(dp1112
sg83
g1046
sg76
(lp1113
g69
(g90
g71
NtRp1114
(dp1115
g74
(dp1116
g94
g95
ssg83
g1110
sg76
(lp1117
g369
asbag69
(g90
g71
NtRp1118
(dp1119
g74
(dp1120
g101
g102
ssg83
g1110
sg76
(lp1121
S':'
asbag69
(g90
g71
NtRp1122
(dp1123
g74
(dp1124
sg83
g1110
sg76
(lp1125
g69
(g70
g71
NtRp1126
(dp1127
g74
(dp1128
g82
I3
ssg83
g1122
sg76
(lp1129
S''
asbasbasbag69
(g85
g71
NtRp1130
(dp1131
g74
(dp1132
sg83
g1046
sg76
(lp1133
g69
(g90
g71
NtRp1134
(dp1135
g74
(dp1136
g94
g95
ssg83
g1130
sg76
(lp1137
g390
asbag69
(g90
g71
NtRp1138
(dp1139
g74
(dp1140
g101
g102
ssg83
g1130
sg76
(lp1141
S':'
asbag69
(g90
g71
NtRp1142
(dp1143
g74
(dp1144
sg83
g1130
sg76
(lp1145
g69
(g70
g71
NtRp1146
(dp1147
g74
(dp1148
g82
I3
ssg83
g1142
sg76
(lp1149
S''
asbasbasbag69
(g85
g71
NtRp1150
(dp1151
g74
(dp1152
sg83
g1046
sg76
(lp1153
g69
(g90
g71
NtRp1154
(dp1155
g74
(dp1156
g94
g95
ssg83
g1150
sg76
(lp1157
g411
asbag69
(g90
g71
NtRp1158
(dp1159
g74
(dp1160
g101
g102
ssg83
g1150
sg76
(lp1161
S':'
asbag69
(g90
g71
NtRp1162
(dp1163
g74
(dp1164
sg83
g1150
sg76
(lp1165
g69
(g70
g71
NtRp1166
(dp1167
g74
(dp1168
g82
I3
ssg83
g1162
sg76
(lp1169
S''
asbasbasbag69
(g85
g71
NtRp1170
(dp1171
g74
(dp1172
sg83
g1046
sg76
(lp1173
g69
(g90
g71
NtRp1174
(dp1175
g74
(dp1176
g94
g95
ssg83
g1170
sg76
(lp1177
g432
asbag69
(g90
g71
NtRp1178
(dp1179
g74
(dp1180
g101
g102
ssg83
g1170
sg76
(lp1181
S':'
asbag69
(g90
g71
NtRp1182
(dp1183
g74
(dp1184
sg83
g1170
sg76
(lp1185
g69
(g70
g71
NtRp1186
(dp1187
g74
(dp1188
g82
I3
ssg83
g1182
sg76
(lp1189
S''
asbasbasbag69
(g85
g71
NtRp1190
(dp1191
g74
(dp1192
sg83
g1046
sg76
(lp1193
g69
(g90
g71
NtRp1194
(dp1195
g74
(dp1196
g94
g95
ssg83
g1190
sg76
(lp1197
g453
asbag69
(g90
g71
NtRp1198
(dp1199
g74
(dp1200
g101
g102
ssg83
g1190
sg76
(lp1201
S':'
asbag69
(g90
g71
NtRp1202
(dp1203
g74
(dp1204
sg83
g1190
sg76
(lp1205
g69
(g70
g71
NtRp1206
(dp1207
g74
(dp1208
g82
I3
ssg83
g1202
sg76
(lp1209
S''
asbasbasbasbasbasbasbag69
(g85
g71
NtRp1210
(dp1211
g74
(dp1212
sg83
g268
sg76
(lp1213
g69
(g90
g71
NtRp1214
(dp1215
g74
(dp1216
g94
g95
ssg83
g1210
sg76
(lp1217
S'session_id_iiit_fb'
p1218
asbag69
(g90
g71
NtRp1219
(dp1220
g74
(dp1221
g101
g102
ssg83
g1210
sg76
(lp1222
S':'
asbag69
(g90
g71
NtRp1223
(dp1224
g74
(dp1225
sg83
g1210
sg76
(lp1226
g69
(g70
g71
NtRp1227
(dp1228
g74
(dp1229
g82
I4
ssg83
g1223
sg76
(lp1230
S'127.0.0.1-04b7df24-4720-4bb5-98de-96b98776240d'
p1231
ag69
(g78
g71
NtRp1232
(dp1233
g74
(dp1234
g82
I3
ssg83
Nsg76
(lp1235
g69
(g85
g71
NtRp1236
(dp1237
g74
(dp1238
sg83
g1232
sg76
(lp1239
g69
(g90
g71
NtRp1240
(dp1241
g74
(dp1242
g94
g95
ssg83
g1236
sg76
(lp1243
g306
asbag69
(g90
g71
NtRp1244
(dp1245
g74
(dp1246
g101
g102
ssg83
g1236
sg76
(lp1247
S':'
asbag69
(g90
g71
NtRp1248
(dp1249
g74
(dp1250
sg83
g1236
sg76
(lp1251
g69
(g70
g71
NtRp1252
(dp1253
g74
(dp1254
g82
I3
ssg83
g1248
sg76
(lp1255
S''
asbasbasbag69
(g85
g71
NtRp1256
(dp1257
g74
(dp1258
sg83
g1232
sg76
(lp1259
g69
(g90
g71
NtRp1260
(dp1261
g74
(dp1262
g94
g95
ssg83
g1256
sg76
(lp1263
g327
asbag69
(g90
g71
NtRp1264
(dp1265
g74
(dp1266
g101
g102
ssg83
g1256
sg76
(lp1267
S':'
asbag69
(g90
g71
NtRp1268
(dp1269
g74
(dp1270
sg83
g1256
sg76
(lp1271
g69
(g70
g71
NtRp1272
(dp1273
g74
(dp1274
g82
I3
ssg83
g1268
sg76
(lp1275
S''
asbasbasbag69
(g85
g71
NtRp1276
(dp1277
g74
(dp1278
sg83
g1232
sg76
(lp1279
g69
(g90
g71
NtRp1280
(dp1281
g74
(dp1282
g94
g95
ssg83
g1276
sg76
(lp1283
g348
asbag69
(g90
g71
NtRp1284
(dp1285
g74
(dp1286
g101
g102
ssg83
g1276
sg76
(lp1287
S':'
asbag69
(g90
g71
NtRp1288
(dp1289
g74
(dp1290
sg83
g1276
sg76
(lp1291
g69
(g70
g71
NtRp1292
(dp1293
g74
(dp1294
g82
I3
ssg83
g1288
sg76
(lp1295
S''
asbasbasbag69
(g85
g71
NtRp1296
(dp1297
g74
(dp1298
sg83
g1232
sg76
(lp1299
g69
(g90
g71
NtRp1300
(dp1301
g74
(dp1302
g94
g95
ssg83
g1296
sg76
(lp1303
g369
asbag69
(g90
g71
NtRp1304
(dp1305
g74
(dp1306
g101
g102
ssg83
g1296
sg76
(lp1307
S':'
asbag69
(g90
g71
NtRp1308
(dp1309
g74
(dp1310
sg83
g1296
sg76
(lp1311
g69
(g70
g71
NtRp1312
(dp1313
g74
(dp1314
g82
I3
ssg83
g1308
sg76
(lp1315
S''
asbasbasbag69
(g85
g71
NtRp1316
(dp1317
g74
(dp1318
sg83
g1232
sg76
(lp1319
g69
(g90
g71
NtRp1320
(dp1321
g74
(dp1322
g94
g95
ssg83
g1316
sg76
(lp1323
g390
asbag69
(g90
g71
NtRp1324
(dp1325
g74
(dp1326
g101
g102
ssg83
g1316
sg76
(lp1327
S':'
asbag69
(g90
g71
NtRp1328
(dp1329
g74
(dp1330
sg83
g1316
sg76
(lp1331
g69
(g70
g71
NtRp1332
(dp1333
g74
(dp1334
g82
I3
ssg83
g1328
sg76
(lp1335
S''
asbasbasbag69
(g85
g71
NtRp1336
(dp1337
g74
(dp1338
sg83
g1232
sg76
(lp1339
g69
(g90
g71
NtRp1340
(dp1341
g74
(dp1342
g94
g95
ssg83
g1336
sg76
(lp1343
g411
asbag69
(g90
g71
NtRp1344
(dp1345
g74
(dp1346
g101
g102
ssg83
g1336
sg76
(lp1347
S':'
asbag69
(g90
g71
NtRp1348
(dp1349
g74
(dp1350
sg83
g1336
sg76
(lp1351
g69
(g70
g71
NtRp1352
(dp1353
g74
(dp1354
g82
I3
ssg83
g1348
sg76
(lp1355
S''
asbasbasbag69
(g85
g71
NtRp1356
(dp1357
g74
(dp1358
sg83
g1232
sg76
(lp1359
g69
(g90
g71
NtRp1360
(dp1361
g74
(dp1362
g94
g95
ssg83
g1356
sg76
(lp1363
g432
asbag69
(g90
g71
NtRp1364
(dp1365
g74
(dp1366
g101
g102
ssg83
g1356
sg76
(lp1367
S':'
asbag69
(g90
g71
NtRp1368
(dp1369
g74
(dp1370
sg83
g1356
sg76
(lp1371
g69
(g70
g71
NtRp1372
(dp1373
g74
(dp1374
g82
I3
ssg83
g1368
sg76
(lp1375
S''
asbasbasbag69
(g85
g71
NtRp1376
(dp1377
g74
(dp1378
sg83
g1232
sg76
(lp1379
g69
(g90
g71
NtRp1380
(dp1381
g74
(dp1382
g94
g95
ssg83
g1376
sg76
(lp1383
g453
asbag69
(g90
g71
NtRp1384
(dp1385
g74
(dp1386
g101
g102
ssg83
g1376
sg76
(lp1387
S':'
asbag69
(g90
g71
NtRp1388
(dp1389
g74
(dp1390
sg83
g1376
sg76
(lp1391
g69
(g70
g71
NtRp1392
(dp1393
g74
(dp1394
g82
I3
ssg83
g1388
sg76
(lp1395
S''
asbasbasbasbasbasbasbag69
(g85
g71
NtRp1396
(dp1397
g74
(dp1398
sg83
g268
sg76
(lp1399
g69
(g90
g71
NtRp1400
(dp1401
g74
(dp1402
g94
g95
ssg83
g1396
sg76
(lp1403
S'session_id_myapp'
p1404
asbag69
(g90
g71
NtRp1405
(dp1406
g74
(dp1407
g101
g102
ssg83
g1396
sg76
(lp1408
S':'
asbag69
(g90
g71
NtRp1409
(dp1410
g74
(dp1411
sg83
g1396
sg76
(lp1412
g69
(g70
g71
NtRp1413
(dp1414
g74
(dp1415
g82
I4
ssg83
g1409
sg76
(lp1416
S'127.0.0.1-f28af7a6-9d1e-4a86-bd34-27605492a231'
p1417
ag69
(g78
g71
NtRp1418
(dp1419
g74
(dp1420
g82
I3
ssg83
Nsg76
(lp1421
g69
(g85
g71
NtRp1422
(dp1423
g74
(dp1424
sg83
g1418
sg76
(lp1425
g69
(g90
g71
NtRp1426
(dp1427
g74
(dp1428
g94
g95
ssg83
g1422
sg76
(lp1429
g306
asbag69
(g90
g71
NtRp1430
(dp1431
g74
(dp1432
g101
g102
ssg83
g1422
sg76
(lp1433
S':'
asbag69
(g90
g71
NtRp1434
(dp1435
g74
(dp1436
sg83
g1422
sg76
(lp1437
g69
(g70
g71
NtRp1438
(dp1439
g74
(dp1440
g82
I3
ssg83
g1434
sg76
(lp1441
S''
asbasbasbag69
(g85
g71
NtRp1442
(dp1443
g74
(dp1444
sg83
g1418
sg76
(lp1445
g69
(g90
g71
NtRp1446
(dp1447
g74
(dp1448
g94
g95
ssg83
g1442
sg76
(lp1449
g327
asbag69
(g90
g71
NtRp1450
(dp1451
g74
(dp1452
g101
g102
ssg83
g1442
sg76
(lp1453
S':'
asbag69
(g90
g71
NtRp1454
(dp1455
g74
(dp1456
sg83
g1442
sg76
(lp1457
g69
(g70
g71
NtRp1458
(dp1459
g74
(dp1460
g82
I3
ssg83
g1454
sg76
(lp1461
S''
asbasbasbag69
(g85
g71
NtRp1462
(dp1463
g74
(dp1464
sg83
g1418
sg76
(lp1465
g69
(g90
g71
NtRp1466
(dp1467
g74
(dp1468
g94
g95
ssg83
g1462
sg76
(lp1469
g348
asbag69
(g90
g71
NtRp1470
(dp1471
g74
(dp1472
g101
g102
ssg83
g1462
sg76
(lp1473
S':'
asbag69
(g90
g71
NtRp1474
(dp1475
g74
(dp1476
sg83
g1462
sg76
(lp1477
g69
(g70
g71
NtRp1478
(dp1479
g74
(dp1480
g82
I3
ssg83
g1474
sg76
(lp1481
S''
asbasbasbag69
(g85
g71
NtRp1482
(dp1483
g74
(dp1484
sg83
g1418
sg76
(lp1485
g69
(g90
g71
NtRp1486
(dp1487
g74
(dp1488
g94
g95
ssg83
g1482
sg76
(lp1489
g369
asbag69
(g90
g71
NtRp1490
(dp1491
g74
(dp1492
g101
g102
ssg83
g1482
sg76
(lp1493
S':'
asbag69
(g90
g71
NtRp1494
(dp1495
g74
(dp1496
sg83
g1482
sg76
(lp1497
g69
(g70
g71
NtRp1498
(dp1499
g74
(dp1500
g82
I3
ssg83
g1494
sg76
(lp1501
S''
asbasbasbag69
(g85
g71
NtRp1502
(dp1503
g74
(dp1504
sg83
g1418
sg76
(lp1505
g69
(g90
g71
NtRp1506
(dp1507
g74
(dp1508
g94
g95
ssg83
g1502
sg76
(lp1509
g390
asbag69
(g90
g71
NtRp1510
(dp1511
g74
(dp1512
g101
g102
ssg83
g1502
sg76
(lp1513
S':'
asbag69
(g90
g71
NtRp1514
(dp1515
g74
(dp1516
sg83
g1502
sg76
(lp1517
g69
(g70
g71
NtRp1518
(dp1519
g74
(dp1520
g82
I3
ssg83
g1514
sg76
(lp1521
S''
asbasbasbag69
(g85
g71
NtRp1522
(dp1523
g74
(dp1524
sg83
g1418
sg76
(lp1525
g69
(g90
g71
NtRp1526
(dp1527
g74
(dp1528
g94
g95
ssg83
g1522
sg76
(lp1529
g411
asbag69
(g90
g71
NtRp1530
(dp1531
g74
(dp1532
g101
g102
ssg83
g1522
sg76
(lp1533
S':'
asbag69
(g90
g71
NtRp1534
(dp1535
g74
(dp1536
sg83
g1522
sg76
(lp1537
g69
(g70
g71
NtRp1538
(dp1539
g74
(dp1540
g82
I3
ssg83
g1534
sg76
(lp1541
S''
asbasbasbag69
(g85
g71
NtRp1542
(dp1543
g74
(dp1544
sg83
g1418
sg76
(lp1545
g69
(g90
g71
NtRp1546
(dp1547
g74
(dp1548
g94
g95
ssg83
g1542
sg76
(lp1549
g432
asbag69
(g90
g71
NtRp1550
(dp1551
g74
(dp1552
g101
g102
ssg83
g1542
sg76
(lp1553
S':'
asbag69
(g90
g71
NtRp1554
(dp1555
g74
(dp1556
sg83
g1542
sg76
(lp1557
g69
(g70
g71
NtRp1558
(dp1559
g74
(dp1560
g82
I3
ssg83
g1554
sg76
(lp1561
S''
asbasbasbag69
(g85
g71
NtRp1562
(dp1563
g74
(dp1564
sg83
g1418
sg76
(lp1565
g69
(g90
g71
NtRp1566
(dp1567
g74
(dp1568
g94
g95
ssg83
g1562
sg76
(lp1569
g453
asbag69
(g90
g71
NtRp1570
(dp1571
g74
(dp1572
g101
g102
ssg83
g1562
sg76
(lp1573
S':'
asbag69
(g90
g71
NtRp1574
(dp1575
g74
(dp1576
sg83
g1562
sg76
(lp1577
g69
(g70
g71
NtRp1578
(dp1579
g74
(dp1580
g82
I3
ssg83
g1574
sg76
(lp1581
S''
asbasbasbasbasbasbasbag69
(g85
g71
NtRp1582
(dp1583
g74
(dp1584
sg83
g268
sg76
(lp1585
g69
(g90
g71
NtRp1586
(dp1587
g74
(dp1588
g94
g95
ssg83
g1582
sg76
(lp1589
S'session_id_project'
p1590
asbag69
(g90
g71
NtRp1591
(dp1592
g74
(dp1593
g101
g102
ssg83
g1582
sg76
(lp1594
S':'
asbag69
(g90
g71
NtRp1595
(dp1596
g74
(dp1597
sg83
g1582
sg76
(lp1598
g69
(g70
g71
NtRp1599
(dp1600
g74
(dp1601
g82
I4
ssg83
g1595
sg76
(lp1602
S'127.0.0.1-029ca61b-f875-404a-b7ff-1634c44ab767'
p1603
ag69
(g78
g71
NtRp1604
(dp1605
g74
(dp1606
g82
I3
ssg83
Nsg76
(lp1607
g69
(g85
g71
NtRp1608
(dp1609
g74
(dp1610
sg83
g1604
sg76
(lp1611
g69
(g90
g71
NtRp1612
(dp1613
g74
(dp1614
g94
g95
ssg83
g1608
sg76
(lp1615
g306
asbag69
(g90
g71
NtRp1616
(dp1617
g74
(dp1618
g101
g102
ssg83
g1608
sg76
(lp1619
S':'
asbag69
(g90
g71
NtRp1620
(dp1621
g74
(dp1622
sg83
g1608
sg76
(lp1623
g69
(g70
g71
NtRp1624
(dp1625
g74
(dp1626
g82
I3
ssg83
g1620
sg76
(lp1627
S''
asbasbasbag69
(g85
g71
NtRp1628
(dp1629
g74
(dp1630
sg83
g1604
sg76
(lp1631
g69
(g90
g71
NtRp1632
(dp1633
g74
(dp1634
g94
g95
ssg83
g1628
sg76
(lp1635
g327
asbag69
(g90
g71
NtRp1636
(dp1637
g74
(dp1638
g101
g102
ssg83
g1628
sg76
(lp1639
S':'
asbag69
(g90
g71
NtRp1640
(dp1641
g74
(dp1642
sg83
g1628
sg76
(lp1643
g69
(g70
g71
NtRp1644
(dp1645
g74
(dp1646
g82
I3
ssg83
g1640
sg76
(lp1647
S''
asbasbasbag69
(g85
g71
NtRp1648
(dp1649
g74
(dp1650
sg83
g1604
sg76
(lp1651
g69
(g90
g71
NtRp1652
(dp1653
g74
(dp1654
g94
g95
ssg83
g1648
sg76
(lp1655
g348
asbag69
(g90
g71
NtRp1656
(dp1657
g74
(dp1658
g101
g102
ssg83
g1648
sg76
(lp1659
S':'
asbag69
(g90
g71
NtRp1660
(dp1661
g74
(dp1662
sg83
g1648
sg76
(lp1663
g69
(g70
g71
NtRp1664
(dp1665
g74
(dp1666
g82
I3
ssg83
g1660
sg76
(lp1667
S''
asbasbasbag69
(g85
g71
NtRp1668
(dp1669
g74
(dp1670
sg83
g1604
sg76
(lp1671
g69
(g90
g71
NtRp1672
(dp1673
g74
(dp1674
g94
g95
ssg83
g1668
sg76
(lp1675
g369
asbag69
(g90
g71
NtRp1676
(dp1677
g74
(dp1678
g101
g102
ssg83
g1668
sg76
(lp1679
S':'
asbag69
(g90
g71
NtRp1680
(dp1681
g74
(dp1682
sg83
g1668
sg76
(lp1683
g69
(g70
g71
NtRp1684
(dp1685
g74
(dp1686
g82
I3
ssg83
g1680
sg76
(lp1687
S''
asbasbasbag69
(g85
g71
NtRp1688
(dp1689
g74
(dp1690
sg83
g1604
sg76
(lp1691
g69
(g90
g71
NtRp1692
(dp1693
g74
(dp1694
g94
g95
ssg83
g1688
sg76
(lp1695
g390
asbag69
(g90
g71
NtRp1696
(dp1697
g74
(dp1698
g101
g102
ssg83
g1688
sg76
(lp1699
S':'
asbag69
(g90
g71
NtRp1700
(dp1701
g74
(dp1702
sg83
g1688
sg76
(lp1703
g69
(g70
g71
NtRp1704
(dp1705
g74
(dp1706
g82
I3
ssg83
g1700
sg76
(lp1707
S''
asbasbasbag69
(g85
g71
NtRp1708
(dp1709
g74
(dp1710
sg83
g1604
sg76
(lp1711
g69
(g90
g71
NtRp1712
(dp1713
g74
(dp1714
g94
g95
ssg83
g1708
sg76
(lp1715
g411
asbag69
(g90
g71
NtRp1716
(dp1717
g74
(dp1718
g101
g102
ssg83
g1708
sg76
(lp1719
S':'
asbag69
(g90
g71
NtRp1720
(dp1721
g74
(dp1722
sg83
g1708
sg76
(lp1723
g69
(g70
g71
NtRp1724
(dp1725
g74
(dp1726
g82
I3
ssg83
g1720
sg76
(lp1727
S''
asbasbasbag69
(g85
g71
NtRp1728
(dp1729
g74
(dp1730
sg83
g1604
sg76
(lp1731
g69
(g90
g71
NtRp1732
(dp1733
g74
(dp1734
g94
g95
ssg83
g1728
sg76
(lp1735
g432
asbag69
(g90
g71
NtRp1736
(dp1737
g74
(dp1738
g101
g102
ssg83
g1728
sg76
(lp1739
S':'
asbag69
(g90
g71
NtRp1740
(dp1741
g74
(dp1742
sg83
g1728
sg76
(lp1743
g69
(g70
g71
NtRp1744
(dp1745
g74
(dp1746
g82
I3
ssg83
g1740
sg76
(lp1747
S''
asbasbasbag69
(g85
g71
NtRp1748
(dp1749
g74
(dp1750
sg83
g1604
sg76
(lp1751
g69
(g90
g71
NtRp1752
(dp1753
g74
(dp1754
g94
g95
ssg83
g1748
sg76
(lp1755
g453
asbag69
(g90
g71
NtRp1756
(dp1757
g74
(dp1758
g101
g102
ssg83
g1748
sg76
(lp1759
S':'
asbag69
(g90
g71
NtRp1760
(dp1761
g74
(dp1762
sg83
g1748
sg76
(lp1763
g69
(g70
g71
NtRp1764
(dp1765
g74
(dp1766
g82
I3
ssg83
g1760
sg76
(lp1767
S''
asbasbasbasbasbasbasbag69
(g85
g71
NtRp1768
(dp1769
g74
(dp1770
sg83
g268
sg76
(lp1771
g69
(g90
g71
NtRp1772
(dp1773
g74
(dp1774
g94
g95
ssg83
g1768
sg76
(lp1775
S'session_id_reddit'
p1776
asbag69
(g90
g71
NtRp1777
(dp1778
g74
(dp1779
g101
g102
ssg83
g1768
sg76
(lp1780
S':'
asbag69
(g90
g71
NtRp1781
(dp1782
g74
(dp1783
sg83
g1768
sg76
(lp1784
g69
(g70
g71
NtRp1785
(dp1786
g74
(dp1787
g82
I4
ssg83
g1781
sg76
(lp1788
S'127.0.0.1-24289f39-32a1-48fb-a367-22792fb8b813'
p1789
ag69
(g78
g71
NtRp1790
(dp1791
g74
(dp1792
g82
I3
ssg83
Nsg76
(lp1793
g69
(g85
g71
NtRp1794
(dp1795
g74
(dp1796
sg83
g1790
sg76
(lp1797
g69
(g90
g71
NtRp1798
(dp1799
g74
(dp1800
g94
g95
ssg83
g1794
sg76
(lp1801
g306
asbag69
(g90
g71
NtRp1802
(dp1803
g74
(dp1804
g101
g102
ssg83
g1794
sg76
(lp1805
S':'
asbag69
(g90
g71
NtRp1806
(dp1807
g74
(dp1808
sg83
g1794
sg76
(lp1809
g69
(g70
g71
NtRp1810
(dp1811
g74
(dp1812
g82
I3
ssg83
g1806
sg76
(lp1813
S''
asbasbasbag69
(g85
g71
NtRp1814
(dp1815
g74
(dp1816
sg83
g1790
sg76
(lp1817
g69
(g90
g71
NtRp1818
(dp1819
g74
(dp1820
g94
g95
ssg83
g1814
sg76
(lp1821
g327
asbag69
(g90
g71
NtRp1822
(dp1823
g74
(dp1824
g101
g102
ssg83
g1814
sg76
(lp1825
S':'
asbag69
(g90
g71
NtRp1826
(dp1827
g74
(dp1828
sg83
g1814
sg76
(lp1829
g69
(g70
g71
NtRp1830
(dp1831
g74
(dp1832
g82
I3
ssg83
g1826
sg76
(lp1833
S''
asbasbasbag69
(g85
g71
NtRp1834
(dp1835
g74
(dp1836
sg83
g1790
sg76
(lp1837
g69
(g90
g71
NtRp1838
(dp1839
g74
(dp1840
g94
g95
ssg83
g1834
sg76
(lp1841
g348
asbag69
(g90
g71
NtRp1842
(dp1843
g74
(dp1844
g101
g102
ssg83
g1834
sg76
(lp1845
S':'
asbag69
(g90
g71
NtRp1846
(dp1847
g74
(dp1848
sg83
g1834
sg76
(lp1849
g69
(g70
g71
NtRp1850
(dp1851
g74
(dp1852
g82
I3
ssg83
g1846
sg76
(lp1853
S''
asbasbasbag69
(g85
g71
NtRp1854
(dp1855
g74
(dp1856
sg83
g1790
sg76
(lp1857
g69
(g90
g71
NtRp1858
(dp1859
g74
(dp1860
g94
g95
ssg83
g1854
sg76
(lp1861
g369
asbag69
(g90
g71
NtRp1862
(dp1863
g74
(dp1864
g101
g102
ssg83
g1854
sg76
(lp1865
S':'
asbag69
(g90
g71
NtRp1866
(dp1867
g74
(dp1868
sg83
g1854
sg76
(lp1869
g69
(g70
g71
NtRp1870
(dp1871
g74
(dp1872
g82
I3
ssg83
g1866
sg76
(lp1873
S''
asbasbasbag69
(g85
g71
NtRp1874
(dp1875
g74
(dp1876
sg83
g1790
sg76
(lp1877
g69
(g90
g71
NtRp1878
(dp1879
g74
(dp1880
g94
g95
ssg83
g1874
sg76
(lp1881
g390
asbag69
(g90
g71
NtRp1882
(dp1883
g74
(dp1884
g101
g102
ssg83
g1874
sg76
(lp1885
S':'
asbag69
(g90
g71
NtRp1886
(dp1887
g74
(dp1888
sg83
g1874
sg76
(lp1889
g69
(g70
g71
NtRp1890
(dp1891
g74
(dp1892
g82
I3
ssg83
g1886
sg76
(lp1893
S''
asbasbasbag69
(g85
g71
NtRp1894
(dp1895
g74
(dp1896
sg83
g1790
sg76
(lp1897
g69
(g90
g71
NtRp1898
(dp1899
g74
(dp1900
g94
g95
ssg83
g1894
sg76
(lp1901
g411
asbag69
(g90
g71
NtRp1902
(dp1903
g74
(dp1904
g101
g102
ssg83
g1894
sg76
(lp1905
S':'
asbag69
(g90
g71
NtRp1906
(dp1907
g74
(dp1908
sg83
g1894
sg76
(lp1909
g69
(g70
g71
NtRp1910
(dp1911
g74
(dp1912
g82
I3
ssg83
g1906
sg76
(lp1913
S''
asbasbasbag69
(g85
g71
NtRp1914
(dp1915
g74
(dp1916
sg83
g1790
sg76
(lp1917
g69
(g90
g71
NtRp1918
(dp1919
g74
(dp1920
g94
g95
ssg83
g1914
sg76
(lp1921
g432
asbag69
(g90
g71
NtRp1922
(dp1923
g74
(dp1924
g101
g102
ssg83
g1914
sg76
(lp1925
S':'
asbag69
(g90
g71
NtRp1926
(dp1927
g74
(dp1928
sg83
g1914
sg76
(lp1929
g69
(g70
g71
NtRp1930
(dp1931
g74
(dp1932
g82
I3
ssg83
g1926
sg76
(lp1933
S''
asbasbasbag69
(g85
g71
NtRp1934
(dp1935
g74
(dp1936
sg83
g1790
sg76
(lp1937
g69
(g90
g71
NtRp1938
(dp1939
g74
(dp1940
g94
g95
ssg83
g1934
sg76
(lp1941
g453
asbag69
(g90
g71
NtRp1942
(dp1943
g74
(dp1944
g101
g102
ssg83
g1934
sg76
(lp1945
S':'
asbag69
(g90
g71
NtRp1946
(dp1947
g74
(dp1948
sg83
g1934
sg76
(lp1949
g69
(g70
g71
NtRp1950
(dp1951
g74
(dp1952
g82
I3
ssg83
g1946
sg76
(lp1953
S''
asbasbasbasbasbasbasbag69
(g85
g71
NtRp1954
(dp1955
g74
(dp1956
sg83
g268
sg76
(lp1957
g69
(g90
g71
NtRp1958
(dp1959
g74
(dp1960
g94
g95
ssg83
g1954
sg76
(lp1961
S'session_id_testlayout'
p1962
asbag69
(g90
g71
NtRp1963
(dp1964
g74
(dp1965
g101
g102
ssg83
g1954
sg76
(lp1966
S':'
asbag69
(g90
g71
NtRp1967
(dp1968
g74
(dp1969
sg83
g1954
sg76
(lp1970
g69
(g70
g71
NtRp1971
(dp1972
g74
(dp1973
g82
I4
ssg83
g1967
sg76
(lp1974
S'127.0.0.1-0b2689a2-d3bd-4ee8-ad96-af4d7e3e9ad1'
p1975
ag69
(g78
g71
NtRp1976
(dp1977
g74
(dp1978
g82
I3
ssg83
Nsg76
(lp1979
g69
(g85
g71
NtRp1980
(dp1981
g74
(dp1982
sg83
g1976
sg76
(lp1983
g69
(g90
g71
NtRp1984
(dp1985
g74
(dp1986
g94
g95
ssg83
g1980
sg76
(lp1987
g306
asbag69
(g90
g71
NtRp1988
(dp1989
g74
(dp1990
g101
g102
ssg83
g1980
sg76
(lp1991
S':'
asbag69
(g90
g71
NtRp1992
(dp1993
g74
(dp1994
sg83
g1980
sg76
(lp1995
g69
(g70
g71
NtRp1996
(dp1997
g74
(dp1998
g82
I3
ssg83
g1992
sg76
(lp1999
S''
asbasbasbag69
(g85
g71
NtRp2000
(dp2001
g74
(dp2002
sg83
g1976
sg76
(lp2003
g69
(g90
g71
NtRp2004
(dp2005
g74
(dp2006
g94
g95
ssg83
g2000
sg76
(lp2007
g327
asbag69
(g90
g71
NtRp2008
(dp2009
g74
(dp2010
g101
g102
ssg83
g2000
sg76
(lp2011
S':'
asbag69
(g90
g71
NtRp2012
(dp2013
g74
(dp2014
sg83
g2000
sg76
(lp2015
g69
(g70
g71
NtRp2016
(dp2017
g74
(dp2018
g82
I3
ssg83
g2012
sg76
(lp2019
S''
asbasbasbag69
(g85
g71
NtRp2020
(dp2021
g74
(dp2022
sg83
g1976
sg76
(lp2023
g69
(g90
g71
NtRp2024
(dp2025
g74
(dp2026
g94
g95
ssg83
g2020
sg76
(lp2027
g348
asbag69
(g90
g71
NtRp2028
(dp2029
g74
(dp2030
g101
g102
ssg83
g2020
sg76
(lp2031
S':'
asbag69
(g90
g71
NtRp2032
(dp2033
g74
(dp2034
sg83
g2020
sg76
(lp2035
g69
(g70
g71
NtRp2036
(dp2037
g74
(dp2038
g82
I3
ssg83
g2032
sg76
(lp2039
S''
asbasbasbag69
(g85
g71
NtRp2040
(dp2041
g74
(dp2042
sg83
g1976
sg76
(lp2043
g69
(g90
g71
NtRp2044
(dp2045
g74
(dp2046
g94
g95
ssg83
g2040
sg76
(lp2047
g369
asbag69
(g90
g71
NtRp2048
(dp2049
g74
(dp2050
g101
g102
ssg83
g2040
sg76
(lp2051
S':'
asbag69
(g90
g71
NtRp2052
(dp2053
g74
(dp2054
sg83
g2040
sg76
(lp2055
g69
(g70
g71
NtRp2056
(dp2057
g74
(dp2058
g82
I3
ssg83
g2052
sg76
(lp2059
S''
asbasbasbag69
(g85
g71
NtRp2060
(dp2061
g74
(dp2062
sg83
g1976
sg76
(lp2063
g69
(g90
g71
NtRp2064
(dp2065
g74
(dp2066
g94
g95
ssg83
g2060
sg76
(lp2067
g390
asbag69
(g90
g71
NtRp2068
(dp2069
g74
(dp2070
g101
g102
ssg83
g2060
sg76
(lp2071
S':'
asbag69
(g90
g71
NtRp2072
(dp2073
g74
(dp2074
sg83
g2060
sg76
(lp2075
g69
(g70
g71
NtRp2076
(dp2077
g74
(dp2078
g82
I3
ssg83
g2072
sg76
(lp2079
S''
asbasbasbag69
(g85
g71
NtRp2080
(dp2081
g74
(dp2082
sg83
g1976
sg76
(lp2083
g69
(g90
g71
NtRp2084
(dp2085
g74
(dp2086
g94
g95
ssg83
g2080
sg76
(lp2087
g411
asbag69
(g90
g71
NtRp2088
(dp2089
g74
(dp2090
g101
g102
ssg83
g2080
sg76
(lp2091
S':'
asbag69
(g90
g71
NtRp2092
(dp2093
g74
(dp2094
sg83
g2080
sg76
(lp2095
g69
(g70
g71
NtRp2096
(dp2097
g74
(dp2098
g82
I3
ssg83
g2092
sg76
(lp2099
S''
asbasbasbag69
(g85
g71
NtRp2100
(dp2101
g74
(dp2102
sg83
g1976
sg76
(lp2103
g69
(g90
g71
NtRp2104
(dp2105
g74
(dp2106
g94
g95
ssg83
g2100
sg76
(lp2107
g432
asbag69
(g90
g71
NtRp2108
(dp2109
g74
(dp2110
g101
g102
ssg83
g2100
sg76
(lp2111
S':'
asbag69
(g90
g71
NtRp2112
(dp2113
g74
(dp2114
sg83
g2100
sg76
(lp2115
g69
(g70
g71
NtRp2116
(dp2117
g74
(dp2118
g82
I3
ssg83
g2112
sg76
(lp2119
S''
asbasbasbag69
(g85
g71
NtRp2120
(dp2121
g74
(dp2122
sg83
g1976
sg76
(lp2123
g69
(g90
g71
NtRp2124
(dp2125
g74
(dp2126
g94
g95
ssg83
g2120
sg76
(lp2127
g453
asbag69
(g90
g71
NtRp2128
(dp2129
g74
(dp2130
g101
g102
ssg83
g2120
sg76
(lp2131
S':'
asbag69
(g90
g71
NtRp2132
(dp2133
g74
(dp2134
sg83
g2120
sg76
(lp2135
g69
(g70
g71
NtRp2136
(dp2137
g74
(dp2138
g82
I3
ssg83
g2132
sg76
(lp2139
S''
asbasbasbasbasbasbasbag69
(g85
g71
NtRp2140
(dp2141
g74
(dp2142
sg83
g268
sg76
(lp2143
g69
(g90
g71
NtRp2144
(dp2145
g74
(dp2146
g94
g95
ssg83
g2140
sg76
(lp2147
S'session_id_try'
p2148
asbag69
(g90
g71
NtRp2149
(dp2150
g74
(dp2151
g101
g102
ssg83
g2140
sg76
(lp2152
S':'
asbag69
(g90
g71
NtRp2153
(dp2154
g74
(dp2155
sg83
g2140
sg76
(lp2156
g69
(g70
g71
NtRp2157
(dp2158
g74
(dp2159
g82
I4
ssg83
g2153
sg76
(lp2160
S'127.0.0.1-4d514347-24a9-48c9-9e7c-4ac4f4a70173'
p2161
ag69
(g78
g71
NtRp2162
(dp2163
g74
(dp2164
g82
I3
ssg83
Nsg76
(lp2165
g69
(g85
g71
NtRp2166
(dp2167
g74
(dp2168
sg83
g2162
sg76
(lp2169
g69
(g90
g71
NtRp2170
(dp2171
g74
(dp2172
g94
g95
ssg83
g2166
sg76
(lp2173
g306
asbag69
(g90
g71
NtRp2174
(dp2175
g74
(dp2176
g101
g102
ssg83
g2166
sg76
(lp2177
S':'
asbag69
(g90
g71
NtRp2178
(dp2179
g74
(dp2180
sg83
g2166
sg76
(lp2181
g69
(g70
g71
NtRp2182
(dp2183
g74
(dp2184
g82
I3
ssg83
g2178
sg76
(lp2185
S''
asbasbasbag69
(g85
g71
NtRp2186
(dp2187
g74
(dp2188
sg83
g2162
sg76
(lp2189
g69
(g90
g71
NtRp2190
(dp2191
g74
(dp2192
g94
g95
ssg83
g2186
sg76
(lp2193
g327
asbag69
(g90
g71
NtRp2194
(dp2195
g74
(dp2196
g101
g102
ssg83
g2186
sg76
(lp2197
S':'
asbag69
(g90
g71
NtRp2198
(dp2199
g74
(dp2200
sg83
g2186
sg76
(lp2201
g69
(g70
g71
NtRp2202
(dp2203
g74
(dp2204
g82
I3
ssg83
g2198
sg76
(lp2205
S''
asbasbasbag69
(g85
g71
NtRp2206
(dp2207
g74
(dp2208
sg83
g2162
sg76
(lp2209
g69
(g90
g71
NtRp2210
(dp2211
g74
(dp2212
g94
g95
ssg83
g2206
sg76
(lp2213
g348
asbag69
(g90
g71
NtRp2214
(dp2215
g74
(dp2216
g101
g102
ssg83
g2206
sg76
(lp2217
S':'
asbag69
(g90
g71
NtRp2218
(dp2219
g74
(dp2220
sg83
g2206
sg76
(lp2221
g69
(g70
g71
NtRp2222
(dp2223
g74
(dp2224
g82
I3
ssg83
g2218
sg76
(lp2225
S''
asbasbasbag69
(g85
g71
NtRp2226
(dp2227
g74
(dp2228
sg83
g2162
sg76
(lp2229
g69
(g90
g71
NtRp2230
(dp2231
g74
(dp2232
g94
g95
ssg83
g2226
sg76
(lp2233
g369
asbag69
(g90
g71
NtRp2234
(dp2235
g74
(dp2236
g101
g102
ssg83
g2226
sg76
(lp2237
S':'
asbag69
(g90
g71
NtRp2238
(dp2239
g74
(dp2240
sg83
g2226
sg76
(lp2241
g69
(g70
g71
NtRp2242
(dp2243
g74
(dp2244
g82
I3
ssg83
g2238
sg76
(lp2245
S''
asbasbasbag69
(g85
g71
NtRp2246
(dp2247
g74
(dp2248
sg83
g2162
sg76
(lp2249
g69
(g90
g71
NtRp2250
(dp2251
g74
(dp2252
g94
g95
ssg83
g2246
sg76
(lp2253
g390
asbag69
(g90
g71
NtRp2254
(dp2255
g74
(dp2256
g101
g102
ssg83
g2246
sg76
(lp2257
S':'
asbag69
(g90
g71
NtRp2258
(dp2259
g74
(dp2260
sg83
g2246
sg76
(lp2261
g69
(g70
g71
NtRp2262
(dp2263
g74
(dp2264
g82
I3
ssg83
g2258
sg76
(lp2265
S''
asbasbasbag69
(g85
g71
NtRp2266
(dp2267
g74
(dp2268
sg83
g2162
sg76
(lp2269
g69
(g90
g71
NtRp2270
(dp2271
g74
(dp2272
g94
g95
ssg83
g2266
sg76
(lp2273
g411
asbag69
(g90
g71
NtRp2274
(dp2275
g74
(dp2276
g101
g102
ssg83
g2266
sg76
(lp2277
S':'
asbag69
(g90
g71
NtRp2278
(dp2279
g74
(dp2280
sg83
g2266
sg76
(lp2281
g69
(g70
g71
NtRp2282
(dp2283
g74
(dp2284
g82
I3
ssg83
g2278
sg76
(lp2285
S''
asbasbasbag69
(g85
g71
NtRp2286
(dp2287
g74
(dp2288
sg83
g2162
sg76
(lp2289
g69
(g90
g71
NtRp2290
(dp2291
g74
(dp2292
g94
g95
ssg83
g2286
sg76
(lp2293
g432
asbag69
(g90
g71
NtRp2294
(dp2295
g74
(dp2296
g101
g102
ssg83
g2286
sg76
(lp2297
S':'
asbag69
(g90
g71
NtRp2298
(dp2299
g74
(dp2300
sg83
g2286
sg76
(lp2301
g69
(g70
g71
NtRp2302
(dp2303
g74
(dp2304
g82
I3
ssg83
g2298
sg76
(lp2305
S''
asbasbasbag69
(g85
g71
NtRp2306
(dp2307
g74
(dp2308
sg83
g2162
sg76
(lp2309
g69
(g90
g71
NtRp2310
(dp2311
g74
(dp2312
g94
g95
ssg83
g2306
sg76
(lp2313
g453
asbag69
(g90
g71
NtRp2314
(dp2315
g74
(dp2316
g101
g102
ssg83
g2306
sg76
(lp2317
S':'
asbag69
(g90
g71
NtRp2318
(dp2319
g74
(dp2320
sg83
g2306
sg76
(lp2321
g69
(g70
g71
NtRp2322
(dp2323
g74
(dp2324
g82
I3
ssg83
g2318
sg76
(lp2325
S''
asbasbasbasbasbasbasbag69
(g85
g71
NtRp2326
(dp2327
g74
(dp2328
sg83
g268
sg76
(lp2329
g69
(g90
g71
NtRp2330
(dp2331
g74
(dp2332
g94
g95
ssg83
g2326
sg76
(lp2333
S'session_id_vikramahuja'
p2334
asbag69
(g90
g71
NtRp2335
(dp2336
g74
(dp2337
g101
g102
ssg83
g2326
sg76
(lp2338
S':'
asbag69
(g90
g71
NtRp2339
(dp2340
g74
(dp2341
sg83
g2326
sg76
(lp2342
g69
(g70
g71
NtRp2343
(dp2344
g74
(dp2345
g82
I4
ssg83
g2339
sg76
(lp2346
S'127.0.0.1-a555d16d-54b5-476d-a152-f88918b513fe'
p2347
ag69
(g78
g71
NtRp2348
(dp2349
g74
(dp2350
g82
I3
ssg83
Nsg76
(lp2351
g69
(g85
g71
NtRp2352
(dp2353
g74
(dp2354
sg83
g2348
sg76
(lp2355
g69
(g90
g71
NtRp2356
(dp2357
g74
(dp2358
g94
g95
ssg83
g2352
sg76
(lp2359
g306
asbag69
(g90
g71
NtRp2360
(dp2361
g74
(dp2362
g101
g102
ssg83
g2352
sg76
(lp2363
S':'
asbag69
(g90
g71
NtRp2364
(dp2365
g74
(dp2366
sg83
g2352
sg76
(lp2367
g69
(g70
g71
NtRp2368
(dp2369
g74
(dp2370
g82
I3
ssg83
g2364
sg76
(lp2371
S''
asbasbasbag69
(g85
g71
NtRp2372
(dp2373
g74
(dp2374
sg83
g2348
sg76
(lp2375
g69
(g90
g71
NtRp2376
(dp2377
g74
(dp2378
g94
g95
ssg83
g2372
sg76
(lp2379
g327
asbag69
(g90
g71
NtRp2380
(dp2381
g74
(dp2382
g101
g102
ssg83
g2372
sg76
(lp2383
S':'
asbag69
(g90
g71
NtRp2384
(dp2385
g74
(dp2386
sg83
g2372
sg76
(lp2387
g69
(g70
g71
NtRp2388
(dp2389
g74
(dp2390
g82
I3
ssg83
g2384
sg76
(lp2391
S''
asbasbasbag69
(g85
g71
NtRp2392
(dp2393
g74
(dp2394
sg83
g2348
sg76
(lp2395
g69
(g90
g71
NtRp2396
(dp2397
g74
(dp2398
g94
g95
ssg83
g2392
sg76
(lp2399
g348
asbag69
(g90
g71
NtRp2400
(dp2401
g74
(dp2402
g101
g102
ssg83
g2392
sg76
(lp2403
S':'
asbag69
(g90
g71
NtRp2404
(dp2405
g74
(dp2406
sg83
g2392
sg76
(lp2407
g69
(g70
g71
NtRp2408
(dp2409
g74
(dp2410
g82
I3
ssg83
g2404
sg76
(lp2411
S''
asbasbasbag69
(g85
g71
NtRp2412
(dp2413
g74
(dp2414
sg83
g2348
sg76
(lp2415
g69
(g90
g71
NtRp2416
(dp2417
g74
(dp2418
g94
g95
ssg83
g2412
sg76
(lp2419
g369
asbag69
(g90
g71
NtRp2420
(dp2421
g74
(dp2422
g101
g102
ssg83
g2412
sg76
(lp2423
S':'
asbag69
(g90
g71
NtRp2424
(dp2425
g74
(dp2426
sg83
g2412
sg76
(lp2427
g69
(g70
g71
NtRp2428
(dp2429
g74
(dp2430
g82
I3
ssg83
g2424
sg76
(lp2431
S''
asbasbasbag69
(g85
g71
NtRp2432
(dp2433
g74
(dp2434
sg83
g2348
sg76
(lp2435
g69
(g90
g71
NtRp2436
(dp2437
g74
(dp2438
g94
g95
ssg83
g2432
sg76
(lp2439
g390
asbag69
(g90
g71
NtRp2440
(dp2441
g74
(dp2442
g101
g102
ssg83
g2432
sg76
(lp2443
S':'
asbag69
(g90
g71
NtRp2444
(dp2445
g74
(dp2446
sg83
g2432
sg76
(lp2447
g69
(g70
g71
NtRp2448
(dp2449
g74
(dp2450
g82
I3
ssg83
g2444
sg76
(lp2451
S''
asbasbasbag69
(g85
g71
NtRp2452
(dp2453
g74
(dp2454
sg83
g2348
sg76
(lp2455
g69
(g90
g71
NtRp2456
(dp2457
g74
(dp2458
g94
g95
ssg83
g2452
sg76
(lp2459
g411
asbag69
(g90
g71
NtRp2460
(dp2461
g74
(dp2462
g101
g102
ssg83
g2452
sg76
(lp2463
S':'
asbag69
(g90
g71
NtRp2464
(dp2465
g74
(dp2466
sg83
g2452
sg76
(lp2467
g69
(g70
g71
NtRp2468
(dp2469
g74
(dp2470
g82
I3
ssg83
g2464
sg76
(lp2471
S''
asbasbasbag69
(g85
g71
NtRp2472
(dp2473
g74
(dp2474
sg83
g2348
sg76
(lp2475
g69
(g90
g71
NtRp2476
(dp2477
g74
(dp2478
g94
g95
ssg83
g2472
sg76
(lp2479
g432
asbag69
(g90
g71
NtRp2480
(dp2481
g74
(dp2482
g101
g102
ssg83
g2472
sg76
(lp2483
S':'
asbag69
(g90
g71
NtRp2484
(dp2485
g74
(dp2486
sg83
g2472
sg76
(lp2487
g69
(g70
g71
NtRp2488
(dp2489
g74
(dp2490
g82
I3
ssg83
g2484
sg76
(lp2491
S''
asbasbasbag69
(g85
g71
NtRp2492
(dp2493
g74
(dp2494
sg83
g2348
sg76
(lp2495
g69
(g90
g71
NtRp2496
(dp2497
g74
(dp2498
g94
g95
ssg83
g2492
sg76
(lp2499
g453
asbag69
(g90
g71
NtRp2500
(dp2501
g74
(dp2502
g101
g102
ssg83
g2492
sg76
(lp2503
S':'
asbag69
(g90
g71
NtRp2504
(dp2505
g74
(dp2506
sg83
g2492
sg76
(lp2507
g69
(g70
g71
NtRp2508
(dp2509
g74
(dp2510
g82
I3
ssg83
g2504
sg76
(lp2511
S''
asbasbasbasbasbasbasbag69
(g85
g71
NtRp2512
(dp2513
g74
(dp2514
sg83
g268
sg76
(lp2515
g69
(g90
g71
NtRp2516
(dp2517
g74
(dp2518
g94
g95
ssg83
g2512
sg76
(lp2519
S'session_id_welcome'
p2520
asbag69
(g90
g71
NtRp2521
(dp2522
g74
(dp2523
g101
g102
ssg83
g2512
sg76
(lp2524
S':'
asbag69
(g90
g71
NtRp2525
(dp2526
g74
(dp2527
sg83
g2512
sg76
(lp2528
g69
(g70
g71
NtRp2529
(dp2530
g74
(dp2531
g82
I4
ssg83
g2525
sg76
(lp2532
S'127.0.0.1-a85dd4d7-ab1c-49ab-856d-4173a26ef319'
p2533
ag69
(g78
g71
NtRp2534
(dp2535
g74
(dp2536
g82
I3
ssg83
Nsg76
(lp2537
g69
(g85
g71
NtRp2538
(dp2539
g74
(dp2540
sg83
g2534
sg76
(lp2541
g69
(g90
g71
NtRp2542
(dp2543
g74
(dp2544
g94
g95
ssg83
g2538
sg76
(lp2545
g306
asbag69
(g90
g71
NtRp2546
(dp2547
g74
(dp2548
g101
g102
ssg83
g2538
sg76
(lp2549
S':'
asbag69
(g90
g71
NtRp2550
(dp2551
g74
(dp2552
sg83
g2538
sg76
(lp2553
g69
(g70
g71
NtRp2554
(dp2555
g74
(dp2556
g82
I3
ssg83
g2550
sg76
(lp2557
S''
asbasbasbag69
(g85
g71
NtRp2558
(dp2559
g74
(dp2560
sg83
g2534
sg76
(lp2561
g69
(g90
g71
NtRp2562
(dp2563
g74
(dp2564
g94
g95
ssg83
g2558
sg76
(lp2565
g327
asbag69
(g90
g71
NtRp2566
(dp2567
g74
(dp2568
g101
g102
ssg83
g2558
sg76
(lp2569
S':'
asbag69
(g90
g71
NtRp2570
(dp2571
g74
(dp2572
sg83
g2558
sg76
(lp2573
g69
(g70
g71
NtRp2574
(dp2575
g74
(dp2576
g82
I3
ssg83
g2570
sg76
(lp2577
S''
asbasbasbag69
(g85
g71
NtRp2578
(dp2579
g74
(dp2580
sg83
g2534
sg76
(lp2581
g69
(g90
g71
NtRp2582
(dp2583
g74
(dp2584
g94
g95
ssg83
g2578
sg76
(lp2585
g348
asbag69
(g90
g71
NtRp2586
(dp2587
g74
(dp2588
g101
g102
ssg83
g2578
sg76
(lp2589
S':'
asbag69
(g90
g71
NtRp2590
(dp2591
g74
(dp2592
sg83
g2578
sg76
(lp2593
g69
(g70
g71
NtRp2594
(dp2595
g74
(dp2596
g82
I3
ssg83
g2590
sg76
(lp2597
S''
asbasbasbag69
(g85
g71
NtRp2598
(dp2599
g74
(dp2600
sg83
g2534
sg76
(lp2601
g69
(g90
g71
NtRp2602
(dp2603
g74
(dp2604
g94
g95
ssg83
g2598
sg76
(lp2605
g369
asbag69
(g90
g71
NtRp2606
(dp2607
g74
(dp2608
g101
g102
ssg83
g2598
sg76
(lp2609
S':'
asbag69
(g90
g71
NtRp2610
(dp2611
g74
(dp2612
sg83
g2598
sg76
(lp2613
g69
(g70
g71
NtRp2614
(dp2615
g74
(dp2616
g82
I3
ssg83
g2610
sg76
(lp2617
S''
asbasbasbag69
(g85
g71
NtRp2618
(dp2619
g74
(dp2620
sg83
g2534
sg76
(lp2621
g69
(g90
g71
NtRp2622
(dp2623
g74
(dp2624
g94
g95
ssg83
g2618
sg76
(lp2625
g390
asbag69
(g90
g71
NtRp2626
(dp2627
g74
(dp2628
g101
g102
ssg83
g2618
sg76
(lp2629
S':'
asbag69
(g90
g71
NtRp2630
(dp2631
g74
(dp2632
sg83
g2618
sg76
(lp2633
g69
(g70
g71
NtRp2634
(dp2635
g74
(dp2636
g82
I3
ssg83
g2630
sg76
(lp2637
S''
asbasbasbag69
(g85
g71
NtRp2638
(dp2639
g74
(dp2640
sg83
g2534
sg76
(lp2641
g69
(g90
g71
NtRp2642
(dp2643
g74
(dp2644
g94
g95
ssg83
g2638
sg76
(lp2645
g411
asbag69
(g90
g71
NtRp2646
(dp2647
g74
(dp2648
g101
g102
ssg83
g2638
sg76
(lp2649
S':'
asbag69
(g90
g71
NtRp2650
(dp2651
g74
(dp2652
sg83
g2638
sg76
(lp2653
g69
(g70
g71
NtRp2654
(dp2655
g74
(dp2656
g82
I3
ssg83
g2650
sg76
(lp2657
S''
asbasbasbag69
(g85
g71
NtRp2658
(dp2659
g74
(dp2660
sg83
g2534
sg76
(lp2661
g69
(g90
g71
NtRp2662
(dp2663
g74
(dp2664
g94
g95
ssg83
g2658
sg76
(lp2665
g432
asbag69
(g90
g71
NtRp2666
(dp2667
g74
(dp2668
g101
g102
ssg83
g2658
sg76
(lp2669
S':'
asbag69
(g90
g71
NtRp2670
(dp2671
g74
(dp2672
sg83
g2658
sg76
(lp2673
g69
(g70
g71
NtRp2674
(dp2675
g74
(dp2676
g82
I3
ssg83
g2670
sg76
(lp2677
S''
asbasbasbag69
(g85
g71
NtRp2678
(dp2679
g74
(dp2680
sg83
g2534
sg76
(lp2681
g69
(g90
g71
NtRp2682
(dp2683
g74
(dp2684
g94
g95
ssg83
g2678
sg76
(lp2685
g453
asbag69
(g90
g71
NtRp2686
(dp2687
g74
(dp2688
g101
g102
ssg83
g2678
sg76
(lp2689
S':'
asbag69
(g90
g71
NtRp2690
(dp2691
g74
(dp2692
sg83
g2678
sg76
(lp2693
g69
(g70
g71
NtRp2694
(dp2695
g74
(dp2696
g82
I3
ssg83
g2690
sg76
(lp2697
S''
asbasbasbasbasbasbasbasbasbasbasbag69
(g85
g71
NtRp2698
(dp2699
g74
(dp2700
sg83
g79
sg76
(lp2701
g69
(g90
g71
NtRp2702
(dp2703
g74
(dp2704
g94
g95
ssg83
g2698
sg76
(lp2705
S'env'
p2706
asbag69
(g90
g71
NtRp2707
(dp2708
g74
(dp2709
g101
g102
ssg83
g2698
sg76
(lp2710
S':'
asbag69
(g90
g71
NtRp2711
(dp2712
g74
(dp2713
sg83
g2698
sg76
(lp2714
g69
(g70
g71
NtRp2715
(dp2716
g74
(dp2717
g82
I5
ssg83
g2711
sg76
(lp2718
g69
(g78
g71
NtRp2719
(dp2720
g74
(dp2721
g82
I4
ssg83
Nsg76
(lp2722
g69
(g85
g71
NtRp2723
(dp2724
g74
(dp2725
sg83
g2719
sg76
(lp2726
g69
(g90
g71
NtRp2727
(dp2728
g74
(dp2729
g94
g95
ssg83
g2723
sg76
(lp2730
S'app_folders'
p2731
asbag69
(g90
g71
NtRp2732
(dp2733
g74
(dp2734
g101
g102
ssg83
g2723
sg76
(lp2735
S':'
asbag69
(g90
g71
NtRp2736
(dp2737
g74
(dp2738
sg83
g2723
sg76
(lp2739
g69
(g70
g71
NtRp2740
(dp2741
g74
(dp2742
g82
I4
ssg83
g2736
sg76
(lp2743
S"set(['/home/pankaj/web2py/applications/admin/', '/home/pankaj/web2py/applications/welcome/', '/home/pankaj/web2py/applications/reddit/'])"
p2744
asbasbasbag69
(g85
g71
NtRp2745
(dp2746
g74
(dp2747
sg83
g2719
sg76
(lp2748
g69
(g90
g71
NtRp2749
(dp2750
g74
(dp2751
g94
g95
ssg83
g2745
sg76
(lp2752
S'applications_parent'
p2753
asbag69
(g90
g71
NtRp2754
(dp2755
g74
(dp2756
g101
g102
ssg83
g2745
sg76
(lp2757
S':'
asbag69
(g90
g71
NtRp2758
(dp2759
g74
(dp2760
sg83
g2745
sg76
(lp2761
g69
(g70
g71
NtRp2762
(dp2763
g74
(dp2764
g82
I4
ssg83
g2758
sg76
(lp2765
S'/home/pankaj/web2py'
p2766
asbasbasbag69
(g85
g71
NtRp2767
(dp2768
g74
(dp2769
sg83
g2719
sg76
(lp2770
g69
(g90
g71
NtRp2771
(dp2772
g74
(dp2773
g94
g95
ssg83
g2767
sg76
(lp2774
S'cmd_args'
p2775
asbag69
(g90
g71
NtRp2776
(dp2777
g74
(dp2778
g101
g102
ssg83
g2767
sg76
(lp2779
S':'
asbag69
(g90
g71
NtRp2780
(dp2781
g74
(dp2782
sg83
g2767
sg76
(lp2783
g69
(g70
g71
NtRp2784
(dp2785
g74
(dp2786
g82
I4
ssg83
g2780
sg76
(lp2787
g69
(g78
g71
NtRp2788
(dp2789
g74
(dp2790
g82
I3
ssg83
Nsg76
(lp2791
sbasbasbasbag69
(g85
g71
NtRp2792
(dp2793
g74
(dp2794
sg83
g2719
sg76
(lp2795
g69
(g90
g71
NtRp2796
(dp2797
g74
(dp2798
g94
g95
ssg83
g2792
sg76
(lp2799
S'cmd_options'
p2800
asbag69
(g90
g71
NtRp2801
(dp2802
g74
(dp2803
g101
g102
ssg83
g2792
sg76
(lp2804
S':'
asbag69
(g90
g71
NtRp2805
(dp2806
g74
(dp2807
sg83
g2792
sg76
(lp2808
g69
(g70
g71
NtRp2809
(dp2810
g74
(dp2811
g82
I4
ssg83
g2805
sg76
(lp2812
S"<Values at 0x9843dcc: {'verbose': False, 'ip': '127.0.0.1', 'with_scheduler': False, 'ips': [], 'shutdown_timeout': 5, 'taskbar': False, 'port': 8000, 'maxthreads': None, 'softcron': False, 'server_name': 'pankaj-HP-Pavilion-dv4-Notebook-PC', 'bpython': False, 'nogui': False, 'pid_filename': 'httpserver.pid', 'extcron': False, 'runcron': False, 'run_system_tests': False, 'test': None, 'folder': '/home/pankaj/web2py', 'config': '', 'import_models': False, 'winservice': '', 'shell': None, 'run': '', 'log_filename': 'httpserver.log', 'debuglevel': 30, 'args': [''], 'socket_timeout': 5, 'ssl_ca_certificate': None, 'scheduler': None, 'profiler_filename': None, 'ssl_private_key': '', 'scheduler_groups': None, 'password': '<ask>', 'request_queue_size': 5, 'ssl_certificate': '', 'cronjob': False, 'numthreads': None, 'quiet': False, 'interfaces': None, 'minthreads': None, 'timeout': 10, 'plain': False, 'nobanner': False}>"
p2813
asbasbasbag69
(g85
g71
NtRp2814
(dp2815
g74
(dp2816
sg83
g2719
sg76
(lp2817
g69
(g90
g71
NtRp2818
(dp2819
g74
(dp2820
g94
g95
ssg83
g2814
sg76
(lp2821
S'db_sessions'
p2822
asbag69
(g90
g71
NtRp2823
(dp2824
g74
(dp2825
g101
g102
ssg83
g2814
sg76
(lp2826
S':'
asbag69
(g90
g71
NtRp2827
(dp2828
g74
(dp2829
sg83
g2814
sg76
(lp2830
g69
(g70
g71
NtRp2831
(dp2832
g74
(dp2833
g82
I4
ssg83
g2827
sg76
(lp2834
S'set([])'
p2835
asbasbasbag69
(g85
g71
NtRp2836
(dp2837
g74
(dp2838
sg83
g2719
sg76
(lp2839
g69
(g90
g71
NtRp2840
(dp2841
g74
(dp2842
g94
g95
ssg83
g2836
sg76
(lp2843
S'debugging'
p2844
asbag69
(g90
g71
NtRp2845
(dp2846
g74
(dp2847
g101
g102
ssg83
g2836
sg76
(lp2848
S':'
asbag69
(g90
g71
NtRp2849
(dp2850
g74
(dp2851
sg83
g2836
sg76
(lp2852
g69
(g70
g71
NtRp2853
(dp2854
g74
(dp2855
g82
I4
ssg83
g2849
sg76
(lp2856
g112
asbasbasbag69
(g85
g71
NtRp2857
(dp2858
g74
(dp2859
sg83
g2719
sg76
(lp2860
g69
(g90
g71
NtRp2861
(dp2862
g74
(dp2863
g94
g95
ssg83
g2857
sg76
(lp2864
S'gluon_parent'
p2865
asbag69
(g90
g71
NtRp2866
(dp2867
g74
(dp2868
g101
g102
ssg83
g2857
sg76
(lp2869
S':'
asbag69
(g90
g71
NtRp2870
(dp2871
g74
(dp2872
sg83
g2857
sg76
(lp2873
g69
(g70
g71
NtRp2874
(dp2875
g74
(dp2876
g82
I4
ssg83
g2870
sg76
(lp2877
S'/home/pankaj/web2py'
p2878
asbasbasbag69
(g85
g71
NtRp2879
(dp2880
g74
(dp2881
sg83
g2719
sg76
(lp2882
g69
(g90
g71
NtRp2883
(dp2884
g74
(dp2885
g94
g95
ssg83
g2879
sg76
(lp2886
S'http_accept'
p2887
asbag69
(g90
g71
NtRp2888
(dp2889
g74
(dp2890
g101
g102
ssg83
g2879
sg76
(lp2891
S':'
asbag69
(g90
g71
NtRp2892
(dp2893
g74
(dp2894
sg83
g2879
sg76
(lp2895
g69
(g70
g71
NtRp2896
(dp2897
g74
(dp2898
g82
I4
ssg83
g2892
sg76
(lp2899
S'text/html,application/xhtml+xml,application/xml;q=0.9,*/*;q=0.8'
p2900
asbasbasbag69
(g85
g71
NtRp2901
(dp2902
g74
(dp2903
sg83
g2719
sg76
(lp2904
g69
(g90
g71
NtRp2905
(dp2906
g74
(dp2907
g94
g95
ssg83
g2901
sg76
(lp2908
S'http_accept_encoding'
p2909
asbag69
(g90
g71
NtRp2910
(dp2911
g74
(dp2912
g101
g102
ssg83
g2901
sg76
(lp2913
S':'
asbag69
(g90
g71
NtRp2914
(dp2915
g74
(dp2916
sg83
g2901
sg76
(lp2917
g69
(g70
g71
NtRp2918
(dp2919
g74
(dp2920
g82
I4
ssg83
g2914
sg76
(lp2921
S'gzip, deflate'
p2922
asbasbasbag69
(g85
g71
NtRp2923
(dp2924
g74
(dp2925
sg83
g2719
sg76
(lp2926
g69
(g90
g71
NtRp2927
(dp2928
g74
(dp2929
g94
g95
ssg83
g2923
sg76
(lp2930
S'http_accept_language'
p2931
asbag69
(g90
g71
NtRp2932
(dp2933
g74
(dp2934
g101
g102
ssg83
g2923
sg76
(lp2935
S':'
asbag69
(g90
g71
NtRp2936
(dp2937
g74
(dp2938
sg83
g2923
sg76
(lp2939
g69
(g70
g71
NtRp2940
(dp2941
g74
(dp2942
g82
I4
ssg83
g2936
sg76
(lp2943
S'en-US,en;q=0.5'
p2944
asbasbasbag69
(g85
g71
NtRp2945
(dp2946
g74
(dp2947
sg83
g2719
sg76
(lp2948
g69
(g90
g71
NtRp2949
(dp2950
g74
(dp2951
g94
g95
ssg83
g2945
sg76
(lp2952
S'http_cache_control'
p2953
asbag69
(g90
g71
NtRp2954
(dp2955
g74
(dp2956
g101
g102
ssg83
g2945
sg76
(lp2957
S':'
asbag69
(g90
g71
NtRp2958
(dp2959
g74
(dp2960
sg83
g2945
sg76
(lp2961
g69
(g70
g71
NtRp2962
(dp2963
g74
(dp2964
g82
I4
ssg83
g2958
sg76
(lp2965
S'max-age=0'
p2966
asbasbasbag69
(g85
g71
NtRp2967
(dp2968
g74
(dp2969
sg83
g2719
sg76
(lp2970
g69
(g90
g71
NtRp2971
(dp2972
g74
(dp2973
g94
g95
ssg83
g2967
sg76
(lp2974
S'http_connection'
p2975
asbag69
(g90
g71
NtRp2976
(dp2977
g74
(dp2978
g101
g102
ssg83
g2967
sg76
(lp2979
S':'
asbag69
(g90
g71
NtRp2980
(dp2981
g74
(dp2982
sg83
g2967
sg76
(lp2983
g69
(g70
g71
NtRp2984
(dp2985
g74
(dp2986
g82
I4
ssg83
g2980
sg76
(lp2987
S'keep-alive'
p2988
asbasbasbag69
(g85
g71
NtRp2989
(dp2990
g74
(dp2991
sg83
g2719
sg76
(lp2992
g69
(g90
g71
NtRp2993
(dp2994
g74
(dp2995
g94
g95
ssg83
g2989
sg76
(lp2996
S'http_cookie'
p2997
asbag69
(g90
g71
NtRp2998
(dp2999
g74
(dp3000
g101
g102
ssg83
g2989
sg76
(lp3001
S':'
asbag69
(g90
g71
NtRp3002
(dp3003
g74
(dp3004
sg83
g2989
sg76
(lp3005
g69
(g70
g71
NtRp3006
(dp3007
g74
(dp3008
g82
I4
ssg83
g3002
sg76
(lp3009
S'session_id_reddit=127.0.0.1-24289f39-32a1-48fb-a367-22792fb8b813; session_id_20120156_assignment_1=127.0.0.1-6cad324c-0572-4be8-8f41-6fcaca863c93; session_id_arihant=127.0.0.1-fa99deb6-5977-491c-864a-b5d79c0d1842; session_id_cataminder=127.0.0.1-81b628a7-34a5-4e70-a95c-79ef710dcdbb; session_id_courses=127.0.0.1-1d46c4eb-fdfc-4abb-bb62-6bcf52d1fcaa; session_id_iiit_fb=127.0.0.1-04b7df24-4720-4bb5-98de-96b98776240d; session_id_myapp=127.0.0.1-f28af7a6-9d1e-4a86-bd34-27605492a231; session_id_project=127.0.0.1-029ca61b-f875-404a-b7ff-1634c44ab767; session_id_testlayout=127.0.0.1-0b2689a2-d3bd-4ee8-ad96-af4d7e3e9ad1; session_id_vikramahuja=127.0.0.1-a555d16d-54b5-476d-a152-f88918b513fe; session_id_try=127.0.0.1-4d514347-24a9-48c9-9e7c-4ac4f4a70173; session_id_welcome=127.0.0.1-a85dd4d7-ab1c-49ab-856d-4173a26ef319; session_id_admin=127.0.0.1-eea59e1b-9257-4df1-8c44-da77bf9e4ec2'
p3010
asbasbasbag69
(g85
g71
NtRp3011
(dp3012
g74
(dp3013
sg83
g2719
sg76
(lp3014
g69
(g90
g71
NtRp3015
(dp3016
g74
(dp3017
g94
g95
ssg83
g3011
sg76
(lp3018
S'http_host'
p3019
asbag69
(g90
g71
NtRp3020
(dp3021
g74
(dp3022
g101
g102
ssg83
g3011
sg76
(lp3023
S':'
asbag69
(g90
g71
NtRp3024
(dp3025
g74
(dp3026
sg83
g3011
sg76
(lp3027
g69
(g70
g71
NtRp3028
(dp3029
g74
(dp3030
g82
I4
ssg83
g3024
sg76
(lp3031
S'127.0.0.1:8000'
p3032
asbasbasbag69
(g85
g71
NtRp3033
(dp3034
g74
(dp3035
sg83
g2719
sg76
(lp3036
g69
(g90
g71
NtRp3037
(dp3038
g74
(dp3039
g94
g95
ssg83
g3033
sg76
(lp3040
S'http_referer'
p3041
asbag69
(g90
g71
NtRp3042
(dp3043
g74
(dp3044
g101
g102
ssg83
g3033
sg76
(lp3045
S':'
asbag69
(g90
g71
NtRp3046
(dp3047
g74
(dp3048
sg83
g3033
sg76
(lp3049
g69
(g70
g71
NtRp3050
(dp3051
g74
(dp3052
g82
I4
ssg83
g3046
sg76
(lp3053
S'http://127.0.0.1:8000/reddit/default/addpost'
p3054
asbasbasbag69
(g85
g71
NtRp3055
(dp3056
g74
(dp3057
sg83
g2719
sg76
(lp3058
g69
(g90
g71
NtRp3059
(dp3060
g74
(dp3061
g94
g95
ssg83
g3055
sg76
(lp3062
S'http_user_agent'
p3063
asbag69
(g90
g71
NtRp3064
(dp3065
g74
(dp3066
g101
g102
ssg83
g3055
sg76
(lp3067
S':'
asbag69
(g90
g71
NtRp3068
(dp3069
g74
(dp3070
sg83
g3055
sg76
(lp3071
g69
(g70
g71
NtRp3072
(dp3073
g74
(dp3074
g82
I4
ssg83
g3068
sg76
(lp3075
S'Mozilla/5.0 (X11; Ubuntu; Linux i686; rv:22.0) Gecko/20100101 Firefox/22.0'
p3076
asbasbasbag69
(g85
g71
NtRp3077
(dp3078
g74
(dp3079
sg83
g2719
sg76
(lp3080
g69
(g90
g71
NtRp3081
(dp3082
g74
(dp3083
g94
g95
ssg83
g3077
sg76
(lp3084
S'is_jython'
p3085
asbag69
(g90
g71
NtRp3086
(dp3087
g74
(dp3088
g101
g102
ssg83
g3077
sg76
(lp3089
S':'
asbag69
(g90
g71
NtRp3090
(dp3091
g74
(dp3092
sg83
g3077
sg76
(lp3093
g69
(g70
g71
NtRp3094
(dp3095
g74
(dp3096
g82
I4
ssg83
g3090
sg76
(lp3097
g112
asbasbasbag69
(g85
g71
NtRp3098
(dp3099
g74
(dp3100
sg83
g2719
sg76
(lp3101
g69
(g90
g71
NtRp3102
(dp3103
g74
(dp3104
g94
g95
ssg83
g3098
sg76
(lp3105
S'is_pypy'
p3106
asbag69
(g90
g71
NtRp3107
(dp3108
g74
(dp3109
g101
g102
ssg83
g3098
sg76
(lp3110
S':'
asbag69
(g90
g71
NtRp3111
(dp3112
g74
(dp3113
sg83
g3098
sg76
(lp3114
g69
(g70
g71
NtRp3115
(dp3116
g74
(dp3117
g82
I4
ssg83
g3111
sg76
(lp3118
g112
asbasbasbag69
(g85
g71
NtRp3119
(dp3120
g74
(dp3121
sg83
g2719
sg76
(lp3122
g69
(g90
g71
NtRp3123
(dp3124
g74
(dp3125
g94
g95
ssg83
g3119
sg76
(lp3126
S'local_hosts'
p3127
asbag69
(g90
g71
NtRp3128
(dp3129
g74
(dp3130
g101
g102
ssg83
g3119
sg76
(lp3131
S':'
asbag69
(g90
g71
NtRp3132
(dp3133
g74
(dp3134
sg83
g3119
sg76
(lp3135
g69
(g70
g71
NtRp3136
(dp3137
g74
(dp3138
g82
I4
ssg83
g3132
sg76
(lp3139
g69
(g78
g71
NtRp3140
(dp3141
g74
(dp3142
g82
I3
ssg83
Nsg76
(lp3143
g69
(g85
g71
NtRp3144
(dp3145
g74
(dp3146
sg83
g3140
sg76
(lp3147
g69
(g90
g71
NtRp3148
(dp3149
g74
(dp3150
sg83
g3144
sg76
(lp3151
g69
(g70
g71
NtRp3152
(dp3153
g74
(dp3154
g82
I3
ssg83
g3148
sg76
(lp3155
S'pankaj-HP-Pavilion-dv4-Notebook-PC'
p3156
asbasbasbag69
(g85
g71
NtRp3157
(dp3158
g74
(dp3159
sg83
g3140
sg76
(lp3160
g69
(g90
g71
NtRp3161
(dp3162
g74
(dp3163
sg83
g3157
sg76
(lp3164
g69
(g70
g71
NtRp3165
(dp3166
g74
(dp3167
g82
I3
ssg83
g3161
sg76
(lp3168
S'::1'
p3169
asbasbasbag69
(g85
g71
NtRp3170
(dp3171
g74
(dp3172
sg83
g3140
sg76
(lp3173
g69
(g90
g71
NtRp3174
(dp3175
g74
(dp3176
sg83
g3170
sg76
(lp3177
g69
(g70
g71
NtRp3178
(dp3179
g74
(dp3180
g82
I3
ssg83
g3174
sg76
(lp3181
S'127.0.1.1'
p3182
asbasbasbag69
(g85
g71
NtRp3183
(dp3184
g74
(dp3185
sg83
g3140
sg76
(lp3186
g69
(g90
g71
NtRp3187
(dp3188
g74
(dp3189
sg83
g3183
sg76
(lp3190
g69
(g70
g71
NtRp3191
(dp3192
g74
(dp3193
g82
I3
ssg83
g3187
sg76
(lp3194
S'::ffff:127.0.0.1'
p3195
asbasbasbag69
(g85
g71
NtRp3196
(dp3197
g74
(dp3198
sg83
g3140
sg76
(lp3199
g69
(g90
g71
NtRp3200
(dp3201
g74
(dp3202
sg83
g3196
sg76
(lp3203
g69
(g70
g71
NtRp3204
(dp3205
g74
(dp3206
g82
I3
ssg83
g3200
sg76
(lp3207
S'127.0.0.1'
p3208
asbasbasbasbasbasbasbag69
(g85
g71
NtRp3209
(dp3210
g74
(dp3211
sg83
g2719
sg76
(lp3212
g69
(g90
g71
NtRp3213
(dp3214
g74
(dp3215
g94
g95
ssg83
g3209
sg76
(lp3216
S'path_info'
p3217
asbag69
(g90
g71
NtRp3218
(dp3219
g74
(dp3220
g101
g102
ssg83
g3209
sg76
(lp3221
S':'
asbag69
(g90
g71
NtRp3222
(dp3223
g74
(dp3224
sg83
g3209
sg76
(lp3225
g69
(g70
g71
NtRp3226
(dp3227
g74
(dp3228
g82
I4
ssg83
g3222
sg76
(lp3229
S'/reddit/default/index'
p3230
asbasbasbag69
(g85
g71
NtRp3231
(dp3232
g74
(dp3233
sg83
g2719
sg76
(lp3234
g69
(g90
g71
NtRp3235
(dp3236
g74
(dp3237
g94
g95
ssg83
g3231
sg76
(lp3238
S'query_string'
p3239
asbag69
(g90
g71
NtRp3240
(dp3241
g74
(dp3242
g101
g102
ssg83
g3231
sg76
(lp3243
S':'
asbag69
(g90
g71
NtRp3244
(dp3245
g74
(dp3246
sg83
g3231
sg76
(lp3247
g69
(g70
g71
NtRp3248
(dp3249
g74
(dp3250
g82
I4
ssg83
g3244
sg76
(lp3251
S''
asbasbasbag69
(g85
g71
NtRp3252
(dp3253
g74
(dp3254
sg83
g2719
sg76
(lp3255
g69
(g90
g71
NtRp3256
(dp3257
g74
(dp3258
g94
g95
ssg83
g3252
sg76
(lp3259
S'remote_addr'
p3260
asbag69
(g90
g71
NtRp3261
(dp3262
g74
(dp3263
g101
g102
ssg83
g3252
sg76
(lp3264
S':'
asbag69
(g90
g71
NtRp3265
(dp3266
g74
(dp3267
sg83
g3252
sg76
(lp3268
g69
(g70
g71
NtRp3269
(dp3270
g74
(dp3271
g82
I4
ssg83
g3265
sg76
(lp3272
g224
asbasbasbag69
(g85
g71
NtRp3273
(dp3274
g74
(dp3275
sg83
g2719
sg76
(lp3276
g69
(g90
g71
NtRp3277
(dp3278
g74
(dp3279
g94
g95
ssg83
g3273
sg76
(lp3280
S'remote_port'
p3281
asbag69
(g90
g71
NtRp3282
(dp3283
g74
(dp3284
g101
g102
ssg83
g3273
sg76
(lp3285
S':'
asbag69
(g90
g71
NtRp3286
(dp3287
g74
(dp3288
sg83
g3273
sg76
(lp3289
g69
(g70
g71
NtRp3290
(dp3291
g74
(dp3292
g82
I4
ssg83
g3286
sg76
(lp3293
S'33407'
p3294
asbasbasbag69
(g85
g71
NtRp3295
(dp3296
g74
(dp3297
sg83
g2719
sg76
(lp3298
g69
(g90
g71
NtRp3299
(dp3300
g74
(dp3301
g94
g95
ssg83
g3295
sg76
(lp3302
S'request_method'
p3303
asbag69
(g90
g71
NtRp3304
(dp3305
g74
(dp3306
g101
g102
ssg83
g3295
sg76
(lp3307
S':'
asbag69
(g90
g71
NtRp3308
(dp3309
g74
(dp3310
sg83
g3295
sg76
(lp3311
g69
(g70
g71
NtRp3312
(dp3313
g74
(dp3314
g82
I4
ssg83
g3308
sg76
(lp3315
S'GET'
p3316
asbasbasbag69
(g85
g71
NtRp3317
(dp3318
g74
(dp3319
sg83
g2719
sg76
(lp3320
g69
(g90
g71
NtRp3321
(dp3322
g74
(dp3323
g94
g95
ssg83
g3317
sg76
(lp3324
S'request_uri'
p3325
asbag69
(g90
g71
NtRp3326
(dp3327
g74
(dp3328
g101
g102
ssg83
g3317
sg76
(lp3329
S':'
asbag69
(g90
g71
NtRp3330
(dp3331
g74
(dp3332
sg83
g3317
sg76
(lp3333
g69
(g70
g71
NtRp3334
(dp3335
g74
(dp3336
g82
I4
ssg83
g3330
sg76
(lp3337
g3230
asbasbasbag69
(g85
g71
NtRp3338
(dp3339
g74
(dp3340
sg83
g2719
sg76
(lp3341
g69
(g90
g71
NtRp3342
(dp3343
g74
(dp3344
g94
g95
ssg83
g3338
sg76
(lp3345
S'script_name'
p3346
asbag69
(g90
g71
NtRp3347
(dp3348
g74
(dp3349
g101
g102
ssg83
g3338
sg76
(lp3350
S':'
asbag69
(g90
g71
NtRp3351
(dp3352
g74
(dp3353
sg83
g3338
sg76
(lp3354
g69
(g70
g71
NtRp3355
(dp3356
g74
(dp3357
g82
I4
ssg83
g3351
sg76
(lp3358
S''
asbasbasbag69
(g85
g71
NtRp3359
(dp3360
g74
(dp3361
sg83
g2719
sg76
(lp3362
g69
(g90
g71
NtRp3363
(dp3364
g74
(dp3365
g94
g95
ssg83
g3359
sg76
(lp3366
S'server_name'
p3367
asbag69
(g90
g71
NtRp3368
(dp3369
g74
(dp3370
g101
g102
ssg83
g3359
sg76
(lp3371
S':'
asbag69
(g90
g71
NtRp3372
(dp3373
g74
(dp3374
sg83
g3359
sg76
(lp3375
g69
(g70
g71
NtRp3376
(dp3377
g74
(dp3378
g82
I4
ssg83
g3372
sg76
(lp3379
S'pankaj-HP-Pavilion-dv4-Notebook-PC'
p3380
asbasbasbag69
(g85
g71
NtRp3381
(dp3382
g74
(dp3383
sg83
g2719
sg76
(lp3384
g69
(g90
g71
NtRp3385
(dp3386
g74
(dp3387
g94
g95
ssg83
g3381
sg76
(lp3388
S'server_port'
p3389
asbag69
(g90
g71
NtRp3390
(dp3391
g74
(dp3392
g101
g102
ssg83
g3381
sg76
(lp3393
S':'
asbag69
(g90
g71
NtRp3394
(dp3395
g74
(dp3396
sg83
g3381
sg76
(lp3397
g69
(g70
g71
NtRp3398
(dp3399
g74
(dp3400
g82
I4
ssg83
g3394
sg76
(lp3401
S'8000'
p3402
asbasbasbag69
(g85
g71
NtRp3403
(dp3404
g74
(dp3405
sg83
g2719
sg76
(lp3406
g69
(g90
g71
NtRp3407
(dp3408
g74
(dp3409
g94
g95
ssg83
g3403
sg76
(lp3410
S'server_protocol'
p3411
asbag69
(g90
g71
NtRp3412
(dp3413
g74
(dp3414
g101
g102
ssg83
g3403
sg76
(lp3415
S':'
asbag69
(g90
g71
NtRp3416
(dp3417
g74
(dp3418
sg83
g3403
sg76
(lp3419
g69
(g70
g71
NtRp3420
(dp3421
g74
(dp3422
g82
I4
ssg83
g3416
sg76
(lp3423
S'HTTP/1.1'
p3424
asbasbasbag69
(g85
g71
NtRp3425
(dp3426
g74
(dp3427
sg83
g2719
sg76
(lp3428
g69
(g90
g71
NtRp3429
(dp3430
g74
(dp3431
g94
g95
ssg83
g3425
sg76
(lp3432
S'server_software'
p3433
asbag69
(g90
g71
NtRp3434
(dp3435
g74
(dp3436
g101
g102
ssg83
g3425
sg76
(lp3437
S':'
asbag69
(g90
g71
NtRp3438
(dp3439
g74
(dp3440
sg83
g3425
sg76
(lp3441
g69
(g70
g71
NtRp3442
(dp3443
g74
(dp3444
g82
I4
ssg83
g3438
sg76
(lp3445
S'Rocket 1.2.6'
p3446
asbasbasbag69
(g85
g71
NtRp3447
(dp3448
g74
(dp3449
sg83
g2719
sg76
(lp3450
g69
(g90
g71
NtRp3451
(dp3452
g74
(dp3453
g94
g95
ssg83
g3447
sg76
(lp3454
S'web2py_path'
p3455
asbag69
(g90
g71
NtRp3456
(dp3457
g74
(dp3458
g101
g102
ssg83
g3447
sg76
(lp3459
S':'
asbag69
(g90
g71
NtRp3460
(dp3461
g74
(dp3462
sg83
g3447
sg76
(lp3463
g69
(g70
g71
NtRp3464
(dp3465
g74
(dp3466
g82
I4
ssg83
g3460
sg76
(lp3467
g2766
asbasbasbag69
(g85
g71
NtRp3468
(dp3469
g74
(dp3470
sg83
g2719
sg76
(lp3471
g69
(g90
g71
NtRp3472
(dp3473
g74
(dp3474
g94
g95
ssg83
g3468
sg76
(lp3475
S'web2py_version'
p3476
asbag69
(g90
g71
NtRp3477
(dp3478
g74
(dp3479
g101
g102
ssg83
g3468
sg76
(lp3480
S':'
asbag69
(g90
g71
NtRp3481
(dp3482
g74
(dp3483
sg83
g3468
sg76
(lp3484
g69
(g70
g71
NtRp3485
(dp3486
g74
(dp3487
g82
I4
ssg83
g3481
sg76
(lp3488
g69
(g78
g71
NtRp3489
(dp3490
g74
(dp3491
g82
I3
ssg83
Nsg76
(lp3492
g69
(g85
g71
NtRp3493
(dp3494
g74
(dp3495
sg83
g3489
sg76
(lp3496
g69
(g90
g71
NtRp3497
(dp3498
g74
(dp3499
sg83
g3493
sg76
(lp3500
g69
(g70
g71
NtRp3501
(dp3502
g74
(dp3503
g82
I3
ssg83
g3497
sg76
(lp3504
S'2'
asbasbasbag69
(g85
g71
NtRp3505
(dp3506
g74
(dp3507
sg83
g3489
sg76
(lp3508
g69
(g90
g71
NtRp3509
(dp3510
g74
(dp3511
sg83
g3505
sg76
(lp3512
g69
(g70
g71
NtRp3513
(dp3514
g74
(dp3515
g82
I3
ssg83
g3509
sg76
(lp3516
S'3'
asbasbasbag69
(g85
g71
NtRp3517
(dp3518
g74
(dp3519
sg83
g3489
sg76
(lp3520
g69
(g90
g71
NtRp3521
(dp3522
g74
(dp3523
sg83
g3517
sg76
(lp3524
g69
(g70
g71
NtRp3525
(dp3526
g74
(dp3527
g82
I3
ssg83
g3521
sg76
(lp3528
S'2'
asbasbasbag69
(g85
g71
NtRp3529
(dp3530
g74
(dp3531
sg83
g3489
sg76
(lp3532
g69
(g90
g71
NtRp3533
(dp3534
g74
(dp3535
sg83
g3529
sg76
(lp3536
g69
(g70
g71
NtRp3537
(dp3538
g74
(dp3539
g82
I3
ssg83
g3533
sg76
(lp3540
S'datetime.datetime(2012, 12, 17, 15, 3, 30)'
p3541
asbasbasbag69
(g85
g71
NtRp3542
(dp3543
g74
(dp3544
sg83
g3489
sg76
(lp3545
g69
(g90
g71
NtRp3546
(dp3547
g74
(dp3548
sg83
g3542
sg76
(lp3549
g69
(g70
g71
NtRp3550
(dp3551
g74
(dp3552
g82
I3
ssg83
g3546
sg76
(lp3553
S'stable'
p3554
asbasbasbasbasbasbasbag69
(g85
g71
NtRp3555
(dp3556
g74
(dp3557
sg83
g2719
sg76
(lp3558
g69
(g90
g71
NtRp3559
(dp3560
g74
(dp3561
g94
g95
ssg83
g3555
sg76
(lp3562
S'wsgi_errors'
p3563
asbag69
(g90
g71
NtRp3564
(dp3565
g74
(dp3566
g101
g102
ssg83
g3555
sg76
(lp3567
S':'
asbag69
(g90
g71
NtRp3568
(dp3569
g74
(dp3570
sg83
g3555
sg76
(lp3571
g69
(g70
g71
NtRp3572
(dp3573
g74
(dp3574
g82
I4
ssg83
g3568
sg76
(lp3575
S"<open file '<stderr>', mode 'w' at 0xb73000d0>"
p3576
asbasbasbag69
(g85
g71
NtRp3577
(dp3578
g74
(dp3579
sg83
g2719
sg76
(lp3580
g69
(g90
g71
NtRp3581
(dp3582
g74
(dp3583
g94
g95
ssg83
g3577
sg76
(lp3584
S'wsgi_file_wrapper'
p3585
asbag69
(g90
g71
NtRp3586
(dp3587
g74
(dp3588
g101
g102
ssg83
g3577
sg76
(lp3589
S':'
asbag69
(g90
g71
NtRp3590
(dp3591
g74
(dp3592
sg83
g3577
sg76
(lp3593
g69
(g70
g71
NtRp3594
(dp3595
g74
(dp3596
g82
I4
ssg83
g3590
sg76
(lp3597
S'<class wsgiref.util.FileWrapper at 0x980905c>'
p3598
asbasbasbag69
(g85
g71
NtRp3599
(dp3600
g74
(dp3601
sg83
g2719
sg76
(lp3602
g69
(g90
g71
NtRp3603
(dp3604
g74
(dp3605
g94
g95
ssg83
g3599
sg76
(lp3606
S'wsgi_input'
p3607
asbag69
(g90
g71
NtRp3608
(dp3609
g74
(dp3610
g101
g102
ssg83
g3599
sg76
(lp3611
S':'
asbag69
(g90
g71
NtRp3612
(dp3613
g74
(dp3614
sg83
g3599
sg76
(lp3615
g69
(g70
g71
NtRp3616
(dp3617
g74
(dp3618
g82
I4
ssg83
g3612
sg76
(lp3619
S'<socket._fileobject object at 0xade57b6c>'
p3620
asbasbasbag69
(g85
g71
NtRp3621
(dp3622
g74
(dp3623
sg83
g2719
sg76
(lp3624
g69
(g90
g71
NtRp3625
(dp3626
g74
(dp3627
g94
g95
ssg83
g3621
sg76
(lp3628
S'wsgi_multiprocess'
p3629
asbag69
(g90
g71
NtRp3630
(dp3631
g74
(dp3632
g101
g102
ssg83
g3621
sg76
(lp3633
S':'
asbag69
(g90
g71
NtRp3634
(dp3635
g74
(dp3636
sg83
g3621
sg76
(lp3637
g69
(g70
g71
NtRp3638
(dp3639
g74
(dp3640
g82
I4
ssg83
g3634
sg76
(lp3641
g112
asbasbasbag69
(g85
g71
NtRp3642
(dp3643
g74
(dp3644
sg83
g2719
sg76
(lp3645
g69
(g90
g71
NtRp3646
(dp3647
g74
(dp3648
g94
g95
ssg83
g3642
sg76
(lp3649
S'wsgi_multithread'
p3650
asbag69
(g90
g71
NtRp3651
(dp3652
g74
(dp3653
g101
g102
ssg83
g3642
sg76
(lp3654
S':'
asbag69
(g90
g71
NtRp3655
(dp3656
g74
(dp3657
sg83
g3642
sg76
(lp3658
g69
(g70
g71
NtRp3659
(dp3660
g74
(dp3661
g82
I4
ssg83
g3655
sg76
(lp3662
S'True'
p3663
asbasbasbag69
(g85
g71
NtRp3664
(dp3665
g74
(dp3666
sg83
g2719
sg76
(lp3667
g69
(g90
g71
NtRp3668
(dp3669
g74
(dp3670
g94
g95
ssg83
g3664
sg76
(lp3671
S'wsgi_run_once'
p3672
asbag69
(g90
g71
NtRp3673
(dp3674
g74
(dp3675
g101
g102
ssg83
g3664
sg76
(lp3676
S':'
asbag69
(g90
g71
NtRp3677
(dp3678
g74
(dp3679
sg83
g3664
sg76
(lp3680
g69
(g70
g71
NtRp3681
(dp3682
g74
(dp3683
g82
I4
ssg83
g3677
sg76
(lp3684
g112
asbasbasbag69
(g85
g71
NtRp3685
(dp3686
g74
(dp3687
sg83
g2719
sg76
(lp3688
g69
(g90
g71
NtRp3689
(dp3690
g74
(dp3691
g94
g95
ssg83
g3685
sg76
(lp3692
S'wsgi_url_scheme'
p3693
asbag69
(g90
g71
NtRp3694
(dp3695
g74
(dp3696
g101
g102
ssg83
g3685
sg76
(lp3697
S':'
asbag69
(g90
g71
NtRp3698
(dp3699
g74
(dp3700
sg83
g3685
sg76
(lp3701
g69
(g70
g71
NtRp3702
(dp3703
g74
(dp3704
g82
I4
ssg83
g3698
sg76
(lp3705
S'http'
p3706
asbasbasbag69
(g85
g71
NtRp3707
(dp3708
g74
(dp3709
sg83
g2719
sg76
(lp3710
g69
(g90
g71
NtRp3711
(dp3712
g74
(dp3713
g94
g95
ssg83
g3707
sg76
(lp3714
S'wsgi_version'
p3715
asbag69
(g90
g71
NtRp3716
(dp3717
g74
(dp3718
g101
g102
ssg83
g3707
sg76
(lp3719
S':'
asbag69
(g90
g71
NtRp3720
(dp3721
g74
(dp3722
sg83
g3707
sg76
(lp3723
g69
(g70
g71
NtRp3724
(dp3725
g74
(dp3726
g82
I4
ssg83
g3720
sg76
(lp3727
g69
(g78
g71
NtRp3728
(dp3729
g74
(dp3730
g82
I3
ssg83
Nsg76
(lp3731
g69
(g85
g71
NtRp3732
(dp3733
g74
(dp3734
sg83
g3728
sg76
(lp3735
g69
(g90
g71
NtRp3736
(dp3737
g74
(dp3738
sg83
g3732
sg76
(lp3739
g69
(g70
g71
NtRp3740
(dp3741
g74
(dp3742
g82
I3
ssg83
g3736
sg76
(lp3743
S'1'
asbasbasbag69
(g85
g71
NtRp3744
(dp3745
g74
(dp3746
sg83
g3728
sg76
(lp3747
g69
(g90
g71
NtRp3748
(dp3749
g74
(dp3750
sg83
g3744
sg76
(lp3751
g69
(g70
g71
NtRp3752
(dp3753
g74
(dp3754
g82
I3
ssg83
g3748
sg76
(lp3755
S'0'
asbasbasbasbasbasbasbasbasbasbasbag69
(g85
g71
NtRp3756
(dp3757
g74
(dp3758
sg83
g79
sg76
(lp3759
g69
(g90
g71
NtRp3760
(dp3761
g74
(dp3762
g94
g95
ssg83
g3756
sg76
(lp3763
S'extension'
p3764
asbag69
(g90
g71
NtRp3765
(dp3766
g74
(dp3767
g101
g102
ssg83
g3756
sg76
(lp3768
S':'
asbag69
(g90
g71
NtRp3769
(dp3770
g74
(dp3771
sg83
g3756
sg76
(lp3772
g69
(g70
g71
NtRp3773
(dp3774
g74
(dp3775
g82
I5
ssg83
g3769
sg76
(lp3776
S'html'
p3777
asbasbasbag69
(g85
g71
NtRp3778
(dp3779
g74
(dp3780
sg83
g79
sg76
(lp3781
g69
(g90
g71
NtRp3782
(dp3783
g74
(dp3784
g94
g95
ssg83
g3778
sg76
(lp3785
S'folder'
p3786
asbag69
(g90
g71
NtRp3787
(dp3788
g74
(dp3789
g101
g102
ssg83
g3778
sg76
(lp3790
S':'
asbag69
(g90
g71
NtRp3791
(dp3792
g74
(dp3793
sg83
g3778
sg76
(lp3794
g69
(g70
g71
NtRp3795
(dp3796
g74
(dp3797
g82
I5
ssg83
g3791
sg76
(lp3798
S'/home/pankaj/web2py/applications/reddit/'
p3799
asbasbasbag69
(g85
g71
NtRp3800
(dp3801
g74
(dp3802
sg83
g79
sg76
(lp3803
g69
(g90
g71
NtRp3804
(dp3805
g74
(dp3806
g94
g95
ssg83
g3800
sg76
(lp3807
S'function'
p3808
asbag69
(g90
g71
NtRp3809
(dp3810
g74
(dp3811
g101
g102
ssg83
g3800
sg76
(lp3812
S':'
asbag69
(g90
g71
NtRp3813
(dp3814
g74
(dp3815
sg83
g3800
sg76
(lp3816
g69
(g70
g71
NtRp3817
(dp3818
g74
(dp3819
g82
I5
ssg83
g3813
sg76
(lp3820
S'index'
p3821
asbasbasbag69
(g85
g71
NtRp3822
(dp3823
g74
(dp3824
sg83
g79
sg76
(lp3825
g69
(g90
g71
NtRp3826
(dp3827
g74
(dp3828
g94
g95
ssg83
g3822
sg76
(lp3829
S'get_vars'
p3830
asbag69
(g90
g71
NtRp3831
(dp3832
g74
(dp3833
g101
g102
ssg83
g3822
sg76
(lp3834
S':'
asbag69
(g90
g71
NtRp3835
(dp3836
g74
(dp3837
sg83
g3822
sg76
(lp3838
g69
(g70
g71
NtRp3839
(dp3840
g74
(dp3841
g82
I5
ssg83
g3835
sg76
(lp3842
g69
(g78
g71
NtRp3843
(dp3844
g74
(dp3845
g82
I4
ssg83
Nsg76
(lp3846
sbasbasbasbag69
(g85
g71
NtRp3847
(dp3848
g74
(dp3849
sg83
g79
sg76
(lp3850
g69
(g90
g71
NtRp3851
(dp3852
g74
(dp3853
g94
g95
ssg83
g3847
sg76
(lp3854
S'global_settings'
p3855
asbag69
(g90
g71
NtRp3856
(dp3857
g74
(dp3858
g101
g102
ssg83
g3847
sg76
(lp3859
S':'
asbag69
(g90
g71
NtRp3860
(dp3861
g74
(dp3862
sg83
g3847
sg76
(lp3863
g69
(g70
g71
NtRp3864
(dp3865
g74
(dp3866
g82
I5
ssg83
g3860
sg76
(lp3867
g69
(g78
g71
NtRp3868
(dp3869
g74
(dp3870
g82
I4
ssg83
Nsg76
(lp3871
g69
(g85
g71
NtRp3872
(dp3873
g74
(dp3874
sg83
g3868
sg76
(lp3875
g69
(g90
g71
NtRp3876
(dp3877
g74
(dp3878
g94
g95
ssg83
g3872
sg76
(lp3879
g2731
asbag69
(g90
g71
NtRp3880
(dp3881
g74
(dp3882
g101
g102
ssg83
g3872
sg76
(lp3883
S':'
asbag69
(g90
g71
NtRp3884
(dp3885
g74
(dp3886
sg83
g3872
sg76
(lp3887
g69
(g70
g71
NtRp3888
(dp3889
g74
(dp3890
g82
I4
ssg83
g3884
sg76
(lp3891
S"set(['/home/pankaj/web2py/applications/admin/', '/home/pankaj/web2py/applications/welcome/', '/home/pankaj/web2py/applications/reddit/'])"
p3892
asbasbasbag69
(g85
g71
NtRp3893
(dp3894
g74
(dp3895
sg83
g3868
sg76
(lp3896
g69
(g90
g71
NtRp3897
(dp3898
g74
(dp3899
g94
g95
ssg83
g3893
sg76
(lp3900
g2753
asbag69
(g90
g71
NtRp3901
(dp3902
g74
(dp3903
g101
g102
ssg83
g3893
sg76
(lp3904
S':'
asbag69
(g90
g71
NtRp3905
(dp3906
g74
(dp3907
sg83
g3893
sg76
(lp3908
g69
(g70
g71
NtRp3909
(dp3910
g74
(dp3911
g82
I4
ssg83
g3905
sg76
(lp3912
g2766
asbasbasbag69
(g85
g71
NtRp3913
(dp3914
g74
(dp3915
sg83
g3868
sg76
(lp3916
g69
(g90
g71
NtRp3917
(dp3918
g74
(dp3919
g94
g95
ssg83
g3913
sg76
(lp3920
g2775
asbag69
(g90
g71
NtRp3921
(dp3922
g74
(dp3923
g101
g102
ssg83
g3913
sg76
(lp3924
S':'
asbag69
(g90
g71
NtRp3925
(dp3926
g74
(dp3927
sg83
g3913
sg76
(lp3928
g69
(g70
g71
NtRp3929
(dp3930
g74
(dp3931
g82
I4
ssg83
g3925
sg76
(lp3932
g69
(g78
g71
NtRp3933
(dp3934
g74
(dp3935
g82
I3
ssg83
Nsg76
(lp3936
sbasbasbasbag69
(g85
g71
NtRp3937
(dp3938
g74
(dp3939
sg83
g3868
sg76
(lp3940
g69
(g90
g71
NtRp3941
(dp3942
g74
(dp3943
g94
g95
ssg83
g3937
sg76
(lp3944
g2800
asbag69
(g90
g71
NtRp3945
(dp3946
g74
(dp3947
g101
g102
ssg83
g3937
sg76
(lp3948
S':'
asbag69
(g90
g71
NtRp3949
(dp3950
g74
(dp3951
sg83
g3937
sg76
(lp3952
g69
(g70
g71
NtRp3953
(dp3954
g74
(dp3955
g82
I4
ssg83
g3949
sg76
(lp3956
S"<Values at 0x9843dcc: {'verbose': False, 'ip': '127.0.0.1', 'with_scheduler': False, 'ips': [], 'shutdown_timeout': 5, 'taskbar': False, 'port': 8000, 'maxthreads': None, 'softcron': False, 'server_name': 'pankaj-HP-Pavilion-dv4-Notebook-PC', 'bpython': False, 'nogui': False, 'pid_filename': 'httpserver.pid', 'extcron': False, 'runcron': False, 'run_system_tests': False, 'test': None, 'folder': '/home/pankaj/web2py', 'config': '', 'import_models': False, 'winservice': '', 'shell': None, 'run': '', 'log_filename': 'httpserver.log', 'debuglevel': 30, 'args': [''], 'socket_timeout': 5, 'ssl_ca_certificate': None, 'scheduler': None, 'profiler_filename': None, 'ssl_private_key': '', 'scheduler_groups': None, 'password': '<ask>', 'request_queue_size': 5, 'ssl_certificate': '', 'cronjob': False, 'numthreads': None, 'quiet': False, 'interfaces': None, 'minthreads': None, 'timeout': 10, 'plain': False, 'nobanner': False}>"
p3957
asbasbasbag69
(g85
g71
NtRp3958
(dp3959
g74
(dp3960
sg83
g3868
sg76
(lp3961
g69
(g90
g71
NtRp3962
(dp3963
g74
(dp3964
g94
g95
ssg83
g3958
sg76
(lp3965
g2822
asbag69
(g90
g71
NtRp3966
(dp3967
g74
(dp3968
g101
g102
ssg83
g3958
sg76
(lp3969
S':'
asbag69
(g90
g71
NtRp3970
(dp3971
g74
(dp3972
sg83
g3958
sg76
(lp3973
g69
(g70
g71
NtRp3974
(dp3975
g74
(dp3976
g82
I4
ssg83
g3970
sg76
(lp3977
S'set([])'
p3978
asbasbasbag69
(g85
g71
NtRp3979
(dp3980
g74
(dp3981
sg83
g3868
sg76
(lp3982
g69
(g90
g71
NtRp3983
(dp3984
g74
(dp3985
g94
g95
ssg83
g3979
sg76
(lp3986
g2844
asbag69
(g90
g71
NtRp3987
(dp3988
g74
(dp3989
g101
g102
ssg83
g3979
sg76
(lp3990
S':'
asbag69
(g90
g71
NtRp3991
(dp3992
g74
(dp3993
sg83
g3979
sg76
(lp3994
g69
(g70
g71
NtRp3995
(dp3996
g74
(dp3997
g82
I4
ssg83
g3991
sg76
(lp3998
g112
asbasbasbag69
(g85
g71
NtRp3999
(dp4000
g74
(dp4001
sg83
g3868
sg76
(lp4002
g69
(g90
g71
NtRp4003
(dp4004
g74
(dp4005
g94
g95
ssg83
g3999
sg76
(lp4006
g2865
asbag69
(g90
g71
NtRp4007
(dp4008
g74
(dp4009
g101
g102
ssg83
g3999
sg76
(lp4010
S':'
asbag69
(g90
g71
NtRp4011
(dp4012
g74
(dp4013
sg83
g3999
sg76
(lp4014
g69
(g70
g71
NtRp4015
(dp4016
g74
(dp4017
g82
I4
ssg83
g4011
sg76
(lp4018
g2878
asbasbasbag69
(g85
g71
NtRp4019
(dp4020
g74
(dp4021
sg83
g3868
sg76
(lp4022
g69
(g90
g71
NtRp4023
(dp4024
g74
(dp4025
g94
g95
ssg83
g4019
sg76
(lp4026
g3085
asbag69
(g90
g71
NtRp4027
(dp4028
g74
(dp4029
g101
g102
ssg83
g4019
sg76
(lp4030
S':'
asbag69
(g90
g71
NtRp4031
(dp4032
g74
(dp4033
sg83
g4019
sg76
(lp4034
g69
(g70
g71
NtRp4035
(dp4036
g74
(dp4037
g82
I4
ssg83
g4031
sg76
(lp4038
g112
asbasbasbag69
(g85
g71
NtRp4039
(dp4040
g74
(dp4041
sg83
g3868
sg76
(lp4042
g69
(g90
g71
NtRp4043
(dp4044
g74
(dp4045
g94
g95
ssg83
g4039
sg76
(lp4046
g3106
asbag69
(g90
g71
NtRp4047
(dp4048
g74
(dp4049
g101
g102
ssg83
g4039
sg76
(lp4050
S':'
asbag69
(g90
g71
NtRp4051
(dp4052
g74
(dp4053
sg83
g4039
sg76
(lp4054
g69
(g70
g71
NtRp4055
(dp4056
g74
(dp4057
g82
I4
ssg83
g4051
sg76
(lp4058
g112
asbasbasbag69
(g85
g71
NtRp4059
(dp4060
g74
(dp4061
sg83
g3868
sg76
(lp4062
g69
(g90
g71
NtRp4063
(dp4064
g74
(dp4065
g94
g95
ssg83
g4059
sg76
(lp4066
g3127
asbag69
(g90
g71
NtRp4067
(dp4068
g74
(dp4069
g101
g102
ssg83
g4059
sg76
(lp4070
S':'
asbag69
(g90
g71
NtRp4071
(dp4072
g74
(dp4073
sg83
g4059
sg76
(lp4074
g69
(g70
g71
NtRp4075
(dp4076
g74
(dp4077
g82
I4
ssg83
g4071
sg76
(lp4078
g69
(g78
g71
NtRp4079
(dp4080
g74
(dp4081
g82
I3
ssg83
Nsg76
(lp4082
g69
(g85
g71
NtRp4083
(dp4084
g74
(dp4085
sg83
g4079
sg76
(lp4086
g69
(g90
g71
NtRp4087
(dp4088
g74
(dp4089
sg83
g4083
sg76
(lp4090
g69
(g70
g71
NtRp4091
(dp4092
g74
(dp4093
g82
I3
ssg83
g4087
sg76
(lp4094
g3156
asbasbasbag69
(g85
g71
NtRp4095
(dp4096
g74
(dp4097
sg83
g4079
sg76
(lp4098
g69
(g90
g71
NtRp4099
(dp4100
g74
(dp4101
sg83
g4095
sg76
(lp4102
g69
(g70
g71
NtRp4103
(dp4104
g74
(dp4105
g82
I3
ssg83
g4099
sg76
(lp4106
g3169
asbasbasbag69
(g85
g71
NtRp4107
(dp4108
g74
(dp4109
sg83
g4079
sg76
(lp4110
g69
(g90
g71
NtRp4111
(dp4112
g74
(dp4113
sg83
g4107
sg76
(lp4114
g69
(g70
g71
NtRp4115
(dp4116
g74
(dp4117
g82
I3
ssg83
g4111
sg76
(lp4118
g3182
asbasbasbag69
(g85
g71
NtRp4119
(dp4120
g74
(dp4121
sg83
g4079
sg76
(lp4122
g69
(g90
g71
NtRp4123
(dp4124
g74
(dp4125
sg83
g4119
sg76
(lp4126
g69
(g70
g71
NtRp4127
(dp4128
g74
(dp4129
g82
I3
ssg83
g4123
sg76
(lp4130
g3195
asbasbasbag69
(g85
g71
NtRp4131
(dp4132
g74
(dp4133
sg83
g4079
sg76
(lp4134
g69
(g90
g71
NtRp4135
(dp4136
g74
(dp4137
sg83
g4131
sg76
(lp4138
g69
(g70
g71
NtRp4139
(dp4140
g74
(dp4141
g82
I3
ssg83
g4135
sg76
(lp4142
g3208
asbasbasbasbasbasbasbag69
(g85
g71
NtRp4143
(dp4144
g74
(dp4145
sg83
g3868
sg76
(lp4146
g69
(g90
g71
NtRp4147
(dp4148
g74
(dp4149
g94
g95
ssg83
g4143
sg76
(lp4150
g3476
asbag69
(g90
g71
NtRp4151
(dp4152
g74
(dp4153
g101
g102
ssg83
g4143
sg76
(lp4154
S':'
asbag69
(g90
g71
NtRp4155
(dp4156
g74
(dp4157
sg83
g4143
sg76
(lp4158
g69
(g70
g71
NtRp4159
(dp4160
g74
(dp4161
g82
I4
ssg83
g4155
sg76
(lp4162
g69
(g78
g71
NtRp4163
(dp4164
g74
(dp4165
g82
I3
ssg83
Nsg76
(lp4166
g69
(g85
g71
NtRp4167
(dp4168
g74
(dp4169
sg83
g4163
sg76
(lp4170
g69
(g90
g71
NtRp4171
(dp4172
g74
(dp4173
sg83
g4167
sg76
(lp4174
g69
(g70
g71
NtRp4175
(dp4176
g74
(dp4177
g82
I3
ssg83
g4171
sg76
(lp4178
S'2'
asbasbasbag69
(g85
g71
NtRp4179
(dp4180
g74
(dp4181
sg83
g4163
sg76
(lp4182
g69
(g90
g71
NtRp4183
(dp4184
g74
(dp4185
sg83
g4179
sg76
(lp4186
g69
(g70
g71
NtRp4187
(dp4188
g74
(dp4189
g82
I3
ssg83
g4183
sg76
(lp4190
S'3'
asbasbasbag69
(g85
g71
NtRp4191
(dp4192
g74
(dp4193
sg83
g4163
sg76
(lp4194
g69
(g90
g71
NtRp4195
(dp4196
g74
(dp4197
sg83
g4191
sg76
(lp4198
g69
(g70
g71
NtRp4199
(dp4200
g74
(dp4201
g82
I3
ssg83
g4195
sg76
(lp4202
S'2'
asbasbasbag69
(g85
g71
NtRp4203
(dp4204
g74
(dp4205
sg83
g4163
sg76
(lp4206
g69
(g90
g71
NtRp4207
(dp4208
g74
(dp4209
sg83
g4203
sg76
(lp4210
g69
(g70
g71
NtRp4211
(dp4212
g74
(dp4213
g82
I3
ssg83
g4207
sg76
(lp4214
S'datetime.datetime(2012, 12, 17, 15, 3, 30)'
p4215
asbasbasbag69
(g85
g71
NtRp4216
(dp4217
g74
(dp4218
sg83
g4163
sg76
(lp4219
g69
(g90
g71
NtRp4220
(dp4221
g74
(dp4222
sg83
g4216
sg76
(lp4223
g69
(g70
g71
NtRp4224
(dp4225
g74
(dp4226
g82
I3
ssg83
g4220
sg76
(lp4227
g3554
asbasbasbasbasbasbasbasbasbasbasbag69
(g85
g71
NtRp4228
(dp4229
g74
(dp4230
sg83
g79
sg76
(lp4231
g69
(g90
g71
NtRp4232
(dp4233
g74
(dp4234
g94
g95
ssg83
g4228
sg76
(lp4235
S'is_https'
p4236
asbag69
(g90
g71
NtRp4237
(dp4238
g74
(dp4239
g101
g102
ssg83
g4228
sg76
(lp4240
S':'
asbag69
(g90
g71
NtRp4241
(dp4242
g74
(dp4243
sg83
g4228
sg76
(lp4244
g69
(g70
g71
NtRp4245
(dp4246
g74
(dp4247
g82
I5
ssg83
g4241
sg76
(lp4248
g112
asbasbasbag69
(g85
g71
NtRp4249
(dp4250
g74
(dp4251
sg83
g79
sg76
(lp4252
g69
(g90
g71
NtRp4253
(dp4254
g74
(dp4255
g94
g95
ssg83
g4249
sg76
(lp4256
S'is_local'
p4257
asbag69
(g90
g71
NtRp4258
(dp4259
g74
(dp4260
g101
g102
ssg83
g4249
sg76
(lp4261
S':'
asbag69
(g90
g71
NtRp4262
(dp4263
g74
(dp4264
sg83
g4249
sg76
(lp4265
g69
(g70
g71
NtRp4266
(dp4267
g74
(dp4268
g82
I5
ssg83
g4262
sg76
(lp4269
g3663
asbasbasbag69
(g85
g71
NtRp4270
(dp4271
g74
(dp4272
sg83
g79
sg76
(lp4273
g69
(g90
g71
NtRp4274
(dp4275
g74
(dp4276
g94
g95
ssg83
g4270
sg76
(lp4277
S'is_restful'
p4278
asbag69
(g90
g71
NtRp4279
(dp4280
g74
(dp4281
g101
g102
ssg83
g4270
sg76
(lp4282
S':'
asbag69
(g90
g71
NtRp4283
(dp4284
g74
(dp4285
sg83
g4270
sg76
(lp4286
g69
(g70
g71
NtRp4287
(dp4288
g74
(dp4289
g82
I5
ssg83
g4283
sg76
(lp4290
g112
asbasbasbag69
(g85
g71
NtRp4291
(dp4292
g74
(dp4293
sg83
g79
sg76
(lp4294
g69
(g90
g71
NtRp4295
(dp4296
g74
(dp4297
g94
g95
ssg83
g4291
sg76
(lp4298
S'now'
p4299
asbag69
(g90
g71
NtRp4300
(dp4301
g74
(dp4302
g101
g102
ssg83
g4291
sg76
(lp4303
S':'
asbag69
(g90
g71
NtRp4304
(dp4305
g74
(dp4306
sg83
g4291
sg76
(lp4307
g69
(g70
g71
NtRp4308
(dp4309
g74
(dp4310
g82
I5
ssg83
g4304
sg76
(lp4311
S'datetime.datetime(2013, 8, 30, 14, 41, 31, 534957)'
p4312
asbasbasbag69
(g85
g71
NtRp4313
(dp4314
g74
(dp4315
sg83
g79
sg76
(lp4316
g69
(g90
g71
NtRp4317
(dp4318
g74
(dp4319
g94
g95
ssg83
g4313
sg76
(lp4320
S'post_vars'
p4321
asbag69
(g90
g71
NtRp4322
(dp4323
g74
(dp4324
g101
g102
ssg83
g4313
sg76
(lp4325
S':'
asbag69
(g90
g71
NtRp4326
(dp4327
g74
(dp4328
sg83
g4313
sg76
(lp4329
g69
(g70
g71
NtRp4330
(dp4331
g74
(dp4332
g82
I5
ssg83
g4326
sg76
(lp4333
g69
(g78
g71
NtRp4334
(dp4335
g74
(dp4336
g82
I4
ssg83
Nsg76
(lp4337
sbasbasbasbag69
(g85
g71
NtRp4338
(dp4339
g74
(dp4340
sg83
g79
sg76
(lp4341
g69
(g90
g71
NtRp4342
(dp4343
g74
(dp4344
g94
g95
ssg83
g4338
sg76
(lp4345
S'raw_args'
p4346
asbag69
(g90
g71
NtRp4347
(dp4348
g74
(dp4349
g101
g102
ssg83
g4338
sg76
(lp4350
S':'
asbag69
(g90
g71
NtRp4351
(dp4352
g74
(dp4353
sg83
g4338
sg76
(lp4354
g69
(g70
g71
NtRp4355
(dp4356
g74
(dp4357
g82
I5
ssg83
g4351
sg76
(lp4358
S''
asbasbasbag69
(g85
g71
NtRp4359
(dp4360
g74
(dp4361
sg83
g79
sg76
(lp4362
g69
(g90
g71
NtRp4363
(dp4364
g74
(dp4365
g94
g95
ssg83
g4359
sg76
(lp4366
S'raw_extension'
p4367
asbag69
(g90
g71
NtRp4368
(dp4369
g74
(dp4370
g101
g102
ssg83
g4359
sg76
(lp4371
S':'
asbag69
(g90
g71
NtRp4372
(dp4373
g74
(dp4374
sg83
g4359
sg76
(lp4375
g69
(g70
g71
NtRp4376
(dp4377
g74
(dp4378
g82
I5
ssg83
g4372
sg76
(lp4379
S'None'
p4380
asbasbasbag69
(g85
g71
NtRp4381
(dp4382
g74
(dp4383
sg83
g79
sg76
(lp4384
g69
(g90
g71
NtRp4385
(dp4386
g74
(dp4387
g94
g95
ssg83
g4381
sg76
(lp4388
S'url'
p4389
asbag69
(g90
g71
NtRp4390
(dp4391
g74
(dp4392
g101
g102
ssg83
g4381
sg76
(lp4393
S':'
asbag69
(g90
g71
NtRp4394
(dp4395
g74
(dp4396
sg83
g4381
sg76
(lp4397
g69
(g70
g71
NtRp4398
(dp4399
g74
(dp4400
g82
I5
ssg83
g4394
sg76
(lp4401
g3230
asbasbasbag69
(g85
g71
NtRp4402
(dp4403
g74
(dp4404
sg83
g79
sg76
(lp4405
g69
(g90
g71
NtRp4406
(dp4407
g74
(dp4408
g94
g95
ssg83
g4402
sg76
(lp4409
S'utcnow'
p4410
asbag69
(g90
g71
NtRp4411
(dp4412
g74
(dp4413
g101
g102
ssg83
g4402
sg76
(lp4414
S':'
asbag69
(g90
g71
NtRp4415
(dp4416
g74
(dp4417
sg83
g4402
sg76
(lp4418
g69
(g70
g71
NtRp4419
(dp4420
g74
(dp4421
g82
I5
ssg83
g4415
sg76
(lp4422
S'datetime.datetime(2013, 8, 30, 9, 11, 31, 534989)'
p4423
asbasbasbag69
(g85
g71
NtRp4424
(dp4425
g74
(dp4426
sg83
g79
sg76
(lp4427
g69
(g90
g71
NtRp4428
(dp4429
g74
(dp4430
g94
g95
ssg83
g4424
sg76
(lp4431
S'uuid'
p4432
asbag69
(g90
g71
NtRp4433
(dp4434
g74
(dp4435
g101
g102
ssg83
g4424
sg76
(lp4436
S':'
asbag69
(g90
g71
NtRp4437
(dp4438
g74
(dp4439
sg83
g4424
sg76
(lp4440
g69
(g70
g71
NtRp4441
(dp4442
g74
(dp4443
g82
I5
ssg83
g4437
sg76
(lp4444
S'reddit/127.0.0.1.2013-08-30.14-41-31.a9ab35a9-da24-492f-9e04-e255a2086379'
p4445
asbasbasbag69
(g85
g71
NtRp4446
(dp4447
g74
(dp4448
sg83
g79
sg76
(lp4449
g69
(g90
g71
NtRp4450
(dp4451
g74
(dp4452
g94
g95
ssg83
g4446
sg76
(lp4453
S'vars'
p4454
asbag69
(g90
g71
NtRp4455
(dp4456
g74
(dp4457
g101
g102
ssg83
g4446
sg76
(lp4458
S':'
asbag69
(g90
g71
NtRp4459
(dp4460
g74
(dp4461
sg83
g4446
sg76
(lp4462
g69
(g70
g71
NtRp4463
(dp4464
g74
(dp4465
g82
I5
ssg83
g4459
sg76
(lp4466
g69
(g78
g71
NtRp4467
(dp4468
g74
(dp4469
g82
I4
ssg83
Nsg76
(lp4470
sbasbasbasbag69
(g85
g71
NtRp4471
(dp4472
g74
(dp4473
sg83
g79
sg76
(lp4474
g69
(g90
g71
NtRp4475
(dp4476
g74
(dp4477
g94
g95
ssg83
g4471
sg76
(lp4478
S'wsgi'
p4479
asbag69
(g90
g71
NtRp4480
(dp4481
g74
(dp4482
g101
g102
ssg83
g4471
sg76
(lp4483
S':'
asbag69
(g90
g71
NtRp4484
(dp4485
g74
(dp4486
sg83
g4471
sg76
(lp4487
g69
(g70
g71
NtRp4488
(dp4489
g74
(dp4490
g82
I5
ssg83
g4484
sg76
(lp4491
g69
(g78
g71
NtRp4492
(dp4493
g74
(dp4494
g82
I4
ssg83
Nsg76
(lp4495
g69
(g85
g71
NtRp4496
(dp4497
g74
(dp4498
sg83
g4492
sg76
(lp4499
g69
(g90
g71
NtRp4500
(dp4501
g74
(dp4502
g94
g95
ssg83
g4496
sg76
(lp4503
S'environ'
p4504
asbag69
(g90
g71
NtRp4505
(dp4506
g74
(dp4507
g101
g102
ssg83
g4496
sg76
(lp4508
S':'
asbag69
(g90
g71
NtRp4509
(dp4510
g74
(dp4511
sg83
g4496
sg76
(lp4512
g69
(g70
g71
NtRp4513
(dp4514
g74
(dp4515
g82
I4
ssg83
g4509
sg76
(lp4516
g69
(g78
g71
NtRp4517
(dp4518
g74
(dp4519
g82
I3
ssg83
Nsg76
(lp4520
g69
(g85
g71
NtRp4521
(dp4522
g74
(dp4523
sg83
g4517
sg76
(lp4524
g69
(g90
g71
NtRp4525
(dp4526
g74
(dp4527
g94
g95
ssg83
g4521
sg76
(lp4528
S'HTTP_ACCEPT'
p4529
asbag69
(g90
g71
NtRp4530
(dp4531
g74
(dp4532
g101
g102
ssg83
g4521
sg76
(lp4533
S':'
asbag69
(g90
g71
NtRp4534
(dp4535
g74
(dp4536
sg83
g4521
sg76
(lp4537
g69
(g70
g71
NtRp4538
(dp4539
g74
(dp4540
g82
I3
ssg83
g4534
sg76
(lp4541
g2900
asbasbasbag69
(g85
g71
NtRp4542
(dp4543
g74
(dp4544
sg83
g4517
sg76
(lp4545
g69
(g90
g71
NtRp4546
(dp4547
g74
(dp4548
g94
g95
ssg83
g4542
sg76
(lp4549
S'HTTP_ACCEPT_ENCODING'
p4550
asbag69
(g90
g71
NtRp4551
(dp4552
g74
(dp4553
g101
g102
ssg83
g4542
sg76
(lp4554
S':'
asbag69
(g90
g71
NtRp4555
(dp4556
g74
(dp4557
sg83
g4542
sg76
(lp4558
g69
(g70
g71
NtRp4559
(dp4560
g74
(dp4561
g82
I3
ssg83
g4555
sg76
(lp4562
g2922
asbasbasbag69
(g85
g71
NtRp4563
(dp4564
g74
(dp4565
sg83
g4517
sg76
(lp4566
g69
(g90
g71
NtRp4567
(dp4568
g74
(dp4569
g94
g95
ssg83
g4563
sg76
(lp4570
S'HTTP_ACCEPT_LANGUAGE'
p4571
asbag69
(g90
g71
NtRp4572
(dp4573
g74
(dp4574
g101
g102
ssg83
g4563
sg76
(lp4575
S':'
asbag69
(g90
g71
NtRp4576
(dp4577
g74
(dp4578
sg83
g4563
sg76
(lp4579
g69
(g70
g71
NtRp4580
(dp4581
g74
(dp4582
g82
I3
ssg83
g4576
sg76
(lp4583
g2944
asbasbasbag69
(g85
g71
NtRp4584
(dp4585
g74
(dp4586
sg83
g4517
sg76
(lp4587
g69
(g90
g71
NtRp4588
(dp4589
g74
(dp4590
g94
g95
ssg83
g4584
sg76
(lp4591
S'HTTP_CACHE_CONTROL'
p4592
asbag69
(g90
g71
NtRp4593
(dp4594
g74
(dp4595
g101
g102
ssg83
g4584
sg76
(lp4596
S':'
asbag69
(g90
g71
NtRp4597
(dp4598
g74
(dp4599
sg83
g4584
sg76
(lp4600
g69
(g70
g71
NtRp4601
(dp4602
g74
(dp4603
g82
I3
ssg83
g4597
sg76
(lp4604
g2966
asbasbasbag69
(g85
g71
NtRp4605
(dp4606
g74
(dp4607
sg83
g4517
sg76
(lp4608
g69
(g90
g71
NtRp4609
(dp4610
g74
(dp4611
g94
g95
ssg83
g4605
sg76
(lp4612
S'HTTP_CONNECTION'
p4613
asbag69
(g90
g71
NtRp4614
(dp4615
g74
(dp4616
g101
g102
ssg83
g4605
sg76
(lp4617
S':'
asbag69
(g90
g71
NtRp4618
(dp4619
g74
(dp4620
sg83
g4605
sg76
(lp4621
g69
(g70
g71
NtRp4622
(dp4623
g74
(dp4624
g82
I3
ssg83
g4618
sg76
(lp4625
g2988
asbasbasbag69
(g85
g71
NtRp4626
(dp4627
g74
(dp4628
sg83
g4517
sg76
(lp4629
g69
(g90
g71
NtRp4630
(dp4631
g74
(dp4632
g94
g95
ssg83
g4626
sg76
(lp4633
S'HTTP_COOKIE'
p4634
asbag69
(g90
g71
NtRp4635
(dp4636
g74
(dp4637
g101
g102
ssg83
g4626
sg76
(lp4638
S':'
asbag69
(g90
g71
NtRp4639
(dp4640
g74
(dp4641
sg83
g4626
sg76
(lp4642
g69
(g70
g71
NtRp4643
(dp4644
g74
(dp4645
g82
I3
ssg83
g4639
sg76
(lp4646
g3010
asbasbasbag69
(g85
g71
NtRp4647
(dp4648
g74
(dp4649
sg83
g4517
sg76
(lp4650
g69
(g90
g71
NtRp4651
(dp4652
g74
(dp4653
g94
g95
ssg83
g4647
sg76
(lp4654
S'HTTP_HOST'
p4655
asbag69
(g90
g71
NtRp4656
(dp4657
g74
(dp4658
g101
g102
ssg83
g4647
sg76
(lp4659
S':'
asbag69
(g90
g71
NtRp4660
(dp4661
g74
(dp4662
sg83
g4647
sg76
(lp4663
g69
(g70
g71
NtRp4664
(dp4665
g74
(dp4666
g82
I3
ssg83
g4660
sg76
(lp4667
g3032
asbasbasbag69
(g85
g71
NtRp4668
(dp4669
g74
(dp4670
sg83
g4517
sg76
(lp4671
g69
(g90
g71
NtRp4672
(dp4673
g74
(dp4674
g94
g95
ssg83
g4668
sg76
(lp4675
S'HTTP_REFERER'
p4676
asbag69
(g90
g71
NtRp4677
(dp4678
g74
(dp4679
g101
g102
ssg83
g4668
sg76
(lp4680
S':'
asbag69
(g90
g71
NtRp4681
(dp4682
g74
(dp4683
sg83
g4668
sg76
(lp4684
g69
(g70
g71
NtRp4685
(dp4686
g74
(dp4687
g82
I3
ssg83
g4681
sg76
(lp4688
g3054
asbasbasbag69
(g85
g71
NtRp4689
(dp4690
g74
(dp4691
sg83
g4517
sg76
(lp4692
g69
(g90
g71
NtRp4693
(dp4694
g74
(dp4695
g94
g95
ssg83
g4689
sg76
(lp4696
S'HTTP_USER_AGENT'
p4697
asbag69
(g90
g71
NtRp4698
(dp4699
g74
(dp4700
g101
g102
ssg83
g4689
sg76
(lp4701
S':'
asbag69
(g90
g71
NtRp4702
(dp4703
g74
(dp4704
sg83
g4689
sg76
(lp4705
g69
(g70
g71
NtRp4706
(dp4707
g74
(dp4708
g82
I3
ssg83
g4702
sg76
(lp4709
g3076
asbasbasbag69
(g85
g71
NtRp4710
(dp4711
g74
(dp4712
sg83
g4517
sg76
(lp4713
g69
(g90
g71
NtRp4714
(dp4715
g74
(dp4716
g94
g95
ssg83
g4710
sg76
(lp4717
S'PATH_INFO'
p4718
asbag69
(g90
g71
NtRp4719
(dp4720
g74
(dp4721
g101
g102
ssg83
g4710
sg76
(lp4722
S':'
asbag69
(g90
g71
NtRp4723
(dp4724
g74
(dp4725
sg83
g4710
sg76
(lp4726
g69
(g70
g71
NtRp4727
(dp4728
g74
(dp4729
g82
I3
ssg83
g4723
sg76
(lp4730
g3230
asbasbasbag69
(g85
g71
NtRp4731
(dp4732
g74
(dp4733
sg83
g4517
sg76
(lp4734
g69
(g90
g71
NtRp4735
(dp4736
g74
(dp4737
g94
g95
ssg83
g4731
sg76
(lp4738
S'QUERY_STRING'
p4739
asbag69
(g90
g71
NtRp4740
(dp4741
g74
(dp4742
g101
g102
ssg83
g4731
sg76
(lp4743
S':'
asbag69
(g90
g71
NtRp4744
(dp4745
g74
(dp4746
sg83
g4731
sg76
(lp4747
g69
(g70
g71
NtRp4748
(dp4749
g74
(dp4750
g82
I3
ssg83
g4744
sg76
(lp4751
S''
asbasbasbag69
(g85
g71
NtRp4752
(dp4753
g74
(dp4754
sg83
g4517
sg76
(lp4755
g69
(g90
g71
NtRp4756
(dp4757
g74
(dp4758
g94
g95
ssg83
g4752
sg76
(lp4759
S'REMOTE_ADDR'
p4760
asbag69
(g90
g71
NtRp4761
(dp4762
g74
(dp4763
g101
g102
ssg83
g4752
sg76
(lp4764
S':'
asbag69
(g90
g71
NtRp4765
(dp4766
g74
(dp4767
sg83
g4752
sg76
(lp4768
g69
(g70
g71
NtRp4769
(dp4770
g74
(dp4771
g82
I3
ssg83
g4765
sg76
(lp4772
g224
asbasbasbag69
(g85
g71
NtRp4773
(dp4774
g74
(dp4775
sg83
g4517
sg76
(lp4776
g69
(g90
g71
NtRp4777
(dp4778
g74
(dp4779
g94
g95
ssg83
g4773
sg76
(lp4780
S'REMOTE_PORT'
p4781
asbag69
(g90
g71
NtRp4782
(dp4783
g74
(dp4784
g101
g102
ssg83
g4773
sg76
(lp4785
S':'
asbag69
(g90
g71
NtRp4786
(dp4787
g74
(dp4788
sg83
g4773
sg76
(lp4789
g69
(g70
g71
NtRp4790
(dp4791
g74
(dp4792
g82
I3
ssg83
g4786
sg76
(lp4793
g3294
asbasbasbag69
(g85
g71
NtRp4794
(dp4795
g74
(dp4796
sg83
g4517
sg76
(lp4797
g69
(g90
g71
NtRp4798
(dp4799
g74
(dp4800
g94
g95
ssg83
g4794
sg76
(lp4801
S'REQUEST_METHOD'
p4802
asbag69
(g90
g71
NtRp4803
(dp4804
g74
(dp4805
g101
g102
ssg83
g4794
sg76
(lp4806
S':'
asbag69
(g90
g71
NtRp4807
(dp4808
g74
(dp4809
sg83
g4794
sg76
(lp4810
g69
(g70
g71
NtRp4811
(dp4812
g74
(dp4813
g82
I3
ssg83
g4807
sg76
(lp4814
g3316
asbasbasbag69
(g85
g71
NtRp4815
(dp4816
g74
(dp4817
sg83
g4517
sg76
(lp4818
g69
(g90
g71
NtRp4819
(dp4820
g74
(dp4821
g94
g95
ssg83
g4815
sg76
(lp4822
S'REQUEST_URI'
p4823
asbag69
(g90
g71
NtRp4824
(dp4825
g74
(dp4826
g101
g102
ssg83
g4815
sg76
(lp4827
S':'
asbag69
(g90
g71
NtRp4828
(dp4829
g74
(dp4830
sg83
g4815
sg76
(lp4831
g69
(g70
g71
NtRp4832
(dp4833
g74
(dp4834
g82
I3
ssg83
g4828
sg76
(lp4835
g3230
asbasbasbag69
(g85
g71
NtRp4836
(dp4837
g74
(dp4838
sg83
g4517
sg76
(lp4839
g69
(g90
g71
NtRp4840
(dp4841
g74
(dp4842
g94
g95
ssg83
g4836
sg76
(lp4843
S'SCRIPT_NAME'
p4844
asbag69
(g90
g71
NtRp4845
(dp4846
g74
(dp4847
g101
g102
ssg83
g4836
sg76
(lp4848
S':'
asbag69
(g90
g71
NtRp4849
(dp4850
g74
(dp4851
sg83
g4836
sg76
(lp4852
g69
(g70
g71
NtRp4853
(dp4854
g74
(dp4855
g82
I3
ssg83
g4849
sg76
(lp4856
S''
asbasbasbag69
(g85
g71
NtRp4857
(dp4858
g74
(dp4859
sg83
g4517
sg76
(lp4860
g69
(g90
g71
NtRp4861
(dp4862
g74
(dp4863
g94
g95
ssg83
g4857
sg76
(lp4864
S'SERVER_NAME'
p4865
asbag69
(g90
g71
NtRp4866
(dp4867
g74
(dp4868
g101
g102
ssg83
g4857
sg76
(lp4869
S':'
asbag69
(g90
g71
NtRp4870
(dp4871
g74
(dp4872
sg83
g4857
sg76
(lp4873
g69
(g70
g71
NtRp4874
(dp4875
g74
(dp4876
g82
I3
ssg83
g4870
sg76
(lp4877
g3380
asbasbasbag69
(g85
g71
NtRp4878
(dp4879
g74
(dp4880
sg83
g4517
sg76
(lp4881
g69
(g90
g71
NtRp4882
(dp4883
g74
(dp4884
g94
g95
ssg83
g4878
sg76
(lp4885
S'SERVER_PORT'
p4886
asbag69
(g90
g71
NtRp4887
(dp4888
g74
(dp4889
g101
g102
ssg83
g4878
sg76
(lp4890
S':'
asbag69
(g90
g71
NtRp4891
(dp4892
g74
(dp4893
sg83
g4878
sg76
(lp4894
g69
(g70
g71
NtRp4895
(dp4896
g74
(dp4897
g82
I3
ssg83
g4891
sg76
(lp4898
g3402
asbasbasbag69
(g85
g71
NtRp4899
(dp4900
g74
(dp4901
sg83
g4517
sg76
(lp4902
g69
(g90
g71
NtRp4903
(dp4904
g74
(dp4905
g94
g95
ssg83
g4899
sg76
(lp4906
S'SERVER_PROTOCOL'
p4907
asbag69
(g90
g71
NtRp4908
(dp4909
g74
(dp4910
g101
g102
ssg83
g4899
sg76
(lp4911
S':'
asbag69
(g90
g71
NtRp4912
(dp4913
g74
(dp4914
sg83
g4899
sg76
(lp4915
g69
(g70
g71
NtRp4916
(dp4917
g74
(dp4918
g82
I3
ssg83
g4912
sg76
(lp4919
g3424
asbasbasbag69
(g85
g71
NtRp4920
(dp4921
g74
(dp4922
sg83
g4517
sg76
(lp4923
g69
(g90
g71
NtRp4924
(dp4925
g74
(dp4926
g94
g95
ssg83
g4920
sg76
(lp4927
S'SERVER_SOFTWARE'
p4928
asbag69
(g90
g71
NtRp4929
(dp4930
g74
(dp4931
g101
g102
ssg83
g4920
sg76
(lp4932
S':'
asbag69
(g90
g71
NtRp4933
(dp4934
g74
(dp4935
sg83
g4920
sg76
(lp4936
g69
(g70
g71
NtRp4937
(dp4938
g74
(dp4939
g82
I3
ssg83
g4933
sg76
(lp4940
g3446
asbasbasbag69
(g85
g71
NtRp4941
(dp4942
g74
(dp4943
sg83
g4517
sg76
(lp4944
g69
(g90
g71
NtRp4945
(dp4946
g74
(dp4947
g94
g95
ssg83
g4941
sg76
(lp4948
S'wsgi.errors'
p4949
asbag69
(g90
g71
NtRp4950
(dp4951
g74
(dp4952
g101
g102
ssg83
g4941
sg76
(lp4953
S':'
asbag69
(g90
g71
NtRp4954
(dp4955
g74
(dp4956
sg83
g4941
sg76
(lp4957
g69
(g70
g71
NtRp4958
(dp4959
g74
(dp4960
g82
I3
ssg83
g4954
sg76
(lp4961
S"<open file '<stderr>', mode 'w' at 0xb73000d0>"
p4962
asbasbasbag69
(g85
g71
NtRp4963
(dp4964
g74
(dp4965
sg83
g4517
sg76
(lp4966
g69
(g90
g71
NtRp4967
(dp4968
g74
(dp4969
g94
g95
ssg83
g4963
sg76
(lp4970
S'wsgi.file_wrapper'
p4971
asbag69
(g90
g71
NtRp4972
(dp4973
g74
(dp4974
g101
g102
ssg83
g4963
sg76
(lp4975
S':'
asbag69
(g90
g71
NtRp4976
(dp4977
g74
(dp4978
sg83
g4963
sg76
(lp4979
g69
(g70
g71
NtRp4980
(dp4981
g74
(dp4982
g82
I3
ssg83
g4976
sg76
(lp4983
S'<class wsgiref.util.FileWrapper at 0x980905c>'
p4984
asbasbasbag69
(g85
g71
NtRp4985
(dp4986
g74
(dp4987
sg83
g4517
sg76
(lp4988
g69
(g90
g71
NtRp4989
(dp4990
g74
(dp4991
g94
g95
ssg83
g4985
sg76
(lp4992
S'wsgi.input'
p4993
asbag69
(g90
g71
NtRp4994
(dp4995
g74
(dp4996
g101
g102
ssg83
g4985
sg76
(lp4997
S':'
asbag69
(g90
g71
NtRp4998
(dp4999
g74
(dp5000
sg83
g4985
sg76
(lp5001
g69
(g70
g71
NtRp5002
(dp5003
g74
(dp5004
g82
I3
ssg83
g4998
sg76
(lp5005
S'<cStringIO.StringO object at 0xae1849c0>'
p5006
asbasbasbag69
(g85
g71
NtRp5007
(dp5008
g74
(dp5009
sg83
g4517
sg76
(lp5010
g69
(g90
g71
NtRp5011
(dp5012
g74
(dp5013
g94
g95
ssg83
g5007
sg76
(lp5014
S'wsgi.multiprocess'
p5015
asbag69
(g90
g71
NtRp5016
(dp5017
g74
(dp5018
g101
g102
ssg83
g5007
sg76
(lp5019
S':'
asbag69
(g90
g71
NtRp5020
(dp5021
g74
(dp5022
sg83
g5007
sg76
(lp5023
g69
(g70
g71
NtRp5024
(dp5025
g74
(dp5026
g82
I3
ssg83
g5020
sg76
(lp5027
g112
asbasbasbag69
(g85
g71
NtRp5028
(dp5029
g74
(dp5030
sg83
g4517
sg76
(lp5031
g69
(g90
g71
NtRp5032
(dp5033
g74
(dp5034
g94
g95
ssg83
g5028
sg76
(lp5035
S'wsgi.multithread'
p5036
asbag69
(g90
g71
NtRp5037
(dp5038
g74
(dp5039
g101
g102
ssg83
g5028
sg76
(lp5040
S':'
asbag69
(g90
g71
NtRp5041
(dp5042
g74
(dp5043
sg83
g5028
sg76
(lp5044
g69
(g70
g71
NtRp5045
(dp5046
g74
(dp5047
g82
I3
ssg83
g5041
sg76
(lp5048
g3663
asbasbasbag69
(g85
g71
NtRp5049
(dp5050
g74
(dp5051
sg83
g4517
sg76
(lp5052
g69
(g90
g71
NtRp5053
(dp5054
g74
(dp5055
g94
g95
ssg83
g5049
sg76
(lp5056
S'wsgi.run_once'
p5057
asbag69
(g90
g71
NtRp5058
(dp5059
g74
(dp5060
g101
g102
ssg83
g5049
sg76
(lp5061
S':'
asbag69
(g90
g71
NtRp5062
(dp5063
g74
(dp5064
sg83
g5049
sg76
(lp5065
g69
(g70
g71
NtRp5066
(dp5067
g74
(dp5068
g82
I3
ssg83
g5062
sg76
(lp5069
g112
asbasbasbag69
(g85
g71
NtRp5070
(dp5071
g74
(dp5072
sg83
g4517
sg76
(lp5073
g69
(g90
g71
NtRp5074
(dp5075
g74
(dp5076
g94
g95
ssg83
g5070
sg76
(lp5077
S'wsgi.url_scheme'
p5078
asbag69
(g90
g71
NtRp5079
(dp5080
g74
(dp5081
g101
g102
ssg83
g5070
sg76
(lp5082
S':'
asbag69
(g90
g71
NtRp5083
(dp5084
g74
(dp5085
sg83
g5070
sg76
(lp5086
g69
(g70
g71
NtRp5087
(dp5088
g74
(dp5089
g82
I3
ssg83
g5083
sg76
(lp5090
g3706
asbasbasbag69
(g85
g71
NtRp5091
(dp5092
g74
(dp5093
sg83
g4517
sg76
(lp5094
g69
(g90
g71
NtRp5095
(dp5096
g74
(dp5097
g94
g95
ssg83
g5091
sg76
(lp5098
S'wsgi.version'
p5099
asbag69
(g90
g71
NtRp5100
(dp5101
g74
(dp5102
g101
g102
ssg83
g5091
sg76
(lp5103
S':'
asbag69
(g90
g71
NtRp5104
(dp5105
g74
(dp5106
sg83
g5091
sg76
(lp5107
g69
(g70
g71
NtRp5108
(dp5109
g74
(dp5110
g82
I3
ssg83
g5104
sg76
(lp5111
S'1'
asbasbasbasbasbasbasbasbasbasbasbasbasbsS'frames'
p5112
(lp5113
(dp5114
S'file'
p5115
S'/home/pankaj/web2py/gluon/restricted.py'
p5116
sS'dump'
p5117
(dp5118
S'environment'
p5119
S"{'A': <class 'gluon.html.A'>, 'Auth': <class 'gluon.tools.Auth'>, 'B': <class 'gluon.html.B'>, 'BEAUTIFY': <class 'gluon.html.BEAUTIFY'>, 'BODY': <class 'gluon.html.BODY'>, 'BR': <class 'gluon.html.BR'>, 'BUTTON': <class 'gluon.html.BUTTON'>, 'CAT': <class 'gluon.html.CAT'>, 'CENTER': <class 'gluon.html.CENTER'>, 'CLEANUP': <class 'gluon.validators.CLEANUP'>, ...}"
p5120
sS'ccode'
p5121
S'<code object <module> at 0xb55c3800, file "/home...eb2py/applications/reddit/models/db.py", line 12>'
p5122
ssS'lnum'
p5123
I212
sS'lines'
p5124
(dp5125
I207
S'    try:'
p5126
sI208
S'        if isinstance(code, types.CodeType):'
p5127
sI209
S'            ccode = code'
p5128
sI210
S'        else:'
p5129
sI211
S'            ccode = compile2(code, layer)'
p5130
sI212
S'        exec ccode in environment'
p5131
sI213
S'    except HTTP:'
p5132
sI214
S'        raise'
p5133
sI215
S'    except RestrictedError:'
p5134
sI216
S'        # do not encapsulate (obfuscate) the original RestrictedError'
p5135
ssS'call'
p5136
S"(code='# -*- coding: utf-8 -*-\\n\\n#######################...ble auditing\\n# auth.enable_record_versioning(db)\\n', environment={'A': <class 'gluon.html.A'>, 'Auth': <class 'gluon.tools.Auth'>, 'B': <class 'gluon.html.B'>, 'BEAUTIFY': <class 'gluon.html.BEAUTIFY'>, 'BODY': <class 'gluon.html.BODY'>, 'BR': <class 'gluon.html.BR'>, 'BUTTON': <class 'gluon.html.BUTTON'>, 'CAT': <class 'gluon.html.CAT'>, 'CENTER': <class 'gluon.html.CENTER'>, 'CLEANUP': <class 'gluon.validators.CLEANUP'>, ...}, layer='/home/pankaj/web2py/applications/reddit/models/db.py')"
p5137
sS'func'
p5138
S'restricted'
p5139
sa(dp5140
g5115
S'/home/pankaj/web2py/applications/reddit/models/db.py'
p5141
sg5117
(dp5142
S'db.Field'
p5143
S"<class 'gluon.dal.Field'>"
p5144
sS'requires'
p5145
S'undefined'
p5146
sS'IS_NOT_EMPTY'
p5147
S"<class 'gluon.validators.IS_NOT_EMPTY'>"
p5148
sS'db'
p5149
S'<DAL uri="sqlite://storage.sqlite">'
p5150
sS'default'
p5151
g5146
ssg5123
I104
sg5124
(dp5152
I99
S"\t\tdb.Field('rating','integer',default=100,label='Rating')"
p5153
sI100
S'\t\t)'
p5154
sI101
S"db.define_table('state',"
p5155
sI102
S"\t\tdb.Field('newsid','integer',requires=IS_NOT_EMPTY()),"
p5156
sI103
S"\t\tdb.Field('usrid','integer',writable=False,requires=IS_NOT_EMPTY(),label='User Id'),"
p5157
sI104
S"\t\tdb.Field('flag','integer',requires=IS_NOT_EMPTY(),default=-1))"
p5158
sI105
S''
sI106
S''
sI107
S''
sI108
S''
ssg5136
S'()'
p5159
sg5138
S'<module>'
p5160
sa(dp5161
g5115
S'/home/pankaj/web2py/gluon/dal.py'
p5162
sg5117
(dp5163
S'self.check_reserved_keyword'
p5164
S'<bound method DAL.check_reserved_keyword of <DAL uri="sqlite://storage.sqlite">>'
p5165
sS'self'
p5166
S'<DAL uri="sqlite://storage.sqlite">'
p5167
sS'tablename'
p5168
S"'state'"
p5169
ssg5123
I7176
sg5124
(dp5170
I7171
S"                raise SyntaxError('table already defined: %s' % tablename)"
p5171
sI7172
S"        elif tablename.startswith('_') or hasattr(self,tablename) or \\"
p5172
sI7173
S'                REGEX_PYTHON_KEYWORDS.match(tablename):'
p5173
sI7174
S"            raise SyntaxError('invalid table name: %s' % tablename)"
p5174
sI7175
S'        elif self.check_reserved:'
p5175
sI7176
S'            self.check_reserved_keyword(tablename)'
p5176
sI7177
S'        else:'
p5177
sI7178
S'            invalid_args = set(args)-TABLE_ARGS'
p5178
sI7179
S'            if invalid_args:'
p5179
sI7180
S'                raise SyntaxError(\'invalid table "%s" attributes: %s\' \\'
p5180
ssg5136
S'(self=<DAL uri="sqlite://storage.sqlite">, tablename=\'state\', *fields=(<gluon.dal.Field object>, <gluon.dal.Field object>, <gluon.dal.Field object>), **args={})'
p5181
sg5138
S'define_table'
p5182
sa(dp5183
g5115
S'/home/pankaj/web2py/gluon/dal.py'
p5184
sg5117
(dp5185
S'backend.upper'
p5186
S'<built-in method upper of str object>'
p5187
sS'name'
p5188
S"'state'"
p5189
sS'backend'
p5190
S"'all'"
p5191
ssg5123
I6930
sg5124
(dp5192
I6925
S"        ['all']"
p5193
sI6926
S'        """'
p5194
sI6927
S'        for backend in self.check_reserved:'
p5195
sI6928
S'            if name.upper() in self.RSK[backend]:'
p5196
sI6929
S'                raise SyntaxError('
p5197
sI6930
S'                    \'invalid table/column name "%s" is a "%s" reserved SQL keyword\' % (name, backend.upper()))'
p5198
sI6931
S''
sI6932
S'    def parse_as_rest(self,patterns,args,vars,queries=None,nested_select=True):'
p5199
sI6933
S'        """'
p5200
sI6934
S'        EXAMPLE:'
p5201
ssg5136
S'(self=<DAL uri="sqlite://storage.sqlite">, name=\'state\')'
p5202
sg5138
S'check_reserved_keyword'
p5203
sasS'pyver'
p5204
S'Python 2.7.3: /usr/bin/python'
p5205
sS'session'
p5206
g69
(g70
g71
NtRp5207
(dp5208
g74
(dp5209
sg76
(lp5210
g69
(g78
g71
NtRp5211
(dp5212
g74
(dp5213
g82
I5
ssg83
Nsg76
(lp5214
g69
(g85
g71
NtRp5215
(dp5216
g74
(dp5217
sg83
g5211
sg76
(lp5218
g69
(g90
g71
NtRp5219
(dp5220
g74
(dp5221
g94
g95
ssg83
g5215
sg76
(lp5222
S'auth'
p5223
asbag69
(g90
g71
NtRp5224
(dp5225
g74
(dp5226
g101
g102
ssg83
g5215
sg76
(lp5227
S':'
asbag69
(g90
g71
NtRp5228
(dp5229
g74
(dp5230
sg83
g5215
sg76
(lp5231
g69
(g70
g71
NtRp5232
(dp5233
g74
(dp5234
g82
I5
ssg83
g5228
sg76
(lp5235
g69
(g78
g71
NtRp5236
(dp5237
g74
(dp5238
g82
I4
ssg83
Nsg76
(lp5239
g69
(g85
g71
NtRp5240
(dp5241
g74
(dp5242
sg83
g5236
sg76
(lp5243
g69
(g90
g71
NtRp5244
(dp5245
g74
(dp5246
g94
g95
ssg83
g5240
sg76
(lp5247
S'expiration'
p5248
asbag69
(g90
g71
NtRp5249
(dp5250
g74
(dp5251
g101
g102
ssg83
g5240
sg76
(lp5252
S':'
asbag69
(g90
g71
NtRp5253
(dp5254
g74
(dp5255
sg83
g5240
sg76
(lp5256
g69
(g70
g71
NtRp5257
(dp5258
g74
(dp5259
g82
I4
ssg83
g5253
sg76
(lp5260
S'2592000'
p5261
asbasbasbag69
(g85
g71
NtRp5262
(dp5263
g74
(dp5264
sg83
g5236
sg76
(lp5265
g69
(g90
g71
NtRp5266
(dp5267
g74
(dp5268
g94
g95
ssg83
g5262
sg76
(lp5269
S'hmac_key'
p5270
asbag69
(g90
g71
NtRp5271
(dp5272
g74
(dp5273
g101
g102
ssg83
g5262
sg76
(lp5274
S':'
asbag69
(g90
g71
NtRp5275
(dp5276
g74
(dp5277
sg83
g5262
sg76
(lp5278
g69
(g70
g71
NtRp5279
(dp5280
g74
(dp5281
g82
I4
ssg83
g5275
sg76
(lp5282
S'f8ac37ec-2036-4076-bffe-8306279ac35a'
p5283
asbasbasbag69
(g85
g71
NtRp5284
(dp5285
g74
(dp5286
sg83
g5236
sg76
(lp5287
g69
(g90
g71
NtRp5288
(dp5289
g74
(dp5290
g94
g95
ssg83
g5284
sg76
(lp5291
S'last_visit'
p5292
asbag69
(g90
g71
NtRp5293
(dp5294
g74
(dp5295
g101
g102
ssg83
g5284
sg76
(lp5296
S':'
asbag69
(g90
g71
NtRp5297
(dp5298
g74
(dp5299
sg83
g5284
sg76
(lp5300
g69
(g70
g71
NtRp5301
(dp5302
g74
(dp5303
g82
I4
ssg83
g5297
sg76
(lp5304
S'datetime.datetime(2013, 8, 30, 1, 8, 1, 584665)'
p5305
asbasbasbag69
(g85
g71
NtRp5306
(dp5307
g74
(dp5308
sg83
g5236
sg76
(lp5309
g69
(g90
g71
NtRp5310
(dp5311
g74
(dp5312
g94
g95
ssg83
g5306
sg76
(lp5313
S'remember'
p5314
asbag69
(g90
g71
NtRp5315
(dp5316
g74
(dp5317
g101
g102
ssg83
g5306
sg76
(lp5318
S':'
asbag69
(g90
g71
NtRp5319
(dp5320
g74
(dp5321
sg83
g5306
sg76
(lp5322
g69
(g70
g71
NtRp5323
(dp5324
g74
(dp5325
g82
I4
ssg83
g5319
sg76
(lp5326
g3663
asbasbasbag69
(g85
g71
NtRp5327
(dp5328
g74
(dp5329
sg83
g5236
sg76
(lp5330
g69
(g90
g71
NtRp5331
(dp5332
g74
(dp5333
g94
g95
ssg83
g5327
sg76
(lp5334
S'user'
p5335
asbag69
(g90
g71
NtRp5336
(dp5337
g74
(dp5338
g101
g102
ssg83
g5327
sg76
(lp5339
S':'
asbag69
(g90
g71
NtRp5340
(dp5341
g74
(dp5342
sg83
g5327
sg76
(lp5343
g69
(g70
g71
NtRp5344
(dp5345
g74
(dp5346
g82
I4
ssg83
g5340
sg76
(lp5347
g69
(g78
g71
NtRp5348
(dp5349
g74
(dp5350
g82
I3
ssg83
Nsg76
(lp5351
g69
(g85
g71
NtRp5352
(dp5353
g74
(dp5354
sg83
g5348
sg76
(lp5355
g69
(g90
g71
NtRp5356
(dp5357
g74
(dp5358
g94
g95
ssg83
g5352
sg76
(lp5359
S'email'
p5360
asbag69
(g90
g71
NtRp5361
(dp5362
g74
(dp5363
g101
g102
ssg83
g5352
sg76
(lp5364
S':'
asbag69
(g90
g71
NtRp5365
(dp5366
g74
(dp5367
sg83
g5352
sg76
(lp5368
g69
(g70
g71
NtRp5369
(dp5370
g74
(dp5371
g82
I3
ssg83
g5365
sg76
(lp5372
S'pankaj@gmail.com'
p5373
asbasbasbag69
(g85
g71
NtRp5374
(dp5375
g74
(dp5376
sg83
g5348
sg76
(lp5377
g69
(g90
g71
NtRp5378
(dp5379
g74
(dp5380
g94
g95
ssg83
g5374
sg76
(lp5381
S'first_name'
p5382
asbag69
(g90
g71
NtRp5383
(dp5384
g74
(dp5385
g101
g102
ssg83
g5374
sg76
(lp5386
S':'
asbag69
(g90
g71
NtRp5387
(dp5388
g74
(dp5389
sg83
g5374
sg76
(lp5390
g69
(g70
g71
NtRp5391
(dp5392
g74
(dp5393
g82
I3
ssg83
g5387
sg76
(lp5394
S'pankaj'
p5395
asbasbasbag69
(g85
g71
NtRp5396
(dp5397
g74
(dp5398
sg83
g5348
sg76
(lp5399
g69
(g90
g71
NtRp5400
(dp5401
g74
(dp5402
g94
g95
ssg83
g5396
sg76
(lp5403
S'id'
p5404
asbag69
(g90
g71
NtRp5405
(dp5406
g74
(dp5407
g101
g102
ssg83
g5396
sg76
(lp5408
S':'
asbag69
(g90
g71
NtRp5409
(dp5410
g74
(dp5411
sg83
g5396
sg76
(lp5412
g69
(g70
g71
NtRp5413
(dp5414
g74
(dp5415
g82
I3
ssg83
g5409
sg76
(lp5416
S'1'
asbasbasbag69
(g85
g71
NtRp5417
(dp5418
g74
(dp5419
sg83
g5348
sg76
(lp5420
g69
(g90
g71
NtRp5421
(dp5422
g74
(dp5423
g94
g95
ssg83
g5417
sg76
(lp5424
S'last_name'
p5425
asbag69
(g90
g71
NtRp5426
(dp5427
g74
(dp5428
g101
g102
ssg83
g5417
sg76
(lp5429
S':'
asbag69
(g90
g71
NtRp5430
(dp5431
g74
(dp5432
sg83
g5417
sg76
(lp5433
g69
(g70
g71
NtRp5434
(dp5435
g74
(dp5436
g82
I3
ssg83
g5430
sg76
(lp5437
S'malhotra'
p5438
asbasbasbag69
(g85
g71
NtRp5439
(dp5440
g74
(dp5441
sg83
g5348
sg76
(lp5442
g69
(g90
g71
NtRp5443
(dp5444
g74
(dp5445
g94
g95
ssg83
g5439
sg76
(lp5446
S'registration_id'
p5447
asbag69
(g90
g71
NtRp5448
(dp5449
g74
(dp5450
g101
g102
ssg83
g5439
sg76
(lp5451
S':'
asbag69
(g90
g71
NtRp5452
(dp5453
g74
(dp5454
sg83
g5439
sg76
(lp5455
g69
(g70
g71
NtRp5456
(dp5457
g74
(dp5458
g82
I3
ssg83
g5452
sg76
(lp5459
S''
asbasbasbag69
(g85
g71
NtRp5460
(dp5461
g74
(dp5462
sg83
g5348
sg76
(lp5463
g69
(g90
g71
NtRp5464
(dp5465
g74
(dp5466
g94
g95
ssg83
g5460
sg76
(lp5467
S'registration_key'
p5468
asbag69
(g90
g71
NtRp5469
(dp5470
g74
(dp5471
g101
g102
ssg83
g5460
sg76
(lp5472
S':'
asbag69
(g90
g71
NtRp5473
(dp5474
g74
(dp5475
sg83
g5460
sg76
(lp5476
g69
(g70
g71
NtRp5477
(dp5478
g74
(dp5479
g82
I3
ssg83
g5473
sg76
(lp5480
S''
asbasbasbag69
(g85
g71
NtRp5481
(dp5482
g74
(dp5483
sg83
g5348
sg76
(lp5484
g69
(g90
g71
NtRp5485
(dp5486
g74
(dp5487
g94
g95
ssg83
g5481
sg76
(lp5488
S'reset_password_key'
p5489
asbag69
(g90
g71
NtRp5490
(dp5491
g74
(dp5492
g101
g102
ssg83
g5481
sg76
(lp5493
S':'
asbag69
(g90
g71
NtRp5494
(dp5495
g74
(dp5496
sg83
g5481
sg76
(lp5497
g69
(g70
g71
NtRp5498
(dp5499
g74
(dp5500
g82
I3
ssg83
g5494
sg76
(lp5501
S''
asbasbasbasbasbasbasbag69
(g85
g71
NtRp5502
(dp5503
g74
(dp5504
sg83
g5236
sg76
(lp5505
g69
(g90
g71
NtRp5506
(dp5507
g74
(dp5508
g94
g95
ssg83
g5502
sg76
(lp5509
S'user_groups'
p5510
asbag69
(g90
g71
NtRp5511
(dp5512
g74
(dp5513
g101
g102
ssg83
g5502
sg76
(lp5514
S':'
asbag69
(g90
g71
NtRp5515
(dp5516
g74
(dp5517
sg83
g5502
sg76
(lp5518
g69
(g70
g71
NtRp5519
(dp5520
g74
(dp5521
g82
I4
ssg83
g5515
sg76
(lp5522
g69
(g78
g71
NtRp5523
(dp5524
g74
(dp5525
g82
I3
ssg83
Nsg76
(lp5526
g69
(g85
g71
NtRp5527
(dp5528
g74
(dp5529
sg83
g5523
sg76
(lp5530
g69
(g90
g71
NtRp5531
(dp5532
g74
(dp5533
g94
g95
ssg83
g5527
sg76
(lp5534
S'1'
asbag69
(g90
g71
NtRp5535
(dp5536
g74
(dp5537
g101
g102
ssg83
g5527
sg76
(lp5538
S':'
asbag69
(g90
g71
NtRp5539
(dp5540
g74
(dp5541
sg83
g5527
sg76
(lp5542
g69
(g70
g71
NtRp5543
(dp5544
g74
(dp5545
g82
I3
ssg83
g5539
sg76
(lp5546
S'user_1'
p5547
asbasbasbasbasbasbasbasbasbasbasbag69
(g85
g71
NtRp5548
(dp5549
g74
(dp5550
sg83
g5211
sg76
(lp5551
g69
(g90
g71
NtRp5552
(dp5553
g74
(dp5554
g94
g95
ssg83
g5548
sg76
(lp5555
S'flash'
p5556
asbag69
(g90
g71
NtRp5557
(dp5558
g74
(dp5559
g101
g102
ssg83
g5548
sg76
(lp5560
S':'
asbag69
(g90
g71
NtRp5561
(dp5562
g74
(dp5563
sg83
g5548
sg76
(lp5564
g69
(g70
g71
NtRp5565
(dp5566
g74
(dp5567
g82
I5
ssg83
g5561
sg76
(lp5568
S'None'
p5569
asbasbasbag69
(g85
g71
NtRp5570
(dp5571
g74
(dp5572
sg83
g5211
sg76
(lp5573
g69
(g90
g71
NtRp5574
(dp5575
g74
(dp5576
g94
g95
ssg83
g5570
sg76
(lp5577
S'last_orderby'
p5578
asbag69
(g90
g71
NtRp5579
(dp5580
g74
(dp5581
g101
g102
ssg83
g5570
sg76
(lp5582
S':'
asbag69
(g90
g71
NtRp5583
(dp5584
g74
(dp5585
sg83
g5570
sg76
(lp5586
g69
(g70
g71
NtRp5587
(dp5588
g74
(dp5589
g82
I5
ssg83
g5583
sg76
(lp5590
S'None'
p5591
asbasbasbag69
(g85
g71
NtRp5592
(dp5593
g74
(dp5594
sg83
g5211
sg76
(lp5595
g69
(g90
g71
NtRp5596
(dp5597
g74
(dp5598
g94
g95
ssg83
g5592
sg76
(lp5599
S'last_query'
p5600
asbag69
(g90
g71
NtRp5601
(dp5602
g74
(dp5603
g101
g102
ssg83
g5592
sg76
(lp5604
S':'
asbag69
(g90
g71
NtRp5605
(dp5606
g74
(dp5607
sg83
g5592
sg76
(lp5608
g69
(g70
g71
NtRp5609
(dp5610
g74
(dp5611
g82
I5
ssg83
g5605
sg76
(lp5612
S'db.news.id>0'
p5613
asbasbasbasbasbsS'etype'
p5614
S"<type 'exceptions.SyntaxError'>"
p5615
sS'date'
p5616
S'Fri Aug 30 14:41:31 2013'
p5617
sS'response'
p5618
g69
(g70
g71
NtRp5619
(dp5620
g74
(dp5621
sg76
(lp5622
g69
(g78
g71
NtRp5623
(dp5624
g74
(dp5625
g82
I5
ssg83
Nsg76
(lp5626
g69
(g85
g71
NtRp5627
(dp5628
g74
(dp5629
sg83
g5623
sg76
(lp5630
g69
(g90
g71
NtRp5631
(dp5632
g74
(dp5633
g94
g95
ssg83
g5627
sg76
(lp5634
g167
asbag69
(g90
g71
NtRp5635
(dp5636
g74
(dp5637
g101
g102
ssg83
g5627
sg76
(lp5638
S':'
asbag69
(g90
g71
NtRp5639
(dp5640
g74
(dp5641
sg83
g5627
sg76
(lp5642
g69
(g70
g71
NtRp5643
(dp5644
g74
(dp5645
g82
I5
ssg83
g5639
sg76
(lp5646
S'<cStringIO.StringO object at 0x9ac7660>'
p5647
asbasbasbag69
(g85
g71
NtRp5648
(dp5649
g74
(dp5650
sg83
g5623
sg76
(lp5651
g69
(g90
g71
NtRp5652
(dp5653
g74
(dp5654
g94
g95
ssg83
g5648
sg76
(lp5655
g255
asbag69
(g90
g71
NtRp5656
(dp5657
g74
(dp5658
g101
g102
ssg83
g5648
sg76
(lp5659
S':'
asbag69
(g90
g71
NtRp5660
(dp5661
g74
(dp5662
sg83
g5648
sg76
(lp5663
g69
(g70
g71
NtRp5664
(dp5665
g74
(dp5666
g82
I5
ssg83
g5660
sg76
(lp5667
g69
(g78
g71
NtRp5668
(dp5669
g74
(dp5670
g82
I4
ssg83
Nsg76
(lp5671
g69
(g85
g71
NtRp5672
(dp5673
g74
(dp5674
sg83
g5668
sg76
(lp5675
g69
(g90
g71
NtRp5676
(dp5677
g74
(dp5678
g94
g95
ssg83
g5672
sg76
(lp5679
S'session_id_reddit'
p5680
asbag69
(g90
g71
NtRp5681
(dp5682
g74
(dp5683
g101
g102
ssg83
g5672
sg76
(lp5684
S':'
asbag69
(g90
g71
NtRp5685
(dp5686
g74
(dp5687
sg83
g5672
sg76
(lp5688
g69
(g70
g71
NtRp5689
(dp5690
g74
(dp5691
g82
I4
ssg83
g5685
sg76
(lp5692
g1789
ag69
(g78
g71
NtRp5693
(dp5694
g74
(dp5695
g82
I3
ssg83
Nsg76
(lp5696
g69
(g85
g71
NtRp5697
(dp5698
g74
(dp5699
sg83
g5693
sg76
(lp5700
g69
(g90
g71
NtRp5701
(dp5702
g74
(dp5703
g94
g95
ssg83
g5697
sg76
(lp5704
g306
asbag69
(g90
g71
NtRp5705
(dp5706
g74
(dp5707
g101
g102
ssg83
g5697
sg76
(lp5708
S':'
asbag69
(g90
g71
NtRp5709
(dp5710
g74
(dp5711
sg83
g5697
sg76
(lp5712
g69
(g70
g71
NtRp5713
(dp5714
g74
(dp5715
g82
I3
ssg83
g5709
sg76
(lp5716
S''
asbasbasbag69
(g85
g71
NtRp5717
(dp5718
g74
(dp5719
sg83
g5693
sg76
(lp5720
g69
(g90
g71
NtRp5721
(dp5722
g74
(dp5723
g94
g95
ssg83
g5717
sg76
(lp5724
g327
asbag69
(g90
g71
NtRp5725
(dp5726
g74
(dp5727
g101
g102
ssg83
g5717
sg76
(lp5728
S':'
asbag69
(g90
g71
NtRp5729
(dp5730
g74
(dp5731
sg83
g5717
sg76
(lp5732
g69
(g70
g71
NtRp5733
(dp5734
g74
(dp5735
g82
I3
ssg83
g5729
sg76
(lp5736
S''
asbasbasbag69
(g85
g71
NtRp5737
(dp5738
g74
(dp5739
sg83
g5693
sg76
(lp5740
g69
(g90
g71
NtRp5741
(dp5742
g74
(dp5743
g94
g95
ssg83
g5737
sg76
(lp5744
g348
asbag69
(g90
g71
NtRp5745
(dp5746
g74
(dp5747
g101
g102
ssg83
g5737
sg76
(lp5748
S':'
asbag69
(g90
g71
NtRp5749
(dp5750
g74
(dp5751
sg83
g5737
sg76
(lp5752
g69
(g70
g71
NtRp5753
(dp5754
g74
(dp5755
g82
I3
ssg83
g5749
sg76
(lp5756
S'2592000'
p5757
asbasbasbag69
(g85
g71
NtRp5758
(dp5759
g74
(dp5760
sg83
g5693
sg76
(lp5761
g69
(g90
g71
NtRp5762
(dp5763
g74
(dp5764
g94
g95
ssg83
g5758
sg76
(lp5765
g369
asbag69
(g90
g71
NtRp5766
(dp5767
g74
(dp5768
g101
g102
ssg83
g5758
sg76
(lp5769
S':'
asbag69
(g90
g71
NtRp5770
(dp5771
g74
(dp5772
sg83
g5758
sg76
(lp5773
g69
(g70
g71
NtRp5774
(dp5775
g74
(dp5776
g82
I3
ssg83
g5770
sg76
(lp5777
S''
asbasbasbag69
(g85
g71
NtRp5778
(dp5779
g74
(dp5780
sg83
g5693
sg76
(lp5781
g69
(g90
g71
NtRp5782
(dp5783
g74
(dp5784
g94
g95
ssg83
g5778
sg76
(lp5785
g390
asbag69
(g90
g71
NtRp5786
(dp5787
g74
(dp5788
g101
g102
ssg83
g5778
sg76
(lp5789
S':'
asbag69
(g90
g71
NtRp5790
(dp5791
g74
(dp5792
sg83
g5778
sg76
(lp5793
g69
(g70
g71
NtRp5794
(dp5795
g74
(dp5796
g82
I3
ssg83
g5790
sg76
(lp5797
S''
asbasbasbag69
(g85
g71
NtRp5798
(dp5799
g74
(dp5800
sg83
g5693
sg76
(lp5801
g69
(g90
g71
NtRp5802
(dp5803
g74
(dp5804
g94
g95
ssg83
g5798
sg76
(lp5805
g411
asbag69
(g90
g71
NtRp5806
(dp5807
g74
(dp5808
g101
g102
ssg83
g5798
sg76
(lp5809
S':'
asbag69
(g90
g71
NtRp5810
(dp5811
g74
(dp5812
sg83
g5798
sg76
(lp5813
g69
(g70
g71
NtRp5814
(dp5815
g74
(dp5816
g82
I3
ssg83
g5810
sg76
(lp5817
S'/'
asbasbasbag69
(g85
g71
NtRp5818
(dp5819
g74
(dp5820
sg83
g5693
sg76
(lp5821
g69
(g90
g71
NtRp5822
(dp5823
g74
(dp5824
g94
g95
ssg83
g5818
sg76
(lp5825
g432
asbag69
(g90
g71
NtRp5826
(dp5827
g74
(dp5828
g101
g102
ssg83
g5818
sg76
(lp5829
S':'
asbag69
(g90
g71
NtRp5830
(dp5831
g74
(dp5832
sg83
g5818
sg76
(lp5833
g69
(g70
g71
NtRp5834
(dp5835
g74
(dp5836
g82
I3
ssg83
g5830
sg76
(lp5837
S''
asbasbasbag69
(g85
g71
NtRp5838
(dp5839
g74
(dp5840
sg83
g5693
sg76
(lp5841
g69
(g90
g71
NtRp5842
(dp5843
g74
(dp5844
g94
g95
ssg83
g5838
sg76
(lp5845
g453
asbag69
(g90
g71
NtRp5846
(dp5847
g74
(dp5848
g101
g102
ssg83
g5838
sg76
(lp5849
S':'
asbag69
(g90
g71
NtRp5850
(dp5851
g74
(dp5852
sg83
g5838
sg76
(lp5853
g69
(g70
g71
NtRp5854
(dp5855
g74
(dp5856
g82
I3
ssg83
g5850
sg76
(lp5857
S''
asbasbasbasbasbasbasbasbasbasbasbag69
(g85
g71
NtRp5858
(dp5859
g74
(dp5860
sg83
g5623
sg76
(lp5861
g69
(g90
g71
NtRp5862
(dp5863
g74
(dp5864
g94
g95
ssg83
g5858
sg76
(lp5865
S'delimiters'
p5866
asbag69
(g90
g71
NtRp5867
(dp5868
g74
(dp5869
g101
g102
ssg83
g5858
sg76
(lp5870
S':'
asbag69
(g90
g71
NtRp5871
(dp5872
g74
(dp5873
sg83
g5858
sg76
(lp5874
g69
(g70
g71
NtRp5875
(dp5876
g74
(dp5877
g82
I5
ssg83
g5871
sg76
(lp5878
g69
(g78
g71
NtRp5879
(dp5880
g74
(dp5881
g82
I4
ssg83
Nsg76
(lp5882
g69
(g85
g71
NtRp5883
(dp5884
g74
(dp5885
sg83
g5879
sg76
(lp5886
g69
(g90
g71
NtRp5887
(dp5888
g74
(dp5889
sg83
g5883
sg76
(lp5890
g69
(g70
g71
NtRp5891
(dp5892
g74
(dp5893
g82
I4
ssg83
g5887
sg76
(lp5894
S'{{'
p5895
asbasbasbag69
(g85
g71
NtRp5896
(dp5897
g74
(dp5898
sg83
g5879
sg76
(lp5899
g69
(g90
g71
NtRp5900
(dp5901
g74
(dp5902
sg83
g5896
sg76
(lp5903
g69
(g70
g71
NtRp5904
(dp5905
g74
(dp5906
g82
I4
ssg83
g5900
sg76
(lp5907
S'}}'
p5908
asbasbasbasbasbasbasbag69
(g85
g71
NtRp5909
(dp5910
g74
(dp5911
sg83
g5623
sg76
(lp5912
g69
(g90
g71
NtRp5913
(dp5914
g74
(dp5915
g94
g95
ssg83
g5909
sg76
(lp5916
S'files'
p5917
asbag69
(g90
g71
NtRp5918
(dp5919
g74
(dp5920
g101
g102
ssg83
g5909
sg76
(lp5921
S':'
asbag69
(g90
g71
NtRp5922
(dp5923
g74
(dp5924
sg83
g5909
sg76
(lp5925
g69
(g70
g71
NtRp5926
(dp5927
g74
(dp5928
g82
I5
ssg83
g5922
sg76
(lp5929
g69
(g78
g71
NtRp5930
(dp5931
g74
(dp5932
g82
I4
ssg83
Nsg76
(lp5933
sbasbasbasbag69
(g85
g71
NtRp5934
(dp5935
g74
(dp5936
sg83
g5623
sg76
(lp5937
g69
(g90
g71
NtRp5938
(dp5939
g74
(dp5940
g94
g95
ssg83
g5934
sg76
(lp5941
S'flash'
p5942
asbag69
(g90
g71
NtRp5943
(dp5944
g74
(dp5945
g101
g102
ssg83
g5934
sg76
(lp5946
S':'
asbag69
(g90
g71
NtRp5947
(dp5948
g74
(dp5949
sg83
g5934
sg76
(lp5950
g69
(g70
g71
NtRp5951
(dp5952
g74
(dp5953
g82
I5
ssg83
g5947
sg76
(lp5954
S''
asbasbasbag69
(g85
g71
NtRp5955
(dp5956
g74
(dp5957
sg83
g5623
sg76
(lp5958
g69
(g90
g71
NtRp5959
(dp5960
g74
(dp5961
g94
g95
ssg83
g5955
sg76
(lp5962
S'generic_patterns'
p5963
asbag69
(g90
g71
NtRp5964
(dp5965
g74
(dp5966
g101
g102
ssg83
g5955
sg76
(lp5967
S':'
asbag69
(g90
g71
NtRp5968
(dp5969
g74
(dp5970
sg83
g5955
sg76
(lp5971
g69
(g70
g71
NtRp5972
(dp5973
g74
(dp5974
g82
I5
ssg83
g5968
sg76
(lp5975
g69
(g78
g71
NtRp5976
(dp5977
g74
(dp5978
g82
I4
ssg83
Nsg76
(lp5979
g69
(g85
g71
NtRp5980
(dp5981
g74
(dp5982
sg83
g5976
sg76
(lp5983
g69
(g90
g71
NtRp5984
(dp5985
g74
(dp5986
sg83
g5980
sg76
(lp5987
g69
(g70
g71
NtRp5988
(dp5989
g74
(dp5990
g82
I4
ssg83
g5984
sg76
(lp5991
S'*'
asbasbasbasbasbasbasbag69
(g85
g71
NtRp5992
(dp5993
g74
(dp5994
sg83
g5623
sg76
(lp5995
g69
(g90
g71
NtRp5996
(dp5997
g74
(dp5998
g94
g95
ssg83
g5992
sg76
(lp5999
S'headers'
p6000
asbag69
(g90
g71
NtRp6001
(dp6002
g74
(dp6003
g101
g102
ssg83
g5992
sg76
(lp6004
S':'
asbag69
(g90
g71
NtRp6005
(dp6006
g74
(dp6007
sg83
g5992
sg76
(lp6008
g69
(g70
g71
NtRp6009
(dp6010
g74
(dp6011
g82
I5
ssg83
g6005
sg76
(lp6012
g69
(g78
g71
NtRp6013
(dp6014
g74
(dp6015
g82
I4
ssg83
Nsg76
(lp6016
g69
(g85
g71
NtRp6017
(dp6018
g74
(dp6019
sg83
g6013
sg76
(lp6020
g69
(g90
g71
NtRp6021
(dp6022
g74
(dp6023
g94
g95
ssg83
g6017
sg76
(lp6024
S'X-Powered-By'
p6025
asbag69
(g90
g71
NtRp6026
(dp6027
g74
(dp6028
g101
g102
ssg83
g6017
sg76
(lp6029
S':'
asbag69
(g90
g71
NtRp6030
(dp6031
g74
(dp6032
sg83
g6017
sg76
(lp6033
g69
(g70
g71
NtRp6034
(dp6035
g74
(dp6036
g82
I4
ssg83
g6030
sg76
(lp6037
S'web2py'
p6038
asbasbasbasbasbasbasbag69
(g85
g71
NtRp6039
(dp6040
g74
(dp6041
sg83
g5623
sg76
(lp6042
g69
(g90
g71
NtRp6043
(dp6044
g74
(dp6045
g94
g95
ssg83
g6039
sg76
(lp6046
S'menu'
p6047
asbag69
(g90
g71
NtRp6048
(dp6049
g74
(dp6050
g101
g102
ssg83
g6039
sg76
(lp6051
S':'
asbag69
(g90
g71
NtRp6052
(dp6053
g74
(dp6054
sg83
g6039
sg76
(lp6055
g69
(g70
g71
NtRp6056
(dp6057
g74
(dp6058
g82
I5
ssg83
g6052
sg76
(lp6059
g69
(g78
g71
NtRp6060
(dp6061
g74
(dp6062
g82
I4
ssg83
Nsg76
(lp6063
sbasbasbasbag69
(g85
g71
NtRp6064
(dp6065
g74
(dp6066
sg83
g5623
sg76
(lp6067
g69
(g90
g71
NtRp6068
(dp6069
g74
(dp6070
g94
g95
ssg83
g6064
sg76
(lp6071
S'meta'
p6072
asbag69
(g90
g71
NtRp6073
(dp6074
g74
(dp6075
g101
g102
ssg83
g6064
sg76
(lp6076
S':'
asbag69
(g90
g71
NtRp6077
(dp6078
g74
(dp6079
sg83
g6064
sg76
(lp6080
g69
(g70
g71
NtRp6081
(dp6082
g74
(dp6083
g82
I5
ssg83
g6077
sg76
(lp6084
g69
(g78
g71
NtRp6085
(dp6086
g74
(dp6087
g82
I4
ssg83
Nsg76
(lp6088
sbasbasbasbag69
(g85
g71
NtRp6089
(dp6090
g74
(dp6091
sg83
g5623
sg76
(lp6092
g69
(g90
g71
NtRp6093
(dp6094
g74
(dp6095
g94
g95
ssg83
g6089
sg76
(lp6096
S'models_to_run'
p6097
asbag69
(g90
g71
NtRp6098
(dp6099
g74
(dp6100
g101
g102
ssg83
g6089
sg76
(lp6101
S':'
asbag69
(g90
g71
NtRp6102
(dp6103
g74
(dp6104
sg83
g6089
sg76
(lp6105
g69
(g70
g71
NtRp6106
(dp6107
g74
(dp6108
g82
I5
ssg83
g6102
sg76
(lp6109
g69
(g78
g71
NtRp6110
(dp6111
g74
(dp6112
g82
I4
ssg83
Nsg76
(lp6113
g69
(g85
g71
NtRp6114
(dp6115
g74
(dp6116
sg83
g6110
sg76
(lp6117
g69
(g90
g71
NtRp6118
(dp6119
g74
(dp6120
sg83
g6114
sg76
(lp6121
g69
(g70
g71
NtRp6122
(dp6123
g74
(dp6124
g82
I4
ssg83
g6118
sg76
(lp6125
S'^\\w+\\.py$'
p6126
asbasbasbag69
(g85
g71
NtRp6127
(dp6128
g74
(dp6129
sg83
g6110
sg76
(lp6130
g69
(g90
g71
NtRp6131
(dp6132
g74
(dp6133
sg83
g6127
sg76
(lp6134
g69
(g70
g71
NtRp6135
(dp6136
g74
(dp6137
g82
I4
ssg83
g6131
sg76
(lp6138
S'^default/\\w+\\.py$'
p6139
asbasbasbag69
(g85
g71
NtRp6140
(dp6141
g74
(dp6142
sg83
g6110
sg76
(lp6143
g69
(g90
g71
NtRp6144
(dp6145
g74
(dp6146
sg83
g6140
sg76
(lp6147
g69
(g70
g71
NtRp6148
(dp6149
g74
(dp6150
g82
I4
ssg83
g6144
sg76
(lp6151
S'^default/index/\\w+\\.py$'
p6152
asbasbasbasbasbasbasbag69
(g85
g71
NtRp6153
(dp6154
g74
(dp6155
sg83
g5623
sg76
(lp6156
g69
(g90
g71
NtRp6157
(dp6158
g74
(dp6159
g94
g95
ssg83
g6153
sg76
(lp6160
S'postprocessing'
p6161
asbag69
(g90
g71
NtRp6162
(dp6163
g74
(dp6164
g101
g102
ssg83
g6153
sg76
(lp6165
S':'
asbag69
(g90
g71
NtRp6166
(dp6167
g74
(dp6168
sg83
g6153
sg76
(lp6169
g69
(g70
g71
NtRp6170
(dp6171
g74
(dp6172
g82
I5
ssg83
g6166
sg76
(lp6173
g69
(g78
g71
NtRp6174
(dp6175
g74
(dp6176
g82
I4
ssg83
Nsg76
(lp6177
sbasbasbasbag69
(g85
g71
NtRp6178
(dp6179
g74
(dp6180
sg83
g5623
sg76
(lp6181
g69
(g90
g71
NtRp6182
(dp6183
g74
(dp6184
g94
g95
ssg83
g6178
sg76
(lp6185
S'session_cookie_expires'
p6186
asbag69
(g90
g71
NtRp6187
(dp6188
g74
(dp6189
g101
g102
ssg83
g6178
sg76
(lp6190
S':'
asbag69
(g90
g71
NtRp6191
(dp6192
g74
(dp6193
sg83
g6178
sg76
(lp6194
g69
(g70
g71
NtRp6195
(dp6196
g74
(dp6197
g82
I5
ssg83
g6191
sg76
(lp6198
S'None'
p6199
asbasbasbag69
(g85
g71
NtRp6200
(dp6201
g74
(dp6202
sg83
g5623
sg76
(lp6203
g69
(g90
g71
NtRp6204
(dp6205
g74
(dp6206
g94
g95
ssg83
g6200
sg76
(lp6207
S'session_data_name'
p6208
asbag69
(g90
g71
NtRp6209
(dp6210
g74
(dp6211
g101
g102
ssg83
g6200
sg76
(lp6212
S':'
asbag69
(g90
g71
NtRp6213
(dp6214
g74
(dp6215
sg83
g6200
sg76
(lp6216
g69
(g70
g71
NtRp6217
(dp6218
g74
(dp6219
g82
I5
ssg83
g6213
sg76
(lp6220
S'session_data_reddit'
p6221
asbasbasbag69
(g85
g71
NtRp6222
(dp6223
g74
(dp6224
sg83
g5623
sg76
(lp6225
g69
(g90
g71
NtRp6226
(dp6227
g74
(dp6228
g94
g95
ssg83
g6222
sg76
(lp6229
S'session_file'
p6230
asbag69
(g90
g71
NtRp6231
(dp6232
g74
(dp6233
g101
g102
ssg83
g6222
sg76
(lp6234
S':'
asbag69
(g90
g71
NtRp6235
(dp6236
g74
(dp6237
sg83
g6222
sg76
(lp6238
g69
(g70
g71
NtRp6239
(dp6240
g74
(dp6241
g82
I5
ssg83
g6235
sg76
(lp6242
S"<open file '/home/pankaj/web2py/applications/reddit/sessions/127.0.0.1-24289f39-32a1-48fb-a367-22792fb8b813', mode 'rb+' at 0xae221440>"
p6243
asbasbasbag69
(g85
g71
NtRp6244
(dp6245
g74
(dp6246
sg83
g5623
sg76
(lp6247
g69
(g90
g71
NtRp6248
(dp6249
g74
(dp6250
g94
g95
ssg83
g6244
sg76
(lp6251
S'session_filename'
p6252
asbag69
(g90
g71
NtRp6253
(dp6254
g74
(dp6255
g101
g102
ssg83
g6244
sg76
(lp6256
S':'
asbag69
(g90
g71
NtRp6257
(dp6258
g74
(dp6259
sg83
g6244
sg76
(lp6260
g69
(g70
g71
NtRp6261
(dp6262
g74
(dp6263
g82
I5
ssg83
g6257
sg76
(lp6264
S'/home/pankaj/web2py/applications/reddit/sessions/127.0.0.1-24289f39-32a1-48fb-a367-22792fb8b813'
p6265
asbasbasbag69
(g85
g71
NtRp6266
(dp6267
g74
(dp6268
sg83
g5623
sg76
(lp6269
g69
(g90
g71
NtRp6270
(dp6271
g74
(dp6272
g94
g95
ssg83
g6266
sg76
(lp6273
S'session_id'
p6274
asbag69
(g90
g71
NtRp6275
(dp6276
g74
(dp6277
g101
g102
ssg83
g6266
sg76
(lp6278
S':'
asbag69
(g90
g71
NtRp6279
(dp6280
g74
(dp6281
sg83
g6266
sg76
(lp6282
g69
(g70
g71
NtRp6283
(dp6284
g74
(dp6285
g82
I5
ssg83
g6279
sg76
(lp6286
g1789
asbasbasbag69
(g85
g71
NtRp6287
(dp6288
g74
(dp6289
sg83
g5623
sg76
(lp6290
g69
(g90
g71
NtRp6291
(dp6292
g74
(dp6293
g94
g95
ssg83
g6287
sg76
(lp6294
S'session_id_name'
p6295
asbag69
(g90
g71
NtRp6296
(dp6297
g74
(dp6298
g101
g102
ssg83
g6287
sg76
(lp6299
S':'
asbag69
(g90
g71
NtRp6300
(dp6301
g74
(dp6302
sg83
g6287
sg76
(lp6303
g69
(g70
g71
NtRp6304
(dp6305
g74
(dp6306
g82
I5
ssg83
g6300
sg76
(lp6307
g5680
asbasbasbag69
(g85
g71
NtRp6308
(dp6309
g74
(dp6310
sg83
g5623
sg76
(lp6311
g69
(g90
g71
NtRp6312
(dp6313
g74
(dp6314
g94
g95
ssg83
g6308
sg76
(lp6315
S'session_locked'
p6316
asbag69
(g90
g71
NtRp6317
(dp6318
g74
(dp6319
g101
g102
ssg83
g6308
sg76
(lp6320
S':'
asbag69
(g90
g71
NtRp6321
(dp6322
g74
(dp6323
sg83
g6308
sg76
(lp6324
g69
(g70
g71
NtRp6325
(dp6326
g74
(dp6327
g82
I5
ssg83
g6321
sg76
(lp6328
g3663
asbasbasbag69
(g85
g71
NtRp6329
(dp6330
g74
(dp6331
sg83
g5623
sg76
(lp6332
g69
(g90
g71
NtRp6333
(dp6334
g74
(dp6335
g94
g95
ssg83
g6329
sg76
(lp6336
S'session_new'
p6337
asbag69
(g90
g71
NtRp6338
(dp6339
g74
(dp6340
g101
g102
ssg83
g6329
sg76
(lp6341
S':'
asbag69
(g90
g71
NtRp6342
(dp6343
g74
(dp6344
sg83
g6329
sg76
(lp6345
g69
(g70
g71
NtRp6346
(dp6347
g74
(dp6348
g82
I5
ssg83
g6342
sg76
(lp6349
g112
asbasbasbag69
(g85
g71
NtRp6350
(dp6351
g74
(dp6352
sg83
g5623
sg76
(lp6353
g69
(g90
g71
NtRp6354
(dp6355
g74
(dp6356
g94
g95
ssg83
g6350
sg76
(lp6357
S'session_storage_type'
p6358
asbag69
(g90
g71
NtRp6359
(dp6360
g74
(dp6361
g101
g102
ssg83
g6350
sg76
(lp6362
S':'
asbag69
(g90
g71
NtRp6363
(dp6364
g74
(dp6365
sg83
g6350
sg76
(lp6366
g69
(g70
g71
NtRp6367
(dp6368
g74
(dp6369
g82
I5
ssg83
g6363
sg76
(lp6370
g5115
asbasbasbag69
(g85
g71
NtRp6371
(dp6372
g74
(dp6373
sg83
g5623
sg76
(lp6374
g69
(g90
g71
NtRp6375
(dp6376
g74
(dp6377
g94
g95
ssg83
g6371
sg76
(lp6378
S'status'
p6379
asbag69
(g90
g71
NtRp6380
(dp6381
g74
(dp6382
g101
g102
ssg83
g6371
sg76
(lp6383
S':'
asbag69
(g90
g71
NtRp6384
(dp6385
g74
(dp6386
sg83
g6371
sg76
(lp6387
g69
(g70
g71
NtRp6388
(dp6389
g74
(dp6390
g82
I5
ssg83
g6384
sg76
(lp6391
S'200'
p6392
asbasbasbag69
(g85
g71
NtRp6393
(dp6394
g74
(dp6395
sg83
g5623
sg76
(lp6396
g69
(g90
g71
NtRp6397
(dp6398
g74
(dp6399
g94
g95
ssg83
g6393
sg76
(lp6400
S'view'
p6401
asbag69
(g90
g71
NtRp6402
(dp6403
g74
(dp6404
g101
g102
ssg83
g6393
sg76
(lp6405
S':'
asbag69
(g90
g71
NtRp6406
(dp6407
g74
(dp6408
sg83
g6393
sg76
(lp6409
g69
(g70
g71
NtRp6410
(dp6411
g74
(dp6412
g82
I5
ssg83
g6406
sg76
(lp6413
S'default/index.html'
p6414
asbasbasbasbasbsS'locals'
p6415
(dp6416
S'self'
p6417
S'<DAL uri="sqlite://storage.sqlite">'
p6418
sS'name'
p6419
S"'state'"
p6420
sS'backend'
p6421
S"'all'"
p6422
sssS'traceback'
p6423
S'Traceback (most recent call last):\n  File "/home/pankaj/web2py/gluon/restricted.py", line 212, in restricted\n    exec ccode in environment\n  File "/home/pankaj/web2py/applications/reddit/models/db.py", line 104, in <module>\n    db.Field(\'flag\',\'integer\',requires=IS_NOT_EMPTY(),default=-1))\n  File "/home/pankaj/web2py/gluon/dal.py", line 7176, in define_table\n    self.check_reserved_keyword(tablename)\n  File "/home/pankaj/web2py/gluon/dal.py", line 6930, in check_reserved_keyword\n    \'invalid table/column name "%s" is a "%s" reserved SQL keyword\' % (name, backend.upper()))\nSyntaxError: invalid table/column name "state" is a "ALL" reserved SQL keyword\n'
p6424
s.