(dp1
S'output'
p2
S"<type 'exceptions.AttributeError'> 'Row' object has no attribute 'rating'"
p3
sS'layer'
p4
S'/home/pankaj/web2py/applications/reddit/controllers/default.py'
p5
sS'code'
p6
S'# -*- coding: utf-8 -*-\n# this file is released under public domain and you can use without limitations\n\n#########################################################################\n## This is a samples controller\n## - index is the default action of any application\n## - user is required for authentication and authorization\n## - download is for downloading files uploaded in the db (does streaming)\n## - call exposes all registered services (none by default)\n#########################################################################\n\nimport operator\n@auth.requires_login()\ndef index():\n\n    response.flash = T("Welcome to Reddit.com!")\n    nstore=db(db.news.id > 0).select()\n    cstore=db(db.comments.id > 0).select()\n    catg=db(db.category.id>0).select()\n    news = sorted(nstore, key=lambda k: k[\'rating\'])\n    comments = sorted(cstore, key=lambda k: k[\'rating\'])\n    news.reverse()\n    comments.reverse()\n    return dict(nstore=news,cstore=comments,catg=catg)\n\ndef displaycat():\n\tcatid=int(request.post_vars[\'catid\'])\n\tnstore=db((db.category.id == catid)&(db.category.name == db.news.cat)).select()\n\tprint nstore\n\t\'\'\' selecting all comments no matter what the category is \'\'\'\n    \tcstore=db(db.comments.id > 0).select()\n    \tcatg=db(db.category.id>0).select()\n    \tnews = sorted(nstore, key=lambda k: k[\'rating\'])\n    \tcomments = sorted(cstore, key=lambda k: k[\'rating\'])\n    \tnews.reverse()\n    \tcomments.reverse()\n    \treturn dict(nstore=news,cstore=comments,catg=catg)\n\n\n\ndef addc():\n\tcval=request.post_vars[\'cval\']\n\tnid=int(request.post_vars[\'nid\'])\n\tusri=int(request.post_vars[\'usri\'])\n\tdb.comments.insert(val=cval,newsid=nid,usrid=usri)\n\tredirect(URL(\'index\'))\n\treturn dict()\n\ndef user():\n    """\n    exposes:\n    http://..../[app]/default/user/login\n    http://..../[app]/default/user/logout\n    http://..../[app]/default/user/register\n    http://..../[app]/default/user/profile\n    http://..../[app]/default/user/retrieve_password\n    http://..../[app]/default/user/change_password\n    use @auth.requires_login()\n        @auth.requires_membership(\'group name\')\n        @auth.requires_permission(\'read\',\'table name\',record_id)\n    to decorate functions that need access control\n    """\n    return dict(form=auth())\n\n\ndef download():\n    """\n    allows downloading of uploaded files\n    http://..../[app]/default/download/[filename]\n    """\n    return response.download(request, db)\n\n\ndef call():\n    """\n    exposes services. for example:\n    http://..../[app]/default/call/jsonrpc\n    decorate with @services.jsonrpc the functions to expose\n    supports xml, json, xmlrpc, jsonrpc, amfrpc, rss, csv\n    """\n    return service()\n\n\n@auth.requires_signature()\ndef data():\n    """\n    http://..../[app]/default/data/tables\n    http://..../[app]/default/data/create/[table]\n    http://..../[app]/default/data/read/[table]/[id]\n    http://..../[app]/default/data/update/[table]/[id]\n    http://..../[app]/default/data/delete/[table]/[id]\n    http://..../[app]/default/data/select/[table]\n    http://..../[app]/default/data/search/[table]\n    but URLs must be signed, i.e. linked with\n      A(\'table\',_href=URL(\'data/tables\',user_signature=True))\n    or with the signed load operator\n      LOAD(\'default\',\'data.load\',args=\'tables\',ajax=True,user_signature=True)\n    """\n    return dict(form=crud())\n\nresponse._vars=response._caller(displaycat)\n'
p7
sS'snapshot'
p8
(dp9
S'exception'
p10
(dp11
S'__hash__'
p12
S"<method-wrapper '__hash__' of exceptions.AttributeError object>"
p13
sS'__setattr__'
p14
S"<method-wrapper '__setattr__' of exceptions.AttributeError object>"
p15
sS'__reduce_ex__'
p16
S'<built-in method __reduce_ex__ of exceptions.AttributeError object>'
p17
sS'__getslice__'
p18
S"<method-wrapper '__getslice__' of exceptions.AttributeError object>"
p19
sS'__getitem__'
p20
S"<method-wrapper '__getitem__' of exceptions.AttributeError object>"
p21
sS'__setstate__'
p22
S'<built-in method __setstate__ of exceptions.AttributeError object>'
p23
sS'__reduce__'
p24
S'<built-in method __reduce__ of exceptions.AttributeError object>'
p25
sS'__str__'
p26
S"<method-wrapper '__str__' of exceptions.AttributeError object>"
p27
sS'__format__'
p28
S'<built-in method __format__ of exceptions.AttributeError object>'
p29
sS'__getattribute__'
p30
S"<method-wrapper '__getattribute__' of exceptions.AttributeError object>"
p31
sS'__class__'
p32
S"<type 'exceptions.AttributeError'>"
p33
sS'__unicode__'
p34
S'<built-in method __unicode__ of exceptions.AttributeError object>'
p35
sS'__delattr__'
p36
S"<method-wrapper '__delattr__' of exceptions.AttributeError object>"
p37
sS'__subclasshook__'
p38
S'<built-in method __subclasshook__ of type object>'
p39
sS'__repr__'
p40
S"<method-wrapper '__repr__' of exceptions.AttributeError object>"
p41
sS'args'
p42
S'("\'Row\' object has no attribute \'rating\'",)'
p43
sS'__dict__'
p44
S'{}'
p45
sS'__sizeof__'
p46
S'<built-in method __sizeof__ of exceptions.AttributeError object>'
p47
sS'__doc__'
p48
S"'Attribute not found.'"
p49
sS'__init__'
p50
S"<method-wrapper '__init__' of exceptions.AttributeError object>"
p51
sS'__new__'
p52
S'<built-in method __new__ of type object>'
p53
ssS'evalue'
p54
S"'Row' object has no attribute 'rating'"
p55
sS'request'
p56
ccopy_reg
_reconstructor
p57
(cgluon.html
BEAUTIFY
p58
c__builtin__
object
p59
NtRp60
(dp61
S'attributes'
p62
(dp63
sS'components'
p64
(lp65
g57
(cgluon.html
TABLE
p66
g59
NtRp67
(dp68
g62
(dp69
S'level'
p70
I5
ssS'parent'
p71
Nsg64
(lp72
g57
(cgluon.html
TR
p73
g59
NtRp74
(dp75
g62
(dp76
sg71
g67
sg64
(lp77
g57
(cgluon.html
TD
p78
g59
NtRp79
(dp80
g62
(dp81
S'_style'
p82
S'font-weight:bold;vertical-align:top'
p83
ssg71
g74
sg64
(lp84
S'ajax'
p85
asbag57
(g78
g59
NtRp86
(dp87
g62
(dp88
S'_valign'
p89
S'top'
p90
ssg71
g74
sg64
(lp91
S':'
asbag57
(g78
g59
NtRp92
(dp93
g62
(dp94
sg71
g74
sg64
(lp95
g57
(g58
g59
NtRp96
(dp97
g62
(dp98
g70
I5
ssg71
g92
sg64
(lp99
S'False'
p100
asbasbasbag57
(g73
g59
NtRp101
(dp102
g62
(dp103
sg71
g67
sg64
(lp104
g57
(g78
g59
NtRp105
(dp106
g62
(dp107
g82
g83
ssg71
g101
sg64
(lp108
S'application'
p109
asbag57
(g78
g59
NtRp110
(dp111
g62
(dp112
g89
g90
ssg71
g101
sg64
(lp113
S':'
asbag57
(g78
g59
NtRp114
(dp115
g62
(dp116
sg71
g101
sg64
(lp117
g57
(g58
g59
NtRp118
(dp119
g62
(dp120
g70
I5
ssg71
g114
sg64
(lp121
S'reddit'
p122
asbasbasbag57
(g73
g59
NtRp123
(dp124
g62
(dp125
sg71
g67
sg64
(lp126
g57
(g78
g59
NtRp127
(dp128
g62
(dp129
g82
g83
ssg71
g123
sg64
(lp130
g42
asbag57
(g78
g59
NtRp131
(dp132
g62
(dp133
g89
g90
ssg71
g123
sg64
(lp134
S':'
asbag57
(g78
g59
NtRp135
(dp136
g62
(dp137
sg71
g123
sg64
(lp138
g57
(g58
g59
NtRp139
(dp140
g62
(dp141
g70
I5
ssg71
g135
sg64
(lp142
g57
(g66
g59
NtRp143
(dp144
g62
(dp145
g70
I4
ssg71
Nsg64
(lp146
sbasbasbasbag57
(g73
g59
NtRp147
(dp148
g62
(dp149
sg71
g67
sg64
(lp150
g57
(g78
g59
NtRp151
(dp152
g62
(dp153
g82
g83
ssg71
g147
sg64
(lp154
S'body'
p155
asbag57
(g78
g59
NtRp156
(dp157
g62
(dp158
g89
g90
ssg71
g147
sg64
(lp159
S':'
asbag57
(g78
g59
NtRp160
(dp161
g62
(dp162
sg71
g147
sg64
(lp163
g57
(g58
g59
NtRp164
(dp165
g62
(dp166
g70
I5
ssg71
g160
sg64
(lp167
S"<open file '<fdopen>', mode 'w+b' at 0xad36e7b0>"
p168
asbasbasbag57
(g73
g59
NtRp169
(dp170
g62
(dp171
sg71
g67
sg64
(lp172
g57
(g78
g59
NtRp173
(dp174
g62
(dp175
g82
g83
ssg71
g169
sg64
(lp176
S'cid'
p177
asbag57
(g78
g59
NtRp178
(dp179
g62
(dp180
g89
g90
ssg71
g169
sg64
(lp181
S':'
asbag57
(g78
g59
NtRp182
(dp183
g62
(dp184
sg71
g169
sg64
(lp185
g57
(g58
g59
NtRp186
(dp187
g62
(dp188
g70
I5
ssg71
g182
sg64
(lp189
S'None'
p190
asbasbasbag57
(g73
g59
NtRp191
(dp192
g62
(dp193
sg71
g67
sg64
(lp194
g57
(g78
g59
NtRp195
(dp196
g62
(dp197
g82
g83
ssg71
g191
sg64
(lp198
S'client'
p199
asbag57
(g78
g59
NtRp200
(dp201
g62
(dp202
g89
g90
ssg71
g191
sg64
(lp203
S':'
asbag57
(g78
g59
NtRp204
(dp205
g62
(dp206
sg71
g191
sg64
(lp207
g57
(g58
g59
NtRp208
(dp209
g62
(dp210
g70
I5
ssg71
g204
sg64
(lp211
S'127.0.0.1'
p212
asbasbasbag57
(g73
g59
NtRp213
(dp214
g62
(dp215
sg71
g67
sg64
(lp216
g57
(g78
g59
NtRp217
(dp218
g62
(dp219
g82
g83
ssg71
g213
sg64
(lp220
S'controller'
p221
asbag57
(g78
g59
NtRp222
(dp223
g62
(dp224
g89
g90
ssg71
g213
sg64
(lp225
S':'
asbag57
(g78
g59
NtRp226
(dp227
g62
(dp228
sg71
g213
sg64
(lp229
g57
(g58
g59
NtRp230
(dp231
g62
(dp232
g70
I5
ssg71
g226
sg64
(lp233
S'default'
p234
asbasbasbag57
(g73
g59
NtRp235
(dp236
g62
(dp237
sg71
g67
sg64
(lp238
g57
(g78
g59
NtRp239
(dp240
g62
(dp241
g82
g83
ssg71
g235
sg64
(lp242
S'cookies'
p243
asbag57
(g78
g59
NtRp244
(dp245
g62
(dp246
g89
g90
ssg71
g235
sg64
(lp247
S':'
asbag57
(g78
g59
NtRp248
(dp249
g62
(dp250
sg71
g235
sg64
(lp251
g57
(g58
g59
NtRp252
(dp253
g62
(dp254
g70
I5
ssg71
g248
sg64
(lp255
g57
(g66
g59
NtRp256
(dp257
g62
(dp258
g70
I4
ssg71
Nsg64
(lp259
g57
(g73
g59
NtRp260
(dp261
g62
(dp262
sg71
g256
sg64
(lp263
g57
(g78
g59
NtRp264
(dp265
g62
(dp266
g82
g83
ssg71
g260
sg64
(lp267
S'session_id_20120156_assignment_1'
p268
asbag57
(g78
g59
NtRp269
(dp270
g62
(dp271
g89
g90
ssg71
g260
sg64
(lp272
S':'
asbag57
(g78
g59
NtRp273
(dp274
g62
(dp275
sg71
g260
sg64
(lp276
g57
(g58
g59
NtRp277
(dp278
g62
(dp279
g70
I4
ssg71
g273
sg64
(lp280
S'127.0.0.1-6cad324c-0572-4be8-8f41-6fcaca863c93'
p281
ag57
(g66
g59
NtRp282
(dp283
g62
(dp284
g70
I3
ssg71
Nsg64
(lp285
g57
(g73
g59
NtRp286
(dp287
g62
(dp288
sg71
g282
sg64
(lp289
g57
(g78
g59
NtRp290
(dp291
g62
(dp292
g82
g83
ssg71
g286
sg64
(lp293
S'comment'
p294
asbag57
(g78
g59
NtRp295
(dp296
g62
(dp297
g89
g90
ssg71
g286
sg64
(lp298
S':'
asbag57
(g78
g59
NtRp299
(dp300
g62
(dp301
sg71
g286
sg64
(lp302
g57
(g58
g59
NtRp303
(dp304
g62
(dp305
g70
I3
ssg71
g299
sg64
(lp306
S''
asbasbasbag57
(g73
g59
NtRp307
(dp308
g62
(dp309
sg71
g282
sg64
(lp310
g57
(g78
g59
NtRp311
(dp312
g62
(dp313
g82
g83
ssg71
g307
sg64
(lp314
S'domain'
p315
asbag57
(g78
g59
NtRp316
(dp317
g62
(dp318
g89
g90
ssg71
g307
sg64
(lp319
S':'
asbag57
(g78
g59
NtRp320
(dp321
g62
(dp322
sg71
g307
sg64
(lp323
g57
(g58
g59
NtRp324
(dp325
g62
(dp326
g70
I3
ssg71
g320
sg64
(lp327
S''
asbasbasbag57
(g73
g59
NtRp328
(dp329
g62
(dp330
sg71
g282
sg64
(lp331
g57
(g78
g59
NtRp332
(dp333
g62
(dp334
g82
g83
ssg71
g328
sg64
(lp335
S'expires'
p336
asbag57
(g78
g59
NtRp337
(dp338
g62
(dp339
g89
g90
ssg71
g328
sg64
(lp340
S':'
asbag57
(g78
g59
NtRp341
(dp342
g62
(dp343
sg71
g328
sg64
(lp344
g57
(g58
g59
NtRp345
(dp346
g62
(dp347
g70
I3
ssg71
g341
sg64
(lp348
S''
asbasbasbag57
(g73
g59
NtRp349
(dp350
g62
(dp351
sg71
g282
sg64
(lp352
g57
(g78
g59
NtRp353
(dp354
g62
(dp355
g82
g83
ssg71
g349
sg64
(lp356
S'httponly'
p357
asbag57
(g78
g59
NtRp358
(dp359
g62
(dp360
g89
g90
ssg71
g349
sg64
(lp361
S':'
asbag57
(g78
g59
NtRp362
(dp363
g62
(dp364
sg71
g349
sg64
(lp365
g57
(g58
g59
NtRp366
(dp367
g62
(dp368
g70
I3
ssg71
g362
sg64
(lp369
S''
asbasbasbag57
(g73
g59
NtRp370
(dp371
g62
(dp372
sg71
g282
sg64
(lp373
g57
(g78
g59
NtRp374
(dp375
g62
(dp376
g82
g83
ssg71
g370
sg64
(lp377
S'max-age'
p378
asbag57
(g78
g59
NtRp379
(dp380
g62
(dp381
g89
g90
ssg71
g370
sg64
(lp382
S':'
asbag57
(g78
g59
NtRp383
(dp384
g62
(dp385
sg71
g370
sg64
(lp386
g57
(g58
g59
NtRp387
(dp388
g62
(dp389
g70
I3
ssg71
g383
sg64
(lp390
S''
asbasbasbag57
(g73
g59
NtRp391
(dp392
g62
(dp393
sg71
g282
sg64
(lp394
g57
(g78
g59
NtRp395
(dp396
g62
(dp397
g82
g83
ssg71
g391
sg64
(lp398
S'path'
p399
asbag57
(g78
g59
NtRp400
(dp401
g62
(dp402
g89
g90
ssg71
g391
sg64
(lp403
S':'
asbag57
(g78
g59
NtRp404
(dp405
g62
(dp406
sg71
g391
sg64
(lp407
g57
(g58
g59
NtRp408
(dp409
g62
(dp410
g70
I3
ssg71
g404
sg64
(lp411
S''
asbasbasbag57
(g73
g59
NtRp412
(dp413
g62
(dp414
sg71
g282
sg64
(lp415
g57
(g78
g59
NtRp416
(dp417
g62
(dp418
g82
g83
ssg71
g412
sg64
(lp419
S'secure'
p420
asbag57
(g78
g59
NtRp421
(dp422
g62
(dp423
g89
g90
ssg71
g412
sg64
(lp424
S':'
asbag57
(g78
g59
NtRp425
(dp426
g62
(dp427
sg71
g412
sg64
(lp428
g57
(g58
g59
NtRp429
(dp430
g62
(dp431
g70
I3
ssg71
g425
sg64
(lp432
S''
asbasbasbag57
(g73
g59
NtRp433
(dp434
g62
(dp435
sg71
g282
sg64
(lp436
g57
(g78
g59
NtRp437
(dp438
g62
(dp439
g82
g83
ssg71
g433
sg64
(lp440
S'version'
p441
asbag57
(g78
g59
NtRp442
(dp443
g62
(dp444
g89
g90
ssg71
g433
sg64
(lp445
S':'
asbag57
(g78
g59
NtRp446
(dp447
g62
(dp448
sg71
g433
sg64
(lp449
g57
(g58
g59
NtRp450
(dp451
g62
(dp452
g70
I3
ssg71
g446
sg64
(lp453
S''
asbasbasbasbasbasbasbag57
(g73
g59
NtRp454
(dp455
g62
(dp456
sg71
g256
sg64
(lp457
g57
(g78
g59
NtRp458
(dp459
g62
(dp460
g82
g83
ssg71
g454
sg64
(lp461
S'session_id_admin'
p462
asbag57
(g78
g59
NtRp463
(dp464
g62
(dp465
g89
g90
ssg71
g454
sg64
(lp466
S':'
asbag57
(g78
g59
NtRp467
(dp468
g62
(dp469
sg71
g454
sg64
(lp470
g57
(g58
g59
NtRp471
(dp472
g62
(dp473
g70
I4
ssg71
g467
sg64
(lp474
S'127.0.0.1-eea59e1b-9257-4df1-8c44-da77bf9e4ec2'
p475
ag57
(g66
g59
NtRp476
(dp477
g62
(dp478
g70
I3
ssg71
Nsg64
(lp479
g57
(g73
g59
NtRp480
(dp481
g62
(dp482
sg71
g476
sg64
(lp483
g57
(g78
g59
NtRp484
(dp485
g62
(dp486
g82
g83
ssg71
g480
sg64
(lp487
g294
asbag57
(g78
g59
NtRp488
(dp489
g62
(dp490
g89
g90
ssg71
g480
sg64
(lp491
S':'
asbag57
(g78
g59
NtRp492
(dp493
g62
(dp494
sg71
g480
sg64
(lp495
g57
(g58
g59
NtRp496
(dp497
g62
(dp498
g70
I3
ssg71
g492
sg64
(lp499
S''
asbasbasbag57
(g73
g59
NtRp500
(dp501
g62
(dp502
sg71
g476
sg64
(lp503
g57
(g78
g59
NtRp504
(dp505
g62
(dp506
g82
g83
ssg71
g500
sg64
(lp507
g315
asbag57
(g78
g59
NtRp508
(dp509
g62
(dp510
g89
g90
ssg71
g500
sg64
(lp511
S':'
asbag57
(g78
g59
NtRp512
(dp513
g62
(dp514
sg71
g500
sg64
(lp515
g57
(g58
g59
NtRp516
(dp517
g62
(dp518
g70
I3
ssg71
g512
sg64
(lp519
S''
asbasbasbag57
(g73
g59
NtRp520
(dp521
g62
(dp522
sg71
g476
sg64
(lp523
g57
(g78
g59
NtRp524
(dp525
g62
(dp526
g82
g83
ssg71
g520
sg64
(lp527
g336
asbag57
(g78
g59
NtRp528
(dp529
g62
(dp530
g89
g90
ssg71
g520
sg64
(lp531
S':'
asbag57
(g78
g59
NtRp532
(dp533
g62
(dp534
sg71
g520
sg64
(lp535
g57
(g58
g59
NtRp536
(dp537
g62
(dp538
g70
I3
ssg71
g532
sg64
(lp539
S''
asbasbasbag57
(g73
g59
NtRp540
(dp541
g62
(dp542
sg71
g476
sg64
(lp543
g57
(g78
g59
NtRp544
(dp545
g62
(dp546
g82
g83
ssg71
g540
sg64
(lp547
g357
asbag57
(g78
g59
NtRp548
(dp549
g62
(dp550
g89
g90
ssg71
g540
sg64
(lp551
S':'
asbag57
(g78
g59
NtRp552
(dp553
g62
(dp554
sg71
g540
sg64
(lp555
g57
(g58
g59
NtRp556
(dp557
g62
(dp558
g70
I3
ssg71
g552
sg64
(lp559
S''
asbasbasbag57
(g73
g59
NtRp560
(dp561
g62
(dp562
sg71
g476
sg64
(lp563
g57
(g78
g59
NtRp564
(dp565
g62
(dp566
g82
g83
ssg71
g560
sg64
(lp567
g378
asbag57
(g78
g59
NtRp568
(dp569
g62
(dp570
g89
g90
ssg71
g560
sg64
(lp571
S':'
asbag57
(g78
g59
NtRp572
(dp573
g62
(dp574
sg71
g560
sg64
(lp575
g57
(g58
g59
NtRp576
(dp577
g62
(dp578
g70
I3
ssg71
g572
sg64
(lp579
S''
asbasbasbag57
(g73
g59
NtRp580
(dp581
g62
(dp582
sg71
g476
sg64
(lp583
g57
(g78
g59
NtRp584
(dp585
g62
(dp586
g82
g83
ssg71
g580
sg64
(lp587
g399
asbag57
(g78
g59
NtRp588
(dp589
g62
(dp590
g89
g90
ssg71
g580
sg64
(lp591
S':'
asbag57
(g78
g59
NtRp592
(dp593
g62
(dp594
sg71
g580
sg64
(lp595
g57
(g58
g59
NtRp596
(dp597
g62
(dp598
g70
I3
ssg71
g592
sg64
(lp599
S''
asbasbasbag57
(g73
g59
NtRp600
(dp601
g62
(dp602
sg71
g476
sg64
(lp603
g57
(g78
g59
NtRp604
(dp605
g62
(dp606
g82
g83
ssg71
g600
sg64
(lp607
g420
asbag57
(g78
g59
NtRp608
(dp609
g62
(dp610
g89
g90
ssg71
g600
sg64
(lp611
S':'
asbag57
(g78
g59
NtRp612
(dp613
g62
(dp614
sg71
g600
sg64
(lp615
g57
(g58
g59
NtRp616
(dp617
g62
(dp618
g70
I3
ssg71
g612
sg64
(lp619
S''
asbasbasbag57
(g73
g59
NtRp620
(dp621
g62
(dp622
sg71
g476
sg64
(lp623
g57
(g78
g59
NtRp624
(dp625
g62
(dp626
g82
g83
ssg71
g620
sg64
(lp627
g441
asbag57
(g78
g59
NtRp628
(dp629
g62
(dp630
g89
g90
ssg71
g620
sg64
(lp631
S':'
asbag57
(g78
g59
NtRp632
(dp633
g62
(dp634
sg71
g620
sg64
(lp635
g57
(g58
g59
NtRp636
(dp637
g62
(dp638
g70
I3
ssg71
g632
sg64
(lp639
S''
asbasbasbasbasbasbasbag57
(g73
g59
NtRp640
(dp641
g62
(dp642
sg71
g256
sg64
(lp643
g57
(g78
g59
NtRp644
(dp645
g62
(dp646
g82
g83
ssg71
g640
sg64
(lp647
S'session_id_arihant'
p648
asbag57
(g78
g59
NtRp649
(dp650
g62
(dp651
g89
g90
ssg71
g640
sg64
(lp652
S':'
asbag57
(g78
g59
NtRp653
(dp654
g62
(dp655
sg71
g640
sg64
(lp656
g57
(g58
g59
NtRp657
(dp658
g62
(dp659
g70
I4
ssg71
g653
sg64
(lp660
S'127.0.0.1-fa99deb6-5977-491c-864a-b5d79c0d1842'
p661
ag57
(g66
g59
NtRp662
(dp663
g62
(dp664
g70
I3
ssg71
Nsg64
(lp665
g57
(g73
g59
NtRp666
(dp667
g62
(dp668
sg71
g662
sg64
(lp669
g57
(g78
g59
NtRp670
(dp671
g62
(dp672
g82
g83
ssg71
g666
sg64
(lp673
g294
asbag57
(g78
g59
NtRp674
(dp675
g62
(dp676
g89
g90
ssg71
g666
sg64
(lp677
S':'
asbag57
(g78
g59
NtRp678
(dp679
g62
(dp680
sg71
g666
sg64
(lp681
g57
(g58
g59
NtRp682
(dp683
g62
(dp684
g70
I3
ssg71
g678
sg64
(lp685
S''
asbasbasbag57
(g73
g59
NtRp686
(dp687
g62
(dp688
sg71
g662
sg64
(lp689
g57
(g78
g59
NtRp690
(dp691
g62
(dp692
g82
g83
ssg71
g686
sg64
(lp693
g315
asbag57
(g78
g59
NtRp694
(dp695
g62
(dp696
g89
g90
ssg71
g686
sg64
(lp697
S':'
asbag57
(g78
g59
NtRp698
(dp699
g62
(dp700
sg71
g686
sg64
(lp701
g57
(g58
g59
NtRp702
(dp703
g62
(dp704
g70
I3
ssg71
g698
sg64
(lp705
S''
asbasbasbag57
(g73
g59
NtRp706
(dp707
g62
(dp708
sg71
g662
sg64
(lp709
g57
(g78
g59
NtRp710
(dp711
g62
(dp712
g82
g83
ssg71
g706
sg64
(lp713
g336
asbag57
(g78
g59
NtRp714
(dp715
g62
(dp716
g89
g90
ssg71
g706
sg64
(lp717
S':'
asbag57
(g78
g59
NtRp718
(dp719
g62
(dp720
sg71
g706
sg64
(lp721
g57
(g58
g59
NtRp722
(dp723
g62
(dp724
g70
I3
ssg71
g718
sg64
(lp725
S''
asbasbasbag57
(g73
g59
NtRp726
(dp727
g62
(dp728
sg71
g662
sg64
(lp729
g57
(g78
g59
NtRp730
(dp731
g62
(dp732
g82
g83
ssg71
g726
sg64
(lp733
g357
asbag57
(g78
g59
NtRp734
(dp735
g62
(dp736
g89
g90
ssg71
g726
sg64
(lp737
S':'
asbag57
(g78
g59
NtRp738
(dp739
g62
(dp740
sg71
g726
sg64
(lp741
g57
(g58
g59
NtRp742
(dp743
g62
(dp744
g70
I3
ssg71
g738
sg64
(lp745
S''
asbasbasbag57
(g73
g59
NtRp746
(dp747
g62
(dp748
sg71
g662
sg64
(lp749
g57
(g78
g59
NtRp750
(dp751
g62
(dp752
g82
g83
ssg71
g746
sg64
(lp753
g378
asbag57
(g78
g59
NtRp754
(dp755
g62
(dp756
g89
g90
ssg71
g746
sg64
(lp757
S':'
asbag57
(g78
g59
NtRp758
(dp759
g62
(dp760
sg71
g746
sg64
(lp761
g57
(g58
g59
NtRp762
(dp763
g62
(dp764
g70
I3
ssg71
g758
sg64
(lp765
S''
asbasbasbag57
(g73
g59
NtRp766
(dp767
g62
(dp768
sg71
g662
sg64
(lp769
g57
(g78
g59
NtRp770
(dp771
g62
(dp772
g82
g83
ssg71
g766
sg64
(lp773
g399
asbag57
(g78
g59
NtRp774
(dp775
g62
(dp776
g89
g90
ssg71
g766
sg64
(lp777
S':'
asbag57
(g78
g59
NtRp778
(dp779
g62
(dp780
sg71
g766
sg64
(lp781
g57
(g58
g59
NtRp782
(dp783
g62
(dp784
g70
I3
ssg71
g778
sg64
(lp785
S''
asbasbasbag57
(g73
g59
NtRp786
(dp787
g62
(dp788
sg71
g662
sg64
(lp789
g57
(g78
g59
NtRp790
(dp791
g62
(dp792
g82
g83
ssg71
g786
sg64
(lp793
g420
asbag57
(g78
g59
NtRp794
(dp795
g62
(dp796
g89
g90
ssg71
g786
sg64
(lp797
S':'
asbag57
(g78
g59
NtRp798
(dp799
g62
(dp800
sg71
g786
sg64
(lp801
g57
(g58
g59
NtRp802
(dp803
g62
(dp804
g70
I3
ssg71
g798
sg64
(lp805
S''
asbasbasbag57
(g73
g59
NtRp806
(dp807
g62
(dp808
sg71
g662
sg64
(lp809
g57
(g78
g59
NtRp810
(dp811
g62
(dp812
g82
g83
ssg71
g806
sg64
(lp813
g441
asbag57
(g78
g59
NtRp814
(dp815
g62
(dp816
g89
g90
ssg71
g806
sg64
(lp817
S':'
asbag57
(g78
g59
NtRp818
(dp819
g62
(dp820
sg71
g806
sg64
(lp821
g57
(g58
g59
NtRp822
(dp823
g62
(dp824
g70
I3
ssg71
g818
sg64
(lp825
S''
asbasbasbasbasbasbasbag57
(g73
g59
NtRp826
(dp827
g62
(dp828
sg71
g256
sg64
(lp829
g57
(g78
g59
NtRp830
(dp831
g62
(dp832
g82
g83
ssg71
g826
sg64
(lp833
S'session_id_cataminder'
p834
asbag57
(g78
g59
NtRp835
(dp836
g62
(dp837
g89
g90
ssg71
g826
sg64
(lp838
S':'
asbag57
(g78
g59
NtRp839
(dp840
g62
(dp841
sg71
g826
sg64
(lp842
g57
(g58
g59
NtRp843
(dp844
g62
(dp845
g70
I4
ssg71
g839
sg64
(lp846
S'127.0.0.1-81b628a7-34a5-4e70-a95c-79ef710dcdbb'
p847
ag57
(g66
g59
NtRp848
(dp849
g62
(dp850
g70
I3
ssg71
Nsg64
(lp851
g57
(g73
g59
NtRp852
(dp853
g62
(dp854
sg71
g848
sg64
(lp855
g57
(g78
g59
NtRp856
(dp857
g62
(dp858
g82
g83
ssg71
g852
sg64
(lp859
g294
asbag57
(g78
g59
NtRp860
(dp861
g62
(dp862
g89
g90
ssg71
g852
sg64
(lp863
S':'
asbag57
(g78
g59
NtRp864
(dp865
g62
(dp866
sg71
g852
sg64
(lp867
g57
(g58
g59
NtRp868
(dp869
g62
(dp870
g70
I3
ssg71
g864
sg64
(lp871
S''
asbasbasbag57
(g73
g59
NtRp872
(dp873
g62
(dp874
sg71
g848
sg64
(lp875
g57
(g78
g59
NtRp876
(dp877
g62
(dp878
g82
g83
ssg71
g872
sg64
(lp879
g315
asbag57
(g78
g59
NtRp880
(dp881
g62
(dp882
g89
g90
ssg71
g872
sg64
(lp883
S':'
asbag57
(g78
g59
NtRp884
(dp885
g62
(dp886
sg71
g872
sg64
(lp887
g57
(g58
g59
NtRp888
(dp889
g62
(dp890
g70
I3
ssg71
g884
sg64
(lp891
S''
asbasbasbag57
(g73
g59
NtRp892
(dp893
g62
(dp894
sg71
g848
sg64
(lp895
g57
(g78
g59
NtRp896
(dp897
g62
(dp898
g82
g83
ssg71
g892
sg64
(lp899
g336
asbag57
(g78
g59
NtRp900
(dp901
g62
(dp902
g89
g90
ssg71
g892
sg64
(lp903
S':'
asbag57
(g78
g59
NtRp904
(dp905
g62
(dp906
sg71
g892
sg64
(lp907
g57
(g58
g59
NtRp908
(dp909
g62
(dp910
g70
I3
ssg71
g904
sg64
(lp911
S''
asbasbasbag57
(g73
g59
NtRp912
(dp913
g62
(dp914
sg71
g848
sg64
(lp915
g57
(g78
g59
NtRp916
(dp917
g62
(dp918
g82
g83
ssg71
g912
sg64
(lp919
g357
asbag57
(g78
g59
NtRp920
(dp921
g62
(dp922
g89
g90
ssg71
g912
sg64
(lp923
S':'
asbag57
(g78
g59
NtRp924
(dp925
g62
(dp926
sg71
g912
sg64
(lp927
g57
(g58
g59
NtRp928
(dp929
g62
(dp930
g70
I3
ssg71
g924
sg64
(lp931
S''
asbasbasbag57
(g73
g59
NtRp932
(dp933
g62
(dp934
sg71
g848
sg64
(lp935
g57
(g78
g59
NtRp936
(dp937
g62
(dp938
g82
g83
ssg71
g932
sg64
(lp939
g378
asbag57
(g78
g59
NtRp940
(dp941
g62
(dp942
g89
g90
ssg71
g932
sg64
(lp943
S':'
asbag57
(g78
g59
NtRp944
(dp945
g62
(dp946
sg71
g932
sg64
(lp947
g57
(g58
g59
NtRp948
(dp949
g62
(dp950
g70
I3
ssg71
g944
sg64
(lp951
S''
asbasbasbag57
(g73
g59
NtRp952
(dp953
g62
(dp954
sg71
g848
sg64
(lp955
g57
(g78
g59
NtRp956
(dp957
g62
(dp958
g82
g83
ssg71
g952
sg64
(lp959
g399
asbag57
(g78
g59
NtRp960
(dp961
g62
(dp962
g89
g90
ssg71
g952
sg64
(lp963
S':'
asbag57
(g78
g59
NtRp964
(dp965
g62
(dp966
sg71
g952
sg64
(lp967
g57
(g58
g59
NtRp968
(dp969
g62
(dp970
g70
I3
ssg71
g964
sg64
(lp971
S''
asbasbasbag57
(g73
g59
NtRp972
(dp973
g62
(dp974
sg71
g848
sg64
(lp975
g57
(g78
g59
NtRp976
(dp977
g62
(dp978
g82
g83
ssg71
g972
sg64
(lp979
g420
asbag57
(g78
g59
NtRp980
(dp981
g62
(dp982
g89
g90
ssg71
g972
sg64
(lp983
S':'
asbag57
(g78
g59
NtRp984
(dp985
g62
(dp986
sg71
g972
sg64
(lp987
g57
(g58
g59
NtRp988
(dp989
g62
(dp990
g70
I3
ssg71
g984
sg64
(lp991
S''
asbasbasbag57
(g73
g59
NtRp992
(dp993
g62
(dp994
sg71
g848
sg64
(lp995
g57
(g78
g59
NtRp996
(dp997
g62
(dp998
g82
g83
ssg71
g992
sg64
(lp999
g441
asbag57
(g78
g59
NtRp1000
(dp1001
g62
(dp1002
g89
g90
ssg71
g992
sg64
(lp1003
S':'
asbag57
(g78
g59
NtRp1004
(dp1005
g62
(dp1006
sg71
g992
sg64
(lp1007
g57
(g58
g59
NtRp1008
(dp1009
g62
(dp1010
g70
I3
ssg71
g1004
sg64
(lp1011
S''
asbasbasbasbasbasbasbag57
(g73
g59
NtRp1012
(dp1013
g62
(dp1014
sg71
g256
sg64
(lp1015
g57
(g78
g59
NtRp1016
(dp1017
g62
(dp1018
g82
g83
ssg71
g1012
sg64
(lp1019
S'session_id_courses'
p1020
asbag57
(g78
g59
NtRp1021
(dp1022
g62
(dp1023
g89
g90
ssg71
g1012
sg64
(lp1024
S':'
asbag57
(g78
g59
NtRp1025
(dp1026
g62
(dp1027
sg71
g1012
sg64
(lp1028
g57
(g58
g59
NtRp1029
(dp1030
g62
(dp1031
g70
I4
ssg71
g1025
sg64
(lp1032
S'127.0.0.1-1d46c4eb-fdfc-4abb-bb62-6bcf52d1fcaa'
p1033
ag57
(g66
g59
NtRp1034
(dp1035
g62
(dp1036
g70
I3
ssg71
Nsg64
(lp1037
g57
(g73
g59
NtRp1038
(dp1039
g62
(dp1040
sg71
g1034
sg64
(lp1041
g57
(g78
g59
NtRp1042
(dp1043
g62
(dp1044
g82
g83
ssg71
g1038
sg64
(lp1045
g294
asbag57
(g78
g59
NtRp1046
(dp1047
g62
(dp1048
g89
g90
ssg71
g1038
sg64
(lp1049
S':'
asbag57
(g78
g59
NtRp1050
(dp1051
g62
(dp1052
sg71
g1038
sg64
(lp1053
g57
(g58
g59
NtRp1054
(dp1055
g62
(dp1056
g70
I3
ssg71
g1050
sg64
(lp1057
S''
asbasbasbag57
(g73
g59
NtRp1058
(dp1059
g62
(dp1060
sg71
g1034
sg64
(lp1061
g57
(g78
g59
NtRp1062
(dp1063
g62
(dp1064
g82
g83
ssg71
g1058
sg64
(lp1065
g315
asbag57
(g78
g59
NtRp1066
(dp1067
g62
(dp1068
g89
g90
ssg71
g1058
sg64
(lp1069
S':'
asbag57
(g78
g59
NtRp1070
(dp1071
g62
(dp1072
sg71
g1058
sg64
(lp1073
g57
(g58
g59
NtRp1074
(dp1075
g62
(dp1076
g70
I3
ssg71
g1070
sg64
(lp1077
S''
asbasbasbag57
(g73
g59
NtRp1078
(dp1079
g62
(dp1080
sg71
g1034
sg64
(lp1081
g57
(g78
g59
NtRp1082
(dp1083
g62
(dp1084
g82
g83
ssg71
g1078
sg64
(lp1085
g336
asbag57
(g78
g59
NtRp1086
(dp1087
g62
(dp1088
g89
g90
ssg71
g1078
sg64
(lp1089
S':'
asbag57
(g78
g59
NtRp1090
(dp1091
g62
(dp1092
sg71
g1078
sg64
(lp1093
g57
(g58
g59
NtRp1094
(dp1095
g62
(dp1096
g70
I3
ssg71
g1090
sg64
(lp1097
S''
asbasbasbag57
(g73
g59
NtRp1098
(dp1099
g62
(dp1100
sg71
g1034
sg64
(lp1101
g57
(g78
g59
NtRp1102
(dp1103
g62
(dp1104
g82
g83
ssg71
g1098
sg64
(lp1105
g357
asbag57
(g78
g59
NtRp1106
(dp1107
g62
(dp1108
g89
g90
ssg71
g1098
sg64
(lp1109
S':'
asbag57
(g78
g59
NtRp1110
(dp1111
g62
(dp1112
sg71
g1098
sg64
(lp1113
g57
(g58
g59
NtRp1114
(dp1115
g62
(dp1116
g70
I3
ssg71
g1110
sg64
(lp1117
S''
asbasbasbag57
(g73
g59
NtRp1118
(dp1119
g62
(dp1120
sg71
g1034
sg64
(lp1121
g57
(g78
g59
NtRp1122
(dp1123
g62
(dp1124
g82
g83
ssg71
g1118
sg64
(lp1125
g378
asbag57
(g78
g59
NtRp1126
(dp1127
g62
(dp1128
g89
g90
ssg71
g1118
sg64
(lp1129
S':'
asbag57
(g78
g59
NtRp1130
(dp1131
g62
(dp1132
sg71
g1118
sg64
(lp1133
g57
(g58
g59
NtRp1134
(dp1135
g62
(dp1136
g70
I3
ssg71
g1130
sg64
(lp1137
S''
asbasbasbag57
(g73
g59
NtRp1138
(dp1139
g62
(dp1140
sg71
g1034
sg64
(lp1141
g57
(g78
g59
NtRp1142
(dp1143
g62
(dp1144
g82
g83
ssg71
g1138
sg64
(lp1145
g399
asbag57
(g78
g59
NtRp1146
(dp1147
g62
(dp1148
g89
g90
ssg71
g1138
sg64
(lp1149
S':'
asbag57
(g78
g59
NtRp1150
(dp1151
g62
(dp1152
sg71
g1138
sg64
(lp1153
g57
(g58
g59
NtRp1154
(dp1155
g62
(dp1156
g70
I3
ssg71
g1150
sg64
(lp1157
S''
asbasbasbag57
(g73
g59
NtRp1158
(dp1159
g62
(dp1160
sg71
g1034
sg64
(lp1161
g57
(g78
g59
NtRp1162
(dp1163
g62
(dp1164
g82
g83
ssg71
g1158
sg64
(lp1165
g420
asbag57
(g78
g59
NtRp1166
(dp1167
g62
(dp1168
g89
g90
ssg71
g1158
sg64
(lp1169
S':'
asbag57
(g78
g59
NtRp1170
(dp1171
g62
(dp1172
sg71
g1158
sg64
(lp1173
g57
(g58
g59
NtRp1174
(dp1175
g62
(dp1176
g70
I3
ssg71
g1170
sg64
(lp1177
S''
asbasbasbag57
(g73
g59
NtRp1178
(dp1179
g62
(dp1180
sg71
g1034
sg64
(lp1181
g57
(g78
g59
NtRp1182
(dp1183
g62
(dp1184
g82
g83
ssg71
g1178
sg64
(lp1185
g441
asbag57
(g78
g59
NtRp1186
(dp1187
g62
(dp1188
g89
g90
ssg71
g1178
sg64
(lp1189
S':'
asbag57
(g78
g59
NtRp1190
(dp1191
g62
(dp1192
sg71
g1178
sg64
(lp1193
g57
(g58
g59
NtRp1194
(dp1195
g62
(dp1196
g70
I3
ssg71
g1190
sg64
(lp1197
S''
asbasbasbasbasbasbasbag57
(g73
g59
NtRp1198
(dp1199
g62
(dp1200
sg71
g256
sg64
(lp1201
g57
(g78
g59
NtRp1202
(dp1203
g62
(dp1204
g82
g83
ssg71
g1198
sg64
(lp1205
S'session_id_iiit_fb'
p1206
asbag57
(g78
g59
NtRp1207
(dp1208
g62
(dp1209
g89
g90
ssg71
g1198
sg64
(lp1210
S':'
asbag57
(g78
g59
NtRp1211
(dp1212
g62
(dp1213
sg71
g1198
sg64
(lp1214
g57
(g58
g59
NtRp1215
(dp1216
g62
(dp1217
g70
I4
ssg71
g1211
sg64
(lp1218
S'127.0.0.1-04b7df24-4720-4bb5-98de-96b98776240d'
p1219
ag57
(g66
g59
NtRp1220
(dp1221
g62
(dp1222
g70
I3
ssg71
Nsg64
(lp1223
g57
(g73
g59
NtRp1224
(dp1225
g62
(dp1226
sg71
g1220
sg64
(lp1227
g57
(g78
g59
NtRp1228
(dp1229
g62
(dp1230
g82
g83
ssg71
g1224
sg64
(lp1231
g294
asbag57
(g78
g59
NtRp1232
(dp1233
g62
(dp1234
g89
g90
ssg71
g1224
sg64
(lp1235
S':'
asbag57
(g78
g59
NtRp1236
(dp1237
g62
(dp1238
sg71
g1224
sg64
(lp1239
g57
(g58
g59
NtRp1240
(dp1241
g62
(dp1242
g70
I3
ssg71
g1236
sg64
(lp1243
S''
asbasbasbag57
(g73
g59
NtRp1244
(dp1245
g62
(dp1246
sg71
g1220
sg64
(lp1247
g57
(g78
g59
NtRp1248
(dp1249
g62
(dp1250
g82
g83
ssg71
g1244
sg64
(lp1251
g315
asbag57
(g78
g59
NtRp1252
(dp1253
g62
(dp1254
g89
g90
ssg71
g1244
sg64
(lp1255
S':'
asbag57
(g78
g59
NtRp1256
(dp1257
g62
(dp1258
sg71
g1244
sg64
(lp1259
g57
(g58
g59
NtRp1260
(dp1261
g62
(dp1262
g70
I3
ssg71
g1256
sg64
(lp1263
S''
asbasbasbag57
(g73
g59
NtRp1264
(dp1265
g62
(dp1266
sg71
g1220
sg64
(lp1267
g57
(g78
g59
NtRp1268
(dp1269
g62
(dp1270
g82
g83
ssg71
g1264
sg64
(lp1271
g336
asbag57
(g78
g59
NtRp1272
(dp1273
g62
(dp1274
g89
g90
ssg71
g1264
sg64
(lp1275
S':'
asbag57
(g78
g59
NtRp1276
(dp1277
g62
(dp1278
sg71
g1264
sg64
(lp1279
g57
(g58
g59
NtRp1280
(dp1281
g62
(dp1282
g70
I3
ssg71
g1276
sg64
(lp1283
S''
asbasbasbag57
(g73
g59
NtRp1284
(dp1285
g62
(dp1286
sg71
g1220
sg64
(lp1287
g57
(g78
g59
NtRp1288
(dp1289
g62
(dp1290
g82
g83
ssg71
g1284
sg64
(lp1291
g357
asbag57
(g78
g59
NtRp1292
(dp1293
g62
(dp1294
g89
g90
ssg71
g1284
sg64
(lp1295
S':'
asbag57
(g78
g59
NtRp1296
(dp1297
g62
(dp1298
sg71
g1284
sg64
(lp1299
g57
(g58
g59
NtRp1300
(dp1301
g62
(dp1302
g70
I3
ssg71
g1296
sg64
(lp1303
S''
asbasbasbag57
(g73
g59
NtRp1304
(dp1305
g62
(dp1306
sg71
g1220
sg64
(lp1307
g57
(g78
g59
NtRp1308
(dp1309
g62
(dp1310
g82
g83
ssg71
g1304
sg64
(lp1311
g378
asbag57
(g78
g59
NtRp1312
(dp1313
g62
(dp1314
g89
g90
ssg71
g1304
sg64
(lp1315
S':'
asbag57
(g78
g59
NtRp1316
(dp1317
g62
(dp1318
sg71
g1304
sg64
(lp1319
g57
(g58
g59
NtRp1320
(dp1321
g62
(dp1322
g70
I3
ssg71
g1316
sg64
(lp1323
S''
asbasbasbag57
(g73
g59
NtRp1324
(dp1325
g62
(dp1326
sg71
g1220
sg64
(lp1327
g57
(g78
g59
NtRp1328
(dp1329
g62
(dp1330
g82
g83
ssg71
g1324
sg64
(lp1331
g399
asbag57
(g78
g59
NtRp1332
(dp1333
g62
(dp1334
g89
g90
ssg71
g1324
sg64
(lp1335
S':'
asbag57
(g78
g59
NtRp1336
(dp1337
g62
(dp1338
sg71
g1324
sg64
(lp1339
g57
(g58
g59
NtRp1340
(dp1341
g62
(dp1342
g70
I3
ssg71
g1336
sg64
(lp1343
S''
asbasbasbag57
(g73
g59
NtRp1344
(dp1345
g62
(dp1346
sg71
g1220
sg64
(lp1347
g57
(g78
g59
NtRp1348
(dp1349
g62
(dp1350
g82
g83
ssg71
g1344
sg64
(lp1351
g420
asbag57
(g78
g59
NtRp1352
(dp1353
g62
(dp1354
g89
g90
ssg71
g1344
sg64
(lp1355
S':'
asbag57
(g78
g59
NtRp1356
(dp1357
g62
(dp1358
sg71
g1344
sg64
(lp1359
g57
(g58
g59
NtRp1360
(dp1361
g62
(dp1362
g70
I3
ssg71
g1356
sg64
(lp1363
S''
asbasbasbag57
(g73
g59
NtRp1364
(dp1365
g62
(dp1366
sg71
g1220
sg64
(lp1367
g57
(g78
g59
NtRp1368
(dp1369
g62
(dp1370
g82
g83
ssg71
g1364
sg64
(lp1371
g441
asbag57
(g78
g59
NtRp1372
(dp1373
g62
(dp1374
g89
g90
ssg71
g1364
sg64
(lp1375
S':'
asbag57
(g78
g59
NtRp1376
(dp1377
g62
(dp1378
sg71
g1364
sg64
(lp1379
g57
(g58
g59
NtRp1380
(dp1381
g62
(dp1382
g70
I3
ssg71
g1376
sg64
(lp1383
S''
asbasbasbasbasbasbasbag57
(g73
g59
NtRp1384
(dp1385
g62
(dp1386
sg71
g256
sg64
(lp1387
g57
(g78
g59
NtRp1388
(dp1389
g62
(dp1390
g82
g83
ssg71
g1384
sg64
(lp1391
S'session_id_myapp'
p1392
asbag57
(g78
g59
NtRp1393
(dp1394
g62
(dp1395
g89
g90
ssg71
g1384
sg64
(lp1396
S':'
asbag57
(g78
g59
NtRp1397
(dp1398
g62
(dp1399
sg71
g1384
sg64
(lp1400
g57
(g58
g59
NtRp1401
(dp1402
g62
(dp1403
g70
I4
ssg71
g1397
sg64
(lp1404
S'127.0.0.1-f28af7a6-9d1e-4a86-bd34-27605492a231'
p1405
ag57
(g66
g59
NtRp1406
(dp1407
g62
(dp1408
g70
I3
ssg71
Nsg64
(lp1409
g57
(g73
g59
NtRp1410
(dp1411
g62
(dp1412
sg71
g1406
sg64
(lp1413
g57
(g78
g59
NtRp1414
(dp1415
g62
(dp1416
g82
g83
ssg71
g1410
sg64
(lp1417
g294
asbag57
(g78
g59
NtRp1418
(dp1419
g62
(dp1420
g89
g90
ssg71
g1410
sg64
(lp1421
S':'
asbag57
(g78
g59
NtRp1422
(dp1423
g62
(dp1424
sg71
g1410
sg64
(lp1425
g57
(g58
g59
NtRp1426
(dp1427
g62
(dp1428
g70
I3
ssg71
g1422
sg64
(lp1429
S''
asbasbasbag57
(g73
g59
NtRp1430
(dp1431
g62
(dp1432
sg71
g1406
sg64
(lp1433
g57
(g78
g59
NtRp1434
(dp1435
g62
(dp1436
g82
g83
ssg71
g1430
sg64
(lp1437
g315
asbag57
(g78
g59
NtRp1438
(dp1439
g62
(dp1440
g89
g90
ssg71
g1430
sg64
(lp1441
S':'
asbag57
(g78
g59
NtRp1442
(dp1443
g62
(dp1444
sg71
g1430
sg64
(lp1445
g57
(g58
g59
NtRp1446
(dp1447
g62
(dp1448
g70
I3
ssg71
g1442
sg64
(lp1449
S''
asbasbasbag57
(g73
g59
NtRp1450
(dp1451
g62
(dp1452
sg71
g1406
sg64
(lp1453
g57
(g78
g59
NtRp1454
(dp1455
g62
(dp1456
g82
g83
ssg71
g1450
sg64
(lp1457
g336
asbag57
(g78
g59
NtRp1458
(dp1459
g62
(dp1460
g89
g90
ssg71
g1450
sg64
(lp1461
S':'
asbag57
(g78
g59
NtRp1462
(dp1463
g62
(dp1464
sg71
g1450
sg64
(lp1465
g57
(g58
g59
NtRp1466
(dp1467
g62
(dp1468
g70
I3
ssg71
g1462
sg64
(lp1469
S''
asbasbasbag57
(g73
g59
NtRp1470
(dp1471
g62
(dp1472
sg71
g1406
sg64
(lp1473
g57
(g78
g59
NtRp1474
(dp1475
g62
(dp1476
g82
g83
ssg71
g1470
sg64
(lp1477
g357
asbag57
(g78
g59
NtRp1478
(dp1479
g62
(dp1480
g89
g90
ssg71
g1470
sg64
(lp1481
S':'
asbag57
(g78
g59
NtRp1482
(dp1483
g62
(dp1484
sg71
g1470
sg64
(lp1485
g57
(g58
g59
NtRp1486
(dp1487
g62
(dp1488
g70
I3
ssg71
g1482
sg64
(lp1489
S''
asbasbasbag57
(g73
g59
NtRp1490
(dp1491
g62
(dp1492
sg71
g1406
sg64
(lp1493
g57
(g78
g59
NtRp1494
(dp1495
g62
(dp1496
g82
g83
ssg71
g1490
sg64
(lp1497
g378
asbag57
(g78
g59
NtRp1498
(dp1499
g62
(dp1500
g89
g90
ssg71
g1490
sg64
(lp1501
S':'
asbag57
(g78
g59
NtRp1502
(dp1503
g62
(dp1504
sg71
g1490
sg64
(lp1505
g57
(g58
g59
NtRp1506
(dp1507
g62
(dp1508
g70
I3
ssg71
g1502
sg64
(lp1509
S''
asbasbasbag57
(g73
g59
NtRp1510
(dp1511
g62
(dp1512
sg71
g1406
sg64
(lp1513
g57
(g78
g59
NtRp1514
(dp1515
g62
(dp1516
g82
g83
ssg71
g1510
sg64
(lp1517
g399
asbag57
(g78
g59
NtRp1518
(dp1519
g62
(dp1520
g89
g90
ssg71
g1510
sg64
(lp1521
S':'
asbag57
(g78
g59
NtRp1522
(dp1523
g62
(dp1524
sg71
g1510
sg64
(lp1525
g57
(g58
g59
NtRp1526
(dp1527
g62
(dp1528
g70
I3
ssg71
g1522
sg64
(lp1529
S''
asbasbasbag57
(g73
g59
NtRp1530
(dp1531
g62
(dp1532
sg71
g1406
sg64
(lp1533
g57
(g78
g59
NtRp1534
(dp1535
g62
(dp1536
g82
g83
ssg71
g1530
sg64
(lp1537
g420
asbag57
(g78
g59
NtRp1538
(dp1539
g62
(dp1540
g89
g90
ssg71
g1530
sg64
(lp1541
S':'
asbag57
(g78
g59
NtRp1542
(dp1543
g62
(dp1544
sg71
g1530
sg64
(lp1545
g57
(g58
g59
NtRp1546
(dp1547
g62
(dp1548
g70
I3
ssg71
g1542
sg64
(lp1549
S''
asbasbasbag57
(g73
g59
NtRp1550
(dp1551
g62
(dp1552
sg71
g1406
sg64
(lp1553
g57
(g78
g59
NtRp1554
(dp1555
g62
(dp1556
g82
g83
ssg71
g1550
sg64
(lp1557
g441
asbag57
(g78
g59
NtRp1558
(dp1559
g62
(dp1560
g89
g90
ssg71
g1550
sg64
(lp1561
S':'
asbag57
(g78
g59
NtRp1562
(dp1563
g62
(dp1564
sg71
g1550
sg64
(lp1565
g57
(g58
g59
NtRp1566
(dp1567
g62
(dp1568
g70
I3
ssg71
g1562
sg64
(lp1569
S''
asbasbasbasbasbasbasbag57
(g73
g59
NtRp1570
(dp1571
g62
(dp1572
sg71
g256
sg64
(lp1573
g57
(g78
g59
NtRp1574
(dp1575
g62
(dp1576
g82
g83
ssg71
g1570
sg64
(lp1577
S'session_id_project'
p1578
asbag57
(g78
g59
NtRp1579
(dp1580
g62
(dp1581
g89
g90
ssg71
g1570
sg64
(lp1582
S':'
asbag57
(g78
g59
NtRp1583
(dp1584
g62
(dp1585
sg71
g1570
sg64
(lp1586
g57
(g58
g59
NtRp1587
(dp1588
g62
(dp1589
g70
I4
ssg71
g1583
sg64
(lp1590
S'127.0.0.1-029ca61b-f875-404a-b7ff-1634c44ab767'
p1591
ag57
(g66
g59
NtRp1592
(dp1593
g62
(dp1594
g70
I3
ssg71
Nsg64
(lp1595
g57
(g73
g59
NtRp1596
(dp1597
g62
(dp1598
sg71
g1592
sg64
(lp1599
g57
(g78
g59
NtRp1600
(dp1601
g62
(dp1602
g82
g83
ssg71
g1596
sg64
(lp1603
g294
asbag57
(g78
g59
NtRp1604
(dp1605
g62
(dp1606
g89
g90
ssg71
g1596
sg64
(lp1607
S':'
asbag57
(g78
g59
NtRp1608
(dp1609
g62
(dp1610
sg71
g1596
sg64
(lp1611
g57
(g58
g59
NtRp1612
(dp1613
g62
(dp1614
g70
I3
ssg71
g1608
sg64
(lp1615
S''
asbasbasbag57
(g73
g59
NtRp1616
(dp1617
g62
(dp1618
sg71
g1592
sg64
(lp1619
g57
(g78
g59
NtRp1620
(dp1621
g62
(dp1622
g82
g83
ssg71
g1616
sg64
(lp1623
g315
asbag57
(g78
g59
NtRp1624
(dp1625
g62
(dp1626
g89
g90
ssg71
g1616
sg64
(lp1627
S':'
asbag57
(g78
g59
NtRp1628
(dp1629
g62
(dp1630
sg71
g1616
sg64
(lp1631
g57
(g58
g59
NtRp1632
(dp1633
g62
(dp1634
g70
I3
ssg71
g1628
sg64
(lp1635
S''
asbasbasbag57
(g73
g59
NtRp1636
(dp1637
g62
(dp1638
sg71
g1592
sg64
(lp1639
g57
(g78
g59
NtRp1640
(dp1641
g62
(dp1642
g82
g83
ssg71
g1636
sg64
(lp1643
g336
asbag57
(g78
g59
NtRp1644
(dp1645
g62
(dp1646
g89
g90
ssg71
g1636
sg64
(lp1647
S':'
asbag57
(g78
g59
NtRp1648
(dp1649
g62
(dp1650
sg71
g1636
sg64
(lp1651
g57
(g58
g59
NtRp1652
(dp1653
g62
(dp1654
g70
I3
ssg71
g1648
sg64
(lp1655
S''
asbasbasbag57
(g73
g59
NtRp1656
(dp1657
g62
(dp1658
sg71
g1592
sg64
(lp1659
g57
(g78
g59
NtRp1660
(dp1661
g62
(dp1662
g82
g83
ssg71
g1656
sg64
(lp1663
g357
asbag57
(g78
g59
NtRp1664
(dp1665
g62
(dp1666
g89
g90
ssg71
g1656
sg64
(lp1667
S':'
asbag57
(g78
g59
NtRp1668
(dp1669
g62
(dp1670
sg71
g1656
sg64
(lp1671
g57
(g58
g59
NtRp1672
(dp1673
g62
(dp1674
g70
I3
ssg71
g1668
sg64
(lp1675
S''
asbasbasbag57
(g73
g59
NtRp1676
(dp1677
g62
(dp1678
sg71
g1592
sg64
(lp1679
g57
(g78
g59
NtRp1680
(dp1681
g62
(dp1682
g82
g83
ssg71
g1676
sg64
(lp1683
g378
asbag57
(g78
g59
NtRp1684
(dp1685
g62
(dp1686
g89
g90
ssg71
g1676
sg64
(lp1687
S':'
asbag57
(g78
g59
NtRp1688
(dp1689
g62
(dp1690
sg71
g1676
sg64
(lp1691
g57
(g58
g59
NtRp1692
(dp1693
g62
(dp1694
g70
I3
ssg71
g1688
sg64
(lp1695
S''
asbasbasbag57
(g73
g59
NtRp1696
(dp1697
g62
(dp1698
sg71
g1592
sg64
(lp1699
g57
(g78
g59
NtRp1700
(dp1701
g62
(dp1702
g82
g83
ssg71
g1696
sg64
(lp1703
g399
asbag57
(g78
g59
NtRp1704
(dp1705
g62
(dp1706
g89
g90
ssg71
g1696
sg64
(lp1707
S':'
asbag57
(g78
g59
NtRp1708
(dp1709
g62
(dp1710
sg71
g1696
sg64
(lp1711
g57
(g58
g59
NtRp1712
(dp1713
g62
(dp1714
g70
I3
ssg71
g1708
sg64
(lp1715
S''
asbasbasbag57
(g73
g59
NtRp1716
(dp1717
g62
(dp1718
sg71
g1592
sg64
(lp1719
g57
(g78
g59
NtRp1720
(dp1721
g62
(dp1722
g82
g83
ssg71
g1716
sg64
(lp1723
g420
asbag57
(g78
g59
NtRp1724
(dp1725
g62
(dp1726
g89
g90
ssg71
g1716
sg64
(lp1727
S':'
asbag57
(g78
g59
NtRp1728
(dp1729
g62
(dp1730
sg71
g1716
sg64
(lp1731
g57
(g58
g59
NtRp1732
(dp1733
g62
(dp1734
g70
I3
ssg71
g1728
sg64
(lp1735
S''
asbasbasbag57
(g73
g59
NtRp1736
(dp1737
g62
(dp1738
sg71
g1592
sg64
(lp1739
g57
(g78
g59
NtRp1740
(dp1741
g62
(dp1742
g82
g83
ssg71
g1736
sg64
(lp1743
g441
asbag57
(g78
g59
NtRp1744
(dp1745
g62
(dp1746
g89
g90
ssg71
g1736
sg64
(lp1747
S':'
asbag57
(g78
g59
NtRp1748
(dp1749
g62
(dp1750
sg71
g1736
sg64
(lp1751
g57
(g58
g59
NtRp1752
(dp1753
g62
(dp1754
g70
I3
ssg71
g1748
sg64
(lp1755
S''
asbasbasbasbasbasbasbag57
(g73
g59
NtRp1756
(dp1757
g62
(dp1758
sg71
g256
sg64
(lp1759
g57
(g78
g59
NtRp1760
(dp1761
g62
(dp1762
g82
g83
ssg71
g1756
sg64
(lp1763
S'session_id_reddit'
p1764
asbag57
(g78
g59
NtRp1765
(dp1766
g62
(dp1767
g89
g90
ssg71
g1756
sg64
(lp1768
S':'
asbag57
(g78
g59
NtRp1769
(dp1770
g62
(dp1771
sg71
g1756
sg64
(lp1772
g57
(g58
g59
NtRp1773
(dp1774
g62
(dp1775
g70
I4
ssg71
g1769
sg64
(lp1776
S'127.0.0.1-24289f39-32a1-48fb-a367-22792fb8b813'
p1777
ag57
(g66
g59
NtRp1778
(dp1779
g62
(dp1780
g70
I3
ssg71
Nsg64
(lp1781
g57
(g73
g59
NtRp1782
(dp1783
g62
(dp1784
sg71
g1778
sg64
(lp1785
g57
(g78
g59
NtRp1786
(dp1787
g62
(dp1788
g82
g83
ssg71
g1782
sg64
(lp1789
g294
asbag57
(g78
g59
NtRp1790
(dp1791
g62
(dp1792
g89
g90
ssg71
g1782
sg64
(lp1793
S':'
asbag57
(g78
g59
NtRp1794
(dp1795
g62
(dp1796
sg71
g1782
sg64
(lp1797
g57
(g58
g59
NtRp1798
(dp1799
g62
(dp1800
g70
I3
ssg71
g1794
sg64
(lp1801
S''
asbasbasbag57
(g73
g59
NtRp1802
(dp1803
g62
(dp1804
sg71
g1778
sg64
(lp1805
g57
(g78
g59
NtRp1806
(dp1807
g62
(dp1808
g82
g83
ssg71
g1802
sg64
(lp1809
g315
asbag57
(g78
g59
NtRp1810
(dp1811
g62
(dp1812
g89
g90
ssg71
g1802
sg64
(lp1813
S':'
asbag57
(g78
g59
NtRp1814
(dp1815
g62
(dp1816
sg71
g1802
sg64
(lp1817
g57
(g58
g59
NtRp1818
(dp1819
g62
(dp1820
g70
I3
ssg71
g1814
sg64
(lp1821
S''
asbasbasbag57
(g73
g59
NtRp1822
(dp1823
g62
(dp1824
sg71
g1778
sg64
(lp1825
g57
(g78
g59
NtRp1826
(dp1827
g62
(dp1828
g82
g83
ssg71
g1822
sg64
(lp1829
g336
asbag57
(g78
g59
NtRp1830
(dp1831
g62
(dp1832
g89
g90
ssg71
g1822
sg64
(lp1833
S':'
asbag57
(g78
g59
NtRp1834
(dp1835
g62
(dp1836
sg71
g1822
sg64
(lp1837
g57
(g58
g59
NtRp1838
(dp1839
g62
(dp1840
g70
I3
ssg71
g1834
sg64
(lp1841
S''
asbasbasbag57
(g73
g59
NtRp1842
(dp1843
g62
(dp1844
sg71
g1778
sg64
(lp1845
g57
(g78
g59
NtRp1846
(dp1847
g62
(dp1848
g82
g83
ssg71
g1842
sg64
(lp1849
g357
asbag57
(g78
g59
NtRp1850
(dp1851
g62
(dp1852
g89
g90
ssg71
g1842
sg64
(lp1853
S':'
asbag57
(g78
g59
NtRp1854
(dp1855
g62
(dp1856
sg71
g1842
sg64
(lp1857
g57
(g58
g59
NtRp1858
(dp1859
g62
(dp1860
g70
I3
ssg71
g1854
sg64
(lp1861
S''
asbasbasbag57
(g73
g59
NtRp1862
(dp1863
g62
(dp1864
sg71
g1778
sg64
(lp1865
g57
(g78
g59
NtRp1866
(dp1867
g62
(dp1868
g82
g83
ssg71
g1862
sg64
(lp1869
g378
asbag57
(g78
g59
NtRp1870
(dp1871
g62
(dp1872
g89
g90
ssg71
g1862
sg64
(lp1873
S':'
asbag57
(g78
g59
NtRp1874
(dp1875
g62
(dp1876
sg71
g1862
sg64
(lp1877
g57
(g58
g59
NtRp1878
(dp1879
g62
(dp1880
g70
I3
ssg71
g1874
sg64
(lp1881
S''
asbasbasbag57
(g73
g59
NtRp1882
(dp1883
g62
(dp1884
sg71
g1778
sg64
(lp1885
g57
(g78
g59
NtRp1886
(dp1887
g62
(dp1888
g82
g83
ssg71
g1882
sg64
(lp1889
g399
asbag57
(g78
g59
NtRp1890
(dp1891
g62
(dp1892
g89
g90
ssg71
g1882
sg64
(lp1893
S':'
asbag57
(g78
g59
NtRp1894
(dp1895
g62
(dp1896
sg71
g1882
sg64
(lp1897
g57
(g58
g59
NtRp1898
(dp1899
g62
(dp1900
g70
I3
ssg71
g1894
sg64
(lp1901
S''
asbasbasbag57
(g73
g59
NtRp1902
(dp1903
g62
(dp1904
sg71
g1778
sg64
(lp1905
g57
(g78
g59
NtRp1906
(dp1907
g62
(dp1908
g82
g83
ssg71
g1902
sg64
(lp1909
g420
asbag57
(g78
g59
NtRp1910
(dp1911
g62
(dp1912
g89
g90
ssg71
g1902
sg64
(lp1913
S':'
asbag57
(g78
g59
NtRp1914
(dp1915
g62
(dp1916
sg71
g1902
sg64
(lp1917
g57
(g58
g59
NtRp1918
(dp1919
g62
(dp1920
g70
I3
ssg71
g1914
sg64
(lp1921
S''
asbasbasbag57
(g73
g59
NtRp1922
(dp1923
g62
(dp1924
sg71
g1778
sg64
(lp1925
g57
(g78
g59
NtRp1926
(dp1927
g62
(dp1928
g82
g83
ssg71
g1922
sg64
(lp1929
g441
asbag57
(g78
g59
NtRp1930
(dp1931
g62
(dp1932
g89
g90
ssg71
g1922
sg64
(lp1933
S':'
asbag57
(g78
g59
NtRp1934
(dp1935
g62
(dp1936
sg71
g1922
sg64
(lp1937
g57
(g58
g59
NtRp1938
(dp1939
g62
(dp1940
g70
I3
ssg71
g1934
sg64
(lp1941
S''
asbasbasbasbasbasbasbag57
(g73
g59
NtRp1942
(dp1943
g62
(dp1944
sg71
g256
sg64
(lp1945
g57
(g78
g59
NtRp1946
(dp1947
g62
(dp1948
g82
g83
ssg71
g1942
sg64
(lp1949
S'session_id_testlayout'
p1950
asbag57
(g78
g59
NtRp1951
(dp1952
g62
(dp1953
g89
g90
ssg71
g1942
sg64
(lp1954
S':'
asbag57
(g78
g59
NtRp1955
(dp1956
g62
(dp1957
sg71
g1942
sg64
(lp1958
g57
(g58
g59
NtRp1959
(dp1960
g62
(dp1961
g70
I4
ssg71
g1955
sg64
(lp1962
S'127.0.0.1-0b2689a2-d3bd-4ee8-ad96-af4d7e3e9ad1'
p1963
ag57
(g66
g59
NtRp1964
(dp1965
g62
(dp1966
g70
I3
ssg71
Nsg64
(lp1967
g57
(g73
g59
NtRp1968
(dp1969
g62
(dp1970
sg71
g1964
sg64
(lp1971
g57
(g78
g59
NtRp1972
(dp1973
g62
(dp1974
g82
g83
ssg71
g1968
sg64
(lp1975
g294
asbag57
(g78
g59
NtRp1976
(dp1977
g62
(dp1978
g89
g90
ssg71
g1968
sg64
(lp1979
S':'
asbag57
(g78
g59
NtRp1980
(dp1981
g62
(dp1982
sg71
g1968
sg64
(lp1983
g57
(g58
g59
NtRp1984
(dp1985
g62
(dp1986
g70
I3
ssg71
g1980
sg64
(lp1987
S''
asbasbasbag57
(g73
g59
NtRp1988
(dp1989
g62
(dp1990
sg71
g1964
sg64
(lp1991
g57
(g78
g59
NtRp1992
(dp1993
g62
(dp1994
g82
g83
ssg71
g1988
sg64
(lp1995
g315
asbag57
(g78
g59
NtRp1996
(dp1997
g62
(dp1998
g89
g90
ssg71
g1988
sg64
(lp1999
S':'
asbag57
(g78
g59
NtRp2000
(dp2001
g62
(dp2002
sg71
g1988
sg64
(lp2003
g57
(g58
g59
NtRp2004
(dp2005
g62
(dp2006
g70
I3
ssg71
g2000
sg64
(lp2007
S''
asbasbasbag57
(g73
g59
NtRp2008
(dp2009
g62
(dp2010
sg71
g1964
sg64
(lp2011
g57
(g78
g59
NtRp2012
(dp2013
g62
(dp2014
g82
g83
ssg71
g2008
sg64
(lp2015
g336
asbag57
(g78
g59
NtRp2016
(dp2017
g62
(dp2018
g89
g90
ssg71
g2008
sg64
(lp2019
S':'
asbag57
(g78
g59
NtRp2020
(dp2021
g62
(dp2022
sg71
g2008
sg64
(lp2023
g57
(g58
g59
NtRp2024
(dp2025
g62
(dp2026
g70
I3
ssg71
g2020
sg64
(lp2027
S''
asbasbasbag57
(g73
g59
NtRp2028
(dp2029
g62
(dp2030
sg71
g1964
sg64
(lp2031
g57
(g78
g59
NtRp2032
(dp2033
g62
(dp2034
g82
g83
ssg71
g2028
sg64
(lp2035
g357
asbag57
(g78
g59
NtRp2036
(dp2037
g62
(dp2038
g89
g90
ssg71
g2028
sg64
(lp2039
S':'
asbag57
(g78
g59
NtRp2040
(dp2041
g62
(dp2042
sg71
g2028
sg64
(lp2043
g57
(g58
g59
NtRp2044
(dp2045
g62
(dp2046
g70
I3
ssg71
g2040
sg64
(lp2047
S''
asbasbasbag57
(g73
g59
NtRp2048
(dp2049
g62
(dp2050
sg71
g1964
sg64
(lp2051
g57
(g78
g59
NtRp2052
(dp2053
g62
(dp2054
g82
g83
ssg71
g2048
sg64
(lp2055
g378
asbag57
(g78
g59
NtRp2056
(dp2057
g62
(dp2058
g89
g90
ssg71
g2048
sg64
(lp2059
S':'
asbag57
(g78
g59
NtRp2060
(dp2061
g62
(dp2062
sg71
g2048
sg64
(lp2063
g57
(g58
g59
NtRp2064
(dp2065
g62
(dp2066
g70
I3
ssg71
g2060
sg64
(lp2067
S''
asbasbasbag57
(g73
g59
NtRp2068
(dp2069
g62
(dp2070
sg71
g1964
sg64
(lp2071
g57
(g78
g59
NtRp2072
(dp2073
g62
(dp2074
g82
g83
ssg71
g2068
sg64
(lp2075
g399
asbag57
(g78
g59
NtRp2076
(dp2077
g62
(dp2078
g89
g90
ssg71
g2068
sg64
(lp2079
S':'
asbag57
(g78
g59
NtRp2080
(dp2081
g62
(dp2082
sg71
g2068
sg64
(lp2083
g57
(g58
g59
NtRp2084
(dp2085
g62
(dp2086
g70
I3
ssg71
g2080
sg64
(lp2087
S''
asbasbasbag57
(g73
g59
NtRp2088
(dp2089
g62
(dp2090
sg71
g1964
sg64
(lp2091
g57
(g78
g59
NtRp2092
(dp2093
g62
(dp2094
g82
g83
ssg71
g2088
sg64
(lp2095
g420
asbag57
(g78
g59
NtRp2096
(dp2097
g62
(dp2098
g89
g90
ssg71
g2088
sg64
(lp2099
S':'
asbag57
(g78
g59
NtRp2100
(dp2101
g62
(dp2102
sg71
g2088
sg64
(lp2103
g57
(g58
g59
NtRp2104
(dp2105
g62
(dp2106
g70
I3
ssg71
g2100
sg64
(lp2107
S''
asbasbasbag57
(g73
g59
NtRp2108
(dp2109
g62
(dp2110
sg71
g1964
sg64
(lp2111
g57
(g78
g59
NtRp2112
(dp2113
g62
(dp2114
g82
g83
ssg71
g2108
sg64
(lp2115
g441
asbag57
(g78
g59
NtRp2116
(dp2117
g62
(dp2118
g89
g90
ssg71
g2108
sg64
(lp2119
S':'
asbag57
(g78
g59
NtRp2120
(dp2121
g62
(dp2122
sg71
g2108
sg64
(lp2123
g57
(g58
g59
NtRp2124
(dp2125
g62
(dp2126
g70
I3
ssg71
g2120
sg64
(lp2127
S''
asbasbasbasbasbasbasbag57
(g73
g59
NtRp2128
(dp2129
g62
(dp2130
sg71
g256
sg64
(lp2131
g57
(g78
g59
NtRp2132
(dp2133
g62
(dp2134
g82
g83
ssg71
g2128
sg64
(lp2135
S'session_id_try'
p2136
asbag57
(g78
g59
NtRp2137
(dp2138
g62
(dp2139
g89
g90
ssg71
g2128
sg64
(lp2140
S':'
asbag57
(g78
g59
NtRp2141
(dp2142
g62
(dp2143
sg71
g2128
sg64
(lp2144
g57
(g58
g59
NtRp2145
(dp2146
g62
(dp2147
g70
I4
ssg71
g2141
sg64
(lp2148
S'127.0.0.1-4d514347-24a9-48c9-9e7c-4ac4f4a70173'
p2149
ag57
(g66
g59
NtRp2150
(dp2151
g62
(dp2152
g70
I3
ssg71
Nsg64
(lp2153
g57
(g73
g59
NtRp2154
(dp2155
g62
(dp2156
sg71
g2150
sg64
(lp2157
g57
(g78
g59
NtRp2158
(dp2159
g62
(dp2160
g82
g83
ssg71
g2154
sg64
(lp2161
g294
asbag57
(g78
g59
NtRp2162
(dp2163
g62
(dp2164
g89
g90
ssg71
g2154
sg64
(lp2165
S':'
asbag57
(g78
g59
NtRp2166
(dp2167
g62
(dp2168
sg71
g2154
sg64
(lp2169
g57
(g58
g59
NtRp2170
(dp2171
g62
(dp2172
g70
I3
ssg71
g2166
sg64
(lp2173
S''
asbasbasbag57
(g73
g59
NtRp2174
(dp2175
g62
(dp2176
sg71
g2150
sg64
(lp2177
g57
(g78
g59
NtRp2178
(dp2179
g62
(dp2180
g82
g83
ssg71
g2174
sg64
(lp2181
g315
asbag57
(g78
g59
NtRp2182
(dp2183
g62
(dp2184
g89
g90
ssg71
g2174
sg64
(lp2185
S':'
asbag57
(g78
g59
NtRp2186
(dp2187
g62
(dp2188
sg71
g2174
sg64
(lp2189
g57
(g58
g59
NtRp2190
(dp2191
g62
(dp2192
g70
I3
ssg71
g2186
sg64
(lp2193
S''
asbasbasbag57
(g73
g59
NtRp2194
(dp2195
g62
(dp2196
sg71
g2150
sg64
(lp2197
g57
(g78
g59
NtRp2198
(dp2199
g62
(dp2200
g82
g83
ssg71
g2194
sg64
(lp2201
g336
asbag57
(g78
g59
NtRp2202
(dp2203
g62
(dp2204
g89
g90
ssg71
g2194
sg64
(lp2205
S':'
asbag57
(g78
g59
NtRp2206
(dp2207
g62
(dp2208
sg71
g2194
sg64
(lp2209
g57
(g58
g59
NtRp2210
(dp2211
g62
(dp2212
g70
I3
ssg71
g2206
sg64
(lp2213
S''
asbasbasbag57
(g73
g59
NtRp2214
(dp2215
g62
(dp2216
sg71
g2150
sg64
(lp2217
g57
(g78
g59
NtRp2218
(dp2219
g62
(dp2220
g82
g83
ssg71
g2214
sg64
(lp2221
g357
asbag57
(g78
g59
NtRp2222
(dp2223
g62
(dp2224
g89
g90
ssg71
g2214
sg64
(lp2225
S':'
asbag57
(g78
g59
NtRp2226
(dp2227
g62
(dp2228
sg71
g2214
sg64
(lp2229
g57
(g58
g59
NtRp2230
(dp2231
g62
(dp2232
g70
I3
ssg71
g2226
sg64
(lp2233
S''
asbasbasbag57
(g73
g59
NtRp2234
(dp2235
g62
(dp2236
sg71
g2150
sg64
(lp2237
g57
(g78
g59
NtRp2238
(dp2239
g62
(dp2240
g82
g83
ssg71
g2234
sg64
(lp2241
g378
asbag57
(g78
g59
NtRp2242
(dp2243
g62
(dp2244
g89
g90
ssg71
g2234
sg64
(lp2245
S':'
asbag57
(g78
g59
NtRp2246
(dp2247
g62
(dp2248
sg71
g2234
sg64
(lp2249
g57
(g58
g59
NtRp2250
(dp2251
g62
(dp2252
g70
I3
ssg71
g2246
sg64
(lp2253
S''
asbasbasbag57
(g73
g59
NtRp2254
(dp2255
g62
(dp2256
sg71
g2150
sg64
(lp2257
g57
(g78
g59
NtRp2258
(dp2259
g62
(dp2260
g82
g83
ssg71
g2254
sg64
(lp2261
g399
asbag57
(g78
g59
NtRp2262
(dp2263
g62
(dp2264
g89
g90
ssg71
g2254
sg64
(lp2265
S':'
asbag57
(g78
g59
NtRp2266
(dp2267
g62
(dp2268
sg71
g2254
sg64
(lp2269
g57
(g58
g59
NtRp2270
(dp2271
g62
(dp2272
g70
I3
ssg71
g2266
sg64
(lp2273
S''
asbasbasbag57
(g73
g59
NtRp2274
(dp2275
g62
(dp2276
sg71
g2150
sg64
(lp2277
g57
(g78
g59
NtRp2278
(dp2279
g62
(dp2280
g82
g83
ssg71
g2274
sg64
(lp2281
g420
asbag57
(g78
g59
NtRp2282
(dp2283
g62
(dp2284
g89
g90
ssg71
g2274
sg64
(lp2285
S':'
asbag57
(g78
g59
NtRp2286
(dp2287
g62
(dp2288
sg71
g2274
sg64
(lp2289
g57
(g58
g59
NtRp2290
(dp2291
g62
(dp2292
g70
I3
ssg71
g2286
sg64
(lp2293
S''
asbasbasbag57
(g73
g59
NtRp2294
(dp2295
g62
(dp2296
sg71
g2150
sg64
(lp2297
g57
(g78
g59
NtRp2298
(dp2299
g62
(dp2300
g82
g83
ssg71
g2294
sg64
(lp2301
g441
asbag57
(g78
g59
NtRp2302
(dp2303
g62
(dp2304
g89
g90
ssg71
g2294
sg64
(lp2305
S':'
asbag57
(g78
g59
NtRp2306
(dp2307
g62
(dp2308
sg71
g2294
sg64
(lp2309
g57
(g58
g59
NtRp2310
(dp2311
g62
(dp2312
g70
I3
ssg71
g2306
sg64
(lp2313
S''
asbasbasbasbasbasbasbag57
(g73
g59
NtRp2314
(dp2315
g62
(dp2316
sg71
g256
sg64
(lp2317
g57
(g78
g59
NtRp2318
(dp2319
g62
(dp2320
g82
g83
ssg71
g2314
sg64
(lp2321
S'session_id_vikramahuja'
p2322
asbag57
(g78
g59
NtRp2323
(dp2324
g62
(dp2325
g89
g90
ssg71
g2314
sg64
(lp2326
S':'
asbag57
(g78
g59
NtRp2327
(dp2328
g62
(dp2329
sg71
g2314
sg64
(lp2330
g57
(g58
g59
NtRp2331
(dp2332
g62
(dp2333
g70
I4
ssg71
g2327
sg64
(lp2334
S'127.0.0.1-a555d16d-54b5-476d-a152-f88918b513fe'
p2335
ag57
(g66
g59
NtRp2336
(dp2337
g62
(dp2338
g70
I3
ssg71
Nsg64
(lp2339
g57
(g73
g59
NtRp2340
(dp2341
g62
(dp2342
sg71
g2336
sg64
(lp2343
g57
(g78
g59
NtRp2344
(dp2345
g62
(dp2346
g82
g83
ssg71
g2340
sg64
(lp2347
g294
asbag57
(g78
g59
NtRp2348
(dp2349
g62
(dp2350
g89
g90
ssg71
g2340
sg64
(lp2351
S':'
asbag57
(g78
g59
NtRp2352
(dp2353
g62
(dp2354
sg71
g2340
sg64
(lp2355
g57
(g58
g59
NtRp2356
(dp2357
g62
(dp2358
g70
I3
ssg71
g2352
sg64
(lp2359
S''
asbasbasbag57
(g73
g59
NtRp2360
(dp2361
g62
(dp2362
sg71
g2336
sg64
(lp2363
g57
(g78
g59
NtRp2364
(dp2365
g62
(dp2366
g82
g83
ssg71
g2360
sg64
(lp2367
g315
asbag57
(g78
g59
NtRp2368
(dp2369
g62
(dp2370
g89
g90
ssg71
g2360
sg64
(lp2371
S':'
asbag57
(g78
g59
NtRp2372
(dp2373
g62
(dp2374
sg71
g2360
sg64
(lp2375
g57
(g58
g59
NtRp2376
(dp2377
g62
(dp2378
g70
I3
ssg71
g2372
sg64
(lp2379
S''
asbasbasbag57
(g73
g59
NtRp2380
(dp2381
g62
(dp2382
sg71
g2336
sg64
(lp2383
g57
(g78
g59
NtRp2384
(dp2385
g62
(dp2386
g82
g83
ssg71
g2380
sg64
(lp2387
g336
asbag57
(g78
g59
NtRp2388
(dp2389
g62
(dp2390
g89
g90
ssg71
g2380
sg64
(lp2391
S':'
asbag57
(g78
g59
NtRp2392
(dp2393
g62
(dp2394
sg71
g2380
sg64
(lp2395
g57
(g58
g59
NtRp2396
(dp2397
g62
(dp2398
g70
I3
ssg71
g2392
sg64
(lp2399
S''
asbasbasbag57
(g73
g59
NtRp2400
(dp2401
g62
(dp2402
sg71
g2336
sg64
(lp2403
g57
(g78
g59
NtRp2404
(dp2405
g62
(dp2406
g82
g83
ssg71
g2400
sg64
(lp2407
g357
asbag57
(g78
g59
NtRp2408
(dp2409
g62
(dp2410
g89
g90
ssg71
g2400
sg64
(lp2411
S':'
asbag57
(g78
g59
NtRp2412
(dp2413
g62
(dp2414
sg71
g2400
sg64
(lp2415
g57
(g58
g59
NtRp2416
(dp2417
g62
(dp2418
g70
I3
ssg71
g2412
sg64
(lp2419
S''
asbasbasbag57
(g73
g59
NtRp2420
(dp2421
g62
(dp2422
sg71
g2336
sg64
(lp2423
g57
(g78
g59
NtRp2424
(dp2425
g62
(dp2426
g82
g83
ssg71
g2420
sg64
(lp2427
g378
asbag57
(g78
g59
NtRp2428
(dp2429
g62
(dp2430
g89
g90
ssg71
g2420
sg64
(lp2431
S':'
asbag57
(g78
g59
NtRp2432
(dp2433
g62
(dp2434
sg71
g2420
sg64
(lp2435
g57
(g58
g59
NtRp2436
(dp2437
g62
(dp2438
g70
I3
ssg71
g2432
sg64
(lp2439
S''
asbasbasbag57
(g73
g59
NtRp2440
(dp2441
g62
(dp2442
sg71
g2336
sg64
(lp2443
g57
(g78
g59
NtRp2444
(dp2445
g62
(dp2446
g82
g83
ssg71
g2440
sg64
(lp2447
g399
asbag57
(g78
g59
NtRp2448
(dp2449
g62
(dp2450
g89
g90
ssg71
g2440
sg64
(lp2451
S':'
asbag57
(g78
g59
NtRp2452
(dp2453
g62
(dp2454
sg71
g2440
sg64
(lp2455
g57
(g58
g59
NtRp2456
(dp2457
g62
(dp2458
g70
I3
ssg71
g2452
sg64
(lp2459
S''
asbasbasbag57
(g73
g59
NtRp2460
(dp2461
g62
(dp2462
sg71
g2336
sg64
(lp2463
g57
(g78
g59
NtRp2464
(dp2465
g62
(dp2466
g82
g83
ssg71
g2460
sg64
(lp2467
g420
asbag57
(g78
g59
NtRp2468
(dp2469
g62
(dp2470
g89
g90
ssg71
g2460
sg64
(lp2471
S':'
asbag57
(g78
g59
NtRp2472
(dp2473
g62
(dp2474
sg71
g2460
sg64
(lp2475
g57
(g58
g59
NtRp2476
(dp2477
g62
(dp2478
g70
I3
ssg71
g2472
sg64
(lp2479
S''
asbasbasbag57
(g73
g59
NtRp2480
(dp2481
g62
(dp2482
sg71
g2336
sg64
(lp2483
g57
(g78
g59
NtRp2484
(dp2485
g62
(dp2486
g82
g83
ssg71
g2480
sg64
(lp2487
g441
asbag57
(g78
g59
NtRp2488
(dp2489
g62
(dp2490
g89
g90
ssg71
g2480
sg64
(lp2491
S':'
asbag57
(g78
g59
NtRp2492
(dp2493
g62
(dp2494
sg71
g2480
sg64
(lp2495
g57
(g58
g59
NtRp2496
(dp2497
g62
(dp2498
g70
I3
ssg71
g2492
sg64
(lp2499
S''
asbasbasbasbasbasbasbag57
(g73
g59
NtRp2500
(dp2501
g62
(dp2502
sg71
g256
sg64
(lp2503
g57
(g78
g59
NtRp2504
(dp2505
g62
(dp2506
g82
g83
ssg71
g2500
sg64
(lp2507
S'session_id_welcome'
p2508
asbag57
(g78
g59
NtRp2509
(dp2510
g62
(dp2511
g89
g90
ssg71
g2500
sg64
(lp2512
S':'
asbag57
(g78
g59
NtRp2513
(dp2514
g62
(dp2515
sg71
g2500
sg64
(lp2516
g57
(g58
g59
NtRp2517
(dp2518
g62
(dp2519
g70
I4
ssg71
g2513
sg64
(lp2520
S'127.0.0.1-a85dd4d7-ab1c-49ab-856d-4173a26ef319'
p2521
ag57
(g66
g59
NtRp2522
(dp2523
g62
(dp2524
g70
I3
ssg71
Nsg64
(lp2525
g57
(g73
g59
NtRp2526
(dp2527
g62
(dp2528
sg71
g2522
sg64
(lp2529
g57
(g78
g59
NtRp2530
(dp2531
g62
(dp2532
g82
g83
ssg71
g2526
sg64
(lp2533
g294
asbag57
(g78
g59
NtRp2534
(dp2535
g62
(dp2536
g89
g90
ssg71
g2526
sg64
(lp2537
S':'
asbag57
(g78
g59
NtRp2538
(dp2539
g62
(dp2540
sg71
g2526
sg64
(lp2541
g57
(g58
g59
NtRp2542
(dp2543
g62
(dp2544
g70
I3
ssg71
g2538
sg64
(lp2545
S''
asbasbasbag57
(g73
g59
NtRp2546
(dp2547
g62
(dp2548
sg71
g2522
sg64
(lp2549
g57
(g78
g59
NtRp2550
(dp2551
g62
(dp2552
g82
g83
ssg71
g2546
sg64
(lp2553
g315
asbag57
(g78
g59
NtRp2554
(dp2555
g62
(dp2556
g89
g90
ssg71
g2546
sg64
(lp2557
S':'
asbag57
(g78
g59
NtRp2558
(dp2559
g62
(dp2560
sg71
g2546
sg64
(lp2561
g57
(g58
g59
NtRp2562
(dp2563
g62
(dp2564
g70
I3
ssg71
g2558
sg64
(lp2565
S''
asbasbasbag57
(g73
g59
NtRp2566
(dp2567
g62
(dp2568
sg71
g2522
sg64
(lp2569
g57
(g78
g59
NtRp2570
(dp2571
g62
(dp2572
g82
g83
ssg71
g2566
sg64
(lp2573
g336
asbag57
(g78
g59
NtRp2574
(dp2575
g62
(dp2576
g89
g90
ssg71
g2566
sg64
(lp2577
S':'
asbag57
(g78
g59
NtRp2578
(dp2579
g62
(dp2580
sg71
g2566
sg64
(lp2581
g57
(g58
g59
NtRp2582
(dp2583
g62
(dp2584
g70
I3
ssg71
g2578
sg64
(lp2585
S''
asbasbasbag57
(g73
g59
NtRp2586
(dp2587
g62
(dp2588
sg71
g2522
sg64
(lp2589
g57
(g78
g59
NtRp2590
(dp2591
g62
(dp2592
g82
g83
ssg71
g2586
sg64
(lp2593
g357
asbag57
(g78
g59
NtRp2594
(dp2595
g62
(dp2596
g89
g90
ssg71
g2586
sg64
(lp2597
S':'
asbag57
(g78
g59
NtRp2598
(dp2599
g62
(dp2600
sg71
g2586
sg64
(lp2601
g57
(g58
g59
NtRp2602
(dp2603
g62
(dp2604
g70
I3
ssg71
g2598
sg64
(lp2605
S''
asbasbasbag57
(g73
g59
NtRp2606
(dp2607
g62
(dp2608
sg71
g2522
sg64
(lp2609
g57
(g78
g59
NtRp2610
(dp2611
g62
(dp2612
g82
g83
ssg71
g2606
sg64
(lp2613
g378
asbag57
(g78
g59
NtRp2614
(dp2615
g62
(dp2616
g89
g90
ssg71
g2606
sg64
(lp2617
S':'
asbag57
(g78
g59
NtRp2618
(dp2619
g62
(dp2620
sg71
g2606
sg64
(lp2621
g57
(g58
g59
NtRp2622
(dp2623
g62
(dp2624
g70
I3
ssg71
g2618
sg64
(lp2625
S''
asbasbasbag57
(g73
g59
NtRp2626
(dp2627
g62
(dp2628
sg71
g2522
sg64
(lp2629
g57
(g78
g59
NtRp2630
(dp2631
g62
(dp2632
g82
g83
ssg71
g2626
sg64
(lp2633
g399
asbag57
(g78
g59
NtRp2634
(dp2635
g62
(dp2636
g89
g90
ssg71
g2626
sg64
(lp2637
S':'
asbag57
(g78
g59
NtRp2638
(dp2639
g62
(dp2640
sg71
g2626
sg64
(lp2641
g57
(g58
g59
NtRp2642
(dp2643
g62
(dp2644
g70
I3
ssg71
g2638
sg64
(lp2645
S''
asbasbasbag57
(g73
g59
NtRp2646
(dp2647
g62
(dp2648
sg71
g2522
sg64
(lp2649
g57
(g78
g59
NtRp2650
(dp2651
g62
(dp2652
g82
g83
ssg71
g2646
sg64
(lp2653
g420
asbag57
(g78
g59
NtRp2654
(dp2655
g62
(dp2656
g89
g90
ssg71
g2646
sg64
(lp2657
S':'
asbag57
(g78
g59
NtRp2658
(dp2659
g62
(dp2660
sg71
g2646
sg64
(lp2661
g57
(g58
g59
NtRp2662
(dp2663
g62
(dp2664
g70
I3
ssg71
g2658
sg64
(lp2665
S''
asbasbasbag57
(g73
g59
NtRp2666
(dp2667
g62
(dp2668
sg71
g2522
sg64
(lp2669
g57
(g78
g59
NtRp2670
(dp2671
g62
(dp2672
g82
g83
ssg71
g2666
sg64
(lp2673
g441
asbag57
(g78
g59
NtRp2674
(dp2675
g62
(dp2676
g89
g90
ssg71
g2666
sg64
(lp2677
S':'
asbag57
(g78
g59
NtRp2678
(dp2679
g62
(dp2680
sg71
g2666
sg64
(lp2681
g57
(g58
g59
NtRp2682
(dp2683
g62
(dp2684
g70
I3
ssg71
g2678
sg64
(lp2685
S''
asbasbasbasbasbasbasbasbasbasbasbag57
(g73
g59
NtRp2686
(dp2687
g62
(dp2688
sg71
g67
sg64
(lp2689
g57
(g78
g59
NtRp2690
(dp2691
g62
(dp2692
g82
g83
ssg71
g2686
sg64
(lp2693
S'env'
p2694
asbag57
(g78
g59
NtRp2695
(dp2696
g62
(dp2697
g89
g90
ssg71
g2686
sg64
(lp2698
S':'
asbag57
(g78
g59
NtRp2699
(dp2700
g62
(dp2701
sg71
g2686
sg64
(lp2702
g57
(g58
g59
NtRp2703
(dp2704
g62
(dp2705
g70
I5
ssg71
g2699
sg64
(lp2706
g57
(g66
g59
NtRp2707
(dp2708
g62
(dp2709
g70
I4
ssg71
Nsg64
(lp2710
g57
(g73
g59
NtRp2711
(dp2712
g62
(dp2713
sg71
g2707
sg64
(lp2714
g57
(g78
g59
NtRp2715
(dp2716
g62
(dp2717
g82
g83
ssg71
g2711
sg64
(lp2718
S'app_folders'
p2719
asbag57
(g78
g59
NtRp2720
(dp2721
g62
(dp2722
g89
g90
ssg71
g2711
sg64
(lp2723
S':'
asbag57
(g78
g59
NtRp2724
(dp2725
g62
(dp2726
sg71
g2711
sg64
(lp2727
g57
(g58
g59
NtRp2728
(dp2729
g62
(dp2730
g70
I4
ssg71
g2724
sg64
(lp2731
S"set(['/home/pankaj/web2py/applications/admin/', '/home/pankaj/web2py/applications/welcome/', '/home/pankaj/web2py/applications/reddit/'])"
p2732
asbasbasbag57
(g73
g59
NtRp2733
(dp2734
g62
(dp2735
sg71
g2707
sg64
(lp2736
g57
(g78
g59
NtRp2737
(dp2738
g62
(dp2739
g82
g83
ssg71
g2733
sg64
(lp2740
S'applications_parent'
p2741
asbag57
(g78
g59
NtRp2742
(dp2743
g62
(dp2744
g89
g90
ssg71
g2733
sg64
(lp2745
S':'
asbag57
(g78
g59
NtRp2746
(dp2747
g62
(dp2748
sg71
g2733
sg64
(lp2749
g57
(g58
g59
NtRp2750
(dp2751
g62
(dp2752
g70
I4
ssg71
g2746
sg64
(lp2753
S'/home/pankaj/web2py'
p2754
asbasbasbag57
(g73
g59
NtRp2755
(dp2756
g62
(dp2757
sg71
g2707
sg64
(lp2758
g57
(g78
g59
NtRp2759
(dp2760
g62
(dp2761
g82
g83
ssg71
g2755
sg64
(lp2762
S'cmd_args'
p2763
asbag57
(g78
g59
NtRp2764
(dp2765
g62
(dp2766
g89
g90
ssg71
g2755
sg64
(lp2767
S':'
asbag57
(g78
g59
NtRp2768
(dp2769
g62
(dp2770
sg71
g2755
sg64
(lp2771
g57
(g58
g59
NtRp2772
(dp2773
g62
(dp2774
g70
I4
ssg71
g2768
sg64
(lp2775
g57
(g66
g59
NtRp2776
(dp2777
g62
(dp2778
g70
I3
ssg71
Nsg64
(lp2779
sbasbasbasbag57
(g73
g59
NtRp2780
(dp2781
g62
(dp2782
sg71
g2707
sg64
(lp2783
g57
(g78
g59
NtRp2784
(dp2785
g62
(dp2786
g82
g83
ssg71
g2780
sg64
(lp2787
S'cmd_options'
p2788
asbag57
(g78
g59
NtRp2789
(dp2790
g62
(dp2791
g89
g90
ssg71
g2780
sg64
(lp2792
S':'
asbag57
(g78
g59
NtRp2793
(dp2794
g62
(dp2795
sg71
g2780
sg64
(lp2796
g57
(g58
g59
NtRp2797
(dp2798
g62
(dp2799
g70
I4
ssg71
g2793
sg64
(lp2800
S"<Values at 0x9843dcc: {'verbose': False, 'ip': '127.0.0.1', 'with_scheduler': False, 'ips': [], 'shutdown_timeout': 5, 'taskbar': False, 'port': 8000, 'maxthreads': None, 'softcron': False, 'server_name': 'pankaj-HP-Pavilion-dv4-Notebook-PC', 'bpython': False, 'nogui': False, 'pid_filename': 'httpserver.pid', 'extcron': False, 'runcron': False, 'run_system_tests': False, 'test': None, 'folder': '/home/pankaj/web2py', 'config': '', 'import_models': False, 'winservice': '', 'shell': None, 'run': '', 'log_filename': 'httpserver.log', 'debuglevel': 30, 'args': [''], 'socket_timeout': 5, 'ssl_ca_certificate': None, 'scheduler': None, 'profiler_filename': None, 'ssl_private_key': '', 'scheduler_groups': None, 'password': '<ask>', 'request_queue_size': 5, 'ssl_certificate': '', 'cronjob': False, 'numthreads': None, 'quiet': False, 'interfaces': None, 'minthreads': None, 'timeout': 10, 'plain': False, 'nobanner': False}>"
p2801
asbasbasbag57
(g73
g59
NtRp2802
(dp2803
g62
(dp2804
sg71
g2707
sg64
(lp2805
g57
(g78
g59
NtRp2806
(dp2807
g62
(dp2808
g82
g83
ssg71
g2802
sg64
(lp2809
S'content_length'
p2810
asbag57
(g78
g59
NtRp2811
(dp2812
g62
(dp2813
g89
g90
ssg71
g2802
sg64
(lp2814
S':'
asbag57
(g78
g59
NtRp2815
(dp2816
g62
(dp2817
sg71
g2802
sg64
(lp2818
g57
(g58
g59
NtRp2819
(dp2820
g62
(dp2821
g70
I4
ssg71
g2815
sg64
(lp2822
S'7'
asbasbasbag57
(g73
g59
NtRp2823
(dp2824
g62
(dp2825
sg71
g2707
sg64
(lp2826
g57
(g78
g59
NtRp2827
(dp2828
g62
(dp2829
g82
g83
ssg71
g2823
sg64
(lp2830
S'content_type'
p2831
asbag57
(g78
g59
NtRp2832
(dp2833
g62
(dp2834
g89
g90
ssg71
g2823
sg64
(lp2835
S':'
asbag57
(g78
g59
NtRp2836
(dp2837
g62
(dp2838
sg71
g2823
sg64
(lp2839
g57
(g58
g59
NtRp2840
(dp2841
g62
(dp2842
g70
I4
ssg71
g2836
sg64
(lp2843
S'application/x-www-form-urlencoded'
p2844
asbasbasbag57
(g73
g59
NtRp2845
(dp2846
g62
(dp2847
sg71
g2707
sg64
(lp2848
g57
(g78
g59
NtRp2849
(dp2850
g62
(dp2851
g82
g83
ssg71
g2845
sg64
(lp2852
S'db_sessions'
p2853
asbag57
(g78
g59
NtRp2854
(dp2855
g62
(dp2856
g89
g90
ssg71
g2845
sg64
(lp2857
S':'
asbag57
(g78
g59
NtRp2858
(dp2859
g62
(dp2860
sg71
g2845
sg64
(lp2861
g57
(g58
g59
NtRp2862
(dp2863
g62
(dp2864
g70
I4
ssg71
g2858
sg64
(lp2865
S'set([])'
p2866
asbasbasbag57
(g73
g59
NtRp2867
(dp2868
g62
(dp2869
sg71
g2707
sg64
(lp2870
g57
(g78
g59
NtRp2871
(dp2872
g62
(dp2873
g82
g83
ssg71
g2867
sg64
(lp2874
S'debugging'
p2875
asbag57
(g78
g59
NtRp2876
(dp2877
g62
(dp2878
g89
g90
ssg71
g2867
sg64
(lp2879
S':'
asbag57
(g78
g59
NtRp2880
(dp2881
g62
(dp2882
sg71
g2867
sg64
(lp2883
g57
(g58
g59
NtRp2884
(dp2885
g62
(dp2886
g70
I4
ssg71
g2880
sg64
(lp2887
g100
asbasbasbag57
(g73
g59
NtRp2888
(dp2889
g62
(dp2890
sg71
g2707
sg64
(lp2891
g57
(g78
g59
NtRp2892
(dp2893
g62
(dp2894
g82
g83
ssg71
g2888
sg64
(lp2895
S'gluon_parent'
p2896
asbag57
(g78
g59
NtRp2897
(dp2898
g62
(dp2899
g89
g90
ssg71
g2888
sg64
(lp2900
S':'
asbag57
(g78
g59
NtRp2901
(dp2902
g62
(dp2903
sg71
g2888
sg64
(lp2904
g57
(g58
g59
NtRp2905
(dp2906
g62
(dp2907
g70
I4
ssg71
g2901
sg64
(lp2908
S'/home/pankaj/web2py'
p2909
asbasbasbag57
(g73
g59
NtRp2910
(dp2911
g62
(dp2912
sg71
g2707
sg64
(lp2913
g57
(g78
g59
NtRp2914
(dp2915
g62
(dp2916
g82
g83
ssg71
g2910
sg64
(lp2917
S'http_accept'
p2918
asbag57
(g78
g59
NtRp2919
(dp2920
g62
(dp2921
g89
g90
ssg71
g2910
sg64
(lp2922
S':'
asbag57
(g78
g59
NtRp2923
(dp2924
g62
(dp2925
sg71
g2910
sg64
(lp2926
g57
(g58
g59
NtRp2927
(dp2928
g62
(dp2929
g70
I4
ssg71
g2923
sg64
(lp2930
S'text/html,application/xhtml+xml,application/xml;q=0.9,*/*;q=0.8'
p2931
asbasbasbag57
(g73
g59
NtRp2932
(dp2933
g62
(dp2934
sg71
g2707
sg64
(lp2935
g57
(g78
g59
NtRp2936
(dp2937
g62
(dp2938
g82
g83
ssg71
g2932
sg64
(lp2939
S'http_accept_encoding'
p2940
asbag57
(g78
g59
NtRp2941
(dp2942
g62
(dp2943
g89
g90
ssg71
g2932
sg64
(lp2944
S':'
asbag57
(g78
g59
NtRp2945
(dp2946
g62
(dp2947
sg71
g2932
sg64
(lp2948
g57
(g58
g59
NtRp2949
(dp2950
g62
(dp2951
g70
I4
ssg71
g2945
sg64
(lp2952
S'gzip, deflate'
p2953
asbasbasbag57
(g73
g59
NtRp2954
(dp2955
g62
(dp2956
sg71
g2707
sg64
(lp2957
g57
(g78
g59
NtRp2958
(dp2959
g62
(dp2960
g82
g83
ssg71
g2954
sg64
(lp2961
S'http_accept_language'
p2962
asbag57
(g78
g59
NtRp2963
(dp2964
g62
(dp2965
g89
g90
ssg71
g2954
sg64
(lp2966
S':'
asbag57
(g78
g59
NtRp2967
(dp2968
g62
(dp2969
sg71
g2954
sg64
(lp2970
g57
(g58
g59
NtRp2971
(dp2972
g62
(dp2973
g70
I4
ssg71
g2967
sg64
(lp2974
S'en-US,en;q=0.5'
p2975
asbasbasbag57
(g73
g59
NtRp2976
(dp2977
g62
(dp2978
sg71
g2707
sg64
(lp2979
g57
(g78
g59
NtRp2980
(dp2981
g62
(dp2982
g82
g83
ssg71
g2976
sg64
(lp2983
S'http_connection'
p2984
asbag57
(g78
g59
NtRp2985
(dp2986
g62
(dp2987
g89
g90
ssg71
g2976
sg64
(lp2988
S':'
asbag57
(g78
g59
NtRp2989
(dp2990
g62
(dp2991
sg71
g2976
sg64
(lp2992
g57
(g58
g59
NtRp2993
(dp2994
g62
(dp2995
g70
I4
ssg71
g2989
sg64
(lp2996
S'keep-alive'
p2997
asbasbasbag57
(g73
g59
NtRp2998
(dp2999
g62
(dp3000
sg71
g2707
sg64
(lp3001
g57
(g78
g59
NtRp3002
(dp3003
g62
(dp3004
g82
g83
ssg71
g2998
sg64
(lp3005
S'http_content_length'
p3006
asbag57
(g78
g59
NtRp3007
(dp3008
g62
(dp3009
g89
g90
ssg71
g2998
sg64
(lp3010
S':'
asbag57
(g78
g59
NtRp3011
(dp3012
g62
(dp3013
sg71
g2998
sg64
(lp3014
g57
(g58
g59
NtRp3015
(dp3016
g62
(dp3017
g70
I4
ssg71
g3011
sg64
(lp3018
S'7'
asbasbasbag57
(g73
g59
NtRp3019
(dp3020
g62
(dp3021
sg71
g2707
sg64
(lp3022
g57
(g78
g59
NtRp3023
(dp3024
g62
(dp3025
g82
g83
ssg71
g3019
sg64
(lp3026
S'http_content_type'
p3027
asbag57
(g78
g59
NtRp3028
(dp3029
g62
(dp3030
g89
g90
ssg71
g3019
sg64
(lp3031
S':'
asbag57
(g78
g59
NtRp3032
(dp3033
g62
(dp3034
sg71
g3019
sg64
(lp3035
g57
(g58
g59
NtRp3036
(dp3037
g62
(dp3038
g70
I4
ssg71
g3032
sg64
(lp3039
g2844
asbasbasbag57
(g73
g59
NtRp3040
(dp3041
g62
(dp3042
sg71
g2707
sg64
(lp3043
g57
(g78
g59
NtRp3044
(dp3045
g62
(dp3046
g82
g83
ssg71
g3040
sg64
(lp3047
S'http_cookie'
p3048
asbag57
(g78
g59
NtRp3049
(dp3050
g62
(dp3051
g89
g90
ssg71
g3040
sg64
(lp3052
S':'
asbag57
(g78
g59
NtRp3053
(dp3054
g62
(dp3055
sg71
g3040
sg64
(lp3056
g57
(g58
g59
NtRp3057
(dp3058
g62
(dp3059
g70
I4
ssg71
g3053
sg64
(lp3060
S'session_id_welcome=127.0.0.1-a85dd4d7-ab1c-49ab-856d-4173a26ef319; session_id_admin=127.0.0.1-eea59e1b-9257-4df1-8c44-da77bf9e4ec2; session_id_20120156_assignment_1=127.0.0.1-6cad324c-0572-4be8-8f41-6fcaca863c93; session_id_arihant=127.0.0.1-fa99deb6-5977-491c-864a-b5d79c0d1842; session_id_cataminder=127.0.0.1-81b628a7-34a5-4e70-a95c-79ef710dcdbb; session_id_courses=127.0.0.1-1d46c4eb-fdfc-4abb-bb62-6bcf52d1fcaa; session_id_iiit_fb=127.0.0.1-04b7df24-4720-4bb5-98de-96b98776240d; session_id_myapp=127.0.0.1-f28af7a6-9d1e-4a86-bd34-27605492a231; session_id_project=127.0.0.1-029ca61b-f875-404a-b7ff-1634c44ab767; session_id_testlayout=127.0.0.1-0b2689a2-d3bd-4ee8-ad96-af4d7e3e9ad1; session_id_try=127.0.0.1-4d514347-24a9-48c9-9e7c-4ac4f4a70173; session_id_vikramahuja=127.0.0.1-a555d16d-54b5-476d-a152-f88918b513fe; session_id_reddit=127.0.0.1-24289f39-32a1-48fb-a367-22792fb8b813'
p3061
asbasbasbag57
(g73
g59
NtRp3062
(dp3063
g62
(dp3064
sg71
g2707
sg64
(lp3065
g57
(g78
g59
NtRp3066
(dp3067
g62
(dp3068
g82
g83
ssg71
g3062
sg64
(lp3069
S'http_host'
p3070
asbag57
(g78
g59
NtRp3071
(dp3072
g62
(dp3073
g89
g90
ssg71
g3062
sg64
(lp3074
S':'
asbag57
(g78
g59
NtRp3075
(dp3076
g62
(dp3077
sg71
g3062
sg64
(lp3078
g57
(g58
g59
NtRp3079
(dp3080
g62
(dp3081
g70
I4
ssg71
g3075
sg64
(lp3082
S'127.0.0.1:8000'
p3083
asbasbasbag57
(g73
g59
NtRp3084
(dp3085
g62
(dp3086
sg71
g2707
sg64
(lp3087
g57
(g78
g59
NtRp3088
(dp3089
g62
(dp3090
g82
g83
ssg71
g3084
sg64
(lp3091
S'http_referer'
p3092
asbag57
(g78
g59
NtRp3093
(dp3094
g62
(dp3095
g89
g90
ssg71
g3084
sg64
(lp3096
S':'
asbag57
(g78
g59
NtRp3097
(dp3098
g62
(dp3099
sg71
g3084
sg64
(lp3100
g57
(g58
g59
NtRp3101
(dp3102
g62
(dp3103
g70
I4
ssg71
g3097
sg64
(lp3104
S'http://127.0.0.1:8000/reddit/default/'
p3105
asbasbasbag57
(g73
g59
NtRp3106
(dp3107
g62
(dp3108
sg71
g2707
sg64
(lp3109
g57
(g78
g59
NtRp3110
(dp3111
g62
(dp3112
g82
g83
ssg71
g3106
sg64
(lp3113
S'http_user_agent'
p3114
asbag57
(g78
g59
NtRp3115
(dp3116
g62
(dp3117
g89
g90
ssg71
g3106
sg64
(lp3118
S':'
asbag57
(g78
g59
NtRp3119
(dp3120
g62
(dp3121
sg71
g3106
sg64
(lp3122
g57
(g58
g59
NtRp3123
(dp3124
g62
(dp3125
g70
I4
ssg71
g3119
sg64
(lp3126
S'Mozilla/5.0 (X11; Ubuntu; Linux i686; rv:22.0) Gecko/20100101 Firefox/22.0'
p3127
asbasbasbag57
(g73
g59
NtRp3128
(dp3129
g62
(dp3130
sg71
g2707
sg64
(lp3131
g57
(g78
g59
NtRp3132
(dp3133
g62
(dp3134
g82
g83
ssg71
g3128
sg64
(lp3135
S'is_jython'
p3136
asbag57
(g78
g59
NtRp3137
(dp3138
g62
(dp3139
g89
g90
ssg71
g3128
sg64
(lp3140
S':'
asbag57
(g78
g59
NtRp3141
(dp3142
g62
(dp3143
sg71
g3128
sg64
(lp3144
g57
(g58
g59
NtRp3145
(dp3146
g62
(dp3147
g70
I4
ssg71
g3141
sg64
(lp3148
g100
asbasbasbag57
(g73
g59
NtRp3149
(dp3150
g62
(dp3151
sg71
g2707
sg64
(lp3152
g57
(g78
g59
NtRp3153
(dp3154
g62
(dp3155
g82
g83
ssg71
g3149
sg64
(lp3156
S'is_pypy'
p3157
asbag57
(g78
g59
NtRp3158
(dp3159
g62
(dp3160
g89
g90
ssg71
g3149
sg64
(lp3161
S':'
asbag57
(g78
g59
NtRp3162
(dp3163
g62
(dp3164
sg71
g3149
sg64
(lp3165
g57
(g58
g59
NtRp3166
(dp3167
g62
(dp3168
g70
I4
ssg71
g3162
sg64
(lp3169
g100
asbasbasbag57
(g73
g59
NtRp3170
(dp3171
g62
(dp3172
sg71
g2707
sg64
(lp3173
g57
(g78
g59
NtRp3174
(dp3175
g62
(dp3176
g82
g83
ssg71
g3170
sg64
(lp3177
S'local_hosts'
p3178
asbag57
(g78
g59
NtRp3179
(dp3180
g62
(dp3181
g89
g90
ssg71
g3170
sg64
(lp3182
S':'
asbag57
(g78
g59
NtRp3183
(dp3184
g62
(dp3185
sg71
g3170
sg64
(lp3186
g57
(g58
g59
NtRp3187
(dp3188
g62
(dp3189
g70
I4
ssg71
g3183
sg64
(lp3190
g57
(g66
g59
NtRp3191
(dp3192
g62
(dp3193
g70
I3
ssg71
Nsg64
(lp3194
g57
(g73
g59
NtRp3195
(dp3196
g62
(dp3197
sg71
g3191
sg64
(lp3198
g57
(g78
g59
NtRp3199
(dp3200
g62
(dp3201
sg71
g3195
sg64
(lp3202
g57
(g58
g59
NtRp3203
(dp3204
g62
(dp3205
g70
I3
ssg71
g3199
sg64
(lp3206
S'pankaj-HP-Pavilion-dv4-Notebook-PC'
p3207
asbasbasbag57
(g73
g59
NtRp3208
(dp3209
g62
(dp3210
sg71
g3191
sg64
(lp3211
g57
(g78
g59
NtRp3212
(dp3213
g62
(dp3214
sg71
g3208
sg64
(lp3215
g57
(g58
g59
NtRp3216
(dp3217
g62
(dp3218
g70
I3
ssg71
g3212
sg64
(lp3219
S'::1'
p3220
asbasbasbag57
(g73
g59
NtRp3221
(dp3222
g62
(dp3223
sg71
g3191
sg64
(lp3224
g57
(g78
g59
NtRp3225
(dp3226
g62
(dp3227
sg71
g3221
sg64
(lp3228
g57
(g58
g59
NtRp3229
(dp3230
g62
(dp3231
g70
I3
ssg71
g3225
sg64
(lp3232
S'127.0.1.1'
p3233
asbasbasbag57
(g73
g59
NtRp3234
(dp3235
g62
(dp3236
sg71
g3191
sg64
(lp3237
g57
(g78
g59
NtRp3238
(dp3239
g62
(dp3240
sg71
g3234
sg64
(lp3241
g57
(g58
g59
NtRp3242
(dp3243
g62
(dp3244
g70
I3
ssg71
g3238
sg64
(lp3245
S'::ffff:127.0.0.1'
p3246
asbasbasbag57
(g73
g59
NtRp3247
(dp3248
g62
(dp3249
sg71
g3191
sg64
(lp3250
g57
(g78
g59
NtRp3251
(dp3252
g62
(dp3253
sg71
g3247
sg64
(lp3254
g57
(g58
g59
NtRp3255
(dp3256
g62
(dp3257
g70
I3
ssg71
g3251
sg64
(lp3258
S'127.0.0.1'
p3259
asbasbasbasbasbasbasbag57
(g73
g59
NtRp3260
(dp3261
g62
(dp3262
sg71
g2707
sg64
(lp3263
g57
(g78
g59
NtRp3264
(dp3265
g62
(dp3266
g82
g83
ssg71
g3260
sg64
(lp3267
S'path_info'
p3268
asbag57
(g78
g59
NtRp3269
(dp3270
g62
(dp3271
g89
g90
ssg71
g3260
sg64
(lp3272
S':'
asbag57
(g78
g59
NtRp3273
(dp3274
g62
(dp3275
sg71
g3260
sg64
(lp3276
g57
(g58
g59
NtRp3277
(dp3278
g62
(dp3279
g70
I4
ssg71
g3273
sg64
(lp3280
S'/reddit/default/displaycat'
p3281
asbasbasbag57
(g73
g59
NtRp3282
(dp3283
g62
(dp3284
sg71
g2707
sg64
(lp3285
g57
(g78
g59
NtRp3286
(dp3287
g62
(dp3288
g82
g83
ssg71
g3282
sg64
(lp3289
S'query_string'
p3290
asbag57
(g78
g59
NtRp3291
(dp3292
g62
(dp3293
g89
g90
ssg71
g3282
sg64
(lp3294
S':'
asbag57
(g78
g59
NtRp3295
(dp3296
g62
(dp3297
sg71
g3282
sg64
(lp3298
g57
(g58
g59
NtRp3299
(dp3300
g62
(dp3301
g70
I4
ssg71
g3295
sg64
(lp3302
S''
asbasbasbag57
(g73
g59
NtRp3303
(dp3304
g62
(dp3305
sg71
g2707
sg64
(lp3306
g57
(g78
g59
NtRp3307
(dp3308
g62
(dp3309
g82
g83
ssg71
g3303
sg64
(lp3310
S'remote_addr'
p3311
asbag57
(g78
g59
NtRp3312
(dp3313
g62
(dp3314
g89
g90
ssg71
g3303
sg64
(lp3315
S':'
asbag57
(g78
g59
NtRp3316
(dp3317
g62
(dp3318
sg71
g3303
sg64
(lp3319
g57
(g58
g59
NtRp3320
(dp3321
g62
(dp3322
g70
I4
ssg71
g3316
sg64
(lp3323
g212
asbasbasbag57
(g73
g59
NtRp3324
(dp3325
g62
(dp3326
sg71
g2707
sg64
(lp3327
g57
(g78
g59
NtRp3328
(dp3329
g62
(dp3330
g82
g83
ssg71
g3324
sg64
(lp3331
S'remote_port'
p3332
asbag57
(g78
g59
NtRp3333
(dp3334
g62
(dp3335
g89
g90
ssg71
g3324
sg64
(lp3336
S':'
asbag57
(g78
g59
NtRp3337
(dp3338
g62
(dp3339
sg71
g3324
sg64
(lp3340
g57
(g58
g59
NtRp3341
(dp3342
g62
(dp3343
g70
I4
ssg71
g3337
sg64
(lp3344
S'59071'
p3345
asbasbasbag57
(g73
g59
NtRp3346
(dp3347
g62
(dp3348
sg71
g2707
sg64
(lp3349
g57
(g78
g59
NtRp3350
(dp3351
g62
(dp3352
g82
g83
ssg71
g3346
sg64
(lp3353
S'request_method'
p3354
asbag57
(g78
g59
NtRp3355
(dp3356
g62
(dp3357
g89
g90
ssg71
g3346
sg64
(lp3358
S':'
asbag57
(g78
g59
NtRp3359
(dp3360
g62
(dp3361
sg71
g3346
sg64
(lp3362
g57
(g58
g59
NtRp3363
(dp3364
g62
(dp3365
g70
I4
ssg71
g3359
sg64
(lp3366
S'POST'
p3367
asbasbasbag57
(g73
g59
NtRp3368
(dp3369
g62
(dp3370
sg71
g2707
sg64
(lp3371
g57
(g78
g59
NtRp3372
(dp3373
g62
(dp3374
g82
g83
ssg71
g3368
sg64
(lp3375
S'request_uri'
p3376
asbag57
(g78
g59
NtRp3377
(dp3378
g62
(dp3379
g89
g90
ssg71
g3368
sg64
(lp3380
S':'
asbag57
(g78
g59
NtRp3381
(dp3382
g62
(dp3383
sg71
g3368
sg64
(lp3384
g57
(g58
g59
NtRp3385
(dp3386
g62
(dp3387
g70
I4
ssg71
g3381
sg64
(lp3388
g3281
asbasbasbag57
(g73
g59
NtRp3389
(dp3390
g62
(dp3391
sg71
g2707
sg64
(lp3392
g57
(g78
g59
NtRp3393
(dp3394
g62
(dp3395
g82
g83
ssg71
g3389
sg64
(lp3396
S'script_name'
p3397
asbag57
(g78
g59
NtRp3398
(dp3399
g62
(dp3400
g89
g90
ssg71
g3389
sg64
(lp3401
S':'
asbag57
(g78
g59
NtRp3402
(dp3403
g62
(dp3404
sg71
g3389
sg64
(lp3405
g57
(g58
g59
NtRp3406
(dp3407
g62
(dp3408
g70
I4
ssg71
g3402
sg64
(lp3409
S''
asbasbasbag57
(g73
g59
NtRp3410
(dp3411
g62
(dp3412
sg71
g2707
sg64
(lp3413
g57
(g78
g59
NtRp3414
(dp3415
g62
(dp3416
g82
g83
ssg71
g3410
sg64
(lp3417
S'server_name'
p3418
asbag57
(g78
g59
NtRp3419
(dp3420
g62
(dp3421
g89
g90
ssg71
g3410
sg64
(lp3422
S':'
asbag57
(g78
g59
NtRp3423
(dp3424
g62
(dp3425
sg71
g3410
sg64
(lp3426
g57
(g58
g59
NtRp3427
(dp3428
g62
(dp3429
g70
I4
ssg71
g3423
sg64
(lp3430
S'pankaj-HP-Pavilion-dv4-Notebook-PC'
p3431
asbasbasbag57
(g73
g59
NtRp3432
(dp3433
g62
(dp3434
sg71
g2707
sg64
(lp3435
g57
(g78
g59
NtRp3436
(dp3437
g62
(dp3438
g82
g83
ssg71
g3432
sg64
(lp3439
S'server_port'
p3440
asbag57
(g78
g59
NtRp3441
(dp3442
g62
(dp3443
g89
g90
ssg71
g3432
sg64
(lp3444
S':'
asbag57
(g78
g59
NtRp3445
(dp3446
g62
(dp3447
sg71
g3432
sg64
(lp3448
g57
(g58
g59
NtRp3449
(dp3450
g62
(dp3451
g70
I4
ssg71
g3445
sg64
(lp3452
S'8000'
p3453
asbasbasbag57
(g73
g59
NtRp3454
(dp3455
g62
(dp3456
sg71
g2707
sg64
(lp3457
g57
(g78
g59
NtRp3458
(dp3459
g62
(dp3460
g82
g83
ssg71
g3454
sg64
(lp3461
S'server_protocol'
p3462
asbag57
(g78
g59
NtRp3463
(dp3464
g62
(dp3465
g89
g90
ssg71
g3454
sg64
(lp3466
S':'
asbag57
(g78
g59
NtRp3467
(dp3468
g62
(dp3469
sg71
g3454
sg64
(lp3470
g57
(g58
g59
NtRp3471
(dp3472
g62
(dp3473
g70
I4
ssg71
g3467
sg64
(lp3474
S'HTTP/1.1'
p3475
asbasbasbag57
(g73
g59
NtRp3476
(dp3477
g62
(dp3478
sg71
g2707
sg64
(lp3479
g57
(g78
g59
NtRp3480
(dp3481
g62
(dp3482
g82
g83
ssg71
g3476
sg64
(lp3483
S'server_software'
p3484
asbag57
(g78
g59
NtRp3485
(dp3486
g62
(dp3487
g89
g90
ssg71
g3476
sg64
(lp3488
S':'
asbag57
(g78
g59
NtRp3489
(dp3490
g62
(dp3491
sg71
g3476
sg64
(lp3492
g57
(g58
g59
NtRp3493
(dp3494
g62
(dp3495
g70
I4
ssg71
g3489
sg64
(lp3496
S'Rocket 1.2.6'
p3497
asbasbasbag57
(g73
g59
NtRp3498
(dp3499
g62
(dp3500
sg71
g2707
sg64
(lp3501
g57
(g78
g59
NtRp3502
(dp3503
g62
(dp3504
g82
g83
ssg71
g3498
sg64
(lp3505
S'web2py_path'
p3506
asbag57
(g78
g59
NtRp3507
(dp3508
g62
(dp3509
g89
g90
ssg71
g3498
sg64
(lp3510
S':'
asbag57
(g78
g59
NtRp3511
(dp3512
g62
(dp3513
sg71
g3498
sg64
(lp3514
g57
(g58
g59
NtRp3515
(dp3516
g62
(dp3517
g70
I4
ssg71
g3511
sg64
(lp3518
g2754
asbasbasbag57
(g73
g59
NtRp3519
(dp3520
g62
(dp3521
sg71
g2707
sg64
(lp3522
g57
(g78
g59
NtRp3523
(dp3524
g62
(dp3525
g82
g83
ssg71
g3519
sg64
(lp3526
S'web2py_version'
p3527
asbag57
(g78
g59
NtRp3528
(dp3529
g62
(dp3530
g89
g90
ssg71
g3519
sg64
(lp3531
S':'
asbag57
(g78
g59
NtRp3532
(dp3533
g62
(dp3534
sg71
g3519
sg64
(lp3535
g57
(g58
g59
NtRp3536
(dp3537
g62
(dp3538
g70
I4
ssg71
g3532
sg64
(lp3539
g57
(g66
g59
NtRp3540
(dp3541
g62
(dp3542
g70
I3
ssg71
Nsg64
(lp3543
g57
(g73
g59
NtRp3544
(dp3545
g62
(dp3546
sg71
g3540
sg64
(lp3547
g57
(g78
g59
NtRp3548
(dp3549
g62
(dp3550
sg71
g3544
sg64
(lp3551
g57
(g58
g59
NtRp3552
(dp3553
g62
(dp3554
g70
I3
ssg71
g3548
sg64
(lp3555
S'2'
asbasbasbag57
(g73
g59
NtRp3556
(dp3557
g62
(dp3558
sg71
g3540
sg64
(lp3559
g57
(g78
g59
NtRp3560
(dp3561
g62
(dp3562
sg71
g3556
sg64
(lp3563
g57
(g58
g59
NtRp3564
(dp3565
g62
(dp3566
g70
I3
ssg71
g3560
sg64
(lp3567
S'3'
asbasbasbag57
(g73
g59
NtRp3568
(dp3569
g62
(dp3570
sg71
g3540
sg64
(lp3571
g57
(g78
g59
NtRp3572
(dp3573
g62
(dp3574
sg71
g3568
sg64
(lp3575
g57
(g58
g59
NtRp3576
(dp3577
g62
(dp3578
g70
I3
ssg71
g3572
sg64
(lp3579
S'2'
asbasbasbag57
(g73
g59
NtRp3580
(dp3581
g62
(dp3582
sg71
g3540
sg64
(lp3583
g57
(g78
g59
NtRp3584
(dp3585
g62
(dp3586
sg71
g3580
sg64
(lp3587
g57
(g58
g59
NtRp3588
(dp3589
g62
(dp3590
g70
I3
ssg71
g3584
sg64
(lp3591
S'datetime.datetime(2012, 12, 17, 15, 3, 30)'
p3592
asbasbasbag57
(g73
g59
NtRp3593
(dp3594
g62
(dp3595
sg71
g3540
sg64
(lp3596
g57
(g78
g59
NtRp3597
(dp3598
g62
(dp3599
sg71
g3593
sg64
(lp3600
g57
(g58
g59
NtRp3601
(dp3602
g62
(dp3603
g70
I3
ssg71
g3597
sg64
(lp3604
S'stable'
p3605
asbasbasbasbasbasbasbag57
(g73
g59
NtRp3606
(dp3607
g62
(dp3608
sg71
g2707
sg64
(lp3609
g57
(g78
g59
NtRp3610
(dp3611
g62
(dp3612
g82
g83
ssg71
g3606
sg64
(lp3613
S'wsgi_errors'
p3614
asbag57
(g78
g59
NtRp3615
(dp3616
g62
(dp3617
g89
g90
ssg71
g3606
sg64
(lp3618
S':'
asbag57
(g78
g59
NtRp3619
(dp3620
g62
(dp3621
sg71
g3606
sg64
(lp3622
g57
(g58
g59
NtRp3623
(dp3624
g62
(dp3625
g70
I4
ssg71
g3619
sg64
(lp3626
S"<open file '<stderr>', mode 'w' at 0xb73000d0>"
p3627
asbasbasbag57
(g73
g59
NtRp3628
(dp3629
g62
(dp3630
sg71
g2707
sg64
(lp3631
g57
(g78
g59
NtRp3632
(dp3633
g62
(dp3634
g82
g83
ssg71
g3628
sg64
(lp3635
S'wsgi_file_wrapper'
p3636
asbag57
(g78
g59
NtRp3637
(dp3638
g62
(dp3639
g89
g90
ssg71
g3628
sg64
(lp3640
S':'
asbag57
(g78
g59
NtRp3641
(dp3642
g62
(dp3643
sg71
g3628
sg64
(lp3644
g57
(g58
g59
NtRp3645
(dp3646
g62
(dp3647
g70
I4
ssg71
g3641
sg64
(lp3648
S'<class wsgiref.util.FileWrapper at 0x980905c>'
p3649
asbasbasbag57
(g73
g59
NtRp3650
(dp3651
g62
(dp3652
sg71
g2707
sg64
(lp3653
g57
(g78
g59
NtRp3654
(dp3655
g62
(dp3656
g82
g83
ssg71
g3650
sg64
(lp3657
S'wsgi_input'
p3658
asbag57
(g78
g59
NtRp3659
(dp3660
g62
(dp3661
g89
g90
ssg71
g3650
sg64
(lp3662
S':'
asbag57
(g78
g59
NtRp3663
(dp3664
g62
(dp3665
sg71
g3650
sg64
(lp3666
g57
(g58
g59
NtRp3667
(dp3668
g62
(dp3669
g70
I4
ssg71
g3663
sg64
(lp3670
S'<socket._fileobject object at 0x9ef30ac>'
p3671
asbasbasbag57
(g73
g59
NtRp3672
(dp3673
g62
(dp3674
sg71
g2707
sg64
(lp3675
g57
(g78
g59
NtRp3676
(dp3677
g62
(dp3678
g82
g83
ssg71
g3672
sg64
(lp3679
S'wsgi_multiprocess'
p3680
asbag57
(g78
g59
NtRp3681
(dp3682
g62
(dp3683
g89
g90
ssg71
g3672
sg64
(lp3684
S':'
asbag57
(g78
g59
NtRp3685
(dp3686
g62
(dp3687
sg71
g3672
sg64
(lp3688
g57
(g58
g59
NtRp3689
(dp3690
g62
(dp3691
g70
I4
ssg71
g3685
sg64
(lp3692
g100
asbasbasbag57
(g73
g59
NtRp3693
(dp3694
g62
(dp3695
sg71
g2707
sg64
(lp3696
g57
(g78
g59
NtRp3697
(dp3698
g62
(dp3699
g82
g83
ssg71
g3693
sg64
(lp3700
S'wsgi_multithread'
p3701
asbag57
(g78
g59
NtRp3702
(dp3703
g62
(dp3704
g89
g90
ssg71
g3693
sg64
(lp3705
S':'
asbag57
(g78
g59
NtRp3706
(dp3707
g62
(dp3708
sg71
g3693
sg64
(lp3709
g57
(g58
g59
NtRp3710
(dp3711
g62
(dp3712
g70
I4
ssg71
g3706
sg64
(lp3713
S'True'
p3714
asbasbasbag57
(g73
g59
NtRp3715
(dp3716
g62
(dp3717
sg71
g2707
sg64
(lp3718
g57
(g78
g59
NtRp3719
(dp3720
g62
(dp3721
g82
g83
ssg71
g3715
sg64
(lp3722
S'wsgi_run_once'
p3723
asbag57
(g78
g59
NtRp3724
(dp3725
g62
(dp3726
g89
g90
ssg71
g3715
sg64
(lp3727
S':'
asbag57
(g78
g59
NtRp3728
(dp3729
g62
(dp3730
sg71
g3715
sg64
(lp3731
g57
(g58
g59
NtRp3732
(dp3733
g62
(dp3734
g70
I4
ssg71
g3728
sg64
(lp3735
g100
asbasbasbag57
(g73
g59
NtRp3736
(dp3737
g62
(dp3738
sg71
g2707
sg64
(lp3739
g57
(g78
g59
NtRp3740
(dp3741
g62
(dp3742
g82
g83
ssg71
g3736
sg64
(lp3743
S'wsgi_url_scheme'
p3744
asbag57
(g78
g59
NtRp3745
(dp3746
g62
(dp3747
g89
g90
ssg71
g3736
sg64
(lp3748
S':'
asbag57
(g78
g59
NtRp3749
(dp3750
g62
(dp3751
sg71
g3736
sg64
(lp3752
g57
(g58
g59
NtRp3753
(dp3754
g62
(dp3755
g70
I4
ssg71
g3749
sg64
(lp3756
S'http'
p3757
asbasbasbag57
(g73
g59
NtRp3758
(dp3759
g62
(dp3760
sg71
g2707
sg64
(lp3761
g57
(g78
g59
NtRp3762
(dp3763
g62
(dp3764
g82
g83
ssg71
g3758
sg64
(lp3765
S'wsgi_version'
p3766
asbag57
(g78
g59
NtRp3767
(dp3768
g62
(dp3769
g89
g90
ssg71
g3758
sg64
(lp3770
S':'
asbag57
(g78
g59
NtRp3771
(dp3772
g62
(dp3773
sg71
g3758
sg64
(lp3774
g57
(g58
g59
NtRp3775
(dp3776
g62
(dp3777
g70
I4
ssg71
g3771
sg64
(lp3778
g57
(g66
g59
NtRp3779
(dp3780
g62
(dp3781
g70
I3
ssg71
Nsg64
(lp3782
g57
(g73
g59
NtRp3783
(dp3784
g62
(dp3785
sg71
g3779
sg64
(lp3786
g57
(g78
g59
NtRp3787
(dp3788
g62
(dp3789
sg71
g3783
sg64
(lp3790
g57
(g58
g59
NtRp3791
(dp3792
g62
(dp3793
g70
I3
ssg71
g3787
sg64
(lp3794
S'1'
asbasbasbag57
(g73
g59
NtRp3795
(dp3796
g62
(dp3797
sg71
g3779
sg64
(lp3798
g57
(g78
g59
NtRp3799
(dp3800
g62
(dp3801
sg71
g3795
sg64
(lp3802
g57
(g58
g59
NtRp3803
(dp3804
g62
(dp3805
g70
I3
ssg71
g3799
sg64
(lp3806
S'0'
asbasbasbasbasbasbasbasbasbasbasbag57
(g73
g59
NtRp3807
(dp3808
g62
(dp3809
sg71
g67
sg64
(lp3810
g57
(g78
g59
NtRp3811
(dp3812
g62
(dp3813
g82
g83
ssg71
g3807
sg64
(lp3814
S'extension'
p3815
asbag57
(g78
g59
NtRp3816
(dp3817
g62
(dp3818
g89
g90
ssg71
g3807
sg64
(lp3819
S':'
asbag57
(g78
g59
NtRp3820
(dp3821
g62
(dp3822
sg71
g3807
sg64
(lp3823
g57
(g58
g59
NtRp3824
(dp3825
g62
(dp3826
g70
I5
ssg71
g3820
sg64
(lp3827
S'html'
p3828
asbasbasbag57
(g73
g59
NtRp3829
(dp3830
g62
(dp3831
sg71
g67
sg64
(lp3832
g57
(g78
g59
NtRp3833
(dp3834
g62
(dp3835
g82
g83
ssg71
g3829
sg64
(lp3836
S'folder'
p3837
asbag57
(g78
g59
NtRp3838
(dp3839
g62
(dp3840
g89
g90
ssg71
g3829
sg64
(lp3841
S':'
asbag57
(g78
g59
NtRp3842
(dp3843
g62
(dp3844
sg71
g3829
sg64
(lp3845
g57
(g58
g59
NtRp3846
(dp3847
g62
(dp3848
g70
I5
ssg71
g3842
sg64
(lp3849
S'/home/pankaj/web2py/applications/reddit/'
p3850
asbasbasbag57
(g73
g59
NtRp3851
(dp3852
g62
(dp3853
sg71
g67
sg64
(lp3854
g57
(g78
g59
NtRp3855
(dp3856
g62
(dp3857
g82
g83
ssg71
g3851
sg64
(lp3858
S'function'
p3859
asbag57
(g78
g59
NtRp3860
(dp3861
g62
(dp3862
g89
g90
ssg71
g3851
sg64
(lp3863
S':'
asbag57
(g78
g59
NtRp3864
(dp3865
g62
(dp3866
sg71
g3851
sg64
(lp3867
g57
(g58
g59
NtRp3868
(dp3869
g62
(dp3870
g70
I5
ssg71
g3864
sg64
(lp3871
S'displaycat'
p3872
asbasbasbag57
(g73
g59
NtRp3873
(dp3874
g62
(dp3875
sg71
g67
sg64
(lp3876
g57
(g78
g59
NtRp3877
(dp3878
g62
(dp3879
g82
g83
ssg71
g3873
sg64
(lp3880
S'get_vars'
p3881
asbag57
(g78
g59
NtRp3882
(dp3883
g62
(dp3884
g89
g90
ssg71
g3873
sg64
(lp3885
S':'
asbag57
(g78
g59
NtRp3886
(dp3887
g62
(dp3888
sg71
g3873
sg64
(lp3889
g57
(g58
g59
NtRp3890
(dp3891
g62
(dp3892
g70
I5
ssg71
g3886
sg64
(lp3893
g57
(g66
g59
NtRp3894
(dp3895
g62
(dp3896
g70
I4
ssg71
Nsg64
(lp3897
sbasbasbasbag57
(g73
g59
NtRp3898
(dp3899
g62
(dp3900
sg71
g67
sg64
(lp3901
g57
(g78
g59
NtRp3902
(dp3903
g62
(dp3904
g82
g83
ssg71
g3898
sg64
(lp3905
S'global_settings'
p3906
asbag57
(g78
g59
NtRp3907
(dp3908
g62
(dp3909
g89
g90
ssg71
g3898
sg64
(lp3910
S':'
asbag57
(g78
g59
NtRp3911
(dp3912
g62
(dp3913
sg71
g3898
sg64
(lp3914
g57
(g58
g59
NtRp3915
(dp3916
g62
(dp3917
g70
I5
ssg71
g3911
sg64
(lp3918
g57
(g66
g59
NtRp3919
(dp3920
g62
(dp3921
g70
I4
ssg71
Nsg64
(lp3922
g57
(g73
g59
NtRp3923
(dp3924
g62
(dp3925
sg71
g3919
sg64
(lp3926
g57
(g78
g59
NtRp3927
(dp3928
g62
(dp3929
g82
g83
ssg71
g3923
sg64
(lp3930
g2719
asbag57
(g78
g59
NtRp3931
(dp3932
g62
(dp3933
g89
g90
ssg71
g3923
sg64
(lp3934
S':'
asbag57
(g78
g59
NtRp3935
(dp3936
g62
(dp3937
sg71
g3923
sg64
(lp3938
g57
(g58
g59
NtRp3939
(dp3940
g62
(dp3941
g70
I4
ssg71
g3935
sg64
(lp3942
S"set(['/home/pankaj/web2py/applications/admin/', '/home/pankaj/web2py/applications/welcome/', '/home/pankaj/web2py/applications/reddit/'])"
p3943
asbasbasbag57
(g73
g59
NtRp3944
(dp3945
g62
(dp3946
sg71
g3919
sg64
(lp3947
g57
(g78
g59
NtRp3948
(dp3949
g62
(dp3950
g82
g83
ssg71
g3944
sg64
(lp3951
g2741
asbag57
(g78
g59
NtRp3952
(dp3953
g62
(dp3954
g89
g90
ssg71
g3944
sg64
(lp3955
S':'
asbag57
(g78
g59
NtRp3956
(dp3957
g62
(dp3958
sg71
g3944
sg64
(lp3959
g57
(g58
g59
NtRp3960
(dp3961
g62
(dp3962
g70
I4
ssg71
g3956
sg64
(lp3963
g2754
asbasbasbag57
(g73
g59
NtRp3964
(dp3965
g62
(dp3966
sg71
g3919
sg64
(lp3967
g57
(g78
g59
NtRp3968
(dp3969
g62
(dp3970
g82
g83
ssg71
g3964
sg64
(lp3971
g2763
asbag57
(g78
g59
NtRp3972
(dp3973
g62
(dp3974
g89
g90
ssg71
g3964
sg64
(lp3975
S':'
asbag57
(g78
g59
NtRp3976
(dp3977
g62
(dp3978
sg71
g3964
sg64
(lp3979
g57
(g58
g59
NtRp3980
(dp3981
g62
(dp3982
g70
I4
ssg71
g3976
sg64
(lp3983
g57
(g66
g59
NtRp3984
(dp3985
g62
(dp3986
g70
I3
ssg71
Nsg64
(lp3987
sbasbasbasbag57
(g73
g59
NtRp3988
(dp3989
g62
(dp3990
sg71
g3919
sg64
(lp3991
g57
(g78
g59
NtRp3992
(dp3993
g62
(dp3994
g82
g83
ssg71
g3988
sg64
(lp3995
g2788
asbag57
(g78
g59
NtRp3996
(dp3997
g62
(dp3998
g89
g90
ssg71
g3988
sg64
(lp3999
S':'
asbag57
(g78
g59
NtRp4000
(dp4001
g62
(dp4002
sg71
g3988
sg64
(lp4003
g57
(g58
g59
NtRp4004
(dp4005
g62
(dp4006
g70
I4
ssg71
g4000
sg64
(lp4007
S"<Values at 0x9843dcc: {'verbose': False, 'ip': '127.0.0.1', 'with_scheduler': False, 'ips': [], 'shutdown_timeout': 5, 'taskbar': False, 'port': 8000, 'maxthreads': None, 'softcron': False, 'server_name': 'pankaj-HP-Pavilion-dv4-Notebook-PC', 'bpython': False, 'nogui': False, 'pid_filename': 'httpserver.pid', 'extcron': False, 'runcron': False, 'run_system_tests': False, 'test': None, 'folder': '/home/pankaj/web2py', 'config': '', 'import_models': False, 'winservice': '', 'shell': None, 'run': '', 'log_filename': 'httpserver.log', 'debuglevel': 30, 'args': [''], 'socket_timeout': 5, 'ssl_ca_certificate': None, 'scheduler': None, 'profiler_filename': None, 'ssl_private_key': '', 'scheduler_groups': None, 'password': '<ask>', 'request_queue_size': 5, 'ssl_certificate': '', 'cronjob': False, 'numthreads': None, 'quiet': False, 'interfaces': None, 'minthreads': None, 'timeout': 10, 'plain': False, 'nobanner': False}>"
p4008
asbasbasbag57
(g73
g59
NtRp4009
(dp4010
g62
(dp4011
sg71
g3919
sg64
(lp4012
g57
(g78
g59
NtRp4013
(dp4014
g62
(dp4015
g82
g83
ssg71
g4009
sg64
(lp4016
g2853
asbag57
(g78
g59
NtRp4017
(dp4018
g62
(dp4019
g89
g90
ssg71
g4009
sg64
(lp4020
S':'
asbag57
(g78
g59
NtRp4021
(dp4022
g62
(dp4023
sg71
g4009
sg64
(lp4024
g57
(g58
g59
NtRp4025
(dp4026
g62
(dp4027
g70
I4
ssg71
g4021
sg64
(lp4028
S'set([])'
p4029
asbasbasbag57
(g73
g59
NtRp4030
(dp4031
g62
(dp4032
sg71
g3919
sg64
(lp4033
g57
(g78
g59
NtRp4034
(dp4035
g62
(dp4036
g82
g83
ssg71
g4030
sg64
(lp4037
g2875
asbag57
(g78
g59
NtRp4038
(dp4039
g62
(dp4040
g89
g90
ssg71
g4030
sg64
(lp4041
S':'
asbag57
(g78
g59
NtRp4042
(dp4043
g62
(dp4044
sg71
g4030
sg64
(lp4045
g57
(g58
g59
NtRp4046
(dp4047
g62
(dp4048
g70
I4
ssg71
g4042
sg64
(lp4049
g100
asbasbasbag57
(g73
g59
NtRp4050
(dp4051
g62
(dp4052
sg71
g3919
sg64
(lp4053
g57
(g78
g59
NtRp4054
(dp4055
g62
(dp4056
g82
g83
ssg71
g4050
sg64
(lp4057
g2896
asbag57
(g78
g59
NtRp4058
(dp4059
g62
(dp4060
g89
g90
ssg71
g4050
sg64
(lp4061
S':'
asbag57
(g78
g59
NtRp4062
(dp4063
g62
(dp4064
sg71
g4050
sg64
(lp4065
g57
(g58
g59
NtRp4066
(dp4067
g62
(dp4068
g70
I4
ssg71
g4062
sg64
(lp4069
g2909
asbasbasbag57
(g73
g59
NtRp4070
(dp4071
g62
(dp4072
sg71
g3919
sg64
(lp4073
g57
(g78
g59
NtRp4074
(dp4075
g62
(dp4076
g82
g83
ssg71
g4070
sg64
(lp4077
g3136
asbag57
(g78
g59
NtRp4078
(dp4079
g62
(dp4080
g89
g90
ssg71
g4070
sg64
(lp4081
S':'
asbag57
(g78
g59
NtRp4082
(dp4083
g62
(dp4084
sg71
g4070
sg64
(lp4085
g57
(g58
g59
NtRp4086
(dp4087
g62
(dp4088
g70
I4
ssg71
g4082
sg64
(lp4089
g100
asbasbasbag57
(g73
g59
NtRp4090
(dp4091
g62
(dp4092
sg71
g3919
sg64
(lp4093
g57
(g78
g59
NtRp4094
(dp4095
g62
(dp4096
g82
g83
ssg71
g4090
sg64
(lp4097
g3157
asbag57
(g78
g59
NtRp4098
(dp4099
g62
(dp4100
g89
g90
ssg71
g4090
sg64
(lp4101
S':'
asbag57
(g78
g59
NtRp4102
(dp4103
g62
(dp4104
sg71
g4090
sg64
(lp4105
g57
(g58
g59
NtRp4106
(dp4107
g62
(dp4108
g70
I4
ssg71
g4102
sg64
(lp4109
g100
asbasbasbag57
(g73
g59
NtRp4110
(dp4111
g62
(dp4112
sg71
g3919
sg64
(lp4113
g57
(g78
g59
NtRp4114
(dp4115
g62
(dp4116
g82
g83
ssg71
g4110
sg64
(lp4117
g3178
asbag57
(g78
g59
NtRp4118
(dp4119
g62
(dp4120
g89
g90
ssg71
g4110
sg64
(lp4121
S':'
asbag57
(g78
g59
NtRp4122
(dp4123
g62
(dp4124
sg71
g4110
sg64
(lp4125
g57
(g58
g59
NtRp4126
(dp4127
g62
(dp4128
g70
I4
ssg71
g4122
sg64
(lp4129
g57
(g66
g59
NtRp4130
(dp4131
g62
(dp4132
g70
I3
ssg71
Nsg64
(lp4133
g57
(g73
g59
NtRp4134
(dp4135
g62
(dp4136
sg71
g4130
sg64
(lp4137
g57
(g78
g59
NtRp4138
(dp4139
g62
(dp4140
sg71
g4134
sg64
(lp4141
g57
(g58
g59
NtRp4142
(dp4143
g62
(dp4144
g70
I3
ssg71
g4138
sg64
(lp4145
g3207
asbasbasbag57
(g73
g59
NtRp4146
(dp4147
g62
(dp4148
sg71
g4130
sg64
(lp4149
g57
(g78
g59
NtRp4150
(dp4151
g62
(dp4152
sg71
g4146
sg64
(lp4153
g57
(g58
g59
NtRp4154
(dp4155
g62
(dp4156
g70
I3
ssg71
g4150
sg64
(lp4157
g3220
asbasbasbag57
(g73
g59
NtRp4158
(dp4159
g62
(dp4160
sg71
g4130
sg64
(lp4161
g57
(g78
g59
NtRp4162
(dp4163
g62
(dp4164
sg71
g4158
sg64
(lp4165
g57
(g58
g59
NtRp4166
(dp4167
g62
(dp4168
g70
I3
ssg71
g4162
sg64
(lp4169
g3233
asbasbasbag57
(g73
g59
NtRp4170
(dp4171
g62
(dp4172
sg71
g4130
sg64
(lp4173
g57
(g78
g59
NtRp4174
(dp4175
g62
(dp4176
sg71
g4170
sg64
(lp4177
g57
(g58
g59
NtRp4178
(dp4179
g62
(dp4180
g70
I3
ssg71
g4174
sg64
(lp4181
g3246
asbasbasbag57
(g73
g59
NtRp4182
(dp4183
g62
(dp4184
sg71
g4130
sg64
(lp4185
g57
(g78
g59
NtRp4186
(dp4187
g62
(dp4188
sg71
g4182
sg64
(lp4189
g57
(g58
g59
NtRp4190
(dp4191
g62
(dp4192
g70
I3
ssg71
g4186
sg64
(lp4193
g3259
asbasbasbasbasbasbasbag57
(g73
g59
NtRp4194
(dp4195
g62
(dp4196
sg71
g3919
sg64
(lp4197
g57
(g78
g59
NtRp4198
(dp4199
g62
(dp4200
g82
g83
ssg71
g4194
sg64
(lp4201
g3527
asbag57
(g78
g59
NtRp4202
(dp4203
g62
(dp4204
g89
g90
ssg71
g4194
sg64
(lp4205
S':'
asbag57
(g78
g59
NtRp4206
(dp4207
g62
(dp4208
sg71
g4194
sg64
(lp4209
g57
(g58
g59
NtRp4210
(dp4211
g62
(dp4212
g70
I4
ssg71
g4206
sg64
(lp4213
g57
(g66
g59
NtRp4214
(dp4215
g62
(dp4216
g70
I3
ssg71
Nsg64
(lp4217
g57
(g73
g59
NtRp4218
(dp4219
g62
(dp4220
sg71
g4214
sg64
(lp4221
g57
(g78
g59
NtRp4222
(dp4223
g62
(dp4224
sg71
g4218
sg64
(lp4225
g57
(g58
g59
NtRp4226
(dp4227
g62
(dp4228
g70
I3
ssg71
g4222
sg64
(lp4229
S'2'
asbasbasbag57
(g73
g59
NtRp4230
(dp4231
g62
(dp4232
sg71
g4214
sg64
(lp4233
g57
(g78
g59
NtRp4234
(dp4235
g62
(dp4236
sg71
g4230
sg64
(lp4237
g57
(g58
g59
NtRp4238
(dp4239
g62
(dp4240
g70
I3
ssg71
g4234
sg64
(lp4241
S'3'
asbasbasbag57
(g73
g59
NtRp4242
(dp4243
g62
(dp4244
sg71
g4214
sg64
(lp4245
g57
(g78
g59
NtRp4246
(dp4247
g62
(dp4248
sg71
g4242
sg64
(lp4249
g57
(g58
g59
NtRp4250
(dp4251
g62
(dp4252
g70
I3
ssg71
g4246
sg64
(lp4253
S'2'
asbasbasbag57
(g73
g59
NtRp4254
(dp4255
g62
(dp4256
sg71
g4214
sg64
(lp4257
g57
(g78
g59
NtRp4258
(dp4259
g62
(dp4260
sg71
g4254
sg64
(lp4261
g57
(g58
g59
NtRp4262
(dp4263
g62
(dp4264
g70
I3
ssg71
g4258
sg64
(lp4265
S'datetime.datetime(2012, 12, 17, 15, 3, 30)'
p4266
asbasbasbag57
(g73
g59
NtRp4267
(dp4268
g62
(dp4269
sg71
g4214
sg64
(lp4270
g57
(g78
g59
NtRp4271
(dp4272
g62
(dp4273
sg71
g4267
sg64
(lp4274
g57
(g58
g59
NtRp4275
(dp4276
g62
(dp4277
g70
I3
ssg71
g4271
sg64
(lp4278
g3605
asbasbasbasbasbasbasbasbasbasbasbag57
(g73
g59
NtRp4279
(dp4280
g62
(dp4281
sg71
g67
sg64
(lp4282
g57
(g78
g59
NtRp4283
(dp4284
g62
(dp4285
g82
g83
ssg71
g4279
sg64
(lp4286
S'is_https'
p4287
asbag57
(g78
g59
NtRp4288
(dp4289
g62
(dp4290
g89
g90
ssg71
g4279
sg64
(lp4291
S':'
asbag57
(g78
g59
NtRp4292
(dp4293
g62
(dp4294
sg71
g4279
sg64
(lp4295
g57
(g58
g59
NtRp4296
(dp4297
g62
(dp4298
g70
I5
ssg71
g4292
sg64
(lp4299
g100
asbasbasbag57
(g73
g59
NtRp4300
(dp4301
g62
(dp4302
sg71
g67
sg64
(lp4303
g57
(g78
g59
NtRp4304
(dp4305
g62
(dp4306
g82
g83
ssg71
g4300
sg64
(lp4307
S'is_local'
p4308
asbag57
(g78
g59
NtRp4309
(dp4310
g62
(dp4311
g89
g90
ssg71
g4300
sg64
(lp4312
S':'
asbag57
(g78
g59
NtRp4313
(dp4314
g62
(dp4315
sg71
g4300
sg64
(lp4316
g57
(g58
g59
NtRp4317
(dp4318
g62
(dp4319
g70
I5
ssg71
g4313
sg64
(lp4320
g3714
asbasbasbag57
(g73
g59
NtRp4321
(dp4322
g62
(dp4323
sg71
g67
sg64
(lp4324
g57
(g78
g59
NtRp4325
(dp4326
g62
(dp4327
g82
g83
ssg71
g4321
sg64
(lp4328
S'is_restful'
p4329
asbag57
(g78
g59
NtRp4330
(dp4331
g62
(dp4332
g89
g90
ssg71
g4321
sg64
(lp4333
S':'
asbag57
(g78
g59
NtRp4334
(dp4335
g62
(dp4336
sg71
g4321
sg64
(lp4337
g57
(g58
g59
NtRp4338
(dp4339
g62
(dp4340
g70
I5
ssg71
g4334
sg64
(lp4341
g100
asbasbasbag57
(g73
g59
NtRp4342
(dp4343
g62
(dp4344
sg71
g67
sg64
(lp4345
g57
(g78
g59
NtRp4346
(dp4347
g62
(dp4348
g82
g83
ssg71
g4342
sg64
(lp4349
S'now'
p4350
asbag57
(g78
g59
NtRp4351
(dp4352
g62
(dp4353
g89
g90
ssg71
g4342
sg64
(lp4354
S':'
asbag57
(g78
g59
NtRp4355
(dp4356
g62
(dp4357
sg71
g4342
sg64
(lp4358
g57
(g58
g59
NtRp4359
(dp4360
g62
(dp4361
g70
I5
ssg71
g4355
sg64
(lp4362
S'datetime.datetime(2013, 8, 30, 2, 13, 54, 643062)'
p4363
asbasbasbag57
(g73
g59
NtRp4364
(dp4365
g62
(dp4366
sg71
g67
sg64
(lp4367
g57
(g78
g59
NtRp4368
(dp4369
g62
(dp4370
g82
g83
ssg71
g4364
sg64
(lp4371
S'post_vars'
p4372
asbag57
(g78
g59
NtRp4373
(dp4374
g62
(dp4375
g89
g90
ssg71
g4364
sg64
(lp4376
S':'
asbag57
(g78
g59
NtRp4377
(dp4378
g62
(dp4379
sg71
g4364
sg64
(lp4380
g57
(g58
g59
NtRp4381
(dp4382
g62
(dp4383
g70
I5
ssg71
g4377
sg64
(lp4384
g57
(g66
g59
NtRp4385
(dp4386
g62
(dp4387
g70
I4
ssg71
Nsg64
(lp4388
g57
(g73
g59
NtRp4389
(dp4390
g62
(dp4391
sg71
g4385
sg64
(lp4392
g57
(g78
g59
NtRp4393
(dp4394
g62
(dp4395
g82
g83
ssg71
g4389
sg64
(lp4396
S'catid'
p4397
asbag57
(g78
g59
NtRp4398
(dp4399
g62
(dp4400
g89
g90
ssg71
g4389
sg64
(lp4401
S':'
asbag57
(g78
g59
NtRp4402
(dp4403
g62
(dp4404
sg71
g4389
sg64
(lp4405
g57
(g58
g59
NtRp4406
(dp4407
g62
(dp4408
g70
I4
ssg71
g4402
sg64
(lp4409
S'2'
asbasbasbasbasbasbasbag57
(g73
g59
NtRp4410
(dp4411
g62
(dp4412
sg71
g67
sg64
(lp4413
g57
(g78
g59
NtRp4414
(dp4415
g62
(dp4416
g82
g83
ssg71
g4410
sg64
(lp4417
S'raw_args'
p4418
asbag57
(g78
g59
NtRp4419
(dp4420
g62
(dp4421
g89
g90
ssg71
g4410
sg64
(lp4422
S':'
asbag57
(g78
g59
NtRp4423
(dp4424
g62
(dp4425
sg71
g4410
sg64
(lp4426
g57
(g58
g59
NtRp4427
(dp4428
g62
(dp4429
g70
I5
ssg71
g4423
sg64
(lp4430
S''
asbasbasbag57
(g73
g59
NtRp4431
(dp4432
g62
(dp4433
sg71
g67
sg64
(lp4434
g57
(g78
g59
NtRp4435
(dp4436
g62
(dp4437
g82
g83
ssg71
g4431
sg64
(lp4438
S'raw_extension'
p4439
asbag57
(g78
g59
NtRp4440
(dp4441
g62
(dp4442
g89
g90
ssg71
g4431
sg64
(lp4443
S':'
asbag57
(g78
g59
NtRp4444
(dp4445
g62
(dp4446
sg71
g4431
sg64
(lp4447
g57
(g58
g59
NtRp4448
(dp4449
g62
(dp4450
g70
I5
ssg71
g4444
sg64
(lp4451
S'None'
p4452
asbasbasbag57
(g73
g59
NtRp4453
(dp4454
g62
(dp4455
sg71
g67
sg64
(lp4456
g57
(g78
g59
NtRp4457
(dp4458
g62
(dp4459
g82
g83
ssg71
g4453
sg64
(lp4460
S'url'
p4461
asbag57
(g78
g59
NtRp4462
(dp4463
g62
(dp4464
g89
g90
ssg71
g4453
sg64
(lp4465
S':'
asbag57
(g78
g59
NtRp4466
(dp4467
g62
(dp4468
sg71
g4453
sg64
(lp4469
g57
(g58
g59
NtRp4470
(dp4471
g62
(dp4472
g70
I5
ssg71
g4466
sg64
(lp4473
g3281
asbasbasbag57
(g73
g59
NtRp4474
(dp4475
g62
(dp4476
sg71
g67
sg64
(lp4477
g57
(g78
g59
NtRp4478
(dp4479
g62
(dp4480
g82
g83
ssg71
g4474
sg64
(lp4481
S'utcnow'
p4482
asbag57
(g78
g59
NtRp4483
(dp4484
g62
(dp4485
g89
g90
ssg71
g4474
sg64
(lp4486
S':'
asbag57
(g78
g59
NtRp4487
(dp4488
g62
(dp4489
sg71
g4474
sg64
(lp4490
g57
(g58
g59
NtRp4491
(dp4492
g62
(dp4493
g70
I5
ssg71
g4487
sg64
(lp4494
S'datetime.datetime(2013, 8, 29, 20, 43, 54, 643102)'
p4495
asbasbasbag57
(g73
g59
NtRp4496
(dp4497
g62
(dp4498
sg71
g67
sg64
(lp4499
g57
(g78
g59
NtRp4500
(dp4501
g62
(dp4502
g82
g83
ssg71
g4496
sg64
(lp4503
S'uuid'
p4504
asbag57
(g78
g59
NtRp4505
(dp4506
g62
(dp4507
g89
g90
ssg71
g4496
sg64
(lp4508
S':'
asbag57
(g78
g59
NtRp4509
(dp4510
g62
(dp4511
sg71
g4496
sg64
(lp4512
g57
(g58
g59
NtRp4513
(dp4514
g62
(dp4515
g70
I5
ssg71
g4509
sg64
(lp4516
S'reddit/127.0.0.1.2013-08-30.02-13-54.85fa8502-f565-4eef-9bb7-08f640be26b3'
p4517
asbasbasbag57
(g73
g59
NtRp4518
(dp4519
g62
(dp4520
sg71
g67
sg64
(lp4521
g57
(g78
g59
NtRp4522
(dp4523
g62
(dp4524
g82
g83
ssg71
g4518
sg64
(lp4525
S'vars'
p4526
asbag57
(g78
g59
NtRp4527
(dp4528
g62
(dp4529
g89
g90
ssg71
g4518
sg64
(lp4530
S':'
asbag57
(g78
g59
NtRp4531
(dp4532
g62
(dp4533
sg71
g4518
sg64
(lp4534
g57
(g58
g59
NtRp4535
(dp4536
g62
(dp4537
g70
I5
ssg71
g4531
sg64
(lp4538
g57
(g66
g59
NtRp4539
(dp4540
g62
(dp4541
g70
I4
ssg71
Nsg64
(lp4542
g57
(g73
g59
NtRp4543
(dp4544
g62
(dp4545
sg71
g4539
sg64
(lp4546
g57
(g78
g59
NtRp4547
(dp4548
g62
(dp4549
g82
g83
ssg71
g4543
sg64
(lp4550
g4397
asbag57
(g78
g59
NtRp4551
(dp4552
g62
(dp4553
g89
g90
ssg71
g4543
sg64
(lp4554
S':'
asbag57
(g78
g59
NtRp4555
(dp4556
g62
(dp4557
sg71
g4543
sg64
(lp4558
g57
(g58
g59
NtRp4559
(dp4560
g62
(dp4561
g70
I4
ssg71
g4555
sg64
(lp4562
S'2'
asbasbasbasbasbasbasbag57
(g73
g59
NtRp4563
(dp4564
g62
(dp4565
sg71
g67
sg64
(lp4566
g57
(g78
g59
NtRp4567
(dp4568
g62
(dp4569
g82
g83
ssg71
g4563
sg64
(lp4570
S'wsgi'
p4571
asbag57
(g78
g59
NtRp4572
(dp4573
g62
(dp4574
g89
g90
ssg71
g4563
sg64
(lp4575
S':'
asbag57
(g78
g59
NtRp4576
(dp4577
g62
(dp4578
sg71
g4563
sg64
(lp4579
g57
(g58
g59
NtRp4580
(dp4581
g62
(dp4582
g70
I5
ssg71
g4576
sg64
(lp4583
g57
(g66
g59
NtRp4584
(dp4585
g62
(dp4586
g70
I4
ssg71
Nsg64
(lp4587
g57
(g73
g59
NtRp4588
(dp4589
g62
(dp4590
sg71
g4584
sg64
(lp4591
g57
(g78
g59
NtRp4592
(dp4593
g62
(dp4594
g82
g83
ssg71
g4588
sg64
(lp4595
S'environ'
p4596
asbag57
(g78
g59
NtRp4597
(dp4598
g62
(dp4599
g89
g90
ssg71
g4588
sg64
(lp4600
S':'
asbag57
(g78
g59
NtRp4601
(dp4602
g62
(dp4603
sg71
g4588
sg64
(lp4604
g57
(g58
g59
NtRp4605
(dp4606
g62
(dp4607
g70
I4
ssg71
g4601
sg64
(lp4608
g57
(g66
g59
NtRp4609
(dp4610
g62
(dp4611
g70
I3
ssg71
Nsg64
(lp4612
g57
(g73
g59
NtRp4613
(dp4614
g62
(dp4615
sg71
g4609
sg64
(lp4616
g57
(g78
g59
NtRp4617
(dp4618
g62
(dp4619
g82
g83
ssg71
g4613
sg64
(lp4620
S'CONTENT_LENGTH'
p4621
asbag57
(g78
g59
NtRp4622
(dp4623
g62
(dp4624
g89
g90
ssg71
g4613
sg64
(lp4625
S':'
asbag57
(g78
g59
NtRp4626
(dp4627
g62
(dp4628
sg71
g4613
sg64
(lp4629
g57
(g58
g59
NtRp4630
(dp4631
g62
(dp4632
g70
I3
ssg71
g4626
sg64
(lp4633
S'7'
asbasbasbag57
(g73
g59
NtRp4634
(dp4635
g62
(dp4636
sg71
g4609
sg64
(lp4637
g57
(g78
g59
NtRp4638
(dp4639
g62
(dp4640
g82
g83
ssg71
g4634
sg64
(lp4641
S'CONTENT_TYPE'
p4642
asbag57
(g78
g59
NtRp4643
(dp4644
g62
(dp4645
g89
g90
ssg71
g4634
sg64
(lp4646
S':'
asbag57
(g78
g59
NtRp4647
(dp4648
g62
(dp4649
sg71
g4634
sg64
(lp4650
g57
(g58
g59
NtRp4651
(dp4652
g62
(dp4653
g70
I3
ssg71
g4647
sg64
(lp4654
g2844
asbasbasbag57
(g73
g59
NtRp4655
(dp4656
g62
(dp4657
sg71
g4609
sg64
(lp4658
g57
(g78
g59
NtRp4659
(dp4660
g62
(dp4661
g82
g83
ssg71
g4655
sg64
(lp4662
S'HTTP_ACCEPT'
p4663
asbag57
(g78
g59
NtRp4664
(dp4665
g62
(dp4666
g89
g90
ssg71
g4655
sg64
(lp4667
S':'
asbag57
(g78
g59
NtRp4668
(dp4669
g62
(dp4670
sg71
g4655
sg64
(lp4671
g57
(g58
g59
NtRp4672
(dp4673
g62
(dp4674
g70
I3
ssg71
g4668
sg64
(lp4675
g2931
asbasbasbag57
(g73
g59
NtRp4676
(dp4677
g62
(dp4678
sg71
g4609
sg64
(lp4679
g57
(g78
g59
NtRp4680
(dp4681
g62
(dp4682
g82
g83
ssg71
g4676
sg64
(lp4683
S'HTTP_ACCEPT_ENCODING'
p4684
asbag57
(g78
g59
NtRp4685
(dp4686
g62
(dp4687
g89
g90
ssg71
g4676
sg64
(lp4688
S':'
asbag57
(g78
g59
NtRp4689
(dp4690
g62
(dp4691
sg71
g4676
sg64
(lp4692
g57
(g58
g59
NtRp4693
(dp4694
g62
(dp4695
g70
I3
ssg71
g4689
sg64
(lp4696
g2953
asbasbasbag57
(g73
g59
NtRp4697
(dp4698
g62
(dp4699
sg71
g4609
sg64
(lp4700
g57
(g78
g59
NtRp4701
(dp4702
g62
(dp4703
g82
g83
ssg71
g4697
sg64
(lp4704
S'HTTP_ACCEPT_LANGUAGE'
p4705
asbag57
(g78
g59
NtRp4706
(dp4707
g62
(dp4708
g89
g90
ssg71
g4697
sg64
(lp4709
S':'
asbag57
(g78
g59
NtRp4710
(dp4711
g62
(dp4712
sg71
g4697
sg64
(lp4713
g57
(g58
g59
NtRp4714
(dp4715
g62
(dp4716
g70
I3
ssg71
g4710
sg64
(lp4717
g2975
asbasbasbag57
(g73
g59
NtRp4718
(dp4719
g62
(dp4720
sg71
g4609
sg64
(lp4721
g57
(g78
g59
NtRp4722
(dp4723
g62
(dp4724
g82
g83
ssg71
g4718
sg64
(lp4725
S'HTTP_CONNECTION'
p4726
asbag57
(g78
g59
NtRp4727
(dp4728
g62
(dp4729
g89
g90
ssg71
g4718
sg64
(lp4730
S':'
asbag57
(g78
g59
NtRp4731
(dp4732
g62
(dp4733
sg71
g4718
sg64
(lp4734
g57
(g58
g59
NtRp4735
(dp4736
g62
(dp4737
g70
I3
ssg71
g4731
sg64
(lp4738
g2997
asbasbasbag57
(g73
g59
NtRp4739
(dp4740
g62
(dp4741
sg71
g4609
sg64
(lp4742
g57
(g78
g59
NtRp4743
(dp4744
g62
(dp4745
g82
g83
ssg71
g4739
sg64
(lp4746
S'HTTP_CONTENT_LENGTH'
p4747
asbag57
(g78
g59
NtRp4748
(dp4749
g62
(dp4750
g89
g90
ssg71
g4739
sg64
(lp4751
S':'
asbag57
(g78
g59
NtRp4752
(dp4753
g62
(dp4754
sg71
g4739
sg64
(lp4755
g57
(g58
g59
NtRp4756
(dp4757
g62
(dp4758
g70
I3
ssg71
g4752
sg64
(lp4759
S'7'
asbasbasbag57
(g73
g59
NtRp4760
(dp4761
g62
(dp4762
sg71
g4609
sg64
(lp4763
g57
(g78
g59
NtRp4764
(dp4765
g62
(dp4766
g82
g83
ssg71
g4760
sg64
(lp4767
S'HTTP_CONTENT_TYPE'
p4768
asbag57
(g78
g59
NtRp4769
(dp4770
g62
(dp4771
g89
g90
ssg71
g4760
sg64
(lp4772
S':'
asbag57
(g78
g59
NtRp4773
(dp4774
g62
(dp4775
sg71
g4760
sg64
(lp4776
g57
(g58
g59
NtRp4777
(dp4778
g62
(dp4779
g70
I3
ssg71
g4773
sg64
(lp4780
g2844
asbasbasbag57
(g73
g59
NtRp4781
(dp4782
g62
(dp4783
sg71
g4609
sg64
(lp4784
g57
(g78
g59
NtRp4785
(dp4786
g62
(dp4787
g82
g83
ssg71
g4781
sg64
(lp4788
S'HTTP_COOKIE'
p4789
asbag57
(g78
g59
NtRp4790
(dp4791
g62
(dp4792
g89
g90
ssg71
g4781
sg64
(lp4793
S':'
asbag57
(g78
g59
NtRp4794
(dp4795
g62
(dp4796
sg71
g4781
sg64
(lp4797
g57
(g58
g59
NtRp4798
(dp4799
g62
(dp4800
g70
I3
ssg71
g4794
sg64
(lp4801
g3061
asbasbasbag57
(g73
g59
NtRp4802
(dp4803
g62
(dp4804
sg71
g4609
sg64
(lp4805
g57
(g78
g59
NtRp4806
(dp4807
g62
(dp4808
g82
g83
ssg71
g4802
sg64
(lp4809
S'HTTP_HOST'
p4810
asbag57
(g78
g59
NtRp4811
(dp4812
g62
(dp4813
g89
g90
ssg71
g4802
sg64
(lp4814
S':'
asbag57
(g78
g59
NtRp4815
(dp4816
g62
(dp4817
sg71
g4802
sg64
(lp4818
g57
(g58
g59
NtRp4819
(dp4820
g62
(dp4821
g70
I3
ssg71
g4815
sg64
(lp4822
g3083
asbasbasbag57
(g73
g59
NtRp4823
(dp4824
g62
(dp4825
sg71
g4609
sg64
(lp4826
g57
(g78
g59
NtRp4827
(dp4828
g62
(dp4829
g82
g83
ssg71
g4823
sg64
(lp4830
S'HTTP_REFERER'
p4831
asbag57
(g78
g59
NtRp4832
(dp4833
g62
(dp4834
g89
g90
ssg71
g4823
sg64
(lp4835
S':'
asbag57
(g78
g59
NtRp4836
(dp4837
g62
(dp4838
sg71
g4823
sg64
(lp4839
g57
(g58
g59
NtRp4840
(dp4841
g62
(dp4842
g70
I3
ssg71
g4836
sg64
(lp4843
g3105
asbasbasbag57
(g73
g59
NtRp4844
(dp4845
g62
(dp4846
sg71
g4609
sg64
(lp4847
g57
(g78
g59
NtRp4848
(dp4849
g62
(dp4850
g82
g83
ssg71
g4844
sg64
(lp4851
S'HTTP_USER_AGENT'
p4852
asbag57
(g78
g59
NtRp4853
(dp4854
g62
(dp4855
g89
g90
ssg71
g4844
sg64
(lp4856
S':'
asbag57
(g78
g59
NtRp4857
(dp4858
g62
(dp4859
sg71
g4844
sg64
(lp4860
g57
(g58
g59
NtRp4861
(dp4862
g62
(dp4863
g70
I3
ssg71
g4857
sg64
(lp4864
g3127
asbasbasbag57
(g73
g59
NtRp4865
(dp4866
g62
(dp4867
sg71
g4609
sg64
(lp4868
g57
(g78
g59
NtRp4869
(dp4870
g62
(dp4871
g82
g83
ssg71
g4865
sg64
(lp4872
S'PATH_INFO'
p4873
asbag57
(g78
g59
NtRp4874
(dp4875
g62
(dp4876
g89
g90
ssg71
g4865
sg64
(lp4877
S':'
asbag57
(g78
g59
NtRp4878
(dp4879
g62
(dp4880
sg71
g4865
sg64
(lp4881
g57
(g58
g59
NtRp4882
(dp4883
g62
(dp4884
g70
I3
ssg71
g4878
sg64
(lp4885
g3281
asbasbasbag57
(g73
g59
NtRp4886
(dp4887
g62
(dp4888
sg71
g4609
sg64
(lp4889
g57
(g78
g59
NtRp4890
(dp4891
g62
(dp4892
g82
g83
ssg71
g4886
sg64
(lp4893
S'QUERY_STRING'
p4894
asbag57
(g78
g59
NtRp4895
(dp4896
g62
(dp4897
g89
g90
ssg71
g4886
sg64
(lp4898
S':'
asbag57
(g78
g59
NtRp4899
(dp4900
g62
(dp4901
sg71
g4886
sg64
(lp4902
g57
(g58
g59
NtRp4903
(dp4904
g62
(dp4905
g70
I3
ssg71
g4899
sg64
(lp4906
S''
asbasbasbag57
(g73
g59
NtRp4907
(dp4908
g62
(dp4909
sg71
g4609
sg64
(lp4910
g57
(g78
g59
NtRp4911
(dp4912
g62
(dp4913
g82
g83
ssg71
g4907
sg64
(lp4914
S'REMOTE_ADDR'
p4915
asbag57
(g78
g59
NtRp4916
(dp4917
g62
(dp4918
g89
g90
ssg71
g4907
sg64
(lp4919
S':'
asbag57
(g78
g59
NtRp4920
(dp4921
g62
(dp4922
sg71
g4907
sg64
(lp4923
g57
(g58
g59
NtRp4924
(dp4925
g62
(dp4926
g70
I3
ssg71
g4920
sg64
(lp4927
g212
asbasbasbag57
(g73
g59
NtRp4928
(dp4929
g62
(dp4930
sg71
g4609
sg64
(lp4931
g57
(g78
g59
NtRp4932
(dp4933
g62
(dp4934
g82
g83
ssg71
g4928
sg64
(lp4935
S'REMOTE_PORT'
p4936
asbag57
(g78
g59
NtRp4937
(dp4938
g62
(dp4939
g89
g90
ssg71
g4928
sg64
(lp4940
S':'
asbag57
(g78
g59
NtRp4941
(dp4942
g62
(dp4943
sg71
g4928
sg64
(lp4944
g57
(g58
g59
NtRp4945
(dp4946
g62
(dp4947
g70
I3
ssg71
g4941
sg64
(lp4948
g3345
asbasbasbag57
(g73
g59
NtRp4949
(dp4950
g62
(dp4951
sg71
g4609
sg64
(lp4952
g57
(g78
g59
NtRp4953
(dp4954
g62
(dp4955
g82
g83
ssg71
g4949
sg64
(lp4956
S'REQUEST_METHOD'
p4957
asbag57
(g78
g59
NtRp4958
(dp4959
g62
(dp4960
g89
g90
ssg71
g4949
sg64
(lp4961
S':'
asbag57
(g78
g59
NtRp4962
(dp4963
g62
(dp4964
sg71
g4949
sg64
(lp4965
g57
(g58
g59
NtRp4966
(dp4967
g62
(dp4968
g70
I3
ssg71
g4962
sg64
(lp4969
g3367
asbasbasbag57
(g73
g59
NtRp4970
(dp4971
g62
(dp4972
sg71
g4609
sg64
(lp4973
g57
(g78
g59
NtRp4974
(dp4975
g62
(dp4976
g82
g83
ssg71
g4970
sg64
(lp4977
S'REQUEST_URI'
p4978
asbag57
(g78
g59
NtRp4979
(dp4980
g62
(dp4981
g89
g90
ssg71
g4970
sg64
(lp4982
S':'
asbag57
(g78
g59
NtRp4983
(dp4984
g62
(dp4985
sg71
g4970
sg64
(lp4986
g57
(g58
g59
NtRp4987
(dp4988
g62
(dp4989
g70
I3
ssg71
g4983
sg64
(lp4990
g3281
asbasbasbag57
(g73
g59
NtRp4991
(dp4992
g62
(dp4993
sg71
g4609
sg64
(lp4994
g57
(g78
g59
NtRp4995
(dp4996
g62
(dp4997
g82
g83
ssg71
g4991
sg64
(lp4998
S'SCRIPT_NAME'
p4999
asbag57
(g78
g59
NtRp5000
(dp5001
g62
(dp5002
g89
g90
ssg71
g4991
sg64
(lp5003
S':'
asbag57
(g78
g59
NtRp5004
(dp5005
g62
(dp5006
sg71
g4991
sg64
(lp5007
g57
(g58
g59
NtRp5008
(dp5009
g62
(dp5010
g70
I3
ssg71
g5004
sg64
(lp5011
S''
asbasbasbag57
(g73
g59
NtRp5012
(dp5013
g62
(dp5014
sg71
g4609
sg64
(lp5015
g57
(g78
g59
NtRp5016
(dp5017
g62
(dp5018
g82
g83
ssg71
g5012
sg64
(lp5019
S'SERVER_NAME'
p5020
asbag57
(g78
g59
NtRp5021
(dp5022
g62
(dp5023
g89
g90
ssg71
g5012
sg64
(lp5024
S':'
asbag57
(g78
g59
NtRp5025
(dp5026
g62
(dp5027
sg71
g5012
sg64
(lp5028
g57
(g58
g59
NtRp5029
(dp5030
g62
(dp5031
g70
I3
ssg71
g5025
sg64
(lp5032
g3431
asbasbasbag57
(g73
g59
NtRp5033
(dp5034
g62
(dp5035
sg71
g4609
sg64
(lp5036
g57
(g78
g59
NtRp5037
(dp5038
g62
(dp5039
g82
g83
ssg71
g5033
sg64
(lp5040
S'SERVER_PORT'
p5041
asbag57
(g78
g59
NtRp5042
(dp5043
g62
(dp5044
g89
g90
ssg71
g5033
sg64
(lp5045
S':'
asbag57
(g78
g59
NtRp5046
(dp5047
g62
(dp5048
sg71
g5033
sg64
(lp5049
g57
(g58
g59
NtRp5050
(dp5051
g62
(dp5052
g70
I3
ssg71
g5046
sg64
(lp5053
g3453
asbasbasbag57
(g73
g59
NtRp5054
(dp5055
g62
(dp5056
sg71
g4609
sg64
(lp5057
g57
(g78
g59
NtRp5058
(dp5059
g62
(dp5060
g82
g83
ssg71
g5054
sg64
(lp5061
S'SERVER_PROTOCOL'
p5062
asbag57
(g78
g59
NtRp5063
(dp5064
g62
(dp5065
g89
g90
ssg71
g5054
sg64
(lp5066
S':'
asbag57
(g78
g59
NtRp5067
(dp5068
g62
(dp5069
sg71
g5054
sg64
(lp5070
g57
(g58
g59
NtRp5071
(dp5072
g62
(dp5073
g70
I3
ssg71
g5067
sg64
(lp5074
g3475
asbasbasbag57
(g73
g59
NtRp5075
(dp5076
g62
(dp5077
sg71
g4609
sg64
(lp5078
g57
(g78
g59
NtRp5079
(dp5080
g62
(dp5081
g82
g83
ssg71
g5075
sg64
(lp5082
S'SERVER_SOFTWARE'
p5083
asbag57
(g78
g59
NtRp5084
(dp5085
g62
(dp5086
g89
g90
ssg71
g5075
sg64
(lp5087
S':'
asbag57
(g78
g59
NtRp5088
(dp5089
g62
(dp5090
sg71
g5075
sg64
(lp5091
g57
(g58
g59
NtRp5092
(dp5093
g62
(dp5094
g70
I3
ssg71
g5088
sg64
(lp5095
g3497
asbasbasbag57
(g73
g59
NtRp5096
(dp5097
g62
(dp5098
sg71
g4609
sg64
(lp5099
g57
(g78
g59
NtRp5100
(dp5101
g62
(dp5102
g82
g83
ssg71
g5096
sg64
(lp5103
S'wsgi.errors'
p5104
asbag57
(g78
g59
NtRp5105
(dp5106
g62
(dp5107
g89
g90
ssg71
g5096
sg64
(lp5108
S':'
asbag57
(g78
g59
NtRp5109
(dp5110
g62
(dp5111
sg71
g5096
sg64
(lp5112
g57
(g58
g59
NtRp5113
(dp5114
g62
(dp5115
g70
I3
ssg71
g5109
sg64
(lp5116
S"<open file '<stderr>', mode 'w' at 0xb73000d0>"
p5117
asbasbasbag57
(g73
g59
NtRp5118
(dp5119
g62
(dp5120
sg71
g4609
sg64
(lp5121
g57
(g78
g59
NtRp5122
(dp5123
g62
(dp5124
g82
g83
ssg71
g5118
sg64
(lp5125
S'wsgi.file_wrapper'
p5126
asbag57
(g78
g59
NtRp5127
(dp5128
g62
(dp5129
g89
g90
ssg71
g5118
sg64
(lp5130
S':'
asbag57
(g78
g59
NtRp5131
(dp5132
g62
(dp5133
sg71
g5118
sg64
(lp5134
g57
(g58
g59
NtRp5135
(dp5136
g62
(dp5137
g70
I3
ssg71
g5131
sg64
(lp5138
S'<class wsgiref.util.FileWrapper at 0x980905c>'
p5139
asbasbasbag57
(g73
g59
NtRp5140
(dp5141
g62
(dp5142
sg71
g4609
sg64
(lp5143
g57
(g78
g59
NtRp5144
(dp5145
g62
(dp5146
g82
g83
ssg71
g5140
sg64
(lp5147
S'wsgi.input'
p5148
asbag57
(g78
g59
NtRp5149
(dp5150
g62
(dp5151
g89
g90
ssg71
g5140
sg64
(lp5152
S':'
asbag57
(g78
g59
NtRp5153
(dp5154
g62
(dp5155
sg71
g5140
sg64
(lp5156
g57
(g58
g59
NtRp5157
(dp5158
g62
(dp5159
g70
I3
ssg71
g5153
sg64
(lp5160
S"<open file '<fdopen>', mode 'w+b' at 0xad36e7b0>"
p5161
asbasbasbag57
(g73
g59
NtRp5162
(dp5163
g62
(dp5164
sg71
g4609
sg64
(lp5165
g57
(g78
g59
NtRp5166
(dp5167
g62
(dp5168
g82
g83
ssg71
g5162
sg64
(lp5169
S'wsgi.multiprocess'
p5170
asbag57
(g78
g59
NtRp5171
(dp5172
g62
(dp5173
g89
g90
ssg71
g5162
sg64
(lp5174
S':'
asbag57
(g78
g59
NtRp5175
(dp5176
g62
(dp5177
sg71
g5162
sg64
(lp5178
g57
(g58
g59
NtRp5179
(dp5180
g62
(dp5181
g70
I3
ssg71
g5175
sg64
(lp5182
g100
asbasbasbag57
(g73
g59
NtRp5183
(dp5184
g62
(dp5185
sg71
g4609
sg64
(lp5186
g57
(g78
g59
NtRp5187
(dp5188
g62
(dp5189
g82
g83
ssg71
g5183
sg64
(lp5190
S'wsgi.multithread'
p5191
asbag57
(g78
g59
NtRp5192
(dp5193
g62
(dp5194
g89
g90
ssg71
g5183
sg64
(lp5195
S':'
asbag57
(g78
g59
NtRp5196
(dp5197
g62
(dp5198
sg71
g5183
sg64
(lp5199
g57
(g58
g59
NtRp5200
(dp5201
g62
(dp5202
g70
I3
ssg71
g5196
sg64
(lp5203
g3714
asbasbasbag57
(g73
g59
NtRp5204
(dp5205
g62
(dp5206
sg71
g4609
sg64
(lp5207
g57
(g78
g59
NtRp5208
(dp5209
g62
(dp5210
g82
g83
ssg71
g5204
sg64
(lp5211
S'wsgi.run_once'
p5212
asbag57
(g78
g59
NtRp5213
(dp5214
g62
(dp5215
g89
g90
ssg71
g5204
sg64
(lp5216
S':'
asbag57
(g78
g59
NtRp5217
(dp5218
g62
(dp5219
sg71
g5204
sg64
(lp5220
g57
(g58
g59
NtRp5221
(dp5222
g62
(dp5223
g70
I3
ssg71
g5217
sg64
(lp5224
g100
asbasbasbag57
(g73
g59
NtRp5225
(dp5226
g62
(dp5227
sg71
g4609
sg64
(lp5228
g57
(g78
g59
NtRp5229
(dp5230
g62
(dp5231
g82
g83
ssg71
g5225
sg64
(lp5232
S'wsgi.url_scheme'
p5233
asbag57
(g78
g59
NtRp5234
(dp5235
g62
(dp5236
g89
g90
ssg71
g5225
sg64
(lp5237
S':'
asbag57
(g78
g59
NtRp5238
(dp5239
g62
(dp5240
sg71
g5225
sg64
(lp5241
g57
(g58
g59
NtRp5242
(dp5243
g62
(dp5244
g70
I3
ssg71
g5238
sg64
(lp5245
g3757
asbasbasbag57
(g73
g59
NtRp5246
(dp5247
g62
(dp5248
sg71
g4609
sg64
(lp5249
g57
(g78
g59
NtRp5250
(dp5251
g62
(dp5252
g82
g83
ssg71
g5246
sg64
(lp5253
S'wsgi.version'
p5254
asbag57
(g78
g59
NtRp5255
(dp5256
g62
(dp5257
g89
g90
ssg71
g5246
sg64
(lp5258
S':'
asbag57
(g78
g59
NtRp5259
(dp5260
g62
(dp5261
sg71
g5246
sg64
(lp5262
g57
(g58
g59
NtRp5263
(dp5264
g62
(dp5265
g70
I3
ssg71
g5259
sg64
(lp5266
S'1'
asbasbasbasbasbasbasbasbasbasbasbasbasbsS'frames'
p5267
(lp5268
(dp5269
S'file'
p5270
S'/home/pankaj/web2py/gluon/restricted.py'
p5271
sS'dump'
p5272
(dp5273
S'environment'
p5274
S"{'A': <class 'gluon.html.A'>, 'Auth': <class 'gluon.tools.Auth'>, 'B': <class 'gluon.html.B'>, 'BEAUTIFY': <class 'gluon.html.BEAUTIFY'>, 'BODY': <class 'gluon.html.BODY'>, 'BR': <class 'gluon.html.BR'>, 'BUTTON': <class 'gluon.html.BUTTON'>, 'CAT': <class 'gluon.html.CAT'>, 'CENTER': <class 'gluon.html.CENTER'>, 'CLEANUP': <class 'gluon.validators.CLEANUP'>, ...}"
p5275
sS'ccode'
p5276
S'<code object <module> at 0xae525608, file "/home...ications/reddit/controllers/default.py", line 12>'
p5277
ssS'lnum'
p5278
I212
sS'lines'
p5279
(dp5280
I207
S'    try:'
p5281
sI208
S'        if isinstance(code, types.CodeType):'
p5282
sI209
S'            ccode = code'
p5283
sI210
S'        else:'
p5284
sI211
S'            ccode = compile2(code, layer)'
p5285
sI212
S'        exec ccode in environment'
p5286
sI213
S'    except HTTP:'
p5287
sI214
S'        raise'
p5288
sI215
S'    except RestrictedError:'
p5289
sI216
S'        # do not encapsulate (obfuscate) the original RestrictedError'
p5290
ssS'call'
p5291
S"(code='# -*- coding: utf-8 -*-\\n# this file is released ...())\\n\\nresponse._vars=response._caller(displaycat)\\n', environment={'A': <class 'gluon.html.A'>, 'Auth': <class 'gluon.tools.Auth'>, 'B': <class 'gluon.html.B'>, 'BEAUTIFY': <class 'gluon.html.BEAUTIFY'>, 'BODY': <class 'gluon.html.BODY'>, 'BR': <class 'gluon.html.BR'>, 'BUTTON': <class 'gluon.html.BUTTON'>, 'CAT': <class 'gluon.html.CAT'>, 'CENTER': <class 'gluon.html.CENTER'>, 'CLEANUP': <class 'gluon.validators.CLEANUP'>, ...}, layer='/home/pankaj/web2py/applications/reddit/controllers/default.py')"
p5292
sS'func'
p5293
S'restricted'
p5294
sa(dp5295
g5270
S'/home/pankaj/web2py/applications/reddit/controllers/default.py'
p5296
sg5272
(dp5297
sg5278
I101
sg5279
(dp5298
I96
S'    or with the signed load operator'
p5299
sI97
S"      LOAD('default','data.load',args='tables',ajax=True,user_signature=True)"
p5300
sI98
S'    """'
p5301
sI99
S'    return dict(form=crud())'
p5302
sI90
S'    http://..../[app]/default/data/update/[table]/[id]'
p5303
sI91
S'    http://..../[app]/default/data/delete/[table]/[id]'
p5304
sI92
S'    http://..../[app]/default/data/select/[table]'
p5305
sI93
S'    http://..../[app]/default/data/search/[table]'
p5306
sI94
S'    but URLs must be signed, i.e. linked with'
p5307
sI95
S"      A('table',_href=URL('data/tables',user_signature=True))"
p5308
ssg5291
S'()'
p5309
sg5293
S'<module>'
p5310
sa(dp5311
g5270
S'/home/pankaj/web2py/gluon/globals.py'
p5312
sg5272
(dp5313
S'self'
p5314
S'undefined'
p5315
sS'f'
S'<function displaycat>'
p5316
ssg5278
I193
sg5279
(dp5317
I192
S'        self._vars = None'
p5318
sI193
S'        self._caller = lambda f: f()'
p5319
sI194
S'        self._view_environment = None'
p5320
sI195
S'        self._custom_commit = None'
p5321
sI196
S'        self._custom_rollback = None'
p5322
sI197
S''
sI188
S'        self.menu = []             # used by the default view layout'
p5323
sI189
S'        self.files = []            # used by web2py_ajax.html'
p5324
sI190
S'        self.generic_patterns = []  # patterns to allow generic views'
p5325
sI191
S"        self.delimiters = ('{{', '}}')"
p5326
ssg5291
S'(f=<function displaycat>)'
p5327
sg5293
S'<lambda>'
p5328
sa(dp5329
g5270
S'/home/pankaj/web2py/applications/reddit/controllers/default.py'
p5330
sg5272
(dp5331
S'news'
p5332
g5315
sS'k'
g5315
sS'nstore'
p5333
S'<Rows (3)>'
p5334
sS'key'
p5335
g5315
sS'builtinsorted'
p5336
S'<built-in function sorted>'
p5337
ssg5278
I33
sg5279
(dp5338
I32
S'    \tcatg=db(db.category.id>0).select()'
p5339
sI33
S"    \tnews = sorted(nstore, key=lambda k: k['rating'])"
p5340
sI34
S"    \tcomments = sorted(cstore, key=lambda k: k['rating'])"
p5341
sI35
S'    \tnews.reverse()'
p5342
sI36
S'    \tcomments.reverse()'
p5343
sI37
S'    \treturn dict(nstore=news,cstore=comments,catg=catg)'
p5344
sI28
S'\tnstore=db((db.category.id == catid)&(db.category.name == db.news.cat)).select()'
p5345
sI29
S'\tprint nstore'
p5346
sI30
S"\t''' selecting all comments no matter what the category is '''"
p5347
sI31
S'    \tcstore=db(db.comments.id > 0).select()'
p5348
ssg5291
S'()'
p5349
sg5293
S'displaycat'
p5350
sa(dp5351
g5270
S'/home/pankaj/web2py/applications/reddit/controllers/default.py'
p5352
sg5272
(dp5353
S'news'
p5354
g5315
sS'k'
S"<Row {'category': {'id': 2, 'name': 'education'}...ate': datetime.datetime(2013, 8, 29, 2, 9, 25)}}>"
p5355
sS'nstore'
p5356
g5315
sS'key'
p5357
g5315
sS'builtinsorted'
p5358
S'<built-in function sorted>'
p5359
ssg5278
I33
sg5279
(dp5360
I32
S'    \tcatg=db(db.category.id>0).select()'
p5361
sI33
S"    \tnews = sorted(nstore, key=lambda k: k['rating'])"
p5362
sI34
S"    \tcomments = sorted(cstore, key=lambda k: k['rating'])"
p5363
sI35
S'    \tnews.reverse()'
p5364
sI36
S'    \tcomments.reverse()'
p5365
sI37
S'    \treturn dict(nstore=news,cstore=comments,catg=catg)'
p5366
sI28
S'\tnstore=db((db.category.id == catid)&(db.category.name == db.news.cat)).select()'
p5367
sI29
S'\tprint nstore'
p5368
sI30
S"\t''' selecting all comments no matter what the category is '''"
p5369
sI31
S'    \tcstore=db(db.comments.id > 0).select()'
p5370
ssg5291
S"(k=<Row {'category': {'id': 2, 'name': 'education'}...ate': datetime.datetime(2013, 8, 29, 2, 9, 25)}}>)"
p5371
sg5293
g5328
sa(dp5372
g5270
S'/home/pankaj/web2py/gluon/dal.py'
p5373
sg5272
(dp5374
S'self'
p5375
S"<Row {'category': {'id': 2, 'name': 'education'}...ate': datetime.datetime(2013, 8, 29, 2, 9, 25)}}>"
p5376
sS'global ogetattr'
p5377
S"<slot wrapper '__getattribute__' of 'object' objects>"
p5378
sS'key'
p5379
S"'rating'"
p5380
ssg5278
I6448
sg5279
(dp5381
I6443
S'        elif m:'
p5382
sI6444
S'            try:'
p5383
sI6445
S'                return ogetattr(self, m.group(1))[m.group(2)]'
p5384
sI6446
S'            except (KeyError,AttributeError,TypeError):'
p5385
sI6447
S'                key = m.group(2)'
p5386
sI6448
S'        return ogetattr(self, key)'
p5387
sI6449
S''
sI6450
S'    def __setitem__(self, key, value):'
p5388
sI6451
S'        setattr(self, str(key), value)'
p5389
sI6452
S''
ssg5291
S"(self=<Row {'category': {'id': 2, 'name': 'education'}...ate': datetime.datetime(2013, 8, 29, 2, 9, 25)}}>, key='rating')"
p5390
sg5293
g20
sasS'pyver'
p5391
S'Python 2.7.3: /usr/bin/python'
p5392
sS'session'
p5393
g57
(g58
g59
NtRp5394
(dp5395
g62
(dp5396
sg64
(lp5397
g57
(g66
g59
NtRp5398
(dp5399
g62
(dp5400
g70
I5
ssg71
Nsg64
(lp5401
g57
(g73
g59
NtRp5402
(dp5403
g62
(dp5404
sg71
g5398
sg64
(lp5405
g57
(g78
g59
NtRp5406
(dp5407
g62
(dp5408
g82
g83
ssg71
g5402
sg64
(lp5409
S'auth'
p5410
asbag57
(g78
g59
NtRp5411
(dp5412
g62
(dp5413
g89
g90
ssg71
g5402
sg64
(lp5414
S':'
asbag57
(g78
g59
NtRp5415
(dp5416
g62
(dp5417
sg71
g5402
sg64
(lp5418
g57
(g58
g59
NtRp5419
(dp5420
g62
(dp5421
g70
I5
ssg71
g5415
sg64
(lp5422
g57
(g66
g59
NtRp5423
(dp5424
g62
(dp5425
g70
I4
ssg71
Nsg64
(lp5426
g57
(g73
g59
NtRp5427
(dp5428
g62
(dp5429
sg71
g5423
sg64
(lp5430
g57
(g78
g59
NtRp5431
(dp5432
g62
(dp5433
g82
g83
ssg71
g5427
sg64
(lp5434
S'expiration'
p5435
asbag57
(g78
g59
NtRp5436
(dp5437
g62
(dp5438
g89
g90
ssg71
g5427
sg64
(lp5439
S':'
asbag57
(g78
g59
NtRp5440
(dp5441
g62
(dp5442
sg71
g5427
sg64
(lp5443
g57
(g58
g59
NtRp5444
(dp5445
g62
(dp5446
g70
I4
ssg71
g5440
sg64
(lp5447
S'2592000'
p5448
asbasbasbag57
(g73
g59
NtRp5449
(dp5450
g62
(dp5451
sg71
g5423
sg64
(lp5452
g57
(g78
g59
NtRp5453
(dp5454
g62
(dp5455
g82
g83
ssg71
g5449
sg64
(lp5456
S'hmac_key'
p5457
asbag57
(g78
g59
NtRp5458
(dp5459
g62
(dp5460
g89
g90
ssg71
g5449
sg64
(lp5461
S':'
asbag57
(g78
g59
NtRp5462
(dp5463
g62
(dp5464
sg71
g5449
sg64
(lp5465
g57
(g58
g59
NtRp5466
(dp5467
g62
(dp5468
g70
I4
ssg71
g5462
sg64
(lp5469
S'f8ac37ec-2036-4076-bffe-8306279ac35a'
p5470
asbasbasbag57
(g73
g59
NtRp5471
(dp5472
g62
(dp5473
sg71
g5423
sg64
(lp5474
g57
(g78
g59
NtRp5475
(dp5476
g62
(dp5477
g82
g83
ssg71
g5471
sg64
(lp5478
S'last_visit'
p5479
asbag57
(g78
g59
NtRp5480
(dp5481
g62
(dp5482
g89
g90
ssg71
g5471
sg64
(lp5483
S':'
asbag57
(g78
g59
NtRp5484
(dp5485
g62
(dp5486
sg71
g5471
sg64
(lp5487
g57
(g58
g59
NtRp5488
(dp5489
g62
(dp5490
g70
I4
ssg71
g5484
sg64
(lp5491
S'datetime.datetime(2013, 8, 30, 1, 8, 1, 584665)'
p5492
asbasbasbag57
(g73
g59
NtRp5493
(dp5494
g62
(dp5495
sg71
g5423
sg64
(lp5496
g57
(g78
g59
NtRp5497
(dp5498
g62
(dp5499
g82
g83
ssg71
g5493
sg64
(lp5500
S'remember'
p5501
asbag57
(g78
g59
NtRp5502
(dp5503
g62
(dp5504
g89
g90
ssg71
g5493
sg64
(lp5505
S':'
asbag57
(g78
g59
NtRp5506
(dp5507
g62
(dp5508
sg71
g5493
sg64
(lp5509
g57
(g58
g59
NtRp5510
(dp5511
g62
(dp5512
g70
I4
ssg71
g5506
sg64
(lp5513
g3714
asbasbasbag57
(g73
g59
NtRp5514
(dp5515
g62
(dp5516
sg71
g5423
sg64
(lp5517
g57
(g78
g59
NtRp5518
(dp5519
g62
(dp5520
g82
g83
ssg71
g5514
sg64
(lp5521
S'user'
p5522
asbag57
(g78
g59
NtRp5523
(dp5524
g62
(dp5525
g89
g90
ssg71
g5514
sg64
(lp5526
S':'
asbag57
(g78
g59
NtRp5527
(dp5528
g62
(dp5529
sg71
g5514
sg64
(lp5530
g57
(g58
g59
NtRp5531
(dp5532
g62
(dp5533
g70
I4
ssg71
g5527
sg64
(lp5534
g57
(g66
g59
NtRp5535
(dp5536
g62
(dp5537
g70
I3
ssg71
Nsg64
(lp5538
g57
(g73
g59
NtRp5539
(dp5540
g62
(dp5541
sg71
g5535
sg64
(lp5542
g57
(g78
g59
NtRp5543
(dp5544
g62
(dp5545
g82
g83
ssg71
g5539
sg64
(lp5546
S'email'
p5547
asbag57
(g78
g59
NtRp5548
(dp5549
g62
(dp5550
g89
g90
ssg71
g5539
sg64
(lp5551
S':'
asbag57
(g78
g59
NtRp5552
(dp5553
g62
(dp5554
sg71
g5539
sg64
(lp5555
g57
(g58
g59
NtRp5556
(dp5557
g62
(dp5558
g70
I3
ssg71
g5552
sg64
(lp5559
S'pankaj@gmail.com'
p5560
asbasbasbag57
(g73
g59
NtRp5561
(dp5562
g62
(dp5563
sg71
g5535
sg64
(lp5564
g57
(g78
g59
NtRp5565
(dp5566
g62
(dp5567
g82
g83
ssg71
g5561
sg64
(lp5568
S'first_name'
p5569
asbag57
(g78
g59
NtRp5570
(dp5571
g62
(dp5572
g89
g90
ssg71
g5561
sg64
(lp5573
S':'
asbag57
(g78
g59
NtRp5574
(dp5575
g62
(dp5576
sg71
g5561
sg64
(lp5577
g57
(g58
g59
NtRp5578
(dp5579
g62
(dp5580
g70
I3
ssg71
g5574
sg64
(lp5581
S'pankaj'
p5582
asbasbasbag57
(g73
g59
NtRp5583
(dp5584
g62
(dp5585
sg71
g5535
sg64
(lp5586
g57
(g78
g59
NtRp5587
(dp5588
g62
(dp5589
g82
g83
ssg71
g5583
sg64
(lp5590
S'id'
p5591
asbag57
(g78
g59
NtRp5592
(dp5593
g62
(dp5594
g89
g90
ssg71
g5583
sg64
(lp5595
S':'
asbag57
(g78
g59
NtRp5596
(dp5597
g62
(dp5598
sg71
g5583
sg64
(lp5599
g57
(g58
g59
NtRp5600
(dp5601
g62
(dp5602
g70
I3
ssg71
g5596
sg64
(lp5603
S'1'
asbasbasbag57
(g73
g59
NtRp5604
(dp5605
g62
(dp5606
sg71
g5535
sg64
(lp5607
g57
(g78
g59
NtRp5608
(dp5609
g62
(dp5610
g82
g83
ssg71
g5604
sg64
(lp5611
S'last_name'
p5612
asbag57
(g78
g59
NtRp5613
(dp5614
g62
(dp5615
g89
g90
ssg71
g5604
sg64
(lp5616
S':'
asbag57
(g78
g59
NtRp5617
(dp5618
g62
(dp5619
sg71
g5604
sg64
(lp5620
g57
(g58
g59
NtRp5621
(dp5622
g62
(dp5623
g70
I3
ssg71
g5617
sg64
(lp5624
S'malhotra'
p5625
asbasbasbag57
(g73
g59
NtRp5626
(dp5627
g62
(dp5628
sg71
g5535
sg64
(lp5629
g57
(g78
g59
NtRp5630
(dp5631
g62
(dp5632
g82
g83
ssg71
g5626
sg64
(lp5633
S'registration_id'
p5634
asbag57
(g78
g59
NtRp5635
(dp5636
g62
(dp5637
g89
g90
ssg71
g5626
sg64
(lp5638
S':'
asbag57
(g78
g59
NtRp5639
(dp5640
g62
(dp5641
sg71
g5626
sg64
(lp5642
g57
(g58
g59
NtRp5643
(dp5644
g62
(dp5645
g70
I3
ssg71
g5639
sg64
(lp5646
S''
asbasbasbag57
(g73
g59
NtRp5647
(dp5648
g62
(dp5649
sg71
g5535
sg64
(lp5650
g57
(g78
g59
NtRp5651
(dp5652
g62
(dp5653
g82
g83
ssg71
g5647
sg64
(lp5654
S'registration_key'
p5655
asbag57
(g78
g59
NtRp5656
(dp5657
g62
(dp5658
g89
g90
ssg71
g5647
sg64
(lp5659
S':'
asbag57
(g78
g59
NtRp5660
(dp5661
g62
(dp5662
sg71
g5647
sg64
(lp5663
g57
(g58
g59
NtRp5664
(dp5665
g62
(dp5666
g70
I3
ssg71
g5660
sg64
(lp5667
S''
asbasbasbag57
(g73
g59
NtRp5668
(dp5669
g62
(dp5670
sg71
g5535
sg64
(lp5671
g57
(g78
g59
NtRp5672
(dp5673
g62
(dp5674
g82
g83
ssg71
g5668
sg64
(lp5675
S'reset_password_key'
p5676
asbag57
(g78
g59
NtRp5677
(dp5678
g62
(dp5679
g89
g90
ssg71
g5668
sg64
(lp5680
S':'
asbag57
(g78
g59
NtRp5681
(dp5682
g62
(dp5683
sg71
g5668
sg64
(lp5684
g57
(g58
g59
NtRp5685
(dp5686
g62
(dp5687
g70
I3
ssg71
g5681
sg64
(lp5688
S''
asbasbasbasbasbasbasbag57
(g73
g59
NtRp5689
(dp5690
g62
(dp5691
sg71
g5423
sg64
(lp5692
g57
(g78
g59
NtRp5693
(dp5694
g62
(dp5695
g82
g83
ssg71
g5689
sg64
(lp5696
S'user_groups'
p5697
asbag57
(g78
g59
NtRp5698
(dp5699
g62
(dp5700
g89
g90
ssg71
g5689
sg64
(lp5701
S':'
asbag57
(g78
g59
NtRp5702
(dp5703
g62
(dp5704
sg71
g5689
sg64
(lp5705
g57
(g58
g59
NtRp5706
(dp5707
g62
(dp5708
g70
I4
ssg71
g5702
sg64
(lp5709
g57
(g66
g59
NtRp5710
(dp5711
g62
(dp5712
g70
I3
ssg71
Nsg64
(lp5713
g57
(g73
g59
NtRp5714
(dp5715
g62
(dp5716
sg71
g5710
sg64
(lp5717
g57
(g78
g59
NtRp5718
(dp5719
g62
(dp5720
g82
g83
ssg71
g5714
sg64
(lp5721
S'1'
asbag57
(g78
g59
NtRp5722
(dp5723
g62
(dp5724
g89
g90
ssg71
g5714
sg64
(lp5725
S':'
asbag57
(g78
g59
NtRp5726
(dp5727
g62
(dp5728
sg71
g5714
sg64
(lp5729
g57
(g58
g59
NtRp5730
(dp5731
g62
(dp5732
g70
I3
ssg71
g5726
sg64
(lp5733
S'user_1'
p5734
asbasbasbasbasbasbasbasbasbasbasbag57
(g73
g59
NtRp5735
(dp5736
g62
(dp5737
sg71
g5398
sg64
(lp5738
g57
(g78
g59
NtRp5739
(dp5740
g62
(dp5741
g82
g83
ssg71
g5735
sg64
(lp5742
S'flash'
p5743
asbag57
(g78
g59
NtRp5744
(dp5745
g62
(dp5746
g89
g90
ssg71
g5735
sg64
(lp5747
S':'
asbag57
(g78
g59
NtRp5748
(dp5749
g62
(dp5750
sg71
g5735
sg64
(lp5751
g57
(g58
g59
NtRp5752
(dp5753
g62
(dp5754
g70
I5
ssg71
g5748
sg64
(lp5755
S'None'
p5756
asbasbasbag57
(g73
g59
NtRp5757
(dp5758
g62
(dp5759
sg71
g5398
sg64
(lp5760
g57
(g78
g59
NtRp5761
(dp5762
g62
(dp5763
g82
g83
ssg71
g5757
sg64
(lp5764
S'last_orderby'
p5765
asbag57
(g78
g59
NtRp5766
(dp5767
g62
(dp5768
g89
g90
ssg71
g5757
sg64
(lp5769
S':'
asbag57
(g78
g59
NtRp5770
(dp5771
g62
(dp5772
sg71
g5757
sg64
(lp5773
g57
(g58
g59
NtRp5774
(dp5775
g62
(dp5776
g70
I5
ssg71
g5770
sg64
(lp5777
S'None'
p5778
asbasbasbag57
(g73
g59
NtRp5779
(dp5780
g62
(dp5781
sg71
g5398
sg64
(lp5782
g57
(g78
g59
NtRp5783
(dp5784
g62
(dp5785
g82
g83
ssg71
g5779
sg64
(lp5786
S'last_query'
p5787
asbag57
(g78
g59
NtRp5788
(dp5789
g62
(dp5790
g89
g90
ssg71
g5779
sg64
(lp5791
S':'
asbag57
(g78
g59
NtRp5792
(dp5793
g62
(dp5794
sg71
g5779
sg64
(lp5795
g57
(g58
g59
NtRp5796
(dp5797
g62
(dp5798
g70
I5
ssg71
g5792
sg64
(lp5799
S'db.news.id>0'
p5800
asbasbasbasbasbsS'etype'
p5801
S"<type 'exceptions.AttributeError'>"
p5802
sS'date'
p5803
S'Fri Aug 30 02:13:54 2013'
p5804
sS'response'
p5805
g57
(g58
g59
NtRp5806
(dp5807
g62
(dp5808
sg64
(lp5809
g57
(g66
g59
NtRp5810
(dp5811
g62
(dp5812
g70
I5
ssg71
Nsg64
(lp5813
g57
(g73
g59
NtRp5814
(dp5815
g62
(dp5816
sg71
g5810
sg64
(lp5817
g57
(g78
g59
NtRp5818
(dp5819
g62
(dp5820
g82
g83
ssg71
g5814
sg64
(lp5821
g155
asbag57
(g78
g59
NtRp5822
(dp5823
g62
(dp5824
g89
g90
ssg71
g5814
sg64
(lp5825
S':'
asbag57
(g78
g59
NtRp5826
(dp5827
g62
(dp5828
sg71
g5814
sg64
(lp5829
g57
(g58
g59
NtRp5830
(dp5831
g62
(dp5832
g70
I5
ssg71
g5826
sg64
(lp5833
S'<cStringIO.StringO object at 0xadebe980>'
p5834
asbasbasbag57
(g73
g59
NtRp5835
(dp5836
g62
(dp5837
sg71
g5810
sg64
(lp5838
g57
(g78
g59
NtRp5839
(dp5840
g62
(dp5841
g82
g83
ssg71
g5835
sg64
(lp5842
g243
asbag57
(g78
g59
NtRp5843
(dp5844
g62
(dp5845
g89
g90
ssg71
g5835
sg64
(lp5846
S':'
asbag57
(g78
g59
NtRp5847
(dp5848
g62
(dp5849
sg71
g5835
sg64
(lp5850
g57
(g58
g59
NtRp5851
(dp5852
g62
(dp5853
g70
I5
ssg71
g5847
sg64
(lp5854
g57
(g66
g59
NtRp5855
(dp5856
g62
(dp5857
g70
I4
ssg71
Nsg64
(lp5858
g57
(g73
g59
NtRp5859
(dp5860
g62
(dp5861
sg71
g5855
sg64
(lp5862
g57
(g78
g59
NtRp5863
(dp5864
g62
(dp5865
g82
g83
ssg71
g5859
sg64
(lp5866
S'session_id_reddit'
p5867
asbag57
(g78
g59
NtRp5868
(dp5869
g62
(dp5870
g89
g90
ssg71
g5859
sg64
(lp5871
S':'
asbag57
(g78
g59
NtRp5872
(dp5873
g62
(dp5874
sg71
g5859
sg64
(lp5875
g57
(g58
g59
NtRp5876
(dp5877
g62
(dp5878
g70
I4
ssg71
g5872
sg64
(lp5879
g1777
ag57
(g66
g59
NtRp5880
(dp5881
g62
(dp5882
g70
I3
ssg71
Nsg64
(lp5883
g57
(g73
g59
NtRp5884
(dp5885
g62
(dp5886
sg71
g5880
sg64
(lp5887
g57
(g78
g59
NtRp5888
(dp5889
g62
(dp5890
g82
g83
ssg71
g5884
sg64
(lp5891
g294
asbag57
(g78
g59
NtRp5892
(dp5893
g62
(dp5894
g89
g90
ssg71
g5884
sg64
(lp5895
S':'
asbag57
(g78
g59
NtRp5896
(dp5897
g62
(dp5898
sg71
g5884
sg64
(lp5899
g57
(g58
g59
NtRp5900
(dp5901
g62
(dp5902
g70
I3
ssg71
g5896
sg64
(lp5903
S''
asbasbasbag57
(g73
g59
NtRp5904
(dp5905
g62
(dp5906
sg71
g5880
sg64
(lp5907
g57
(g78
g59
NtRp5908
(dp5909
g62
(dp5910
g82
g83
ssg71
g5904
sg64
(lp5911
g315
asbag57
(g78
g59
NtRp5912
(dp5913
g62
(dp5914
g89
g90
ssg71
g5904
sg64
(lp5915
S':'
asbag57
(g78
g59
NtRp5916
(dp5917
g62
(dp5918
sg71
g5904
sg64
(lp5919
g57
(g58
g59
NtRp5920
(dp5921
g62
(dp5922
g70
I3
ssg71
g5916
sg64
(lp5923
S''
asbasbasbag57
(g73
g59
NtRp5924
(dp5925
g62
(dp5926
sg71
g5880
sg64
(lp5927
g57
(g78
g59
NtRp5928
(dp5929
g62
(dp5930
g82
g83
ssg71
g5924
sg64
(lp5931
g336
asbag57
(g78
g59
NtRp5932
(dp5933
g62
(dp5934
g89
g90
ssg71
g5924
sg64
(lp5935
S':'
asbag57
(g78
g59
NtRp5936
(dp5937
g62
(dp5938
sg71
g5924
sg64
(lp5939
g57
(g58
g59
NtRp5940
(dp5941
g62
(dp5942
g70
I3
ssg71
g5936
sg64
(lp5943
S'2592000'
p5944
asbasbasbag57
(g73
g59
NtRp5945
(dp5946
g62
(dp5947
sg71
g5880
sg64
(lp5948
g57
(g78
g59
NtRp5949
(dp5950
g62
(dp5951
g82
g83
ssg71
g5945
sg64
(lp5952
g357
asbag57
(g78
g59
NtRp5953
(dp5954
g62
(dp5955
g89
g90
ssg71
g5945
sg64
(lp5956
S':'
asbag57
(g78
g59
NtRp5957
(dp5958
g62
(dp5959
sg71
g5945
sg64
(lp5960
g57
(g58
g59
NtRp5961
(dp5962
g62
(dp5963
g70
I3
ssg71
g5957
sg64
(lp5964
S''
asbasbasbag57
(g73
g59
NtRp5965
(dp5966
g62
(dp5967
sg71
g5880
sg64
(lp5968
g57
(g78
g59
NtRp5969
(dp5970
g62
(dp5971
g82
g83
ssg71
g5965
sg64
(lp5972
g378
asbag57
(g78
g59
NtRp5973
(dp5974
g62
(dp5975
g89
g90
ssg71
g5965
sg64
(lp5976
S':'
asbag57
(g78
g59
NtRp5977
(dp5978
g62
(dp5979
sg71
g5965
sg64
(lp5980
g57
(g58
g59
NtRp5981
(dp5982
g62
(dp5983
g70
I3
ssg71
g5977
sg64
(lp5984
S''
asbasbasbag57
(g73
g59
NtRp5985
(dp5986
g62
(dp5987
sg71
g5880
sg64
(lp5988
g57
(g78
g59
NtRp5989
(dp5990
g62
(dp5991
g82
g83
ssg71
g5985
sg64
(lp5992
g399
asbag57
(g78
g59
NtRp5993
(dp5994
g62
(dp5995
g89
g90
ssg71
g5985
sg64
(lp5996
S':'
asbag57
(g78
g59
NtRp5997
(dp5998
g62
(dp5999
sg71
g5985
sg64
(lp6000
g57
(g58
g59
NtRp6001
(dp6002
g62
(dp6003
g70
I3
ssg71
g5997
sg64
(lp6004
S'/'
asbasbasbag57
(g73
g59
NtRp6005
(dp6006
g62
(dp6007
sg71
g5880
sg64
(lp6008
g57
(g78
g59
NtRp6009
(dp6010
g62
(dp6011
g82
g83
ssg71
g6005
sg64
(lp6012
g420
asbag57
(g78
g59
NtRp6013
(dp6014
g62
(dp6015
g89
g90
ssg71
g6005
sg64
(lp6016
S':'
asbag57
(g78
g59
NtRp6017
(dp6018
g62
(dp6019
sg71
g6005
sg64
(lp6020
g57
(g58
g59
NtRp6021
(dp6022
g62
(dp6023
g70
I3
ssg71
g6017
sg64
(lp6024
S''
asbasbasbag57
(g73
g59
NtRp6025
(dp6026
g62
(dp6027
sg71
g5880
sg64
(lp6028
g57
(g78
g59
NtRp6029
(dp6030
g62
(dp6031
g82
g83
ssg71
g6025
sg64
(lp6032
g441
asbag57
(g78
g59
NtRp6033
(dp6034
g62
(dp6035
g89
g90
ssg71
g6025
sg64
(lp6036
S':'
asbag57
(g78
g59
NtRp6037
(dp6038
g62
(dp6039
sg71
g6025
sg64
(lp6040
g57
(g58
g59
NtRp6041
(dp6042
g62
(dp6043
g70
I3
ssg71
g6037
sg64
(lp6044
S''
asbasbasbasbasbasbasbasbasbasbasbag57
(g73
g59
NtRp6045
(dp6046
g62
(dp6047
sg71
g5810
sg64
(lp6048
g57
(g78
g59
NtRp6049
(dp6050
g62
(dp6051
g82
g83
ssg71
g6045
sg64
(lp6052
S'delimiters'
p6053
asbag57
(g78
g59
NtRp6054
(dp6055
g62
(dp6056
g89
g90
ssg71
g6045
sg64
(lp6057
S':'
asbag57
(g78
g59
NtRp6058
(dp6059
g62
(dp6060
sg71
g6045
sg64
(lp6061
g57
(g58
g59
NtRp6062
(dp6063
g62
(dp6064
g70
I5
ssg71
g6058
sg64
(lp6065
g57
(g66
g59
NtRp6066
(dp6067
g62
(dp6068
g70
I4
ssg71
Nsg64
(lp6069
g57
(g73
g59
NtRp6070
(dp6071
g62
(dp6072
sg71
g6066
sg64
(lp6073
g57
(g78
g59
NtRp6074
(dp6075
g62
(dp6076
sg71
g6070
sg64
(lp6077
g57
(g58
g59
NtRp6078
(dp6079
g62
(dp6080
g70
I4
ssg71
g6074
sg64
(lp6081
S'{{'
p6082
asbasbasbag57
(g73
g59
NtRp6083
(dp6084
g62
(dp6085
sg71
g6066
sg64
(lp6086
g57
(g78
g59
NtRp6087
(dp6088
g62
(dp6089
sg71
g6083
sg64
(lp6090
g57
(g58
g59
NtRp6091
(dp6092
g62
(dp6093
g70
I4
ssg71
g6087
sg64
(lp6094
S'}}'
p6095
asbasbasbasbasbasbasbag57
(g73
g59
NtRp6096
(dp6097
g62
(dp6098
sg71
g5810
sg64
(lp6099
g57
(g78
g59
NtRp6100
(dp6101
g62
(dp6102
g82
g83
ssg71
g6096
sg64
(lp6103
S'files'
p6104
asbag57
(g78
g59
NtRp6105
(dp6106
g62
(dp6107
g89
g90
ssg71
g6096
sg64
(lp6108
S':'
asbag57
(g78
g59
NtRp6109
(dp6110
g62
(dp6111
sg71
g6096
sg64
(lp6112
g57
(g58
g59
NtRp6113
(dp6114
g62
(dp6115
g70
I5
ssg71
g6109
sg64
(lp6116
g57
(g66
g59
NtRp6117
(dp6118
g62
(dp6119
g70
I4
ssg71
Nsg64
(lp6120
sbasbasbasbag57
(g73
g59
NtRp6121
(dp6122
g62
(dp6123
sg71
g5810
sg64
(lp6124
g57
(g78
g59
NtRp6125
(dp6126
g62
(dp6127
g82
g83
ssg71
g6121
sg64
(lp6128
S'flash'
p6129
asbag57
(g78
g59
NtRp6130
(dp6131
g62
(dp6132
g89
g90
ssg71
g6121
sg64
(lp6133
S':'
asbag57
(g78
g59
NtRp6134
(dp6135
g62
(dp6136
sg71
g6121
sg64
(lp6137
g57
(g58
g59
NtRp6138
(dp6139
g62
(dp6140
g70
I5
ssg71
g6134
sg64
(lp6141
S''
asbasbasbag57
(g73
g59
NtRp6142
(dp6143
g62
(dp6144
sg71
g5810
sg64
(lp6145
g57
(g78
g59
NtRp6146
(dp6147
g62
(dp6148
g82
g83
ssg71
g6142
sg64
(lp6149
S'generic_patterns'
p6150
asbag57
(g78
g59
NtRp6151
(dp6152
g62
(dp6153
g89
g90
ssg71
g6142
sg64
(lp6154
S':'
asbag57
(g78
g59
NtRp6155
(dp6156
g62
(dp6157
sg71
g6142
sg64
(lp6158
g57
(g58
g59
NtRp6159
(dp6160
g62
(dp6161
g70
I5
ssg71
g6155
sg64
(lp6162
g57
(g66
g59
NtRp6163
(dp6164
g62
(dp6165
g70
I4
ssg71
Nsg64
(lp6166
g57
(g73
g59
NtRp6167
(dp6168
g62
(dp6169
sg71
g6163
sg64
(lp6170
g57
(g78
g59
NtRp6171
(dp6172
g62
(dp6173
sg71
g6167
sg64
(lp6174
g57
(g58
g59
NtRp6175
(dp6176
g62
(dp6177
g70
I4
ssg71
g6171
sg64
(lp6178
S'*'
asbasbasbasbasbasbasbag57
(g73
g59
NtRp6179
(dp6180
g62
(dp6181
sg71
g5810
sg64
(lp6182
g57
(g78
g59
NtRp6183
(dp6184
g62
(dp6185
g82
g83
ssg71
g6179
sg64
(lp6186
S'google_analytics_id'
p6187
asbag57
(g78
g59
NtRp6188
(dp6189
g62
(dp6190
g89
g90
ssg71
g6179
sg64
(lp6191
S':'
asbag57
(g78
g59
NtRp6192
(dp6193
g62
(dp6194
sg71
g6179
sg64
(lp6195
g57
(g58
g59
NtRp6196
(dp6197
g62
(dp6198
g70
I5
ssg71
g6192
sg64
(lp6199
S'None'
p6200
asbasbasbag57
(g73
g59
NtRp6201
(dp6202
g62
(dp6203
sg71
g5810
sg64
(lp6204
g57
(g78
g59
NtRp6205
(dp6206
g62
(dp6207
g82
g83
ssg71
g6201
sg64
(lp6208
S'headers'
p6209
asbag57
(g78
g59
NtRp6210
(dp6211
g62
(dp6212
g89
g90
ssg71
g6201
sg64
(lp6213
S':'
asbag57
(g78
g59
NtRp6214
(dp6215
g62
(dp6216
sg71
g6201
sg64
(lp6217
g57
(g58
g59
NtRp6218
(dp6219
g62
(dp6220
g70
I5
ssg71
g6214
sg64
(lp6221
g57
(g66
g59
NtRp6222
(dp6223
g62
(dp6224
g70
I4
ssg71
Nsg64
(lp6225
g57
(g73
g59
NtRp6226
(dp6227
g62
(dp6228
sg71
g6222
sg64
(lp6229
g57
(g78
g59
NtRp6230
(dp6231
g62
(dp6232
g82
g83
ssg71
g6226
sg64
(lp6233
S'X-Powered-By'
p6234
asbag57
(g78
g59
NtRp6235
(dp6236
g62
(dp6237
g89
g90
ssg71
g6226
sg64
(lp6238
S':'
asbag57
(g78
g59
NtRp6239
(dp6240
g62
(dp6241
sg71
g6226
sg64
(lp6242
g57
(g58
g59
NtRp6243
(dp6244
g62
(dp6245
g70
I4
ssg71
g6239
sg64
(lp6246
S'web2py'
p6247
asbasbasbasbasbasbasbag57
(g73
g59
NtRp6248
(dp6249
g62
(dp6250
sg71
g5810
sg64
(lp6251
g57
(g78
g59
NtRp6252
(dp6253
g62
(dp6254
g82
g83
ssg71
g6248
sg64
(lp6255
S'logo'
p6256
asbag57
(g78
g59
NtRp6257
(dp6258
g62
(dp6259
g89
g90
ssg71
g6248
sg64
(lp6260
S':'
asbag57
(g78
g59
NtRp6261
(dp6262
g62
(dp6263
sg71
g6248
sg64
(lp6264
g57
(g58
g59
NtRp6265
(dp6266
g62
(dp6267
g70
I5
ssg71
g6261
sg64
(lp6268
g57
(cgluon.html
A
p6269
g59
NtRp6270
(dp6271
g62
(dp6272
S'_class'
p6273
S'brand'
p6274
sS'_href'
p6275
S'http://www.web2py.com/'
p6276
ssg71
Nsg64
(lp6277
g57
(cgluon.html
B
p6278
g59
NtRp6279
(dp6280
g62
(dp6281
sg71
g6270
sg64
(lp6282
S'web'
p6283
ag57
(cgluon.html
SPAN
p6284
g59
NtRp6285
(dp6286
g62
(dp6287
sg71
g6279
sg64
(lp6288
I2
asbaS'py'
p6289
asbacgluon.html
XML_unpickle
p6290
(S's\r\x00\x00\x00&trade;&nbsp;'
tRp6291
asbasbasbasbag57
(g73
g59
NtRp6292
(dp6293
g62
(dp6294
sg71
g5810
sg64
(lp6295
g57
(g78
g59
NtRp6296
(dp6297
g62
(dp6298
g82
g83
ssg71
g6292
sg64
(lp6299
S'menu'
p6300
asbag57
(g78
g59
NtRp6301
(dp6302
g62
(dp6303
g89
g90
ssg71
g6292
sg64
(lp6304
S':'
asbag57
(g78
g59
NtRp6305
(dp6306
g62
(dp6307
sg71
g6292
sg64
(lp6308
g57
(g58
g59
NtRp6309
(dp6310
g62
(dp6311
g70
I5
ssg71
g6305
sg64
(lp6312
g57
(g66
g59
NtRp6313
(dp6314
g62
(dp6315
g70
I4
ssg71
Nsg64
(lp6316
g57
(g73
g59
NtRp6317
(dp6318
g62
(dp6319
sg71
g6313
sg64
(lp6320
g57
(g78
g59
NtRp6321
(dp6322
g62
(dp6323
sg71
g6317
sg64
(lp6324
g57
(g58
g59
NtRp6325
(dp6326
g62
(dp6327
g70
I4
ssg71
g6321
sg64
(lp6328
g57
(g66
g59
NtRp6329
(dp6330
g62
(dp6331
g70
I3
ssg71
Nsg64
(lp6332
g57
(g73
g59
NtRp6333
(dp6334
g62
(dp6335
sg71
g6329
sg64
(lp6336
g57
(g78
g59
NtRp6337
(dp6338
g62
(dp6339
sg71
g6333
sg64
(lp6340
g57
(g58
g59
NtRp6341
(dp6342
g62
(dp6343
g70
I3
ssg71
g6337
sg64
(lp6344
cgluon.languages
lazyT_unpickle
p6345
(S's\x04\x00\x00\x00Home'
tRp6346
asbasbasbag57
(g73
g59
NtRp6347
(dp6348
g62
(dp6349
sg71
g6329
sg64
(lp6350
g57
(g78
g59
NtRp6351
(dp6352
g62
(dp6353
sg71
g6347
sg64
(lp6354
g57
(g58
g59
NtRp6355
(dp6356
g62
(dp6357
g70
I3
ssg71
g6351
sg64
(lp6358
g100
asbasbasbag57
(g73
g59
NtRp6359
(dp6360
g62
(dp6361
sg71
g6329
sg64
(lp6362
g57
(g78
g59
NtRp6363
(dp6364
g62
(dp6365
sg71
g6359
sg64
(lp6366
g57
(g58
g59
NtRp6367
(dp6368
g62
(dp6369
g70
I3
ssg71
g6363
sg64
(lp6370
S'/reddit/default/index'
p6371
asbasbasbag57
(g73
g59
NtRp6372
(dp6373
g62
(dp6374
sg71
g6329
sg64
(lp6375
g57
(g78
g59
NtRp6376
(dp6377
g62
(dp6378
sg71
g6372
sg64
(lp6379
g57
(g58
g59
NtRp6380
(dp6381
g62
(dp6382
g70
I3
ssg71
g6376
sg64
(lp6383
g57
(g66
g59
NtRp6384
(dp6385
g62
(dp6386
g70
I2
ssg71
Nsg64
(lp6387
sbasbasbasbasbasbasbasbag57
(g73
g59
NtRp6388
(dp6389
g62
(dp6390
sg71
g6313
sg64
(lp6391
g57
(g78
g59
NtRp6392
(dp6393
g62
(dp6394
sg71
g6388
sg64
(lp6395
g57
(g58
g59
NtRp6396
(dp6397
g62
(dp6398
g70
I4
ssg71
g6392
sg64
(lp6399
g57
(g66
g59
NtRp6400
(dp6401
g62
(dp6402
g70
I3
ssg71
Nsg64
(lp6403
g57
(g73
g59
NtRp6404
(dp6405
g62
(dp6406
sg71
g6400
sg64
(lp6407
g57
(g78
g59
NtRp6408
(dp6409
g62
(dp6410
sg71
g6404
sg64
(lp6411
g57
(g58
g59
NtRp6412
(dp6413
g62
(dp6414
g70
I3
ssg71
g6408
sg64
(lp6415
g57
(g6284
g59
NtRp6416
(dp6417
g62
(dp6418
g6273
S'highlighted'
p6419
ssg71
Nsg64
(lp6420
g6247
asbasbasbasbag57
(g73
g59
NtRp6421
(dp6422
g62
(dp6423
sg71
g6400
sg64
(lp6424
g57
(g78
g59
NtRp6425
(dp6426
g62
(dp6427
sg71
g6421
sg64
(lp6428
g57
(g58
g59
NtRp6429
(dp6430
g62
(dp6431
g70
I3
ssg71
g6425
sg64
(lp6432
g100
asbasbasbag57
(g73
g59
NtRp6433
(dp6434
g62
(dp6435
sg71
g6400
sg64
(lp6436
g57
(g78
g59
NtRp6437
(dp6438
g62
(dp6439
sg71
g6433
sg64
(lp6440
g57
(g58
g59
NtRp6441
(dp6442
g62
(dp6443
g70
I3
ssg71
g6437
sg64
(lp6444
S'http://web2py.com'
p6445
asbasbasbag57
(g73
g59
NtRp6446
(dp6447
g62
(dp6448
sg71
g6400
sg64
(lp6449
g57
(g78
g59
NtRp6450
(dp6451
g62
(dp6452
sg71
g6446
sg64
(lp6453
g57
(g58
g59
NtRp6454
(dp6455
g62
(dp6456
g70
I3
ssg71
g6450
sg64
(lp6457
g57
(g66
g59
NtRp6458
(dp6459
g62
(dp6460
g70
I2
ssg71
Nsg64
(lp6461
g57
(g73
g59
NtRp6462
(dp6463
g62
(dp6464
sg71
g6458
sg64
(lp6465
g57
(g78
g59
NtRp6466
(dp6467
g62
(dp6468
sg71
g6462
sg64
(lp6469
g57
(g58
g59
NtRp6470
(dp6471
g62
(dp6472
g70
I2
ssg71
g6466
sg64
(lp6473
g57
(g66
g59
NtRp6474
(dp6475
g62
(dp6476
g70
I1
ssg71
Nsg64
(lp6477
g57
(g73
g59
NtRp6478
(dp6479
g62
(dp6480
sg71
g6474
sg64
(lp6481
g57
(g78
g59
NtRp6482
(dp6483
g62
(dp6484
sg71
g6478
sg64
(lp6485
g57
(g58
g59
NtRp6486
(dp6487
g62
(dp6488
g70
I1
ssg71
g6482
sg64
(lp6489
g6345
(S's\x08\x00\x00\x00My Sites'
tRp6490
asbasbasbag57
(g73
g59
NtRp6491
(dp6492
g62
(dp6493
sg71
g6474
sg64
(lp6494
g57
(g78
g59
NtRp6495
(dp6496
g62
(dp6497
sg71
g6491
sg64
(lp6498
g57
(g58
g59
NtRp6499
(dp6500
g62
(dp6501
g70
I1
ssg71
g6495
sg64
(lp6502
I00
asbasbasbag57
(g73
g59
NtRp6503
(dp6504
g62
(dp6505
sg71
g6474
sg64
(lp6506
g57
(g78
g59
NtRp6507
(dp6508
g62
(dp6509
sg71
g6503
sg64
(lp6510
g57
(g58
g59
NtRp6511
(dp6512
g62
(dp6513
g70
I1
ssg71
g6507
sg64
(lp6514
S'/admin/default/site'
p6515
asbasbasbasbasbasbasbag57
(g73
g59
NtRp6516
(dp6517
g62
(dp6518
sg71
g6458
sg64
(lp6519
g57
(g78
g59
NtRp6520
(dp6521
g62
(dp6522
sg71
g6516
sg64
(lp6523
g57
(g58
g59
NtRp6524
(dp6525
g62
(dp6526
g70
I2
ssg71
g6520
sg64
(lp6527
g57
(g66
g59
NtRp6528
(dp6529
g62
(dp6530
g70
I1
ssg71
Nsg64
(lp6531
g57
(g73
g59
NtRp6532
(dp6533
g62
(dp6534
sg71
g6528
sg64
(lp6535
g57
(g78
g59
NtRp6536
(dp6537
g62
(dp6538
sg71
g6532
sg64
(lp6539
g57
(g58
g59
NtRp6540
(dp6541
g62
(dp6542
g70
I1
ssg71
g6536
sg64
(lp6543
g6345
(S's\x08\x00\x00\x00This App'
tRp6544
asbasbasbag57
(g73
g59
NtRp6545
(dp6546
g62
(dp6547
sg71
g6528
sg64
(lp6548
g57
(g78
g59
NtRp6549
(dp6550
g62
(dp6551
sg71
g6545
sg64
(lp6552
g57
(g58
g59
NtRp6553
(dp6554
g62
(dp6555
g70
I1
ssg71
g6549
sg64
(lp6556
I00
asbasbasbag57
(g73
g59
NtRp6557
(dp6558
g62
(dp6559
sg71
g6528
sg64
(lp6560
g57
(g78
g59
NtRp6561
(dp6562
g62
(dp6563
sg71
g6557
sg64
(lp6564
g57
(g58
g59
NtRp6565
(dp6566
g62
(dp6567
g70
I1
ssg71
g6561
sg64
(lp6568
S'/admin/default/design/reddit'
p6569
asbasbasbag57
(g73
g59
NtRp6570
(dp6571
g62
(dp6572
sg71
g6528
sg64
(lp6573
g57
(g78
g59
NtRp6574
(dp6575
g62
(dp6576
sg71
g6570
sg64
(lp6577
g57
(g58
g59
NtRp6578
(dp6579
g62
(dp6580
g70
I1
ssg71
g6574
sg64
(lp6581
(lp6582
(g6345
(S's\n\x00\x00\x00Controller'
tRp6583
I00
S'/admin/default/edit/reddit/controllers/default.py'
tp6584
a(g6345
(S's\x04\x00\x00\x00View'
tRp6585
I00
S'/admin/default/edit/reddit/views/default/displaycat.html'
tp6586
a(g6345
(S's\x06\x00\x00\x00Layout'
tRp6587
I00
S'/admin/default/edit/reddit/views/layout.html'
tp6588
a(g6345
(S's\n\x00\x00\x00Stylesheet'
tRp6589
I00
S'/admin/default/edit/reddit/static/css/web2py.css'
tp6590
a(g6345
(S's\x08\x00\x00\x00DB Model'
tRp6591
I00
S'/admin/default/edit/reddit/models/db.py'
tp6592
a(g6345
(S's\n\x00\x00\x00Menu Model'
tRp6593
I00
S'/admin/default/edit/reddit/models/menu.py'
tp6594
a(g6345
(S's\x08\x00\x00\x00Database'
tRp6595
I00
S'/reddit/appadmin/index'
tp6596
a(g6345
(S's\x06\x00\x00\x00Errors'
tRp6597
I00
S'/admin/default/errors/reddit'
tp6598
a(g6345
(S's\x05\x00\x00\x00About'
tRp6599
I00
S'/admin/default/about/reddit'
tp6600
aasbasbasbasbasbasbasbag57
(g73
g59
NtRp6601
(dp6602
g62
(dp6603
sg71
g6458
sg64
(lp6604
g57
(g78
g59
NtRp6605
(dp6606
g62
(dp6607
sg71
g6601
sg64
(lp6608
g57
(g58
g59
NtRp6609
(dp6610
g62
(dp6611
g70
I2
ssg71
g6605
sg64
(lp6612
g57
(g66
g59
NtRp6613
(dp6614
g62
(dp6615
g70
I1
ssg71
Nsg64
(lp6616
g57
(g73
g59
NtRp6617
(dp6618
g62
(dp6619
sg71
g6613
sg64
(lp6620
g57
(g78
g59
NtRp6621
(dp6622
g62
(dp6623
sg71
g6617
sg64
(lp6624
g57
(g58
g59
NtRp6625
(dp6626
g62
(dp6627
g70
I1
ssg71
g6621
sg64
(lp6628
S'web2py.com'
p6629
asbasbasbag57
(g73
g59
NtRp6630
(dp6631
g62
(dp6632
sg71
g6613
sg64
(lp6633
g57
(g78
g59
NtRp6634
(dp6635
g62
(dp6636
sg71
g6630
sg64
(lp6637
g57
(g58
g59
NtRp6638
(dp6639
g62
(dp6640
g70
I1
ssg71
g6634
sg64
(lp6641
I00
asbasbasbag57
(g73
g59
NtRp6642
(dp6643
g62
(dp6644
sg71
g6613
sg64
(lp6645
g57
(g78
g59
NtRp6646
(dp6647
g62
(dp6648
sg71
g6642
sg64
(lp6649
g57
(g58
g59
NtRp6650
(dp6651
g62
(dp6652
g70
I1
ssg71
g6646
sg64
(lp6653
S'http://www.web2py.com'
p6654
asbasbasbag57
(g73
g59
NtRp6655
(dp6656
g62
(dp6657
sg71
g6613
sg64
(lp6658
g57
(g78
g59
NtRp6659
(dp6660
g62
(dp6661
sg71
g6655
sg64
(lp6662
g57
(g58
g59
NtRp6663
(dp6664
g62
(dp6665
g70
I1
ssg71
g6659
sg64
(lp6666
(lp6667
(g6345
(S's\x08\x00\x00\x00Download'
tRp6668
I00
S'http://www.web2py.com/examples/default/download'
p6669
tp6670
a(g6345
(S's\x07\x00\x00\x00Support'
tRp6671
I00
S'http://www.web2py.com/examples/default/support'
p6672
tp6673
a(g6345
(S's\x04\x00\x00\x00Demo'
tRp6674
I00
S'http://web2py.com/demo_admin'
p6675
tp6676
a(g6345
(S's\x0e\x00\x00\x00Quick Examples'
tRp6677
I00
S'http://web2py.com/examples/default/examples'
p6678
tp6679
a(g6345
(S's\x03\x00\x00\x00FAQ'
tRp6680
I00
S'http://web2py.com/AlterEgo'
p6681
tp6682
a(g6345
(S's\x06\x00\x00\x00Videos'
tRp6683
I00
S'http://www.web2py.com/examples/default/videos/'
p6684
tp6685
a(g6345
(S's\x11\x00\x00\x00Free Applications'
tRp6686
I00
S'http://web2py.com/appliances'
p6687
tp6688
a(g6345
(S's\x07\x00\x00\x00Plugins'
tRp6689
I00
S'http://web2py.com/plugins'
p6690
tp6691
a(g6345
(S's\x07\x00\x00\x00Layouts'
tRp6692
I00
S'http://web2py.com/layouts'
p6693
tp6694
a(g6345
(S's\x07\x00\x00\x00Recipes'
tRp6695
I00
S'http://web2pyslices.com/'
p6696
tp6697
a(g6345
(S's\x08\x00\x00\x00Semantic'
tRp6698
I00
S'http://web2py.com/semantic'
p6699
tp6700
aasbasbasbasbasbasbasbag57
(g73
g59
NtRp6701
(dp6702
g62
(dp6703
sg71
g6458
sg64
(lp6704
g57
(g78
g59
NtRp6705
(dp6706
g62
(dp6707
sg71
g6701
sg64
(lp6708
g57
(g58
g59
NtRp6709
(dp6710
g62
(dp6711
g70
I2
ssg71
g6705
sg64
(lp6712
g57
(g66
g59
NtRp6713
(dp6714
g62
(dp6715
g70
I1
ssg71
Nsg64
(lp6716
g57
(g73
g59
NtRp6717
(dp6718
g62
(dp6719
sg71
g6713
sg64
(lp6720
g57
(g78
g59
NtRp6721
(dp6722
g62
(dp6723
sg71
g6717
sg64
(lp6724
g57
(g58
g59
NtRp6725
(dp6726
g62
(dp6727
g70
I1
ssg71
g6721
sg64
(lp6728
g6345
(S's\r\x00\x00\x00Documentation'
tRp6729
asbasbasbag57
(g73
g59
NtRp6730
(dp6731
g62
(dp6732
sg71
g6713
sg64
(lp6733
g57
(g78
g59
NtRp6734
(dp6735
g62
(dp6736
sg71
g6730
sg64
(lp6737
g57
(g58
g59
NtRp6738
(dp6739
g62
(dp6740
g70
I1
ssg71
g6734
sg64
(lp6741
I00
asbasbasbag57
(g73
g59
NtRp6742
(dp6743
g62
(dp6744
sg71
g6713
sg64
(lp6745
g57
(g78
g59
NtRp6746
(dp6747
g62
(dp6748
sg71
g6742
sg64
(lp6749
g57
(g58
g59
NtRp6750
(dp6751
g62
(dp6752
g70
I1
ssg71
g6746
sg64
(lp6753
S'http://www.web2py.com/book'
p6754
asbasbasbag57
(g73
g59
NtRp6755
(dp6756
g62
(dp6757
sg71
g6713
sg64
(lp6758
g57
(g78
g59
NtRp6759
(dp6760
g62
(dp6761
sg71
g6755
sg64
(lp6762
g57
(g58
g59
NtRp6763
(dp6764
g62
(dp6765
g70
I1
ssg71
g6759
sg64
(lp6766
(lp6767
(g6345
(S's\x07\x00\x00\x00Preface'
tRp6768
I00
S'http://www.web2py.com/book/default/chapter/00'
p6769
tp6770
a(g6345
(S's\x0c\x00\x00\x00Introduction'
tRp6771
I00
S'http://www.web2py.com/book/default/chapter/01'
p6772
tp6773
a(g6345
(S's\x06\x00\x00\x00Python'
tRp6774
I00
S'http://www.web2py.com/book/default/chapter/02'
p6775
tp6776
a(g6345
(S's\x08\x00\x00\x00Overview'
tRp6777
I00
S'http://www.web2py.com/book/default/chapter/03'
p6778
tp6779
a(g6345
(S's\x08\x00\x00\x00The Core'
tRp6780
I00
S'http://www.web2py.com/book/default/chapter/04'
p6781
tp6782
a(g6345
(S's\t\x00\x00\x00The Views'
tRp6783
I00
S'http://www.web2py.com/book/default/chapter/05'
p6784
tp6785
a(g6345
(S's\x08\x00\x00\x00Database'
tRp6786
I00
S'http://www.web2py.com/book/default/chapter/06'
p6787
tp6788
a(g6345
(S's\x14\x00\x00\x00Forms and Validators'
tRp6789
I00
S'http://www.web2py.com/book/default/chapter/07'
p6790
tp6791
a(g6345
(S's\r\x00\x00\x00Email and SMS'
tRp6792
I00
S'http://www.web2py.com/book/default/chapter/08'
p6793
tp6794
a(g6345
(S's\x0e\x00\x00\x00Access Control'
tRp6795
I00
S'http://www.web2py.com/book/default/chapter/09'
p6796
tp6797
a(g6345
(S's\x08\x00\x00\x00Services'
tRp6798
I00
S'http://www.web2py.com/book/default/chapter/10'
p6799
tp6800
a(g6345
(S's\x0c\x00\x00\x00Ajax Recipes'
tRp6801
I00
S'http://www.web2py.com/book/default/chapter/11'
p6802
tp6803
a(g6345
(S's\x16\x00\x00\x00Components and Plugins'
tRp6804
I00
S'http://www.web2py.com/book/default/chapter/12'
p6805
tp6806
a(g6345
(S's\x12\x00\x00\x00Deployment Recipes'
tRp6807
I00
S'http://www.web2py.com/book/default/chapter/13'
p6808
tp6809
a(g6345
(S's\r\x00\x00\x00Other Recipes'
tRp6810
I00
S'http://www.web2py.com/book/default/chapter/14'
p6811
tp6812
a(g6345
(S's\r\x00\x00\x00Buy this book'
tRp6813
I00
S'http://stores.lulu.com/web2py'
p6814
tp6815
aasbasbasbasbasbasbasbag57
(g73
g59
NtRp6816
(dp6817
g62
(dp6818
sg71
g6458
sg64
(lp6819
g57
(g78
g59
NtRp6820
(dp6821
g62
(dp6822
sg71
g6816
sg64
(lp6823
g57
(g58
g59
NtRp6824
(dp6825
g62
(dp6826
g70
I2
ssg71
g6820
sg64
(lp6827
g57
(g66
g59
NtRp6828
(dp6829
g62
(dp6830
g70
I1
ssg71
Nsg64
(lp6831
g57
(g73
g59
NtRp6832
(dp6833
g62
(dp6834
sg71
g6828
sg64
(lp6835
g57
(g78
g59
NtRp6836
(dp6837
g62
(dp6838
sg71
g6832
sg64
(lp6839
g57
(g58
g59
NtRp6840
(dp6841
g62
(dp6842
g70
I1
ssg71
g6836
sg64
(lp6843
g6345
(S's\t\x00\x00\x00Community'
tRp6844
asbasbasbag57
(g73
g59
NtRp6845
(dp6846
g62
(dp6847
sg71
g6828
sg64
(lp6848
g57
(g78
g59
NtRp6849
(dp6850
g62
(dp6851
sg71
g6845
sg64
(lp6852
g57
(g58
g59
NtRp6853
(dp6854
g62
(dp6855
g70
I1
ssg71
g6849
sg64
(lp6856
I00
asbasbasbag57
(g73
g59
NtRp6857
(dp6858
g62
(dp6859
sg71
g6828
sg64
(lp6860
g57
(g78
g59
NtRp6861
(dp6862
g62
(dp6863
sg71
g6857
sg64
(lp6864
g57
(g58
g59
NtRp6865
(dp6866
g62
(dp6867
g70
I1
ssg71
g6861
sg64
(lp6868
Nasbasbasbag57
(g73
g59
NtRp6869
(dp6870
g62
(dp6871
sg71
g6828
sg64
(lp6872
g57
(g78
g59
NtRp6873
(dp6874
g62
(dp6875
sg71
g6869
sg64
(lp6876
g57
(g58
g59
NtRp6877
(dp6878
g62
(dp6879
g70
I1
ssg71
g6873
sg64
(lp6880
(lp6881
(g6345
(S's\x06\x00\x00\x00Groups'
tRp6882
I00
S'http://www.web2py.com/examples/default/usergroups'
p6883
tp6884
a(g6345
(S's\x07\x00\x00\x00Twitter'
tRp6885
I00
S'http://twitter.com/web2py'
p6886
tp6887
a(g6345
(S's\t\x00\x00\x00Live Chat'
tRp6888
I00
S'http://webchat.freenode.net/?channels=web2py'
p6889
tp6890
aasbasbasbasbasbasbasbag57
(g73
g59
NtRp6891
(dp6892
g62
(dp6893
sg71
g6458
sg64
(lp6894
g57
(g78
g59
NtRp6895
(dp6896
g62
(dp6897
sg71
g6891
sg64
(lp6898
g57
(g58
g59
NtRp6899
(dp6900
g62
(dp6901
g70
I2
ssg71
g6895
sg64
(lp6902
g57
(g66
g59
NtRp6903
(dp6904
g62
(dp6905
g70
I1
ssg71
Nsg64
(lp6906
g57
(g73
g59
NtRp6907
(dp6908
g62
(dp6909
sg71
g6903
sg64
(lp6910
g57
(g78
g59
NtRp6911
(dp6912
g62
(dp6913
sg71
g6907
sg64
(lp6914
g57
(g58
g59
NtRp6915
(dp6916
g62
(dp6917
g70
I1
ssg71
g6911
sg64
(lp6918
g6345
(S's\x07\x00\x00\x00Plugins'
tRp6919
asbasbasbag57
(g73
g59
NtRp6920
(dp6921
g62
(dp6922
sg71
g6903
sg64
(lp6923
g57
(g78
g59
NtRp6924
(dp6925
g62
(dp6926
sg71
g6920
sg64
(lp6927
g57
(g58
g59
NtRp6928
(dp6929
g62
(dp6930
g70
I1
ssg71
g6924
sg64
(lp6931
I00
asbasbasbag57
(g73
g59
NtRp6932
(dp6933
g62
(dp6934
sg71
g6903
sg64
(lp6935
g57
(g78
g59
NtRp6936
(dp6937
g62
(dp6938
sg71
g6932
sg64
(lp6939
g57
(g58
g59
NtRp6940
(dp6941
g62
(dp6942
g70
I1
ssg71
g6936
sg64
(lp6943
Nasbasbasbag57
(g73
g59
NtRp6944
(dp6945
g62
(dp6946
sg71
g6903
sg64
(lp6947
g57
(g78
g59
NtRp6948
(dp6949
g62
(dp6950
sg71
g6944
sg64
(lp6951
g57
(g58
g59
NtRp6952
(dp6953
g62
(dp6954
g70
I1
ssg71
g6948
sg64
(lp6955
(lp6956
(S'plugin_wiki'
p6957
I00
S'http://web2py.com/examples/default/download'
p6958
tp6959
a(g6345
(S's\r\x00\x00\x00Other Plugins'
tRp6960
I00
g6690
tp6961
a(g6345
(S's\x0e\x00\x00\x00Layout Plugins'
tRp6962
I00
g6693
tp6963
aasbasbasbasbasbasbasbasbasbasbasbasbasbasbasbasbasbasbasbag57
(g73
g59
NtRp6964
(dp6965
g62
(dp6966
sg71
g5810
sg64
(lp6967
g57
(g78
g59
NtRp6968
(dp6969
g62
(dp6970
g82
g83
ssg71
g6964
sg64
(lp6971
S'meta'
p6972
asbag57
(g78
g59
NtRp6973
(dp6974
g62
(dp6975
g89
g90
ssg71
g6964
sg64
(lp6976
S':'
asbag57
(g78
g59
NtRp6977
(dp6978
g62
(dp6979
sg71
g6964
sg64
(lp6980
g57
(g58
g59
NtRp6981
(dp6982
g62
(dp6983
g70
I5
ssg71
g6977
sg64
(lp6984
g57
(g66
g59
NtRp6985
(dp6986
g62
(dp6987
g70
I4
ssg71
Nsg64
(lp6988
g57
(g73
g59
NtRp6989
(dp6990
g62
(dp6991
sg71
g6985
sg64
(lp6992
g57
(g78
g59
NtRp6993
(dp6994
g62
(dp6995
g82
g83
ssg71
g6989
sg64
(lp6996
S'author'
p6997
asbag57
(g78
g59
NtRp6998
(dp6999
g62
(dp7000
g89
g90
ssg71
g6989
sg64
(lp7001
S':'
asbag57
(g78
g59
NtRp7002
(dp7003
g62
(dp7004
sg71
g6989
sg64
(lp7005
g57
(g58
g59
NtRp7006
(dp7007
g62
(dp7008
g70
I4
ssg71
g7002
sg64
(lp7009
S'Your Name <you@example.com>'
p7010
asbasbasbag57
(g73
g59
NtRp7011
(dp7012
g62
(dp7013
sg71
g6985
sg64
(lp7014
g57
(g78
g59
NtRp7015
(dp7016
g62
(dp7017
g82
g83
ssg71
g7011
sg64
(lp7018
S'description'
p7019
asbag57
(g78
g59
NtRp7020
(dp7021
g62
(dp7022
g89
g90
ssg71
g7011
sg64
(lp7023
S':'
asbag57
(g78
g59
NtRp7024
(dp7025
g62
(dp7026
sg71
g7011
sg64
(lp7027
g57
(g58
g59
NtRp7028
(dp7029
g62
(dp7030
g70
I4
ssg71
g7024
sg64
(lp7031
S'a cool new app'
p7032
asbasbasbag57
(g73
g59
NtRp7033
(dp7034
g62
(dp7035
sg71
g6985
sg64
(lp7036
g57
(g78
g59
NtRp7037
(dp7038
g62
(dp7039
g82
g83
ssg71
g7033
sg64
(lp7040
S'generator'
p7041
asbag57
(g78
g59
NtRp7042
(dp7043
g62
(dp7044
g89
g90
ssg71
g7033
sg64
(lp7045
S':'
asbag57
(g78
g59
NtRp7046
(dp7047
g62
(dp7048
sg71
g7033
sg64
(lp7049
g57
(g58
g59
NtRp7050
(dp7051
g62
(dp7052
g70
I4
ssg71
g7046
sg64
(lp7053
S'Web2py Web Framework'
p7054
asbasbasbag57
(g73
g59
NtRp7055
(dp7056
g62
(dp7057
sg71
g6985
sg64
(lp7058
g57
(g78
g59
NtRp7059
(dp7060
g62
(dp7061
g82
g83
ssg71
g7055
sg64
(lp7062
S'keywords'
p7063
asbag57
(g78
g59
NtRp7064
(dp7065
g62
(dp7066
g89
g90
ssg71
g7055
sg64
(lp7067
S':'
asbag57
(g78
g59
NtRp7068
(dp7069
g62
(dp7070
sg71
g7055
sg64
(lp7071
g57
(g58
g59
NtRp7072
(dp7073
g62
(dp7074
g70
I4
ssg71
g7068
sg64
(lp7075
S'web2py, python, framework'
p7076
asbasbasbasbasbasbasbag57
(g73
g59
NtRp7077
(dp7078
g62
(dp7079
sg71
g5810
sg64
(lp7080
g57
(g78
g59
NtRp7081
(dp7082
g62
(dp7083
g82
g83
ssg71
g7077
sg64
(lp7084
S'models_to_run'
p7085
asbag57
(g78
g59
NtRp7086
(dp7087
g62
(dp7088
g89
g90
ssg71
g7077
sg64
(lp7089
S':'
asbag57
(g78
g59
NtRp7090
(dp7091
g62
(dp7092
sg71
g7077
sg64
(lp7093
g57
(g58
g59
NtRp7094
(dp7095
g62
(dp7096
g70
I5
ssg71
g7090
sg64
(lp7097
g57
(g66
g59
NtRp7098
(dp7099
g62
(dp7100
g70
I4
ssg71
Nsg64
(lp7101
g57
(g73
g59
NtRp7102
(dp7103
g62
(dp7104
sg71
g7098
sg64
(lp7105
g57
(g78
g59
NtRp7106
(dp7107
g62
(dp7108
sg71
g7102
sg64
(lp7109
g57
(g58
g59
NtRp7110
(dp7111
g62
(dp7112
g70
I4
ssg71
g7106
sg64
(lp7113
S'^\\w+\\.py$'
p7114
asbasbasbag57
(g73
g59
NtRp7115
(dp7116
g62
(dp7117
sg71
g7098
sg64
(lp7118
g57
(g78
g59
NtRp7119
(dp7120
g62
(dp7121
sg71
g7115
sg64
(lp7122
g57
(g58
g59
NtRp7123
(dp7124
g62
(dp7125
g70
I4
ssg71
g7119
sg64
(lp7126
S'^default/\\w+\\.py$'
p7127
asbasbasbag57
(g73
g59
NtRp7128
(dp7129
g62
(dp7130
sg71
g7098
sg64
(lp7131
g57
(g78
g59
NtRp7132
(dp7133
g62
(dp7134
sg71
g7128
sg64
(lp7135
g57
(g58
g59
NtRp7136
(dp7137
g62
(dp7138
g70
I4
ssg71
g7132
sg64
(lp7139
S'^default/displaycat/\\w+\\.py$'
p7140
asbasbasbasbasbasbasbag57
(g73
g59
NtRp7141
(dp7142
g62
(dp7143
sg71
g5810
sg64
(lp7144
g57
(g78
g59
NtRp7145
(dp7146
g62
(dp7147
g82
g83
ssg71
g7141
sg64
(lp7148
S'postprocessing'
p7149
asbag57
(g78
g59
NtRp7150
(dp7151
g62
(dp7152
g89
g90
ssg71
g7141
sg64
(lp7153
S':'
asbag57
(g78
g59
NtRp7154
(dp7155
g62
(dp7156
sg71
g7141
sg64
(lp7157
g57
(g58
g59
NtRp7158
(dp7159
g62
(dp7160
g70
I5
ssg71
g7154
sg64
(lp7161
g57
(g66
g59
NtRp7162
(dp7163
g62
(dp7164
g70
I4
ssg71
Nsg64
(lp7165
sbasbasbasbag57
(g73
g59
NtRp7166
(dp7167
g62
(dp7168
sg71
g5810
sg64
(lp7169
g57
(g78
g59
NtRp7170
(dp7171
g62
(dp7172
g82
g83
ssg71
g7166
sg64
(lp7173
S'session_cookie_expires'
p7174
asbag57
(g78
g59
NtRp7175
(dp7176
g62
(dp7177
g89
g90
ssg71
g7166
sg64
(lp7178
S':'
asbag57
(g78
g59
NtRp7179
(dp7180
g62
(dp7181
sg71
g7166
sg64
(lp7182
g57
(g58
g59
NtRp7183
(dp7184
g62
(dp7185
g70
I5
ssg71
g7179
sg64
(lp7186
S'None'
p7187
asbasbasbag57
(g73
g59
NtRp7188
(dp7189
g62
(dp7190
sg71
g5810
sg64
(lp7191
g57
(g78
g59
NtRp7192
(dp7193
g62
(dp7194
g82
g83
ssg71
g7188
sg64
(lp7195
S'session_data_name'
p7196
asbag57
(g78
g59
NtRp7197
(dp7198
g62
(dp7199
g89
g90
ssg71
g7188
sg64
(lp7200
S':'
asbag57
(g78
g59
NtRp7201
(dp7202
g62
(dp7203
sg71
g7188
sg64
(lp7204
g57
(g58
g59
NtRp7205
(dp7206
g62
(dp7207
g70
I5
ssg71
g7201
sg64
(lp7208
S'session_data_reddit'
p7209
asbasbasbag57
(g73
g59
NtRp7210
(dp7211
g62
(dp7212
sg71
g5810
sg64
(lp7213
g57
(g78
g59
NtRp7214
(dp7215
g62
(dp7216
g82
g83
ssg71
g7210
sg64
(lp7217
S'session_file'
p7218
asbag57
(g78
g59
NtRp7219
(dp7220
g62
(dp7221
g89
g90
ssg71
g7210
sg64
(lp7222
S':'
asbag57
(g78
g59
NtRp7223
(dp7224
g62
(dp7225
sg71
g7210
sg64
(lp7226
g57
(g58
g59
NtRp7227
(dp7228
g62
(dp7229
g70
I5
ssg71
g7223
sg64
(lp7230
S"<open file '/home/pankaj/web2py/applications/reddit/sessions/127.0.0.1-24289f39-32a1-48fb-a367-22792fb8b813', mode 'rb+' at 0x9c3d7b0>"
p7231
asbasbasbag57
(g73
g59
NtRp7232
(dp7233
g62
(dp7234
sg71
g5810
sg64
(lp7235
g57
(g78
g59
NtRp7236
(dp7237
g62
(dp7238
g82
g83
ssg71
g7232
sg64
(lp7239
S'session_filename'
p7240
asbag57
(g78
g59
NtRp7241
(dp7242
g62
(dp7243
g89
g90
ssg71
g7232
sg64
(lp7244
S':'
asbag57
(g78
g59
NtRp7245
(dp7246
g62
(dp7247
sg71
g7232
sg64
(lp7248
g57
(g58
g59
NtRp7249
(dp7250
g62
(dp7251
g70
I5
ssg71
g7245
sg64
(lp7252
S'/home/pankaj/web2py/applications/reddit/sessions/127.0.0.1-24289f39-32a1-48fb-a367-22792fb8b813'
p7253
asbasbasbag57
(g73
g59
NtRp7254
(dp7255
g62
(dp7256
sg71
g5810
sg64
(lp7257
g57
(g78
g59
NtRp7258
(dp7259
g62
(dp7260
g82
g83
ssg71
g7254
sg64
(lp7261
S'session_id'
p7262
asbag57
(g78
g59
NtRp7263
(dp7264
g62
(dp7265
g89
g90
ssg71
g7254
sg64
(lp7266
S':'
asbag57
(g78
g59
NtRp7267
(dp7268
g62
(dp7269
sg71
g7254
sg64
(lp7270
g57
(g58
g59
NtRp7271
(dp7272
g62
(dp7273
g70
I5
ssg71
g7267
sg64
(lp7274
g1777
asbasbasbag57
(g73
g59
NtRp7275
(dp7276
g62
(dp7277
sg71
g5810
sg64
(lp7278
g57
(g78
g59
NtRp7279
(dp7280
g62
(dp7281
g82
g83
ssg71
g7275
sg64
(lp7282
S'session_id_name'
p7283
asbag57
(g78
g59
NtRp7284
(dp7285
g62
(dp7286
g89
g90
ssg71
g7275
sg64
(lp7287
S':'
asbag57
(g78
g59
NtRp7288
(dp7289
g62
(dp7290
sg71
g7275
sg64
(lp7291
g57
(g58
g59
NtRp7292
(dp7293
g62
(dp7294
g70
I5
ssg71
g7288
sg64
(lp7295
g5867
asbasbasbag57
(g73
g59
NtRp7296
(dp7297
g62
(dp7298
sg71
g5810
sg64
(lp7299
g57
(g78
g59
NtRp7300
(dp7301
g62
(dp7302
g82
g83
ssg71
g7296
sg64
(lp7303
S'session_locked'
p7304
asbag57
(g78
g59
NtRp7305
(dp7306
g62
(dp7307
g89
g90
ssg71
g7296
sg64
(lp7308
S':'
asbag57
(g78
g59
NtRp7309
(dp7310
g62
(dp7311
sg71
g7296
sg64
(lp7312
g57
(g58
g59
NtRp7313
(dp7314
g62
(dp7315
g70
I5
ssg71
g7309
sg64
(lp7316
g3714
asbasbasbag57
(g73
g59
NtRp7317
(dp7318
g62
(dp7319
sg71
g5810
sg64
(lp7320
g57
(g78
g59
NtRp7321
(dp7322
g62
(dp7323
g82
g83
ssg71
g7317
sg64
(lp7324
S'session_new'
p7325
asbag57
(g78
g59
NtRp7326
(dp7327
g62
(dp7328
g89
g90
ssg71
g7317
sg64
(lp7329
S':'
asbag57
(g78
g59
NtRp7330
(dp7331
g62
(dp7332
sg71
g7317
sg64
(lp7333
g57
(g58
g59
NtRp7334
(dp7335
g62
(dp7336
g70
I5
ssg71
g7330
sg64
(lp7337
g100
asbasbasbag57
(g73
g59
NtRp7338
(dp7339
g62
(dp7340
sg71
g5810
sg64
(lp7341
g57
(g78
g59
NtRp7342
(dp7343
g62
(dp7344
g82
g83
ssg71
g7338
sg64
(lp7345
S'session_storage_type'
p7346
asbag57
(g78
g59
NtRp7347
(dp7348
g62
(dp7349
g89
g90
ssg71
g7338
sg64
(lp7350
S':'
asbag57
(g78
g59
NtRp7351
(dp7352
g62
(dp7353
sg71
g7338
sg64
(lp7354
g57
(g58
g59
NtRp7355
(dp7356
g62
(dp7357
g70
I5
ssg71
g7351
sg64
(lp7358
g5270
asbasbasbag57
(g73
g59
NtRp7359
(dp7360
g62
(dp7361
sg71
g5810
sg64
(lp7362
g57
(g78
g59
NtRp7363
(dp7364
g62
(dp7365
g82
g83
ssg71
g7359
sg64
(lp7366
S'status'
p7367
asbag57
(g78
g59
NtRp7368
(dp7369
g62
(dp7370
g89
g90
ssg71
g7359
sg64
(lp7371
S':'
asbag57
(g78
g59
NtRp7372
(dp7373
g62
(dp7374
sg71
g7359
sg64
(lp7375
g57
(g58
g59
NtRp7376
(dp7377
g62
(dp7378
g70
I5
ssg71
g7372
sg64
(lp7379
S'200'
p7380
asbasbasbag57
(g73
g59
NtRp7381
(dp7382
g62
(dp7383
sg71
g5810
sg64
(lp7384
g57
(g78
g59
NtRp7385
(dp7386
g62
(dp7387
g82
g83
ssg71
g7381
sg64
(lp7388
S'subtitle'
p7389
asbag57
(g78
g59
NtRp7390
(dp7391
g62
(dp7392
g89
g90
ssg71
g7381
sg64
(lp7393
S':'
asbag57
(g78
g59
NtRp7394
(dp7395
g62
(dp7396
sg71
g7381
sg64
(lp7397
g57
(g58
g59
NtRp7398
(dp7399
g62
(dp7400
g70
I5
ssg71
g7394
sg64
(lp7401
g6345
(S's\r\x00\x00\x00customize me!'
tRp7402
asbasbasbag57
(g73
g59
NtRp7403
(dp7404
g62
(dp7405
sg71
g5810
sg64
(lp7406
g57
(g78
g59
NtRp7407
(dp7408
g62
(dp7409
g82
g83
ssg71
g7403
sg64
(lp7410
S'title'
p7411
asbag57
(g78
g59
NtRp7412
(dp7413
g62
(dp7414
g89
g90
ssg71
g7403
sg64
(lp7415
S':'
asbag57
(g78
g59
NtRp7416
(dp7417
g62
(dp7418
sg71
g7403
sg64
(lp7419
g57
(g58
g59
NtRp7420
(dp7421
g62
(dp7422
g70
I5
ssg71
g7416
sg64
(lp7423
S'Reddit'
p7424
asbasbasbag57
(g73
g59
NtRp7425
(dp7426
g62
(dp7427
sg71
g5810
sg64
(lp7428
g57
(g78
g59
NtRp7429
(dp7430
g62
(dp7431
g82
g83
ssg71
g7425
sg64
(lp7432
S'view'
p7433
asbag57
(g78
g59
NtRp7434
(dp7435
g62
(dp7436
g89
g90
ssg71
g7425
sg64
(lp7437
S':'
asbag57
(g78
g59
NtRp7438
(dp7439
g62
(dp7440
sg71
g7425
sg64
(lp7441
g57
(g58
g59
NtRp7442
(dp7443
g62
(dp7444
g70
I5
ssg71
g7438
sg64
(lp7445
S'default/displaycat.html'
p7446
asbasbasbasbasbsS'locals'
p7447
(dp7448
S'self'
p7449
S"<Row {'category': {'id': 2, 'name': 'education'}...ate': datetime.datetime(2013, 8, 29, 2, 9, 25)}}>"
p7450
sS'm'
S'None'
p7451
sS'key'
p7452
S"'rating'"
p7453
sssS'traceback'
p7454
S'Traceback (most recent call last):\n  File "/home/pankaj/web2py/gluon/restricted.py", line 212, in restricted\n    exec ccode in environment\n  File "/home/pankaj/web2py/applications/reddit/controllers/default.py", line 101, in <module>\n  File "/home/pankaj/web2py/gluon/globals.py", line 193, in <lambda>\n    self._caller = lambda f: f()\n  File "/home/pankaj/web2py/applications/reddit/controllers/default.py", line 33, in displaycat\n    news = sorted(nstore, key=lambda k: k[\'rating\'])\n  File "/home/pankaj/web2py/applications/reddit/controllers/default.py", line 33, in <lambda>\n    news = sorted(nstore, key=lambda k: k[\'rating\'])\n  File "/home/pankaj/web2py/gluon/dal.py", line 6448, in __getitem__\n    return ogetattr(self, key)\nAttributeError: \'Row\' object has no attribute \'rating\'\n'
p7455
s.