(dp1
S'output'
p2
S"<type 'exceptions.IndentationError'> expected an indented block (default.py, line 40)"
p3
sS'layer'
p4
S'/home/pankaj/web2py/applications/reddit/controllers/default.py'
p5
sS'code'
p6
S'# -*- coding: utf-8 -*-\n# this file is released under public domain and you can use without limitations\n\n#########################################################################\n## This is a samples controller\n## - index is the default action of any application\n## - user is required for authentication and authorization\n## - download is for downloading files uploaded in the db (does streaming)\n## - call exposes all registered services (none by default)\n#########################################################################\n\nimport operator\n@auth.requires_login()\ndef index():\n\n    #   response.flash = T("Welcome to Reddit.com!")\n    nstore=db(db.news.id > 0).select()\n    cstore=db(db.comments.id > 0).select()\n    catg=db(db.category.id>0).select()\n    news = sorted(nstore, key=lambda k: k[\'rating\'])\n    comments = sorted(cstore, key=lambda k: k[\'rating\'])\n    news.reverse()\n    comments.reverse()\n    return dict(nstore=news,cstore=comments,catg=catg)\n\ndef displaycat():\n\tcatid=int(request.post_vars[\'catid\'])\n\tnstore=db((db.news.cat==db.category.name)&(db.category.id==catid)).select()\n\tnstore=db((db.category.id == catid)&(db.category.name == db.news.cat)).select(db.news.ALL)\n\t\'\'\' selecting all comments no matter what the category is \'\'\'\n\tcstore=db(db.comments.id > 0).select()\n\tcatg=db(db.category.id>0).select()\n\tnews = sorted(nstore, key=lambda k: k[\'rating\'])\n\tcomments = sorted(cstore, key=lambda k: k[\'rating\'])\n\tnews.reverse()\n\tcomments.reverse()\n\treturn dict(nstore=news,cstore=comments,catg=catg)\ndef myposts():\n\ndef uplike():\n\tcheck=int(request.post_vars[\'check\'])\n\tnid=int(request.post_vars[\'nid\'])\n\tuid=int(request.post_vars[\'uid\'])\n\tnval=db(db.news.id==nid).select()\n\tprint nval\n\tval=int(nval[0][\'rating\'])\n\tif check==1:\n\t\tval=val+5\n\t\tdb.lstate.insert(newsid=nid,usrid=uid,cflag=1)\n\telif check==2:\n\t\tval=val-3\n\t\tdb.lstate.insert(newsid=nid,usrid=uid,cflag=0)\n\telif check==3:\n\t\tval=val+8\n\t\tdb((db.lstate.newsid==nid)&(db.lstate.usrid==uid)).update(cflag=1)\n\telif check==4:\n\t\tval=val-8\n\t\tdb((db.lstate.newsid==nid)&(db.lstate.usrid==uid)).update(cflag=0)\n\tdb(db.news.id==nid).update(rating=val)\n\tredirect(URL(\'index\'))\n\treturn dict()\ndef addpost():\n\tform = SQLFORM(db.news)\n\tif form.process().accepted:\n\t\tsession.flash=\'form accepted\'\n\t\tredirect(URL(\'index\'))\n\telif form.errors:\n\t\tresponse.flash = \'form has errors\'\n\treturn dict(form=form)\n\ndef addc():\n\tcval=request.post_vars[\'cval\']\n\tnid=int(request.post_vars[\'nid\'])\n\tusri=int(request.post_vars[\'usri\'])\n\tdb.comments.insert(val=cval,newsid=nid,usrid=usri)\n\tredirect(URL(\'index\'))\n\treturn dict()\n\ndef user():\n   return dict(form=auth())\n"""\n    exposes:\n    http://..../[app]/default/user/login\n    http://..../[app]/default/user/logout\n    http://..../[app]/default/user/register\n    http://..../[app]/default/user/profile\n    http://..../[app]/default/user/retrieve_password\n    http://..../[app]/default/user/change_password\n    use @auth.requires_login()\n\t@auth.requires_membership(\'group name\')\n\t@auth.requires_permission(\'read\',\'table name\',record_id)\n    to decorate functions that need access control\n"""\n\ndef download():\n    """\n    allows downloading of uploaded files\n    http://..../[app]/default/download/[filename]\n    """\n    return response.download(request, db)\n\n\ndef call():\n    """\n    exposes services. for example:\n    http://..../[app]/default/call/jsonrpc\n    decorate with @services.jsonrpc the functions to expose\n    supports xml, json, xmlrpc, jsonrpc, amfrpc, rss, csv\n    """\n    return service()\n\n\n@auth.requires_signature()\ndef data():\n    """\n    http://..../[app]/default/data/tables\n    http://..../[app]/default/data/create/[table]\n    http://..../[app]/default/data/read/[table]/[id]\n    http://..../[app]/default/data/update/[table]/[id]\n    http://..../[app]/default/data/delete/[table]/[id]\n    http://..../[app]/default/data/select/[table]\n    http://..../[app]/default/data/search/[table]\n    but URLs must be signed, i.e. linked with\n      A(\'table\',_href=URL(\'data/tables\',user_signature=True))\n    or with the signed load operator\n      LOAD(\'default\',\'data.load\',args=\'tables\',ajax=True,user_signature=True)\n    """\n    return dict(form=crud())\n\nresponse._vars=response._caller(addpost)\n'
p7
sS'snapshot'
p8
(dp9
S'exception'
p10
(dp11
S'__getslice__'
p12
S"<method-wrapper '__getslice__' of exceptions.IndentationError object>"
p13
sS'text'
p14
S"'def uplike():\\n'"
p15
sS'__str__'
p16
S"<method-wrapper '__str__' of exceptions.IndentationError object>"
p17
sS'__reduce__'
p18
S'<built-in method __reduce__ of exceptions.IndentationError object>'
p19
sS'__dict__'
p20
S'{}'
p21
sS'__sizeof__'
p22
S'<built-in method __sizeof__ of exceptions.IndentationError object>'
p23
sS'__init__'
p24
S"<method-wrapper '__init__' of exceptions.IndentationError object>"
p25
sS'__setattr__'
p26
S"<method-wrapper '__setattr__' of exceptions.IndentationError object>"
p27
sS'__reduce_ex__'
p28
S'<built-in method __reduce_ex__ of exceptions.IndentationError object>'
p29
sS'__new__'
p30
S'<built-in method __new__ of type object>'
p31
sS'__format__'
p32
S'<built-in method __format__ of exceptions.IndentationError object>'
p33
sS'__class__'
p34
S"<type 'exceptions.IndentationError'>"
p35
sS'filename'
p36
S"'/home/pankaj/web2py/applications/reddit/controllers/default.py'"
p37
sS'lineno'
p38
S'40'
p39
sS'msg'
p40
S"'expected an indented block'"
p41
sS'__doc__'
p42
S"'Improper indentation.'"
p43
sS'__getitem__'
p44
S"<method-wrapper '__getitem__' of exceptions.IndentationError object>"
p45
sS'__setstate__'
p46
S'<built-in method __setstate__ of exceptions.IndentationError object>'
p47
sS'__getattribute__'
p48
S"<method-wrapper '__getattribute__' of exceptions.IndentationError object>"
p49
sS'print_file_and_line'
p50
S'None'
p51
sS'args'
p52
S"('expected an indented block', ('/home/pankaj/web2py/applications/reddit/controllers/default.py', 40, 3, 'def uplike():\\n'))"
p53
sS'__subclasshook__'
p54
S'<built-in method __subclasshook__ of type object>'
p55
sS'offset'
p56
S'3'
sS'__unicode__'
p57
S'<built-in method __unicode__ of exceptions.IndentationError object>'
p58
sS'__delattr__'
p59
S"<method-wrapper '__delattr__' of exceptions.IndentationError object>"
p60
sS'__repr__'
p61
S"<method-wrapper '__repr__' of exceptions.IndentationError object>"
p62
sS'__hash__'
p63
S"<method-wrapper '__hash__' of exceptions.IndentationError object>"
p64
ssS'evalue'
p65
S'expected an indented block (default.py, line 40)'
p66
sS'request'
p67
ccopy_reg
_reconstructor
p68
(cgluon.html
BEAUTIFY
p69
c__builtin__
object
p70
NtRp71
(dp72
S'attributes'
p73
(dp74
sS'components'
p75
(lp76
g68
(cgluon.html
TABLE
p77
g70
NtRp78
(dp79
g73
(dp80
S'level'
p81
I5
ssS'parent'
p82
Nsg75
(lp83
g68
(cgluon.html
TR
p84
g70
NtRp85
(dp86
g73
(dp87
sg82
g78
sg75
(lp88
g68
(cgluon.html
TD
p89
g70
NtRp90
(dp91
g73
(dp92
S'_style'
p93
S'font-weight:bold;vertical-align:top'
p94
ssg82
g85
sg75
(lp95
S'ajax'
p96
asbag68
(g89
g70
NtRp97
(dp98
g73
(dp99
S'_valign'
p100
S'top'
p101
ssg82
g85
sg75
(lp102
S':'
asbag68
(g89
g70
NtRp103
(dp104
g73
(dp105
sg82
g85
sg75
(lp106
g68
(g69
g70
NtRp107
(dp108
g73
(dp109
g81
I5
ssg82
g103
sg75
(lp110
S'False'
p111
asbasbasbag68
(g84
g70
NtRp112
(dp113
g73
(dp114
sg82
g78
sg75
(lp115
g68
(g89
g70
NtRp116
(dp117
g73
(dp118
g93
g94
ssg82
g112
sg75
(lp119
S'application'
p120
asbag68
(g89
g70
NtRp121
(dp122
g73
(dp123
g100
g101
ssg82
g112
sg75
(lp124
S':'
asbag68
(g89
g70
NtRp125
(dp126
g73
(dp127
sg82
g112
sg75
(lp128
g68
(g69
g70
NtRp129
(dp130
g73
(dp131
g81
I5
ssg82
g125
sg75
(lp132
S'reddit'
p133
asbasbasbag68
(g84
g70
NtRp134
(dp135
g73
(dp136
sg82
g78
sg75
(lp137
g68
(g89
g70
NtRp138
(dp139
g73
(dp140
g93
g94
ssg82
g134
sg75
(lp141
g52
asbag68
(g89
g70
NtRp142
(dp143
g73
(dp144
g100
g101
ssg82
g134
sg75
(lp145
S':'
asbag68
(g89
g70
NtRp146
(dp147
g73
(dp148
sg82
g134
sg75
(lp149
g68
(g69
g70
NtRp150
(dp151
g73
(dp152
g81
I5
ssg82
g146
sg75
(lp153
g68
(g77
g70
NtRp154
(dp155
g73
(dp156
g81
I4
ssg82
Nsg75
(lp157
sbasbasbasbag68
(g84
g70
NtRp158
(dp159
g73
(dp160
sg82
g78
sg75
(lp161
g68
(g89
g70
NtRp162
(dp163
g73
(dp164
g93
g94
ssg82
g158
sg75
(lp165
S'body'
p166
asbag68
(g89
g70
NtRp167
(dp168
g73
(dp169
g100
g101
ssg82
g158
sg75
(lp170
S':'
asbag68
(g89
g70
NtRp171
(dp172
g73
(dp173
sg82
g158
sg75
(lp174
g68
(g69
g70
NtRp175
(dp176
g73
(dp177
g81
I5
ssg82
g171
sg75
(lp178
S"<open file '<fdopen>', mode 'w+b' at 0xae78b808>"
p179
asbasbasbag68
(g84
g70
NtRp180
(dp181
g73
(dp182
sg82
g78
sg75
(lp183
g68
(g89
g70
NtRp184
(dp185
g73
(dp186
g93
g94
ssg82
g180
sg75
(lp187
S'cid'
p188
asbag68
(g89
g70
NtRp189
(dp190
g73
(dp191
g100
g101
ssg82
g180
sg75
(lp192
S':'
asbag68
(g89
g70
NtRp193
(dp194
g73
(dp195
sg82
g180
sg75
(lp196
g68
(g69
g70
NtRp197
(dp198
g73
(dp199
g81
I5
ssg82
g193
sg75
(lp200
S'None'
p201
asbasbasbag68
(g84
g70
NtRp202
(dp203
g73
(dp204
sg82
g78
sg75
(lp205
g68
(g89
g70
NtRp206
(dp207
g73
(dp208
g93
g94
ssg82
g202
sg75
(lp209
S'client'
p210
asbag68
(g89
g70
NtRp211
(dp212
g73
(dp213
g100
g101
ssg82
g202
sg75
(lp214
S':'
asbag68
(g89
g70
NtRp215
(dp216
g73
(dp217
sg82
g202
sg75
(lp218
g68
(g69
g70
NtRp219
(dp220
g73
(dp221
g81
I5
ssg82
g215
sg75
(lp222
S'127.0.0.1'
p223
asbasbasbag68
(g84
g70
NtRp224
(dp225
g73
(dp226
sg82
g78
sg75
(lp227
g68
(g89
g70
NtRp228
(dp229
g73
(dp230
g93
g94
ssg82
g224
sg75
(lp231
S'controller'
p232
asbag68
(g89
g70
NtRp233
(dp234
g73
(dp235
g100
g101
ssg82
g224
sg75
(lp236
S':'
asbag68
(g89
g70
NtRp237
(dp238
g73
(dp239
sg82
g224
sg75
(lp240
g68
(g69
g70
NtRp241
(dp242
g73
(dp243
g81
I5
ssg82
g237
sg75
(lp244
S'default'
p245
asbasbasbag68
(g84
g70
NtRp246
(dp247
g73
(dp248
sg82
g78
sg75
(lp249
g68
(g89
g70
NtRp250
(dp251
g73
(dp252
g93
g94
ssg82
g246
sg75
(lp253
S'cookies'
p254
asbag68
(g89
g70
NtRp255
(dp256
g73
(dp257
g100
g101
ssg82
g246
sg75
(lp258
S':'
asbag68
(g89
g70
NtRp259
(dp260
g73
(dp261
sg82
g246
sg75
(lp262
g68
(g69
g70
NtRp263
(dp264
g73
(dp265
g81
I5
ssg82
g259
sg75
(lp266
g68
(g77
g70
NtRp267
(dp268
g73
(dp269
g81
I4
ssg82
Nsg75
(lp270
g68
(g84
g70
NtRp271
(dp272
g73
(dp273
sg82
g267
sg75
(lp274
g68
(g89
g70
NtRp275
(dp276
g73
(dp277
g93
g94
ssg82
g271
sg75
(lp278
S'session_id_admin'
p279
asbag68
(g89
g70
NtRp280
(dp281
g73
(dp282
g100
g101
ssg82
g271
sg75
(lp283
S':'
asbag68
(g89
g70
NtRp284
(dp285
g73
(dp286
sg82
g271
sg75
(lp287
g68
(g69
g70
NtRp288
(dp289
g73
(dp290
g81
I4
ssg82
g284
sg75
(lp291
S'127.0.0.1-b12d36e5-38f3-46ab-bf33-377848bfeca4'
p292
ag68
(g77
g70
NtRp293
(dp294
g73
(dp295
g81
I3
ssg82
Nsg75
(lp296
g68
(g84
g70
NtRp297
(dp298
g73
(dp299
sg82
g293
sg75
(lp300
g68
(g89
g70
NtRp301
(dp302
g73
(dp303
g93
g94
ssg82
g297
sg75
(lp304
S'comment'
p305
asbag68
(g89
g70
NtRp306
(dp307
g73
(dp308
g100
g101
ssg82
g297
sg75
(lp309
S':'
asbag68
(g89
g70
NtRp310
(dp311
g73
(dp312
sg82
g297
sg75
(lp313
g68
(g69
g70
NtRp314
(dp315
g73
(dp316
g81
I3
ssg82
g310
sg75
(lp317
S''
asbasbasbag68
(g84
g70
NtRp318
(dp319
g73
(dp320
sg82
g293
sg75
(lp321
g68
(g89
g70
NtRp322
(dp323
g73
(dp324
g93
g94
ssg82
g318
sg75
(lp325
S'domain'
p326
asbag68
(g89
g70
NtRp327
(dp328
g73
(dp329
g100
g101
ssg82
g318
sg75
(lp330
S':'
asbag68
(g89
g70
NtRp331
(dp332
g73
(dp333
sg82
g318
sg75
(lp334
g68
(g69
g70
NtRp335
(dp336
g73
(dp337
g81
I3
ssg82
g331
sg75
(lp338
S''
asbasbasbag68
(g84
g70
NtRp339
(dp340
g73
(dp341
sg82
g293
sg75
(lp342
g68
(g89
g70
NtRp343
(dp344
g73
(dp345
g93
g94
ssg82
g339
sg75
(lp346
S'expires'
p347
asbag68
(g89
g70
NtRp348
(dp349
g73
(dp350
g100
g101
ssg82
g339
sg75
(lp351
S':'
asbag68
(g89
g70
NtRp352
(dp353
g73
(dp354
sg82
g339
sg75
(lp355
g68
(g69
g70
NtRp356
(dp357
g73
(dp358
g81
I3
ssg82
g352
sg75
(lp359
S''
asbasbasbag68
(g84
g70
NtRp360
(dp361
g73
(dp362
sg82
g293
sg75
(lp363
g68
(g89
g70
NtRp364
(dp365
g73
(dp366
g93
g94
ssg82
g360
sg75
(lp367
S'httponly'
p368
asbag68
(g89
g70
NtRp369
(dp370
g73
(dp371
g100
g101
ssg82
g360
sg75
(lp372
S':'
asbag68
(g89
g70
NtRp373
(dp374
g73
(dp375
sg82
g360
sg75
(lp376
g68
(g69
g70
NtRp377
(dp378
g73
(dp379
g81
I3
ssg82
g373
sg75
(lp380
S''
asbasbasbag68
(g84
g70
NtRp381
(dp382
g73
(dp383
sg82
g293
sg75
(lp384
g68
(g89
g70
NtRp385
(dp386
g73
(dp387
g93
g94
ssg82
g381
sg75
(lp388
S'max-age'
p389
asbag68
(g89
g70
NtRp390
(dp391
g73
(dp392
g100
g101
ssg82
g381
sg75
(lp393
S':'
asbag68
(g89
g70
NtRp394
(dp395
g73
(dp396
sg82
g381
sg75
(lp397
g68
(g69
g70
NtRp398
(dp399
g73
(dp400
g81
I3
ssg82
g394
sg75
(lp401
S''
asbasbasbag68
(g84
g70
NtRp402
(dp403
g73
(dp404
sg82
g293
sg75
(lp405
g68
(g89
g70
NtRp406
(dp407
g73
(dp408
g93
g94
ssg82
g402
sg75
(lp409
S'path'
p410
asbag68
(g89
g70
NtRp411
(dp412
g73
(dp413
g100
g101
ssg82
g402
sg75
(lp414
S':'
asbag68
(g89
g70
NtRp415
(dp416
g73
(dp417
sg82
g402
sg75
(lp418
g68
(g69
g70
NtRp419
(dp420
g73
(dp421
g81
I3
ssg82
g415
sg75
(lp422
S''
asbasbasbag68
(g84
g70
NtRp423
(dp424
g73
(dp425
sg82
g293
sg75
(lp426
g68
(g89
g70
NtRp427
(dp428
g73
(dp429
g93
g94
ssg82
g423
sg75
(lp430
S'secure'
p431
asbag68
(g89
g70
NtRp432
(dp433
g73
(dp434
g100
g101
ssg82
g423
sg75
(lp435
S':'
asbag68
(g89
g70
NtRp436
(dp437
g73
(dp438
sg82
g423
sg75
(lp439
g68
(g69
g70
NtRp440
(dp441
g73
(dp442
g81
I3
ssg82
g436
sg75
(lp443
S''
asbasbasbag68
(g84
g70
NtRp444
(dp445
g73
(dp446
sg82
g293
sg75
(lp447
g68
(g89
g70
NtRp448
(dp449
g73
(dp450
g93
g94
ssg82
g444
sg75
(lp451
S'version'
p452
asbag68
(g89
g70
NtRp453
(dp454
g73
(dp455
g100
g101
ssg82
g444
sg75
(lp456
S':'
asbag68
(g89
g70
NtRp457
(dp458
g73
(dp459
sg82
g444
sg75
(lp460
g68
(g69
g70
NtRp461
(dp462
g73
(dp463
g81
I3
ssg82
g457
sg75
(lp464
S''
asbasbasbasbasbasbasbag68
(g84
g70
NtRp465
(dp466
g73
(dp467
sg82
g267
sg75
(lp468
g68
(g89
g70
NtRp469
(dp470
g73
(dp471
g93
g94
ssg82
g465
sg75
(lp472
S'session_id_reddit'
p473
asbag68
(g89
g70
NtRp474
(dp475
g73
(dp476
g100
g101
ssg82
g465
sg75
(lp477
S':'
asbag68
(g89
g70
NtRp478
(dp479
g73
(dp480
sg82
g465
sg75
(lp481
g68
(g69
g70
NtRp482
(dp483
g73
(dp484
g81
I4
ssg82
g478
sg75
(lp485
S'127.0.0.1-24289f39-32a1-48fb-a367-22792fb8b813'
p486
ag68
(g77
g70
NtRp487
(dp488
g73
(dp489
g81
I3
ssg82
Nsg75
(lp490
g68
(g84
g70
NtRp491
(dp492
g73
(dp493
sg82
g487
sg75
(lp494
g68
(g89
g70
NtRp495
(dp496
g73
(dp497
g93
g94
ssg82
g491
sg75
(lp498
g305
asbag68
(g89
g70
NtRp499
(dp500
g73
(dp501
g100
g101
ssg82
g491
sg75
(lp502
S':'
asbag68
(g89
g70
NtRp503
(dp504
g73
(dp505
sg82
g491
sg75
(lp506
g68
(g69
g70
NtRp507
(dp508
g73
(dp509
g81
I3
ssg82
g503
sg75
(lp510
S''
asbasbasbag68
(g84
g70
NtRp511
(dp512
g73
(dp513
sg82
g487
sg75
(lp514
g68
(g89
g70
NtRp515
(dp516
g73
(dp517
g93
g94
ssg82
g511
sg75
(lp518
g326
asbag68
(g89
g70
NtRp519
(dp520
g73
(dp521
g100
g101
ssg82
g511
sg75
(lp522
S':'
asbag68
(g89
g70
NtRp523
(dp524
g73
(dp525
sg82
g511
sg75
(lp526
g68
(g69
g70
NtRp527
(dp528
g73
(dp529
g81
I3
ssg82
g523
sg75
(lp530
S''
asbasbasbag68
(g84
g70
NtRp531
(dp532
g73
(dp533
sg82
g487
sg75
(lp534
g68
(g89
g70
NtRp535
(dp536
g73
(dp537
g93
g94
ssg82
g531
sg75
(lp538
g347
asbag68
(g89
g70
NtRp539
(dp540
g73
(dp541
g100
g101
ssg82
g531
sg75
(lp542
S':'
asbag68
(g89
g70
NtRp543
(dp544
g73
(dp545
sg82
g531
sg75
(lp546
g68
(g69
g70
NtRp547
(dp548
g73
(dp549
g81
I3
ssg82
g543
sg75
(lp550
S''
asbasbasbag68
(g84
g70
NtRp551
(dp552
g73
(dp553
sg82
g487
sg75
(lp554
g68
(g89
g70
NtRp555
(dp556
g73
(dp557
g93
g94
ssg82
g551
sg75
(lp558
g368
asbag68
(g89
g70
NtRp559
(dp560
g73
(dp561
g100
g101
ssg82
g551
sg75
(lp562
S':'
asbag68
(g89
g70
NtRp563
(dp564
g73
(dp565
sg82
g551
sg75
(lp566
g68
(g69
g70
NtRp567
(dp568
g73
(dp569
g81
I3
ssg82
g563
sg75
(lp570
S''
asbasbasbag68
(g84
g70
NtRp571
(dp572
g73
(dp573
sg82
g487
sg75
(lp574
g68
(g89
g70
NtRp575
(dp576
g73
(dp577
g93
g94
ssg82
g571
sg75
(lp578
g389
asbag68
(g89
g70
NtRp579
(dp580
g73
(dp581
g100
g101
ssg82
g571
sg75
(lp582
S':'
asbag68
(g89
g70
NtRp583
(dp584
g73
(dp585
sg82
g571
sg75
(lp586
g68
(g69
g70
NtRp587
(dp588
g73
(dp589
g81
I3
ssg82
g583
sg75
(lp590
S''
asbasbasbag68
(g84
g70
NtRp591
(dp592
g73
(dp593
sg82
g487
sg75
(lp594
g68
(g89
g70
NtRp595
(dp596
g73
(dp597
g93
g94
ssg82
g591
sg75
(lp598
g410
asbag68
(g89
g70
NtRp599
(dp600
g73
(dp601
g100
g101
ssg82
g591
sg75
(lp602
S':'
asbag68
(g89
g70
NtRp603
(dp604
g73
(dp605
sg82
g591
sg75
(lp606
g68
(g69
g70
NtRp607
(dp608
g73
(dp609
g81
I3
ssg82
g603
sg75
(lp610
S''
asbasbasbag68
(g84
g70
NtRp611
(dp612
g73
(dp613
sg82
g487
sg75
(lp614
g68
(g89
g70
NtRp615
(dp616
g73
(dp617
g93
g94
ssg82
g611
sg75
(lp618
g431
asbag68
(g89
g70
NtRp619
(dp620
g73
(dp621
g100
g101
ssg82
g611
sg75
(lp622
S':'
asbag68
(g89
g70
NtRp623
(dp624
g73
(dp625
sg82
g611
sg75
(lp626
g68
(g69
g70
NtRp627
(dp628
g73
(dp629
g81
I3
ssg82
g623
sg75
(lp630
S''
asbasbasbag68
(g84
g70
NtRp631
(dp632
g73
(dp633
sg82
g487
sg75
(lp634
g68
(g89
g70
NtRp635
(dp636
g73
(dp637
g93
g94
ssg82
g631
sg75
(lp638
g452
asbag68
(g89
g70
NtRp639
(dp640
g73
(dp641
g100
g101
ssg82
g631
sg75
(lp642
S':'
asbag68
(g89
g70
NtRp643
(dp644
g73
(dp645
sg82
g631
sg75
(lp646
g68
(g69
g70
NtRp647
(dp648
g73
(dp649
g81
I3
ssg82
g643
sg75
(lp650
S''
asbasbasbasbasbasbasbag68
(g84
g70
NtRp651
(dp652
g73
(dp653
sg82
g267
sg75
(lp654
g68
(g89
g70
NtRp655
(dp656
g73
(dp657
g93
g94
ssg82
g651
sg75
(lp658
S'session_id_welcome'
p659
asbag68
(g89
g70
NtRp660
(dp661
g73
(dp662
g100
g101
ssg82
g651
sg75
(lp663
S':'
asbag68
(g89
g70
NtRp664
(dp665
g73
(dp666
sg82
g651
sg75
(lp667
g68
(g69
g70
NtRp668
(dp669
g73
(dp670
g81
I4
ssg82
g664
sg75
(lp671
S'127.0.0.1-6c6acb01-dab7-498a-a6cb-f847f2ae3337'
p672
ag68
(g77
g70
NtRp673
(dp674
g73
(dp675
g81
I3
ssg82
Nsg75
(lp676
g68
(g84
g70
NtRp677
(dp678
g73
(dp679
sg82
g673
sg75
(lp680
g68
(g89
g70
NtRp681
(dp682
g73
(dp683
g93
g94
ssg82
g677
sg75
(lp684
g305
asbag68
(g89
g70
NtRp685
(dp686
g73
(dp687
g100
g101
ssg82
g677
sg75
(lp688
S':'
asbag68
(g89
g70
NtRp689
(dp690
g73
(dp691
sg82
g677
sg75
(lp692
g68
(g69
g70
NtRp693
(dp694
g73
(dp695
g81
I3
ssg82
g689
sg75
(lp696
S''
asbasbasbag68
(g84
g70
NtRp697
(dp698
g73
(dp699
sg82
g673
sg75
(lp700
g68
(g89
g70
NtRp701
(dp702
g73
(dp703
g93
g94
ssg82
g697
sg75
(lp704
g326
asbag68
(g89
g70
NtRp705
(dp706
g73
(dp707
g100
g101
ssg82
g697
sg75
(lp708
S':'
asbag68
(g89
g70
NtRp709
(dp710
g73
(dp711
sg82
g697
sg75
(lp712
g68
(g69
g70
NtRp713
(dp714
g73
(dp715
g81
I3
ssg82
g709
sg75
(lp716
S''
asbasbasbag68
(g84
g70
NtRp717
(dp718
g73
(dp719
sg82
g673
sg75
(lp720
g68
(g89
g70
NtRp721
(dp722
g73
(dp723
g93
g94
ssg82
g717
sg75
(lp724
g347
asbag68
(g89
g70
NtRp725
(dp726
g73
(dp727
g100
g101
ssg82
g717
sg75
(lp728
S':'
asbag68
(g89
g70
NtRp729
(dp730
g73
(dp731
sg82
g717
sg75
(lp732
g68
(g69
g70
NtRp733
(dp734
g73
(dp735
g81
I3
ssg82
g729
sg75
(lp736
S''
asbasbasbag68
(g84
g70
NtRp737
(dp738
g73
(dp739
sg82
g673
sg75
(lp740
g68
(g89
g70
NtRp741
(dp742
g73
(dp743
g93
g94
ssg82
g737
sg75
(lp744
g368
asbag68
(g89
g70
NtRp745
(dp746
g73
(dp747
g100
g101
ssg82
g737
sg75
(lp748
S':'
asbag68
(g89
g70
NtRp749
(dp750
g73
(dp751
sg82
g737
sg75
(lp752
g68
(g69
g70
NtRp753
(dp754
g73
(dp755
g81
I3
ssg82
g749
sg75
(lp756
S''
asbasbasbag68
(g84
g70
NtRp757
(dp758
g73
(dp759
sg82
g673
sg75
(lp760
g68
(g89
g70
NtRp761
(dp762
g73
(dp763
g93
g94
ssg82
g757
sg75
(lp764
g389
asbag68
(g89
g70
NtRp765
(dp766
g73
(dp767
g100
g101
ssg82
g757
sg75
(lp768
S':'
asbag68
(g89
g70
NtRp769
(dp770
g73
(dp771
sg82
g757
sg75
(lp772
g68
(g69
g70
NtRp773
(dp774
g73
(dp775
g81
I3
ssg82
g769
sg75
(lp776
S''
asbasbasbag68
(g84
g70
NtRp777
(dp778
g73
(dp779
sg82
g673
sg75
(lp780
g68
(g89
g70
NtRp781
(dp782
g73
(dp783
g93
g94
ssg82
g777
sg75
(lp784
g410
asbag68
(g89
g70
NtRp785
(dp786
g73
(dp787
g100
g101
ssg82
g777
sg75
(lp788
S':'
asbag68
(g89
g70
NtRp789
(dp790
g73
(dp791
sg82
g777
sg75
(lp792
g68
(g69
g70
NtRp793
(dp794
g73
(dp795
g81
I3
ssg82
g789
sg75
(lp796
S''
asbasbasbag68
(g84
g70
NtRp797
(dp798
g73
(dp799
sg82
g673
sg75
(lp800
g68
(g89
g70
NtRp801
(dp802
g73
(dp803
g93
g94
ssg82
g797
sg75
(lp804
g431
asbag68
(g89
g70
NtRp805
(dp806
g73
(dp807
g100
g101
ssg82
g797
sg75
(lp808
S':'
asbag68
(g89
g70
NtRp809
(dp810
g73
(dp811
sg82
g797
sg75
(lp812
g68
(g69
g70
NtRp813
(dp814
g73
(dp815
g81
I3
ssg82
g809
sg75
(lp816
S''
asbasbasbag68
(g84
g70
NtRp817
(dp818
g73
(dp819
sg82
g673
sg75
(lp820
g68
(g89
g70
NtRp821
(dp822
g73
(dp823
g93
g94
ssg82
g817
sg75
(lp824
g452
asbag68
(g89
g70
NtRp825
(dp826
g73
(dp827
g100
g101
ssg82
g817
sg75
(lp828
S':'
asbag68
(g89
g70
NtRp829
(dp830
g73
(dp831
sg82
g817
sg75
(lp832
g68
(g69
g70
NtRp833
(dp834
g73
(dp835
g81
I3
ssg82
g829
sg75
(lp836
S''
asbasbasbasbasbasbasbasbasbasbasbag68
(g84
g70
NtRp837
(dp838
g73
(dp839
sg82
g78
sg75
(lp840
g68
(g89
g70
NtRp841
(dp842
g73
(dp843
g93
g94
ssg82
g837
sg75
(lp844
S'env'
p845
asbag68
(g89
g70
NtRp846
(dp847
g73
(dp848
g100
g101
ssg82
g837
sg75
(lp849
S':'
asbag68
(g89
g70
NtRp850
(dp851
g73
(dp852
sg82
g837
sg75
(lp853
g68
(g69
g70
NtRp854
(dp855
g73
(dp856
g81
I5
ssg82
g850
sg75
(lp857
g68
(g77
g70
NtRp858
(dp859
g73
(dp860
g81
I4
ssg82
Nsg75
(lp861
g68
(g84
g70
NtRp862
(dp863
g73
(dp864
sg82
g858
sg75
(lp865
g68
(g89
g70
NtRp866
(dp867
g73
(dp868
g93
g94
ssg82
g862
sg75
(lp869
S'app_folders'
p870
asbag68
(g89
g70
NtRp871
(dp872
g73
(dp873
g100
g101
ssg82
g862
sg75
(lp874
S':'
asbag68
(g89
g70
NtRp875
(dp876
g73
(dp877
sg82
g862
sg75
(lp878
g68
(g69
g70
NtRp879
(dp880
g73
(dp881
g81
I4
ssg82
g875
sg75
(lp882
S"set(['/home/pankaj/web2py/applications/admin/', '/home/pankaj/web2py/applications/welcome/', '/home/pankaj/web2py/applications/reddit/'])"
p883
asbasbasbag68
(g84
g70
NtRp884
(dp885
g73
(dp886
sg82
g858
sg75
(lp887
g68
(g89
g70
NtRp888
(dp889
g73
(dp890
g93
g94
ssg82
g884
sg75
(lp891
S'applications_parent'
p892
asbag68
(g89
g70
NtRp893
(dp894
g73
(dp895
g100
g101
ssg82
g884
sg75
(lp896
S':'
asbag68
(g89
g70
NtRp897
(dp898
g73
(dp899
sg82
g884
sg75
(lp900
g68
(g69
g70
NtRp901
(dp902
g73
(dp903
g81
I4
ssg82
g897
sg75
(lp904
S'/home/pankaj/web2py'
p905
asbasbasbag68
(g84
g70
NtRp906
(dp907
g73
(dp908
sg82
g858
sg75
(lp909
g68
(g89
g70
NtRp910
(dp911
g73
(dp912
g93
g94
ssg82
g906
sg75
(lp913
S'cmd_args'
p914
asbag68
(g89
g70
NtRp915
(dp916
g73
(dp917
g100
g101
ssg82
g906
sg75
(lp918
S':'
asbag68
(g89
g70
NtRp919
(dp920
g73
(dp921
sg82
g906
sg75
(lp922
g68
(g69
g70
NtRp923
(dp924
g73
(dp925
g81
I4
ssg82
g919
sg75
(lp926
g68
(g77
g70
NtRp927
(dp928
g73
(dp929
g81
I3
ssg82
Nsg75
(lp930
sbasbasbasbag68
(g84
g70
NtRp931
(dp932
g73
(dp933
sg82
g858
sg75
(lp934
g68
(g89
g70
NtRp935
(dp936
g73
(dp937
g93
g94
ssg82
g931
sg75
(lp938
S'cmd_options'
p939
asbag68
(g89
g70
NtRp940
(dp941
g73
(dp942
g100
g101
ssg82
g931
sg75
(lp943
S':'
asbag68
(g89
g70
NtRp944
(dp945
g73
(dp946
sg82
g931
sg75
(lp947
g68
(g69
g70
NtRp948
(dp949
g73
(dp950
g81
I4
ssg82
g944
sg75
(lp951
S"<Values at 0x96dbdcc: {'verbose': False, 'ip': '127.0.0.1', 'with_scheduler': False, 'ips': [], 'shutdown_timeout': 5, 'taskbar': False, 'port': 8000, 'maxthreads': None, 'softcron': False, 'server_name': 'pankaj-HP-Pavilion-dv4-Notebook-PC', 'bpython': False, 'nogui': False, 'pid_filename': 'httpserver.pid', 'extcron': False, 'runcron': False, 'run_system_tests': False, 'test': None, 'folder': '/home/pankaj/web2py', 'config': '', 'import_models': False, 'winservice': '', 'shell': None, 'run': '', 'log_filename': 'httpserver.log', 'debuglevel': 30, 'args': [''], 'socket_timeout': 5, 'ssl_ca_certificate': None, 'scheduler': None, 'profiler_filename': None, 'ssl_private_key': '', 'scheduler_groups': None, 'password': '<ask>', 'request_queue_size': 5, 'ssl_certificate': '', 'cronjob': False, 'numthreads': None, 'quiet': False, 'interfaces': None, 'minthreads': None, 'timeout': 10, 'plain': False, 'nobanner': False}>"
p952
asbasbasbag68
(g84
g70
NtRp953
(dp954
g73
(dp955
sg82
g858
sg75
(lp956
g68
(g89
g70
NtRp957
(dp958
g73
(dp959
g93
g94
ssg82
g953
sg75
(lp960
S'content_length'
p961
asbag68
(g89
g70
NtRp962
(dp963
g73
(dp964
g100
g101
ssg82
g953
sg75
(lp965
S':'
asbag68
(g89
g70
NtRp966
(dp967
g73
(dp968
sg82
g953
sg75
(lp969
g68
(g69
g70
NtRp970
(dp971
g73
(dp972
g81
I4
ssg82
g966
sg75
(lp973
S'0'
asbasbasbag68
(g84
g70
NtRp974
(dp975
g73
(dp976
sg82
g858
sg75
(lp977
g68
(g89
g70
NtRp978
(dp979
g73
(dp980
g93
g94
ssg82
g974
sg75
(lp981
S'content_type'
p982
asbag68
(g89
g70
NtRp983
(dp984
g73
(dp985
g100
g101
ssg82
g974
sg75
(lp986
S':'
asbag68
(g89
g70
NtRp987
(dp988
g73
(dp989
sg82
g974
sg75
(lp990
g68
(g69
g70
NtRp991
(dp992
g73
(dp993
g81
I4
ssg82
g987
sg75
(lp994
S'application/x-www-form-urlencoded'
p995
asbasbasbag68
(g84
g70
NtRp996
(dp997
g73
(dp998
sg82
g858
sg75
(lp999
g68
(g89
g70
NtRp1000
(dp1001
g73
(dp1002
g93
g94
ssg82
g996
sg75
(lp1003
S'db_sessions'
p1004
asbag68
(g89
g70
NtRp1005
(dp1006
g73
(dp1007
g100
g101
ssg82
g996
sg75
(lp1008
S':'
asbag68
(g89
g70
NtRp1009
(dp1010
g73
(dp1011
sg82
g996
sg75
(lp1012
g68
(g69
g70
NtRp1013
(dp1014
g73
(dp1015
g81
I4
ssg82
g1009
sg75
(lp1016
S'set([])'
p1017
asbasbasbag68
(g84
g70
NtRp1018
(dp1019
g73
(dp1020
sg82
g858
sg75
(lp1021
g68
(g89
g70
NtRp1022
(dp1023
g73
(dp1024
g93
g94
ssg82
g1018
sg75
(lp1025
S'debugging'
p1026
asbag68
(g89
g70
NtRp1027
(dp1028
g73
(dp1029
g100
g101
ssg82
g1018
sg75
(lp1030
S':'
asbag68
(g89
g70
NtRp1031
(dp1032
g73
(dp1033
sg82
g1018
sg75
(lp1034
g68
(g69
g70
NtRp1035
(dp1036
g73
(dp1037
g81
I4
ssg82
g1031
sg75
(lp1038
g111
asbasbasbag68
(g84
g70
NtRp1039
(dp1040
g73
(dp1041
sg82
g858
sg75
(lp1042
g68
(g89
g70
NtRp1043
(dp1044
g73
(dp1045
g93
g94
ssg82
g1039
sg75
(lp1046
S'gluon_parent'
p1047
asbag68
(g89
g70
NtRp1048
(dp1049
g73
(dp1050
g100
g101
ssg82
g1039
sg75
(lp1051
S':'
asbag68
(g89
g70
NtRp1052
(dp1053
g73
(dp1054
sg82
g1039
sg75
(lp1055
g68
(g69
g70
NtRp1056
(dp1057
g73
(dp1058
g81
I4
ssg82
g1052
sg75
(lp1059
S'/home/pankaj/web2py'
p1060
asbasbasbag68
(g84
g70
NtRp1061
(dp1062
g73
(dp1063
sg82
g858
sg75
(lp1064
g68
(g89
g70
NtRp1065
(dp1066
g73
(dp1067
g93
g94
ssg82
g1061
sg75
(lp1068
S'http_accept'
p1069
asbag68
(g89
g70
NtRp1070
(dp1071
g73
(dp1072
g100
g101
ssg82
g1061
sg75
(lp1073
S':'
asbag68
(g89
g70
NtRp1074
(dp1075
g73
(dp1076
sg82
g1061
sg75
(lp1077
g68
(g69
g70
NtRp1078
(dp1079
g73
(dp1080
g81
I4
ssg82
g1074
sg75
(lp1081
S'text/html,application/xhtml+xml,application/xml;q=0.9,*/*;q=0.8'
p1082
asbasbasbag68
(g84
g70
NtRp1083
(dp1084
g73
(dp1085
sg82
g858
sg75
(lp1086
g68
(g89
g70
NtRp1087
(dp1088
g73
(dp1089
g93
g94
ssg82
g1083
sg75
(lp1090
S'http_accept_encoding'
p1091
asbag68
(g89
g70
NtRp1092
(dp1093
g73
(dp1094
g100
g101
ssg82
g1083
sg75
(lp1095
S':'
asbag68
(g89
g70
NtRp1096
(dp1097
g73
(dp1098
sg82
g1083
sg75
(lp1099
g68
(g69
g70
NtRp1100
(dp1101
g73
(dp1102
g81
I4
ssg82
g1096
sg75
(lp1103
S'gzip, deflate'
p1104
asbasbasbag68
(g84
g70
NtRp1105
(dp1106
g73
(dp1107
sg82
g858
sg75
(lp1108
g68
(g89
g70
NtRp1109
(dp1110
g73
(dp1111
g93
g94
ssg82
g1105
sg75
(lp1112
S'http_accept_language'
p1113
asbag68
(g89
g70
NtRp1114
(dp1115
g73
(dp1116
g100
g101
ssg82
g1105
sg75
(lp1117
S':'
asbag68
(g89
g70
NtRp1118
(dp1119
g73
(dp1120
sg82
g1105
sg75
(lp1121
g68
(g69
g70
NtRp1122
(dp1123
g73
(dp1124
g81
I4
ssg82
g1118
sg75
(lp1125
S'en-US,en;q=0.5'
p1126
asbasbasbag68
(g84
g70
NtRp1127
(dp1128
g73
(dp1129
sg82
g858
sg75
(lp1130
g68
(g89
g70
NtRp1131
(dp1132
g73
(dp1133
g93
g94
ssg82
g1127
sg75
(lp1134
S'http_connection'
p1135
asbag68
(g89
g70
NtRp1136
(dp1137
g73
(dp1138
g100
g101
ssg82
g1127
sg75
(lp1139
S':'
asbag68
(g89
g70
NtRp1140
(dp1141
g73
(dp1142
sg82
g1127
sg75
(lp1143
g68
(g69
g70
NtRp1144
(dp1145
g73
(dp1146
g81
I4
ssg82
g1140
sg75
(lp1147
S'keep-alive'
p1148
asbasbasbag68
(g84
g70
NtRp1149
(dp1150
g73
(dp1151
sg82
g858
sg75
(lp1152
g68
(g89
g70
NtRp1153
(dp1154
g73
(dp1155
g93
g94
ssg82
g1149
sg75
(lp1156
S'http_content_length'
p1157
asbag68
(g89
g70
NtRp1158
(dp1159
g73
(dp1160
g100
g101
ssg82
g1149
sg75
(lp1161
S':'
asbag68
(g89
g70
NtRp1162
(dp1163
g73
(dp1164
sg82
g1149
sg75
(lp1165
g68
(g69
g70
NtRp1166
(dp1167
g73
(dp1168
g81
I4
ssg82
g1162
sg75
(lp1169
S'0'
asbasbasbag68
(g84
g70
NtRp1170
(dp1171
g73
(dp1172
sg82
g858
sg75
(lp1173
g68
(g89
g70
NtRp1174
(dp1175
g73
(dp1176
g93
g94
ssg82
g1170
sg75
(lp1177
S'http_content_type'
p1178
asbag68
(g89
g70
NtRp1179
(dp1180
g73
(dp1181
g100
g101
ssg82
g1170
sg75
(lp1182
S':'
asbag68
(g89
g70
NtRp1183
(dp1184
g73
(dp1185
sg82
g1170
sg75
(lp1186
g68
(g69
g70
NtRp1187
(dp1188
g73
(dp1189
g81
I4
ssg82
g1183
sg75
(lp1190
g995
asbasbasbag68
(g84
g70
NtRp1191
(dp1192
g73
(dp1193
sg82
g858
sg75
(lp1194
g68
(g89
g70
NtRp1195
(dp1196
g73
(dp1197
g93
g94
ssg82
g1191
sg75
(lp1198
S'http_cookie'
p1199
asbag68
(g89
g70
NtRp1200
(dp1201
g73
(dp1202
g100
g101
ssg82
g1191
sg75
(lp1203
S':'
asbag68
(g89
g70
NtRp1204
(dp1205
g73
(dp1206
sg82
g1191
sg75
(lp1207
g68
(g69
g70
NtRp1208
(dp1209
g73
(dp1210
g81
I4
ssg82
g1204
sg75
(lp1211
S'session_id_reddit=127.0.0.1-24289f39-32a1-48fb-a367-22792fb8b813; session_id_welcome=127.0.0.1-6c6acb01-dab7-498a-a6cb-f847f2ae3337; session_id_admin=127.0.0.1-b12d36e5-38f3-46ab-bf33-377848bfeca4'
p1212
asbasbasbag68
(g84
g70
NtRp1213
(dp1214
g73
(dp1215
sg82
g858
sg75
(lp1216
g68
(g89
g70
NtRp1217
(dp1218
g73
(dp1219
g93
g94
ssg82
g1213
sg75
(lp1220
S'http_host'
p1221
asbag68
(g89
g70
NtRp1222
(dp1223
g73
(dp1224
g100
g101
ssg82
g1213
sg75
(lp1225
S':'
asbag68
(g89
g70
NtRp1226
(dp1227
g73
(dp1228
sg82
g1213
sg75
(lp1229
g68
(g69
g70
NtRp1230
(dp1231
g73
(dp1232
g81
I4
ssg82
g1226
sg75
(lp1233
S'127.0.0.1:8000'
p1234
asbasbasbag68
(g84
g70
NtRp1235
(dp1236
g73
(dp1237
sg82
g858
sg75
(lp1238
g68
(g89
g70
NtRp1239
(dp1240
g73
(dp1241
g93
g94
ssg82
g1235
sg75
(lp1242
S'http_referer'
p1243
asbag68
(g89
g70
NtRp1244
(dp1245
g73
(dp1246
g100
g101
ssg82
g1235
sg75
(lp1247
S':'
asbag68
(g89
g70
NtRp1248
(dp1249
g73
(dp1250
sg82
g1235
sg75
(lp1251
g68
(g69
g70
NtRp1252
(dp1253
g73
(dp1254
g81
I4
ssg82
g1248
sg75
(lp1255
S'http://127.0.0.1:8000/reddit/default/index'
p1256
asbasbasbag68
(g84
g70
NtRp1257
(dp1258
g73
(dp1259
sg82
g858
sg75
(lp1260
g68
(g89
g70
NtRp1261
(dp1262
g73
(dp1263
g93
g94
ssg82
g1257
sg75
(lp1264
S'http_user_agent'
p1265
asbag68
(g89
g70
NtRp1266
(dp1267
g73
(dp1268
g100
g101
ssg82
g1257
sg75
(lp1269
S':'
asbag68
(g89
g70
NtRp1270
(dp1271
g73
(dp1272
sg82
g1257
sg75
(lp1273
g68
(g69
g70
NtRp1274
(dp1275
g73
(dp1276
g81
I4
ssg82
g1270
sg75
(lp1277
S'Mozilla/5.0 (X11; Ubuntu; Linux i686; rv:23.0) Gecko/20100101 Firefox/23.0'
p1278
asbasbasbag68
(g84
g70
NtRp1279
(dp1280
g73
(dp1281
sg82
g858
sg75
(lp1282
g68
(g89
g70
NtRp1283
(dp1284
g73
(dp1285
g93
g94
ssg82
g1279
sg75
(lp1286
S'is_jython'
p1287
asbag68
(g89
g70
NtRp1288
(dp1289
g73
(dp1290
g100
g101
ssg82
g1279
sg75
(lp1291
S':'
asbag68
(g89
g70
NtRp1292
(dp1293
g73
(dp1294
sg82
g1279
sg75
(lp1295
g68
(g69
g70
NtRp1296
(dp1297
g73
(dp1298
g81
I4
ssg82
g1292
sg75
(lp1299
g111
asbasbasbag68
(g84
g70
NtRp1300
(dp1301
g73
(dp1302
sg82
g858
sg75
(lp1303
g68
(g89
g70
NtRp1304
(dp1305
g73
(dp1306
g93
g94
ssg82
g1300
sg75
(lp1307
S'is_pypy'
p1308
asbag68
(g89
g70
NtRp1309
(dp1310
g73
(dp1311
g100
g101
ssg82
g1300
sg75
(lp1312
S':'
asbag68
(g89
g70
NtRp1313
(dp1314
g73
(dp1315
sg82
g1300
sg75
(lp1316
g68
(g69
g70
NtRp1317
(dp1318
g73
(dp1319
g81
I4
ssg82
g1313
sg75
(lp1320
g111
asbasbasbag68
(g84
g70
NtRp1321
(dp1322
g73
(dp1323
sg82
g858
sg75
(lp1324
g68
(g89
g70
NtRp1325
(dp1326
g73
(dp1327
g93
g94
ssg82
g1321
sg75
(lp1328
S'local_hosts'
p1329
asbag68
(g89
g70
NtRp1330
(dp1331
g73
(dp1332
g100
g101
ssg82
g1321
sg75
(lp1333
S':'
asbag68
(g89
g70
NtRp1334
(dp1335
g73
(dp1336
sg82
g1321
sg75
(lp1337
g68
(g69
g70
NtRp1338
(dp1339
g73
(dp1340
g81
I4
ssg82
g1334
sg75
(lp1341
g68
(g77
g70
NtRp1342
(dp1343
g73
(dp1344
g81
I3
ssg82
Nsg75
(lp1345
g68
(g84
g70
NtRp1346
(dp1347
g73
(dp1348
sg82
g1342
sg75
(lp1349
g68
(g89
g70
NtRp1350
(dp1351
g73
(dp1352
sg82
g1346
sg75
(lp1353
g68
(g69
g70
NtRp1354
(dp1355
g73
(dp1356
g81
I3
ssg82
g1350
sg75
(lp1357
S'pankaj-HP-Pavilion-dv4-Notebook-PC'
p1358
asbasbasbag68
(g84
g70
NtRp1359
(dp1360
g73
(dp1361
sg82
g1342
sg75
(lp1362
g68
(g89
g70
NtRp1363
(dp1364
g73
(dp1365
sg82
g1359
sg75
(lp1366
g68
(g69
g70
NtRp1367
(dp1368
g73
(dp1369
g81
I3
ssg82
g1363
sg75
(lp1370
S'::1'
p1371
asbasbasbag68
(g84
g70
NtRp1372
(dp1373
g73
(dp1374
sg82
g1342
sg75
(lp1375
g68
(g89
g70
NtRp1376
(dp1377
g73
(dp1378
sg82
g1372
sg75
(lp1379
g68
(g69
g70
NtRp1380
(dp1381
g73
(dp1382
g81
I3
ssg82
g1376
sg75
(lp1383
S'127.0.1.1'
p1384
asbasbasbag68
(g84
g70
NtRp1385
(dp1386
g73
(dp1387
sg82
g1342
sg75
(lp1388
g68
(g89
g70
NtRp1389
(dp1390
g73
(dp1391
sg82
g1385
sg75
(lp1392
g68
(g69
g70
NtRp1393
(dp1394
g73
(dp1395
g81
I3
ssg82
g1389
sg75
(lp1396
S'::ffff:127.0.0.1'
p1397
asbasbasbag68
(g84
g70
NtRp1398
(dp1399
g73
(dp1400
sg82
g1342
sg75
(lp1401
g68
(g89
g70
NtRp1402
(dp1403
g73
(dp1404
sg82
g1398
sg75
(lp1405
g68
(g69
g70
NtRp1406
(dp1407
g73
(dp1408
g81
I3
ssg82
g1402
sg75
(lp1409
S'127.0.0.1'
p1410
asbasbasbasbasbasbasbag68
(g84
g70
NtRp1411
(dp1412
g73
(dp1413
sg82
g858
sg75
(lp1414
g68
(g89
g70
NtRp1415
(dp1416
g73
(dp1417
g93
g94
ssg82
g1411
sg75
(lp1418
S'path_info'
p1419
asbag68
(g89
g70
NtRp1420
(dp1421
g73
(dp1422
g100
g101
ssg82
g1411
sg75
(lp1423
S':'
asbag68
(g89
g70
NtRp1424
(dp1425
g73
(dp1426
sg82
g1411
sg75
(lp1427
g68
(g69
g70
NtRp1428
(dp1429
g73
(dp1430
g81
I4
ssg82
g1424
sg75
(lp1431
S'/reddit/default/addpost'
p1432
asbasbasbag68
(g84
g70
NtRp1433
(dp1434
g73
(dp1435
sg82
g858
sg75
(lp1436
g68
(g89
g70
NtRp1437
(dp1438
g73
(dp1439
g93
g94
ssg82
g1433
sg75
(lp1440
S'query_string'
p1441
asbag68
(g89
g70
NtRp1442
(dp1443
g73
(dp1444
g100
g101
ssg82
g1433
sg75
(lp1445
S':'
asbag68
(g89
g70
NtRp1446
(dp1447
g73
(dp1448
sg82
g1433
sg75
(lp1449
g68
(g69
g70
NtRp1450
(dp1451
g73
(dp1452
g81
I4
ssg82
g1446
sg75
(lp1453
S''
asbasbasbag68
(g84
g70
NtRp1454
(dp1455
g73
(dp1456
sg82
g858
sg75
(lp1457
g68
(g89
g70
NtRp1458
(dp1459
g73
(dp1460
g93
g94
ssg82
g1454
sg75
(lp1461
S'remote_addr'
p1462
asbag68
(g89
g70
NtRp1463
(dp1464
g73
(dp1465
g100
g101
ssg82
g1454
sg75
(lp1466
S':'
asbag68
(g89
g70
NtRp1467
(dp1468
g73
(dp1469
sg82
g1454
sg75
(lp1470
g68
(g69
g70
NtRp1471
(dp1472
g73
(dp1473
g81
I4
ssg82
g1467
sg75
(lp1474
g223
asbasbasbag68
(g84
g70
NtRp1475
(dp1476
g73
(dp1477
sg82
g858
sg75
(lp1478
g68
(g89
g70
NtRp1479
(dp1480
g73
(dp1481
g93
g94
ssg82
g1475
sg75
(lp1482
S'remote_port'
p1483
asbag68
(g89
g70
NtRp1484
(dp1485
g73
(dp1486
g100
g101
ssg82
g1475
sg75
(lp1487
S':'
asbag68
(g89
g70
NtRp1488
(dp1489
g73
(dp1490
sg82
g1475
sg75
(lp1491
g68
(g69
g70
NtRp1492
(dp1493
g73
(dp1494
g81
I4
ssg82
g1488
sg75
(lp1495
S'40943'
p1496
asbasbasbag68
(g84
g70
NtRp1497
(dp1498
g73
(dp1499
sg82
g858
sg75
(lp1500
g68
(g89
g70
NtRp1501
(dp1502
g73
(dp1503
g93
g94
ssg82
g1497
sg75
(lp1504
S'request_method'
p1505
asbag68
(g89
g70
NtRp1506
(dp1507
g73
(dp1508
g100
g101
ssg82
g1497
sg75
(lp1509
S':'
asbag68
(g89
g70
NtRp1510
(dp1511
g73
(dp1512
sg82
g1497
sg75
(lp1513
g68
(g69
g70
NtRp1514
(dp1515
g73
(dp1516
g81
I4
ssg82
g1510
sg75
(lp1517
S'POST'
p1518
asbasbasbag68
(g84
g70
NtRp1519
(dp1520
g73
(dp1521
sg82
g858
sg75
(lp1522
g68
(g89
g70
NtRp1523
(dp1524
g73
(dp1525
g93
g94
ssg82
g1519
sg75
(lp1526
S'request_uri'
p1527
asbag68
(g89
g70
NtRp1528
(dp1529
g73
(dp1530
g100
g101
ssg82
g1519
sg75
(lp1531
S':'
asbag68
(g89
g70
NtRp1532
(dp1533
g73
(dp1534
sg82
g1519
sg75
(lp1535
g68
(g69
g70
NtRp1536
(dp1537
g73
(dp1538
g81
I4
ssg82
g1532
sg75
(lp1539
g1432
asbasbasbag68
(g84
g70
NtRp1540
(dp1541
g73
(dp1542
sg82
g858
sg75
(lp1543
g68
(g89
g70
NtRp1544
(dp1545
g73
(dp1546
g93
g94
ssg82
g1540
sg75
(lp1547
S'script_name'
p1548
asbag68
(g89
g70
NtRp1549
(dp1550
g73
(dp1551
g100
g101
ssg82
g1540
sg75
(lp1552
S':'
asbag68
(g89
g70
NtRp1553
(dp1554
g73
(dp1555
sg82
g1540
sg75
(lp1556
g68
(g69
g70
NtRp1557
(dp1558
g73
(dp1559
g81
I4
ssg82
g1553
sg75
(lp1560
S''
asbasbasbag68
(g84
g70
NtRp1561
(dp1562
g73
(dp1563
sg82
g858
sg75
(lp1564
g68
(g89
g70
NtRp1565
(dp1566
g73
(dp1567
g93
g94
ssg82
g1561
sg75
(lp1568
S'server_name'
p1569
asbag68
(g89
g70
NtRp1570
(dp1571
g73
(dp1572
g100
g101
ssg82
g1561
sg75
(lp1573
S':'
asbag68
(g89
g70
NtRp1574
(dp1575
g73
(dp1576
sg82
g1561
sg75
(lp1577
g68
(g69
g70
NtRp1578
(dp1579
g73
(dp1580
g81
I4
ssg82
g1574
sg75
(lp1581
S'pankaj-HP-Pavilion-dv4-Notebook-PC'
p1582
asbasbasbag68
(g84
g70
NtRp1583
(dp1584
g73
(dp1585
sg82
g858
sg75
(lp1586
g68
(g89
g70
NtRp1587
(dp1588
g73
(dp1589
g93
g94
ssg82
g1583
sg75
(lp1590
S'server_port'
p1591
asbag68
(g89
g70
NtRp1592
(dp1593
g73
(dp1594
g100
g101
ssg82
g1583
sg75
(lp1595
S':'
asbag68
(g89
g70
NtRp1596
(dp1597
g73
(dp1598
sg82
g1583
sg75
(lp1599
g68
(g69
g70
NtRp1600
(dp1601
g73
(dp1602
g81
I4
ssg82
g1596
sg75
(lp1603
S'8000'
p1604
asbasbasbag68
(g84
g70
NtRp1605
(dp1606
g73
(dp1607
sg82
g858
sg75
(lp1608
g68
(g89
g70
NtRp1609
(dp1610
g73
(dp1611
g93
g94
ssg82
g1605
sg75
(lp1612
S'server_protocol'
p1613
asbag68
(g89
g70
NtRp1614
(dp1615
g73
(dp1616
g100
g101
ssg82
g1605
sg75
(lp1617
S':'
asbag68
(g89
g70
NtRp1618
(dp1619
g73
(dp1620
sg82
g1605
sg75
(lp1621
g68
(g69
g70
NtRp1622
(dp1623
g73
(dp1624
g81
I4
ssg82
g1618
sg75
(lp1625
S'HTTP/1.1'
p1626
asbasbasbag68
(g84
g70
NtRp1627
(dp1628
g73
(dp1629
sg82
g858
sg75
(lp1630
g68
(g89
g70
NtRp1631
(dp1632
g73
(dp1633
g93
g94
ssg82
g1627
sg75
(lp1634
S'server_software'
p1635
asbag68
(g89
g70
NtRp1636
(dp1637
g73
(dp1638
g100
g101
ssg82
g1627
sg75
(lp1639
S':'
asbag68
(g89
g70
NtRp1640
(dp1641
g73
(dp1642
sg82
g1627
sg75
(lp1643
g68
(g69
g70
NtRp1644
(dp1645
g73
(dp1646
g81
I4
ssg82
g1640
sg75
(lp1647
S'Rocket 1.2.6'
p1648
asbasbasbag68
(g84
g70
NtRp1649
(dp1650
g73
(dp1651
sg82
g858
sg75
(lp1652
g68
(g89
g70
NtRp1653
(dp1654
g73
(dp1655
g93
g94
ssg82
g1649
sg75
(lp1656
S'web2py_path'
p1657
asbag68
(g89
g70
NtRp1658
(dp1659
g73
(dp1660
g100
g101
ssg82
g1649
sg75
(lp1661
S':'
asbag68
(g89
g70
NtRp1662
(dp1663
g73
(dp1664
sg82
g1649
sg75
(lp1665
g68
(g69
g70
NtRp1666
(dp1667
g73
(dp1668
g81
I4
ssg82
g1662
sg75
(lp1669
g905
asbasbasbag68
(g84
g70
NtRp1670
(dp1671
g73
(dp1672
sg82
g858
sg75
(lp1673
g68
(g89
g70
NtRp1674
(dp1675
g73
(dp1676
g93
g94
ssg82
g1670
sg75
(lp1677
S'web2py_version'
p1678
asbag68
(g89
g70
NtRp1679
(dp1680
g73
(dp1681
g100
g101
ssg82
g1670
sg75
(lp1682
S':'
asbag68
(g89
g70
NtRp1683
(dp1684
g73
(dp1685
sg82
g1670
sg75
(lp1686
g68
(g69
g70
NtRp1687
(dp1688
g73
(dp1689
g81
I4
ssg82
g1683
sg75
(lp1690
g68
(g77
g70
NtRp1691
(dp1692
g73
(dp1693
g81
I3
ssg82
Nsg75
(lp1694
g68
(g84
g70
NtRp1695
(dp1696
g73
(dp1697
sg82
g1691
sg75
(lp1698
g68
(g89
g70
NtRp1699
(dp1700
g73
(dp1701
sg82
g1695
sg75
(lp1702
g68
(g69
g70
NtRp1703
(dp1704
g73
(dp1705
g81
I3
ssg82
g1699
sg75
(lp1706
S'2'
asbasbasbag68
(g84
g70
NtRp1707
(dp1708
g73
(dp1709
sg82
g1691
sg75
(lp1710
g68
(g89
g70
NtRp1711
(dp1712
g73
(dp1713
sg82
g1707
sg75
(lp1714
g68
(g69
g70
NtRp1715
(dp1716
g73
(dp1717
g81
I3
ssg82
g1711
sg75
(lp1718
S'3'
asbasbasbag68
(g84
g70
NtRp1719
(dp1720
g73
(dp1721
sg82
g1691
sg75
(lp1722
g68
(g89
g70
NtRp1723
(dp1724
g73
(dp1725
sg82
g1719
sg75
(lp1726
g68
(g69
g70
NtRp1727
(dp1728
g73
(dp1729
g81
I3
ssg82
g1723
sg75
(lp1730
S'2'
asbasbasbag68
(g84
g70
NtRp1731
(dp1732
g73
(dp1733
sg82
g1691
sg75
(lp1734
g68
(g89
g70
NtRp1735
(dp1736
g73
(dp1737
sg82
g1731
sg75
(lp1738
g68
(g69
g70
NtRp1739
(dp1740
g73
(dp1741
g81
I3
ssg82
g1735
sg75
(lp1742
S'datetime.datetime(2012, 12, 17, 15, 3, 30)'
p1743
asbasbasbag68
(g84
g70
NtRp1744
(dp1745
g73
(dp1746
sg82
g1691
sg75
(lp1747
g68
(g89
g70
NtRp1748
(dp1749
g73
(dp1750
sg82
g1744
sg75
(lp1751
g68
(g69
g70
NtRp1752
(dp1753
g73
(dp1754
g81
I3
ssg82
g1748
sg75
(lp1755
S'stable'
p1756
asbasbasbasbasbasbasbag68
(g84
g70
NtRp1757
(dp1758
g73
(dp1759
sg82
g858
sg75
(lp1760
g68
(g89
g70
NtRp1761
(dp1762
g73
(dp1763
g93
g94
ssg82
g1757
sg75
(lp1764
S'wsgi_errors'
p1765
asbag68
(g89
g70
NtRp1766
(dp1767
g73
(dp1768
g100
g101
ssg82
g1757
sg75
(lp1769
S':'
asbag68
(g89
g70
NtRp1770
(dp1771
g73
(dp1772
sg82
g1757
sg75
(lp1773
g68
(g69
g70
NtRp1774
(dp1775
g73
(dp1776
g81
I4
ssg82
g1770
sg75
(lp1777
S"<open file '<stderr>', mode 'w' at 0xb735e0d0>"
p1778
asbasbasbag68
(g84
g70
NtRp1779
(dp1780
g73
(dp1781
sg82
g858
sg75
(lp1782
g68
(g89
g70
NtRp1783
(dp1784
g73
(dp1785
g93
g94
ssg82
g1779
sg75
(lp1786
S'wsgi_file_wrapper'
p1787
asbag68
(g89
g70
NtRp1788
(dp1789
g73
(dp1790
g100
g101
ssg82
g1779
sg75
(lp1791
S':'
asbag68
(g89
g70
NtRp1792
(dp1793
g73
(dp1794
sg82
g1779
sg75
(lp1795
g68
(g69
g70
NtRp1796
(dp1797
g73
(dp1798
g81
I4
ssg82
g1792
sg75
(lp1799
S'<class wsgiref.util.FileWrapper at 0x96a105c>'
p1800
asbasbasbag68
(g84
g70
NtRp1801
(dp1802
g73
(dp1803
sg82
g858
sg75
(lp1804
g68
(g89
g70
NtRp1805
(dp1806
g73
(dp1807
g93
g94
ssg82
g1801
sg75
(lp1808
S'wsgi_input'
p1809
asbag68
(g89
g70
NtRp1810
(dp1811
g73
(dp1812
g100
g101
ssg82
g1801
sg75
(lp1813
S':'
asbag68
(g89
g70
NtRp1814
(dp1815
g73
(dp1816
sg82
g1801
sg75
(lp1817
g68
(g69
g70
NtRp1818
(dp1819
g73
(dp1820
g81
I4
ssg82
g1814
sg75
(lp1821
S'<socket._fileobject object at 0x9c7a4ac>'
p1822
asbasbasbag68
(g84
g70
NtRp1823
(dp1824
g73
(dp1825
sg82
g858
sg75
(lp1826
g68
(g89
g70
NtRp1827
(dp1828
g73
(dp1829
g93
g94
ssg82
g1823
sg75
(lp1830
S'wsgi_multiprocess'
p1831
asbag68
(g89
g70
NtRp1832
(dp1833
g73
(dp1834
g100
g101
ssg82
g1823
sg75
(lp1835
S':'
asbag68
(g89
g70
NtRp1836
(dp1837
g73
(dp1838
sg82
g1823
sg75
(lp1839
g68
(g69
g70
NtRp1840
(dp1841
g73
(dp1842
g81
I4
ssg82
g1836
sg75
(lp1843
g111
asbasbasbag68
(g84
g70
NtRp1844
(dp1845
g73
(dp1846
sg82
g858
sg75
(lp1847
g68
(g89
g70
NtRp1848
(dp1849
g73
(dp1850
g93
g94
ssg82
g1844
sg75
(lp1851
S'wsgi_multithread'
p1852
asbag68
(g89
g70
NtRp1853
(dp1854
g73
(dp1855
g100
g101
ssg82
g1844
sg75
(lp1856
S':'
asbag68
(g89
g70
NtRp1857
(dp1858
g73
(dp1859
sg82
g1844
sg75
(lp1860
g68
(g69
g70
NtRp1861
(dp1862
g73
(dp1863
g81
I4
ssg82
g1857
sg75
(lp1864
S'True'
p1865
asbasbasbag68
(g84
g70
NtRp1866
(dp1867
g73
(dp1868
sg82
g858
sg75
(lp1869
g68
(g89
g70
NtRp1870
(dp1871
g73
(dp1872
g93
g94
ssg82
g1866
sg75
(lp1873
S'wsgi_run_once'
p1874
asbag68
(g89
g70
NtRp1875
(dp1876
g73
(dp1877
g100
g101
ssg82
g1866
sg75
(lp1878
S':'
asbag68
(g89
g70
NtRp1879
(dp1880
g73
(dp1881
sg82
g1866
sg75
(lp1882
g68
(g69
g70
NtRp1883
(dp1884
g73
(dp1885
g81
I4
ssg82
g1879
sg75
(lp1886
g111
asbasbasbag68
(g84
g70
NtRp1887
(dp1888
g73
(dp1889
sg82
g858
sg75
(lp1890
g68
(g89
g70
NtRp1891
(dp1892
g73
(dp1893
g93
g94
ssg82
g1887
sg75
(lp1894
S'wsgi_url_scheme'
p1895
asbag68
(g89
g70
NtRp1896
(dp1897
g73
(dp1898
g100
g101
ssg82
g1887
sg75
(lp1899
S':'
asbag68
(g89
g70
NtRp1900
(dp1901
g73
(dp1902
sg82
g1887
sg75
(lp1903
g68
(g69
g70
NtRp1904
(dp1905
g73
(dp1906
g81
I4
ssg82
g1900
sg75
(lp1907
S'http'
p1908
asbasbasbag68
(g84
g70
NtRp1909
(dp1910
g73
(dp1911
sg82
g858
sg75
(lp1912
g68
(g89
g70
NtRp1913
(dp1914
g73
(dp1915
g93
g94
ssg82
g1909
sg75
(lp1916
S'wsgi_version'
p1917
asbag68
(g89
g70
NtRp1918
(dp1919
g73
(dp1920
g100
g101
ssg82
g1909
sg75
(lp1921
S':'
asbag68
(g89
g70
NtRp1922
(dp1923
g73
(dp1924
sg82
g1909
sg75
(lp1925
g68
(g69
g70
NtRp1926
(dp1927
g73
(dp1928
g81
I4
ssg82
g1922
sg75
(lp1929
g68
(g77
g70
NtRp1930
(dp1931
g73
(dp1932
g81
I3
ssg82
Nsg75
(lp1933
g68
(g84
g70
NtRp1934
(dp1935
g73
(dp1936
sg82
g1930
sg75
(lp1937
g68
(g89
g70
NtRp1938
(dp1939
g73
(dp1940
sg82
g1934
sg75
(lp1941
g68
(g69
g70
NtRp1942
(dp1943
g73
(dp1944
g81
I3
ssg82
g1938
sg75
(lp1945
S'1'
asbasbasbag68
(g84
g70
NtRp1946
(dp1947
g73
(dp1948
sg82
g1930
sg75
(lp1949
g68
(g89
g70
NtRp1950
(dp1951
g73
(dp1952
sg82
g1946
sg75
(lp1953
g68
(g69
g70
NtRp1954
(dp1955
g73
(dp1956
g81
I3
ssg82
g1950
sg75
(lp1957
S'0'
asbasbasbasbasbasbasbasbasbasbasbag68
(g84
g70
NtRp1958
(dp1959
g73
(dp1960
sg82
g78
sg75
(lp1961
g68
(g89
g70
NtRp1962
(dp1963
g73
(dp1964
g93
g94
ssg82
g1958
sg75
(lp1965
S'extension'
p1966
asbag68
(g89
g70
NtRp1967
(dp1968
g73
(dp1969
g100
g101
ssg82
g1958
sg75
(lp1970
S':'
asbag68
(g89
g70
NtRp1971
(dp1972
g73
(dp1973
sg82
g1958
sg75
(lp1974
g68
(g69
g70
NtRp1975
(dp1976
g73
(dp1977
g81
I5
ssg82
g1971
sg75
(lp1978
S'html'
p1979
asbasbasbag68
(g84
g70
NtRp1980
(dp1981
g73
(dp1982
sg82
g78
sg75
(lp1983
g68
(g89
g70
NtRp1984
(dp1985
g73
(dp1986
g93
g94
ssg82
g1980
sg75
(lp1987
S'folder'
p1988
asbag68
(g89
g70
NtRp1989
(dp1990
g73
(dp1991
g100
g101
ssg82
g1980
sg75
(lp1992
S':'
asbag68
(g89
g70
NtRp1993
(dp1994
g73
(dp1995
sg82
g1980
sg75
(lp1996
g68
(g69
g70
NtRp1997
(dp1998
g73
(dp1999
g81
I5
ssg82
g1993
sg75
(lp2000
S'/home/pankaj/web2py/applications/reddit/'
p2001
asbasbasbag68
(g84
g70
NtRp2002
(dp2003
g73
(dp2004
sg82
g78
sg75
(lp2005
g68
(g89
g70
NtRp2006
(dp2007
g73
(dp2008
g93
g94
ssg82
g2002
sg75
(lp2009
S'function'
p2010
asbag68
(g89
g70
NtRp2011
(dp2012
g73
(dp2013
g100
g101
ssg82
g2002
sg75
(lp2014
S':'
asbag68
(g89
g70
NtRp2015
(dp2016
g73
(dp2017
sg82
g2002
sg75
(lp2018
g68
(g69
g70
NtRp2019
(dp2020
g73
(dp2021
g81
I5
ssg82
g2015
sg75
(lp2022
S'addpost'
p2023
asbasbasbag68
(g84
g70
NtRp2024
(dp2025
g73
(dp2026
sg82
g78
sg75
(lp2027
g68
(g89
g70
NtRp2028
(dp2029
g73
(dp2030
g93
g94
ssg82
g2024
sg75
(lp2031
S'get_vars'
p2032
asbag68
(g89
g70
NtRp2033
(dp2034
g73
(dp2035
g100
g101
ssg82
g2024
sg75
(lp2036
S':'
asbag68
(g89
g70
NtRp2037
(dp2038
g73
(dp2039
sg82
g2024
sg75
(lp2040
g68
(g69
g70
NtRp2041
(dp2042
g73
(dp2043
g81
I5
ssg82
g2037
sg75
(lp2044
g68
(g77
g70
NtRp2045
(dp2046
g73
(dp2047
g81
I4
ssg82
Nsg75
(lp2048
sbasbasbasbag68
(g84
g70
NtRp2049
(dp2050
g73
(dp2051
sg82
g78
sg75
(lp2052
g68
(g89
g70
NtRp2053
(dp2054
g73
(dp2055
g93
g94
ssg82
g2049
sg75
(lp2056
S'global_settings'
p2057
asbag68
(g89
g70
NtRp2058
(dp2059
g73
(dp2060
g100
g101
ssg82
g2049
sg75
(lp2061
S':'
asbag68
(g89
g70
NtRp2062
(dp2063
g73
(dp2064
sg82
g2049
sg75
(lp2065
g68
(g69
g70
NtRp2066
(dp2067
g73
(dp2068
g81
I5
ssg82
g2062
sg75
(lp2069
g68
(g77
g70
NtRp2070
(dp2071
g73
(dp2072
g81
I4
ssg82
Nsg75
(lp2073
g68
(g84
g70
NtRp2074
(dp2075
g73
(dp2076
sg82
g2070
sg75
(lp2077
g68
(g89
g70
NtRp2078
(dp2079
g73
(dp2080
g93
g94
ssg82
g2074
sg75
(lp2081
g870
asbag68
(g89
g70
NtRp2082
(dp2083
g73
(dp2084
g100
g101
ssg82
g2074
sg75
(lp2085
S':'
asbag68
(g89
g70
NtRp2086
(dp2087
g73
(dp2088
sg82
g2074
sg75
(lp2089
g68
(g69
g70
NtRp2090
(dp2091
g73
(dp2092
g81
I4
ssg82
g2086
sg75
(lp2093
S"set(['/home/pankaj/web2py/applications/admin/', '/home/pankaj/web2py/applications/welcome/', '/home/pankaj/web2py/applications/reddit/'])"
p2094
asbasbasbag68
(g84
g70
NtRp2095
(dp2096
g73
(dp2097
sg82
g2070
sg75
(lp2098
g68
(g89
g70
NtRp2099
(dp2100
g73
(dp2101
g93
g94
ssg82
g2095
sg75
(lp2102
g892
asbag68
(g89
g70
NtRp2103
(dp2104
g73
(dp2105
g100
g101
ssg82
g2095
sg75
(lp2106
S':'
asbag68
(g89
g70
NtRp2107
(dp2108
g73
(dp2109
sg82
g2095
sg75
(lp2110
g68
(g69
g70
NtRp2111
(dp2112
g73
(dp2113
g81
I4
ssg82
g2107
sg75
(lp2114
g905
asbasbasbag68
(g84
g70
NtRp2115
(dp2116
g73
(dp2117
sg82
g2070
sg75
(lp2118
g68
(g89
g70
NtRp2119
(dp2120
g73
(dp2121
g93
g94
ssg82
g2115
sg75
(lp2122
g914
asbag68
(g89
g70
NtRp2123
(dp2124
g73
(dp2125
g100
g101
ssg82
g2115
sg75
(lp2126
S':'
asbag68
(g89
g70
NtRp2127
(dp2128
g73
(dp2129
sg82
g2115
sg75
(lp2130
g68
(g69
g70
NtRp2131
(dp2132
g73
(dp2133
g81
I4
ssg82
g2127
sg75
(lp2134
g68
(g77
g70
NtRp2135
(dp2136
g73
(dp2137
g81
I3
ssg82
Nsg75
(lp2138
sbasbasbasbag68
(g84
g70
NtRp2139
(dp2140
g73
(dp2141
sg82
g2070
sg75
(lp2142
g68
(g89
g70
NtRp2143
(dp2144
g73
(dp2145
g93
g94
ssg82
g2139
sg75
(lp2146
g939
asbag68
(g89
g70
NtRp2147
(dp2148
g73
(dp2149
g100
g101
ssg82
g2139
sg75
(lp2150
S':'
asbag68
(g89
g70
NtRp2151
(dp2152
g73
(dp2153
sg82
g2139
sg75
(lp2154
g68
(g69
g70
NtRp2155
(dp2156
g73
(dp2157
g81
I4
ssg82
g2151
sg75
(lp2158
S"<Values at 0x96dbdcc: {'verbose': False, 'ip': '127.0.0.1', 'with_scheduler': False, 'ips': [], 'shutdown_timeout': 5, 'taskbar': False, 'port': 8000, 'maxthreads': None, 'softcron': False, 'server_name': 'pankaj-HP-Pavilion-dv4-Notebook-PC', 'bpython': False, 'nogui': False, 'pid_filename': 'httpserver.pid', 'extcron': False, 'runcron': False, 'run_system_tests': False, 'test': None, 'folder': '/home/pankaj/web2py', 'config': '', 'import_models': False, 'winservice': '', 'shell': None, 'run': '', 'log_filename': 'httpserver.log', 'debuglevel': 30, 'args': [''], 'socket_timeout': 5, 'ssl_ca_certificate': None, 'scheduler': None, 'profiler_filename': None, 'ssl_private_key': '', 'scheduler_groups': None, 'password': '<ask>', 'request_queue_size': 5, 'ssl_certificate': '', 'cronjob': False, 'numthreads': None, 'quiet': False, 'interfaces': None, 'minthreads': None, 'timeout': 10, 'plain': False, 'nobanner': False}>"
p2159
asbasbasbag68
(g84
g70
NtRp2160
(dp2161
g73
(dp2162
sg82
g2070
sg75
(lp2163
g68
(g89
g70
NtRp2164
(dp2165
g73
(dp2166
g93
g94
ssg82
g2160
sg75
(lp2167
g1004
asbag68
(g89
g70
NtRp2168
(dp2169
g73
(dp2170
g100
g101
ssg82
g2160
sg75
(lp2171
S':'
asbag68
(g89
g70
NtRp2172
(dp2173
g73
(dp2174
sg82
g2160
sg75
(lp2175
g68
(g69
g70
NtRp2176
(dp2177
g73
(dp2178
g81
I4
ssg82
g2172
sg75
(lp2179
S'set([])'
p2180
asbasbasbag68
(g84
g70
NtRp2181
(dp2182
g73
(dp2183
sg82
g2070
sg75
(lp2184
g68
(g89
g70
NtRp2185
(dp2186
g73
(dp2187
g93
g94
ssg82
g2181
sg75
(lp2188
g1026
asbag68
(g89
g70
NtRp2189
(dp2190
g73
(dp2191
g100
g101
ssg82
g2181
sg75
(lp2192
S':'
asbag68
(g89
g70
NtRp2193
(dp2194
g73
(dp2195
sg82
g2181
sg75
(lp2196
g68
(g69
g70
NtRp2197
(dp2198
g73
(dp2199
g81
I4
ssg82
g2193
sg75
(lp2200
g111
asbasbasbag68
(g84
g70
NtRp2201
(dp2202
g73
(dp2203
sg82
g2070
sg75
(lp2204
g68
(g89
g70
NtRp2205
(dp2206
g73
(dp2207
g93
g94
ssg82
g2201
sg75
(lp2208
g1047
asbag68
(g89
g70
NtRp2209
(dp2210
g73
(dp2211
g100
g101
ssg82
g2201
sg75
(lp2212
S':'
asbag68
(g89
g70
NtRp2213
(dp2214
g73
(dp2215
sg82
g2201
sg75
(lp2216
g68
(g69
g70
NtRp2217
(dp2218
g73
(dp2219
g81
I4
ssg82
g2213
sg75
(lp2220
g1060
asbasbasbag68
(g84
g70
NtRp2221
(dp2222
g73
(dp2223
sg82
g2070
sg75
(lp2224
g68
(g89
g70
NtRp2225
(dp2226
g73
(dp2227
g93
g94
ssg82
g2221
sg75
(lp2228
g1287
asbag68
(g89
g70
NtRp2229
(dp2230
g73
(dp2231
g100
g101
ssg82
g2221
sg75
(lp2232
S':'
asbag68
(g89
g70
NtRp2233
(dp2234
g73
(dp2235
sg82
g2221
sg75
(lp2236
g68
(g69
g70
NtRp2237
(dp2238
g73
(dp2239
g81
I4
ssg82
g2233
sg75
(lp2240
g111
asbasbasbag68
(g84
g70
NtRp2241
(dp2242
g73
(dp2243
sg82
g2070
sg75
(lp2244
g68
(g89
g70
NtRp2245
(dp2246
g73
(dp2247
g93
g94
ssg82
g2241
sg75
(lp2248
g1308
asbag68
(g89
g70
NtRp2249
(dp2250
g73
(dp2251
g100
g101
ssg82
g2241
sg75
(lp2252
S':'
asbag68
(g89
g70
NtRp2253
(dp2254
g73
(dp2255
sg82
g2241
sg75
(lp2256
g68
(g69
g70
NtRp2257
(dp2258
g73
(dp2259
g81
I4
ssg82
g2253
sg75
(lp2260
g111
asbasbasbag68
(g84
g70
NtRp2261
(dp2262
g73
(dp2263
sg82
g2070
sg75
(lp2264
g68
(g89
g70
NtRp2265
(dp2266
g73
(dp2267
g93
g94
ssg82
g2261
sg75
(lp2268
g1329
asbag68
(g89
g70
NtRp2269
(dp2270
g73
(dp2271
g100
g101
ssg82
g2261
sg75
(lp2272
S':'
asbag68
(g89
g70
NtRp2273
(dp2274
g73
(dp2275
sg82
g2261
sg75
(lp2276
g68
(g69
g70
NtRp2277
(dp2278
g73
(dp2279
g81
I4
ssg82
g2273
sg75
(lp2280
g68
(g77
g70
NtRp2281
(dp2282
g73
(dp2283
g81
I3
ssg82
Nsg75
(lp2284
g68
(g84
g70
NtRp2285
(dp2286
g73
(dp2287
sg82
g2281
sg75
(lp2288
g68
(g89
g70
NtRp2289
(dp2290
g73
(dp2291
sg82
g2285
sg75
(lp2292
g68
(g69
g70
NtRp2293
(dp2294
g73
(dp2295
g81
I3
ssg82
g2289
sg75
(lp2296
g1358
asbasbasbag68
(g84
g70
NtRp2297
(dp2298
g73
(dp2299
sg82
g2281
sg75
(lp2300
g68
(g89
g70
NtRp2301
(dp2302
g73
(dp2303
sg82
g2297
sg75
(lp2304
g68
(g69
g70
NtRp2305
(dp2306
g73
(dp2307
g81
I3
ssg82
g2301
sg75
(lp2308
g1371
asbasbasbag68
(g84
g70
NtRp2309
(dp2310
g73
(dp2311
sg82
g2281
sg75
(lp2312
g68
(g89
g70
NtRp2313
(dp2314
g73
(dp2315
sg82
g2309
sg75
(lp2316
g68
(g69
g70
NtRp2317
(dp2318
g73
(dp2319
g81
I3
ssg82
g2313
sg75
(lp2320
g1384
asbasbasbag68
(g84
g70
NtRp2321
(dp2322
g73
(dp2323
sg82
g2281
sg75
(lp2324
g68
(g89
g70
NtRp2325
(dp2326
g73
(dp2327
sg82
g2321
sg75
(lp2328
g68
(g69
g70
NtRp2329
(dp2330
g73
(dp2331
g81
I3
ssg82
g2325
sg75
(lp2332
g1397
asbasbasbag68
(g84
g70
NtRp2333
(dp2334
g73
(dp2335
sg82
g2281
sg75
(lp2336
g68
(g89
g70
NtRp2337
(dp2338
g73
(dp2339
sg82
g2333
sg75
(lp2340
g68
(g69
g70
NtRp2341
(dp2342
g73
(dp2343
g81
I3
ssg82
g2337
sg75
(lp2344
g1410
asbasbasbasbasbasbasbag68
(g84
g70
NtRp2345
(dp2346
g73
(dp2347
sg82
g2070
sg75
(lp2348
g68
(g89
g70
NtRp2349
(dp2350
g73
(dp2351
g93
g94
ssg82
g2345
sg75
(lp2352
g1678
asbag68
(g89
g70
NtRp2353
(dp2354
g73
(dp2355
g100
g101
ssg82
g2345
sg75
(lp2356
S':'
asbag68
(g89
g70
NtRp2357
(dp2358
g73
(dp2359
sg82
g2345
sg75
(lp2360
g68
(g69
g70
NtRp2361
(dp2362
g73
(dp2363
g81
I4
ssg82
g2357
sg75
(lp2364
g68
(g77
g70
NtRp2365
(dp2366
g73
(dp2367
g81
I3
ssg82
Nsg75
(lp2368
g68
(g84
g70
NtRp2369
(dp2370
g73
(dp2371
sg82
g2365
sg75
(lp2372
g68
(g89
g70
NtRp2373
(dp2374
g73
(dp2375
sg82
g2369
sg75
(lp2376
g68
(g69
g70
NtRp2377
(dp2378
g73
(dp2379
g81
I3
ssg82
g2373
sg75
(lp2380
S'2'
asbasbasbag68
(g84
g70
NtRp2381
(dp2382
g73
(dp2383
sg82
g2365
sg75
(lp2384
g68
(g89
g70
NtRp2385
(dp2386
g73
(dp2387
sg82
g2381
sg75
(lp2388
g68
(g69
g70
NtRp2389
(dp2390
g73
(dp2391
g81
I3
ssg82
g2385
sg75
(lp2392
S'3'
asbasbasbag68
(g84
g70
NtRp2393
(dp2394
g73
(dp2395
sg82
g2365
sg75
(lp2396
g68
(g89
g70
NtRp2397
(dp2398
g73
(dp2399
sg82
g2393
sg75
(lp2400
g68
(g69
g70
NtRp2401
(dp2402
g73
(dp2403
g81
I3
ssg82
g2397
sg75
(lp2404
S'2'
asbasbasbag68
(g84
g70
NtRp2405
(dp2406
g73
(dp2407
sg82
g2365
sg75
(lp2408
g68
(g89
g70
NtRp2409
(dp2410
g73
(dp2411
sg82
g2405
sg75
(lp2412
g68
(g69
g70
NtRp2413
(dp2414
g73
(dp2415
g81
I3
ssg82
g2409
sg75
(lp2416
S'datetime.datetime(2012, 12, 17, 15, 3, 30)'
p2417
asbasbasbag68
(g84
g70
NtRp2418
(dp2419
g73
(dp2420
sg82
g2365
sg75
(lp2421
g68
(g89
g70
NtRp2422
(dp2423
g73
(dp2424
sg82
g2418
sg75
(lp2425
g68
(g69
g70
NtRp2426
(dp2427
g73
(dp2428
g81
I3
ssg82
g2422
sg75
(lp2429
g1756
asbasbasbasbasbasbasbasbasbasbasbag68
(g84
g70
NtRp2430
(dp2431
g73
(dp2432
sg82
g78
sg75
(lp2433
g68
(g89
g70
NtRp2434
(dp2435
g73
(dp2436
g93
g94
ssg82
g2430
sg75
(lp2437
S'is_https'
p2438
asbag68
(g89
g70
NtRp2439
(dp2440
g73
(dp2441
g100
g101
ssg82
g2430
sg75
(lp2442
S':'
asbag68
(g89
g70
NtRp2443
(dp2444
g73
(dp2445
sg82
g2430
sg75
(lp2446
g68
(g69
g70
NtRp2447
(dp2448
g73
(dp2449
g81
I5
ssg82
g2443
sg75
(lp2450
g111
asbasbasbag68
(g84
g70
NtRp2451
(dp2452
g73
(dp2453
sg82
g78
sg75
(lp2454
g68
(g89
g70
NtRp2455
(dp2456
g73
(dp2457
g93
g94
ssg82
g2451
sg75
(lp2458
S'is_local'
p2459
asbag68
(g89
g70
NtRp2460
(dp2461
g73
(dp2462
g100
g101
ssg82
g2451
sg75
(lp2463
S':'
asbag68
(g89
g70
NtRp2464
(dp2465
g73
(dp2466
sg82
g2451
sg75
(lp2467
g68
(g69
g70
NtRp2468
(dp2469
g73
(dp2470
g81
I5
ssg82
g2464
sg75
(lp2471
g1865
asbasbasbag68
(g84
g70
NtRp2472
(dp2473
g73
(dp2474
sg82
g78
sg75
(lp2475
g68
(g89
g70
NtRp2476
(dp2477
g73
(dp2478
g93
g94
ssg82
g2472
sg75
(lp2479
S'is_restful'
p2480
asbag68
(g89
g70
NtRp2481
(dp2482
g73
(dp2483
g100
g101
ssg82
g2472
sg75
(lp2484
S':'
asbag68
(g89
g70
NtRp2485
(dp2486
g73
(dp2487
sg82
g2472
sg75
(lp2488
g68
(g69
g70
NtRp2489
(dp2490
g73
(dp2491
g81
I5
ssg82
g2485
sg75
(lp2492
g111
asbasbasbag68
(g84
g70
NtRp2493
(dp2494
g73
(dp2495
sg82
g78
sg75
(lp2496
g68
(g89
g70
NtRp2497
(dp2498
g73
(dp2499
g93
g94
ssg82
g2493
sg75
(lp2500
S'now'
p2501
asbag68
(g89
g70
NtRp2502
(dp2503
g73
(dp2504
g100
g101
ssg82
g2493
sg75
(lp2505
S':'
asbag68
(g89
g70
NtRp2506
(dp2507
g73
(dp2508
sg82
g2493
sg75
(lp2509
g68
(g69
g70
NtRp2510
(dp2511
g73
(dp2512
g81
I5
ssg82
g2506
sg75
(lp2513
S'datetime.datetime(2013, 9, 1, 8, 41, 46, 118632)'
p2514
asbasbasbag68
(g84
g70
NtRp2515
(dp2516
g73
(dp2517
sg82
g78
sg75
(lp2518
g68
(g89
g70
NtRp2519
(dp2520
g73
(dp2521
g93
g94
ssg82
g2515
sg75
(lp2522
S'post_vars'
p2523
asbag68
(g89
g70
NtRp2524
(dp2525
g73
(dp2526
g100
g101
ssg82
g2515
sg75
(lp2527
S':'
asbag68
(g89
g70
NtRp2528
(dp2529
g73
(dp2530
sg82
g2515
sg75
(lp2531
g68
(g69
g70
NtRp2532
(dp2533
g73
(dp2534
g81
I5
ssg82
g2528
sg75
(lp2535
g68
(g77
g70
NtRp2536
(dp2537
g73
(dp2538
g81
I4
ssg82
Nsg75
(lp2539
sbasbasbasbag68
(g84
g70
NtRp2540
(dp2541
g73
(dp2542
sg82
g78
sg75
(lp2543
g68
(g89
g70
NtRp2544
(dp2545
g73
(dp2546
g93
g94
ssg82
g2540
sg75
(lp2547
S'raw_args'
p2548
asbag68
(g89
g70
NtRp2549
(dp2550
g73
(dp2551
g100
g101
ssg82
g2540
sg75
(lp2552
S':'
asbag68
(g89
g70
NtRp2553
(dp2554
g73
(dp2555
sg82
g2540
sg75
(lp2556
g68
(g69
g70
NtRp2557
(dp2558
g73
(dp2559
g81
I5
ssg82
g2553
sg75
(lp2560
S''
asbasbasbag68
(g84
g70
NtRp2561
(dp2562
g73
(dp2563
sg82
g78
sg75
(lp2564
g68
(g89
g70
NtRp2565
(dp2566
g73
(dp2567
g93
g94
ssg82
g2561
sg75
(lp2568
S'raw_extension'
p2569
asbag68
(g89
g70
NtRp2570
(dp2571
g73
(dp2572
g100
g101
ssg82
g2561
sg75
(lp2573
S':'
asbag68
(g89
g70
NtRp2574
(dp2575
g73
(dp2576
sg82
g2561
sg75
(lp2577
g68
(g69
g70
NtRp2578
(dp2579
g73
(dp2580
g81
I5
ssg82
g2574
sg75
(lp2581
S'None'
p2582
asbasbasbag68
(g84
g70
NtRp2583
(dp2584
g73
(dp2585
sg82
g78
sg75
(lp2586
g68
(g89
g70
NtRp2587
(dp2588
g73
(dp2589
g93
g94
ssg82
g2583
sg75
(lp2590
S'url'
p2591
asbag68
(g89
g70
NtRp2592
(dp2593
g73
(dp2594
g100
g101
ssg82
g2583
sg75
(lp2595
S':'
asbag68
(g89
g70
NtRp2596
(dp2597
g73
(dp2598
sg82
g2583
sg75
(lp2599
g68
(g69
g70
NtRp2600
(dp2601
g73
(dp2602
g81
I5
ssg82
g2596
sg75
(lp2603
g1432
asbasbasbag68
(g84
g70
NtRp2604
(dp2605
g73
(dp2606
sg82
g78
sg75
(lp2607
g68
(g89
g70
NtRp2608
(dp2609
g73
(dp2610
g93
g94
ssg82
g2604
sg75
(lp2611
S'utcnow'
p2612
asbag68
(g89
g70
NtRp2613
(dp2614
g73
(dp2615
g100
g101
ssg82
g2604
sg75
(lp2616
S':'
asbag68
(g89
g70
NtRp2617
(dp2618
g73
(dp2619
sg82
g2604
sg75
(lp2620
g68
(g69
g70
NtRp2621
(dp2622
g73
(dp2623
g81
I5
ssg82
g2617
sg75
(lp2624
S'datetime.datetime(2013, 9, 1, 3, 11, 46, 118663)'
p2625
asbasbasbag68
(g84
g70
NtRp2626
(dp2627
g73
(dp2628
sg82
g78
sg75
(lp2629
g68
(g89
g70
NtRp2630
(dp2631
g73
(dp2632
g93
g94
ssg82
g2626
sg75
(lp2633
S'uuid'
p2634
asbag68
(g89
g70
NtRp2635
(dp2636
g73
(dp2637
g100
g101
ssg82
g2626
sg75
(lp2638
S':'
asbag68
(g89
g70
NtRp2639
(dp2640
g73
(dp2641
sg82
g2626
sg75
(lp2642
g68
(g69
g70
NtRp2643
(dp2644
g73
(dp2645
g81
I5
ssg82
g2639
sg75
(lp2646
S'reddit/127.0.0.1.2013-09-01.08-41-46.b119bdd9-d2d2-46a5-8c15-dd1b15d03baf'
p2647
asbasbasbag68
(g84
g70
NtRp2648
(dp2649
g73
(dp2650
sg82
g78
sg75
(lp2651
g68
(g89
g70
NtRp2652
(dp2653
g73
(dp2654
g93
g94
ssg82
g2648
sg75
(lp2655
S'vars'
p2656
asbag68
(g89
g70
NtRp2657
(dp2658
g73
(dp2659
g100
g101
ssg82
g2648
sg75
(lp2660
S':'
asbag68
(g89
g70
NtRp2661
(dp2662
g73
(dp2663
sg82
g2648
sg75
(lp2664
g68
(g69
g70
NtRp2665
(dp2666
g73
(dp2667
g81
I5
ssg82
g2661
sg75
(lp2668
g68
(g77
g70
NtRp2669
(dp2670
g73
(dp2671
g81
I4
ssg82
Nsg75
(lp2672
sbasbasbasbag68
(g84
g70
NtRp2673
(dp2674
g73
(dp2675
sg82
g78
sg75
(lp2676
g68
(g89
g70
NtRp2677
(dp2678
g73
(dp2679
g93
g94
ssg82
g2673
sg75
(lp2680
S'wsgi'
p2681
asbag68
(g89
g70
NtRp2682
(dp2683
g73
(dp2684
g100
g101
ssg82
g2673
sg75
(lp2685
S':'
asbag68
(g89
g70
NtRp2686
(dp2687
g73
(dp2688
sg82
g2673
sg75
(lp2689
g68
(g69
g70
NtRp2690
(dp2691
g73
(dp2692
g81
I5
ssg82
g2686
sg75
(lp2693
g68
(g77
g70
NtRp2694
(dp2695
g73
(dp2696
g81
I4
ssg82
Nsg75
(lp2697
g68
(g84
g70
NtRp2698
(dp2699
g73
(dp2700
sg82
g2694
sg75
(lp2701
g68
(g89
g70
NtRp2702
(dp2703
g73
(dp2704
g93
g94
ssg82
g2698
sg75
(lp2705
S'environ'
p2706
asbag68
(g89
g70
NtRp2707
(dp2708
g73
(dp2709
g100
g101
ssg82
g2698
sg75
(lp2710
S':'
asbag68
(g89
g70
NtRp2711
(dp2712
g73
(dp2713
sg82
g2698
sg75
(lp2714
g68
(g69
g70
NtRp2715
(dp2716
g73
(dp2717
g81
I4
ssg82
g2711
sg75
(lp2718
g68
(g77
g70
NtRp2719
(dp2720
g73
(dp2721
g81
I3
ssg82
Nsg75
(lp2722
g68
(g84
g70
NtRp2723
(dp2724
g73
(dp2725
sg82
g2719
sg75
(lp2726
g68
(g89
g70
NtRp2727
(dp2728
g73
(dp2729
g93
g94
ssg82
g2723
sg75
(lp2730
S'CONTENT_LENGTH'
p2731
asbag68
(g89
g70
NtRp2732
(dp2733
g73
(dp2734
g100
g101
ssg82
g2723
sg75
(lp2735
S':'
asbag68
(g89
g70
NtRp2736
(dp2737
g73
(dp2738
sg82
g2723
sg75
(lp2739
g68
(g69
g70
NtRp2740
(dp2741
g73
(dp2742
g81
I3
ssg82
g2736
sg75
(lp2743
S'0'
asbasbasbag68
(g84
g70
NtRp2744
(dp2745
g73
(dp2746
sg82
g2719
sg75
(lp2747
g68
(g89
g70
NtRp2748
(dp2749
g73
(dp2750
g93
g94
ssg82
g2744
sg75
(lp2751
S'CONTENT_TYPE'
p2752
asbag68
(g89
g70
NtRp2753
(dp2754
g73
(dp2755
g100
g101
ssg82
g2744
sg75
(lp2756
S':'
asbag68
(g89
g70
NtRp2757
(dp2758
g73
(dp2759
sg82
g2744
sg75
(lp2760
g68
(g69
g70
NtRp2761
(dp2762
g73
(dp2763
g81
I3
ssg82
g2757
sg75
(lp2764
g995
asbasbasbag68
(g84
g70
NtRp2765
(dp2766
g73
(dp2767
sg82
g2719
sg75
(lp2768
g68
(g89
g70
NtRp2769
(dp2770
g73
(dp2771
g93
g94
ssg82
g2765
sg75
(lp2772
S'HTTP_ACCEPT'
p2773
asbag68
(g89
g70
NtRp2774
(dp2775
g73
(dp2776
g100
g101
ssg82
g2765
sg75
(lp2777
S':'
asbag68
(g89
g70
NtRp2778
(dp2779
g73
(dp2780
sg82
g2765
sg75
(lp2781
g68
(g69
g70
NtRp2782
(dp2783
g73
(dp2784
g81
I3
ssg82
g2778
sg75
(lp2785
g1082
asbasbasbag68
(g84
g70
NtRp2786
(dp2787
g73
(dp2788
sg82
g2719
sg75
(lp2789
g68
(g89
g70
NtRp2790
(dp2791
g73
(dp2792
g93
g94
ssg82
g2786
sg75
(lp2793
S'HTTP_ACCEPT_ENCODING'
p2794
asbag68
(g89
g70
NtRp2795
(dp2796
g73
(dp2797
g100
g101
ssg82
g2786
sg75
(lp2798
S':'
asbag68
(g89
g70
NtRp2799
(dp2800
g73
(dp2801
sg82
g2786
sg75
(lp2802
g68
(g69
g70
NtRp2803
(dp2804
g73
(dp2805
g81
I3
ssg82
g2799
sg75
(lp2806
g1104
asbasbasbag68
(g84
g70
NtRp2807
(dp2808
g73
(dp2809
sg82
g2719
sg75
(lp2810
g68
(g89
g70
NtRp2811
(dp2812
g73
(dp2813
g93
g94
ssg82
g2807
sg75
(lp2814
S'HTTP_ACCEPT_LANGUAGE'
p2815
asbag68
(g89
g70
NtRp2816
(dp2817
g73
(dp2818
g100
g101
ssg82
g2807
sg75
(lp2819
S':'
asbag68
(g89
g70
NtRp2820
(dp2821
g73
(dp2822
sg82
g2807
sg75
(lp2823
g68
(g69
g70
NtRp2824
(dp2825
g73
(dp2826
g81
I3
ssg82
g2820
sg75
(lp2827
g1126
asbasbasbag68
(g84
g70
NtRp2828
(dp2829
g73
(dp2830
sg82
g2719
sg75
(lp2831
g68
(g89
g70
NtRp2832
(dp2833
g73
(dp2834
g93
g94
ssg82
g2828
sg75
(lp2835
S'HTTP_CONNECTION'
p2836
asbag68
(g89
g70
NtRp2837
(dp2838
g73
(dp2839
g100
g101
ssg82
g2828
sg75
(lp2840
S':'
asbag68
(g89
g70
NtRp2841
(dp2842
g73
(dp2843
sg82
g2828
sg75
(lp2844
g68
(g69
g70
NtRp2845
(dp2846
g73
(dp2847
g81
I3
ssg82
g2841
sg75
(lp2848
g1148
asbasbasbag68
(g84
g70
NtRp2849
(dp2850
g73
(dp2851
sg82
g2719
sg75
(lp2852
g68
(g89
g70
NtRp2853
(dp2854
g73
(dp2855
g93
g94
ssg82
g2849
sg75
(lp2856
S'HTTP_CONTENT_LENGTH'
p2857
asbag68
(g89
g70
NtRp2858
(dp2859
g73
(dp2860
g100
g101
ssg82
g2849
sg75
(lp2861
S':'
asbag68
(g89
g70
NtRp2862
(dp2863
g73
(dp2864
sg82
g2849
sg75
(lp2865
g68
(g69
g70
NtRp2866
(dp2867
g73
(dp2868
g81
I3
ssg82
g2862
sg75
(lp2869
S'0'
asbasbasbag68
(g84
g70
NtRp2870
(dp2871
g73
(dp2872
sg82
g2719
sg75
(lp2873
g68
(g89
g70
NtRp2874
(dp2875
g73
(dp2876
g93
g94
ssg82
g2870
sg75
(lp2877
S'HTTP_CONTENT_TYPE'
p2878
asbag68
(g89
g70
NtRp2879
(dp2880
g73
(dp2881
g100
g101
ssg82
g2870
sg75
(lp2882
S':'
asbag68
(g89
g70
NtRp2883
(dp2884
g73
(dp2885
sg82
g2870
sg75
(lp2886
g68
(g69
g70
NtRp2887
(dp2888
g73
(dp2889
g81
I3
ssg82
g2883
sg75
(lp2890
g995
asbasbasbag68
(g84
g70
NtRp2891
(dp2892
g73
(dp2893
sg82
g2719
sg75
(lp2894
g68
(g89
g70
NtRp2895
(dp2896
g73
(dp2897
g93
g94
ssg82
g2891
sg75
(lp2898
S'HTTP_COOKIE'
p2899
asbag68
(g89
g70
NtRp2900
(dp2901
g73
(dp2902
g100
g101
ssg82
g2891
sg75
(lp2903
S':'
asbag68
(g89
g70
NtRp2904
(dp2905
g73
(dp2906
sg82
g2891
sg75
(lp2907
g68
(g69
g70
NtRp2908
(dp2909
g73
(dp2910
g81
I3
ssg82
g2904
sg75
(lp2911
g1212
asbasbasbag68
(g84
g70
NtRp2912
(dp2913
g73
(dp2914
sg82
g2719
sg75
(lp2915
g68
(g89
g70
NtRp2916
(dp2917
g73
(dp2918
g93
g94
ssg82
g2912
sg75
(lp2919
S'HTTP_HOST'
p2920
asbag68
(g89
g70
NtRp2921
(dp2922
g73
(dp2923
g100
g101
ssg82
g2912
sg75
(lp2924
S':'
asbag68
(g89
g70
NtRp2925
(dp2926
g73
(dp2927
sg82
g2912
sg75
(lp2928
g68
(g69
g70
NtRp2929
(dp2930
g73
(dp2931
g81
I3
ssg82
g2925
sg75
(lp2932
g1234
asbasbasbag68
(g84
g70
NtRp2933
(dp2934
g73
(dp2935
sg82
g2719
sg75
(lp2936
g68
(g89
g70
NtRp2937
(dp2938
g73
(dp2939
g93
g94
ssg82
g2933
sg75
(lp2940
S'HTTP_REFERER'
p2941
asbag68
(g89
g70
NtRp2942
(dp2943
g73
(dp2944
g100
g101
ssg82
g2933
sg75
(lp2945
S':'
asbag68
(g89
g70
NtRp2946
(dp2947
g73
(dp2948
sg82
g2933
sg75
(lp2949
g68
(g69
g70
NtRp2950
(dp2951
g73
(dp2952
g81
I3
ssg82
g2946
sg75
(lp2953
g1256
asbasbasbag68
(g84
g70
NtRp2954
(dp2955
g73
(dp2956
sg82
g2719
sg75
(lp2957
g68
(g89
g70
NtRp2958
(dp2959
g73
(dp2960
g93
g94
ssg82
g2954
sg75
(lp2961
S'HTTP_USER_AGENT'
p2962
asbag68
(g89
g70
NtRp2963
(dp2964
g73
(dp2965
g100
g101
ssg82
g2954
sg75
(lp2966
S':'
asbag68
(g89
g70
NtRp2967
(dp2968
g73
(dp2969
sg82
g2954
sg75
(lp2970
g68
(g69
g70
NtRp2971
(dp2972
g73
(dp2973
g81
I3
ssg82
g2967
sg75
(lp2974
g1278
asbasbasbag68
(g84
g70
NtRp2975
(dp2976
g73
(dp2977
sg82
g2719
sg75
(lp2978
g68
(g89
g70
NtRp2979
(dp2980
g73
(dp2981
g93
g94
ssg82
g2975
sg75
(lp2982
S'PATH_INFO'
p2983
asbag68
(g89
g70
NtRp2984
(dp2985
g73
(dp2986
g100
g101
ssg82
g2975
sg75
(lp2987
S':'
asbag68
(g89
g70
NtRp2988
(dp2989
g73
(dp2990
sg82
g2975
sg75
(lp2991
g68
(g69
g70
NtRp2992
(dp2993
g73
(dp2994
g81
I3
ssg82
g2988
sg75
(lp2995
g1432
asbasbasbag68
(g84
g70
NtRp2996
(dp2997
g73
(dp2998
sg82
g2719
sg75
(lp2999
g68
(g89
g70
NtRp3000
(dp3001
g73
(dp3002
g93
g94
ssg82
g2996
sg75
(lp3003
S'QUERY_STRING'
p3004
asbag68
(g89
g70
NtRp3005
(dp3006
g73
(dp3007
g100
g101
ssg82
g2996
sg75
(lp3008
S':'
asbag68
(g89
g70
NtRp3009
(dp3010
g73
(dp3011
sg82
g2996
sg75
(lp3012
g68
(g69
g70
NtRp3013
(dp3014
g73
(dp3015
g81
I3
ssg82
g3009
sg75
(lp3016
S''
asbasbasbag68
(g84
g70
NtRp3017
(dp3018
g73
(dp3019
sg82
g2719
sg75
(lp3020
g68
(g89
g70
NtRp3021
(dp3022
g73
(dp3023
g93
g94
ssg82
g3017
sg75
(lp3024
S'REMOTE_ADDR'
p3025
asbag68
(g89
g70
NtRp3026
(dp3027
g73
(dp3028
g100
g101
ssg82
g3017
sg75
(lp3029
S':'
asbag68
(g89
g70
NtRp3030
(dp3031
g73
(dp3032
sg82
g3017
sg75
(lp3033
g68
(g69
g70
NtRp3034
(dp3035
g73
(dp3036
g81
I3
ssg82
g3030
sg75
(lp3037
g223
asbasbasbag68
(g84
g70
NtRp3038
(dp3039
g73
(dp3040
sg82
g2719
sg75
(lp3041
g68
(g89
g70
NtRp3042
(dp3043
g73
(dp3044
g93
g94
ssg82
g3038
sg75
(lp3045
S'REMOTE_PORT'
p3046
asbag68
(g89
g70
NtRp3047
(dp3048
g73
(dp3049
g100
g101
ssg82
g3038
sg75
(lp3050
S':'
asbag68
(g89
g70
NtRp3051
(dp3052
g73
(dp3053
sg82
g3038
sg75
(lp3054
g68
(g69
g70
NtRp3055
(dp3056
g73
(dp3057
g81
I3
ssg82
g3051
sg75
(lp3058
g1496
asbasbasbag68
(g84
g70
NtRp3059
(dp3060
g73
(dp3061
sg82
g2719
sg75
(lp3062
g68
(g89
g70
NtRp3063
(dp3064
g73
(dp3065
g93
g94
ssg82
g3059
sg75
(lp3066
S'REQUEST_METHOD'
p3067
asbag68
(g89
g70
NtRp3068
(dp3069
g73
(dp3070
g100
g101
ssg82
g3059
sg75
(lp3071
S':'
asbag68
(g89
g70
NtRp3072
(dp3073
g73
(dp3074
sg82
g3059
sg75
(lp3075
g68
(g69
g70
NtRp3076
(dp3077
g73
(dp3078
g81
I3
ssg82
g3072
sg75
(lp3079
g1518
asbasbasbag68
(g84
g70
NtRp3080
(dp3081
g73
(dp3082
sg82
g2719
sg75
(lp3083
g68
(g89
g70
NtRp3084
(dp3085
g73
(dp3086
g93
g94
ssg82
g3080
sg75
(lp3087
S'REQUEST_URI'
p3088
asbag68
(g89
g70
NtRp3089
(dp3090
g73
(dp3091
g100
g101
ssg82
g3080
sg75
(lp3092
S':'
asbag68
(g89
g70
NtRp3093
(dp3094
g73
(dp3095
sg82
g3080
sg75
(lp3096
g68
(g69
g70
NtRp3097
(dp3098
g73
(dp3099
g81
I3
ssg82
g3093
sg75
(lp3100
g1432
asbasbasbag68
(g84
g70
NtRp3101
(dp3102
g73
(dp3103
sg82
g2719
sg75
(lp3104
g68
(g89
g70
NtRp3105
(dp3106
g73
(dp3107
g93
g94
ssg82
g3101
sg75
(lp3108
S'SCRIPT_NAME'
p3109
asbag68
(g89
g70
NtRp3110
(dp3111
g73
(dp3112
g100
g101
ssg82
g3101
sg75
(lp3113
S':'
asbag68
(g89
g70
NtRp3114
(dp3115
g73
(dp3116
sg82
g3101
sg75
(lp3117
g68
(g69
g70
NtRp3118
(dp3119
g73
(dp3120
g81
I3
ssg82
g3114
sg75
(lp3121
S''
asbasbasbag68
(g84
g70
NtRp3122
(dp3123
g73
(dp3124
sg82
g2719
sg75
(lp3125
g68
(g89
g70
NtRp3126
(dp3127
g73
(dp3128
g93
g94
ssg82
g3122
sg75
(lp3129
S'SERVER_NAME'
p3130
asbag68
(g89
g70
NtRp3131
(dp3132
g73
(dp3133
g100
g101
ssg82
g3122
sg75
(lp3134
S':'
asbag68
(g89
g70
NtRp3135
(dp3136
g73
(dp3137
sg82
g3122
sg75
(lp3138
g68
(g69
g70
NtRp3139
(dp3140
g73
(dp3141
g81
I3
ssg82
g3135
sg75
(lp3142
g1582
asbasbasbag68
(g84
g70
NtRp3143
(dp3144
g73
(dp3145
sg82
g2719
sg75
(lp3146
g68
(g89
g70
NtRp3147
(dp3148
g73
(dp3149
g93
g94
ssg82
g3143
sg75
(lp3150
S'SERVER_PORT'
p3151
asbag68
(g89
g70
NtRp3152
(dp3153
g73
(dp3154
g100
g101
ssg82
g3143
sg75
(lp3155
S':'
asbag68
(g89
g70
NtRp3156
(dp3157
g73
(dp3158
sg82
g3143
sg75
(lp3159
g68
(g69
g70
NtRp3160
(dp3161
g73
(dp3162
g81
I3
ssg82
g3156
sg75
(lp3163
g1604
asbasbasbag68
(g84
g70
NtRp3164
(dp3165
g73
(dp3166
sg82
g2719
sg75
(lp3167
g68
(g89
g70
NtRp3168
(dp3169
g73
(dp3170
g93
g94
ssg82
g3164
sg75
(lp3171
S'SERVER_PROTOCOL'
p3172
asbag68
(g89
g70
NtRp3173
(dp3174
g73
(dp3175
g100
g101
ssg82
g3164
sg75
(lp3176
S':'
asbag68
(g89
g70
NtRp3177
(dp3178
g73
(dp3179
sg82
g3164
sg75
(lp3180
g68
(g69
g70
NtRp3181
(dp3182
g73
(dp3183
g81
I3
ssg82
g3177
sg75
(lp3184
g1626
asbasbasbag68
(g84
g70
NtRp3185
(dp3186
g73
(dp3187
sg82
g2719
sg75
(lp3188
g68
(g89
g70
NtRp3189
(dp3190
g73
(dp3191
g93
g94
ssg82
g3185
sg75
(lp3192
S'SERVER_SOFTWARE'
p3193
asbag68
(g89
g70
NtRp3194
(dp3195
g73
(dp3196
g100
g101
ssg82
g3185
sg75
(lp3197
S':'
asbag68
(g89
g70
NtRp3198
(dp3199
g73
(dp3200
sg82
g3185
sg75
(lp3201
g68
(g69
g70
NtRp3202
(dp3203
g73
(dp3204
g81
I3
ssg82
g3198
sg75
(lp3205
g1648
asbasbasbag68
(g84
g70
NtRp3206
(dp3207
g73
(dp3208
sg82
g2719
sg75
(lp3209
g68
(g89
g70
NtRp3210
(dp3211
g73
(dp3212
g93
g94
ssg82
g3206
sg75
(lp3213
S'wsgi.errors'
p3214
asbag68
(g89
g70
NtRp3215
(dp3216
g73
(dp3217
g100
g101
ssg82
g3206
sg75
(lp3218
S':'
asbag68
(g89
g70
NtRp3219
(dp3220
g73
(dp3221
sg82
g3206
sg75
(lp3222
g68
(g69
g70
NtRp3223
(dp3224
g73
(dp3225
g81
I3
ssg82
g3219
sg75
(lp3226
S"<open file '<stderr>', mode 'w' at 0xb735e0d0>"
p3227
asbasbasbag68
(g84
g70
NtRp3228
(dp3229
g73
(dp3230
sg82
g2719
sg75
(lp3231
g68
(g89
g70
NtRp3232
(dp3233
g73
(dp3234
g93
g94
ssg82
g3228
sg75
(lp3235
S'wsgi.file_wrapper'
p3236
asbag68
(g89
g70
NtRp3237
(dp3238
g73
(dp3239
g100
g101
ssg82
g3228
sg75
(lp3240
S':'
asbag68
(g89
g70
NtRp3241
(dp3242
g73
(dp3243
sg82
g3228
sg75
(lp3244
g68
(g69
g70
NtRp3245
(dp3246
g73
(dp3247
g81
I3
ssg82
g3241
sg75
(lp3248
S'<class wsgiref.util.FileWrapper at 0x96a105c>'
p3249
asbasbasbag68
(g84
g70
NtRp3250
(dp3251
g73
(dp3252
sg82
g2719
sg75
(lp3253
g68
(g89
g70
NtRp3254
(dp3255
g73
(dp3256
g93
g94
ssg82
g3250
sg75
(lp3257
S'wsgi.input'
p3258
asbag68
(g89
g70
NtRp3259
(dp3260
g73
(dp3261
g100
g101
ssg82
g3250
sg75
(lp3262
S':'
asbag68
(g89
g70
NtRp3263
(dp3264
g73
(dp3265
sg82
g3250
sg75
(lp3266
g68
(g69
g70
NtRp3267
(dp3268
g73
(dp3269
g81
I3
ssg82
g3263
sg75
(lp3270
S"<open file '<fdopen>', mode 'w+b' at 0xae78b808>"
p3271
asbasbasbag68
(g84
g70
NtRp3272
(dp3273
g73
(dp3274
sg82
g2719
sg75
(lp3275
g68
(g89
g70
NtRp3276
(dp3277
g73
(dp3278
g93
g94
ssg82
g3272
sg75
(lp3279
S'wsgi.multiprocess'
p3280
asbag68
(g89
g70
NtRp3281
(dp3282
g73
(dp3283
g100
g101
ssg82
g3272
sg75
(lp3284
S':'
asbag68
(g89
g70
NtRp3285
(dp3286
g73
(dp3287
sg82
g3272
sg75
(lp3288
g68
(g69
g70
NtRp3289
(dp3290
g73
(dp3291
g81
I3
ssg82
g3285
sg75
(lp3292
g111
asbasbasbag68
(g84
g70
NtRp3293
(dp3294
g73
(dp3295
sg82
g2719
sg75
(lp3296
g68
(g89
g70
NtRp3297
(dp3298
g73
(dp3299
g93
g94
ssg82
g3293
sg75
(lp3300
S'wsgi.multithread'
p3301
asbag68
(g89
g70
NtRp3302
(dp3303
g73
(dp3304
g100
g101
ssg82
g3293
sg75
(lp3305
S':'
asbag68
(g89
g70
NtRp3306
(dp3307
g73
(dp3308
sg82
g3293
sg75
(lp3309
g68
(g69
g70
NtRp3310
(dp3311
g73
(dp3312
g81
I3
ssg82
g3306
sg75
(lp3313
g1865
asbasbasbag68
(g84
g70
NtRp3314
(dp3315
g73
(dp3316
sg82
g2719
sg75
(lp3317
g68
(g89
g70
NtRp3318
(dp3319
g73
(dp3320
g93
g94
ssg82
g3314
sg75
(lp3321
S'wsgi.run_once'
p3322
asbag68
(g89
g70
NtRp3323
(dp3324
g73
(dp3325
g100
g101
ssg82
g3314
sg75
(lp3326
S':'
asbag68
(g89
g70
NtRp3327
(dp3328
g73
(dp3329
sg82
g3314
sg75
(lp3330
g68
(g69
g70
NtRp3331
(dp3332
g73
(dp3333
g81
I3
ssg82
g3327
sg75
(lp3334
g111
asbasbasbag68
(g84
g70
NtRp3335
(dp3336
g73
(dp3337
sg82
g2719
sg75
(lp3338
g68
(g89
g70
NtRp3339
(dp3340
g73
(dp3341
g93
g94
ssg82
g3335
sg75
(lp3342
S'wsgi.url_scheme'
p3343
asbag68
(g89
g70
NtRp3344
(dp3345
g73
(dp3346
g100
g101
ssg82
g3335
sg75
(lp3347
S':'
asbag68
(g89
g70
NtRp3348
(dp3349
g73
(dp3350
sg82
g3335
sg75
(lp3351
g68
(g69
g70
NtRp3352
(dp3353
g73
(dp3354
g81
I3
ssg82
g3348
sg75
(lp3355
g1908
asbasbasbag68
(g84
g70
NtRp3356
(dp3357
g73
(dp3358
sg82
g2719
sg75
(lp3359
g68
(g89
g70
NtRp3360
(dp3361
g73
(dp3362
g93
g94
ssg82
g3356
sg75
(lp3363
S'wsgi.version'
p3364
asbag68
(g89
g70
NtRp3365
(dp3366
g73
(dp3367
g100
g101
ssg82
g3356
sg75
(lp3368
S':'
asbag68
(g89
g70
NtRp3369
(dp3370
g73
(dp3371
sg82
g3356
sg75
(lp3372
g68
(g69
g70
NtRp3373
(dp3374
g73
(dp3375
g81
I3
ssg82
g3369
sg75
(lp3376
S'1'
asbasbasbasbasbasbasbasbasbasbasbasbasbsS'frames'
p3377
(lp3378
(dp3379
S'file'
p3380
S'/home/pankaj/web2py/gluon/restricted.py'
p3381
sS'dump'
p3382
(dp3383
S'code'
p3384
S"'# -*- coding: utf-8 -*-\\n# this file is released ...rud())\\n\\nresponse._vars=response._caller(addpost)\\n'"
p3385
sS'layer'
p3386
S"'/home/pankaj/web2py/applications/reddit/controllers/default.py'"
p3387
sS'global compile2'
p3388
S'<function compile2>'
p3389
sS'ccode'
p3390
S'undefined'
p3391
ssS'lnum'
p3392
I211
sS'lines'
p3393
(dp3394
I206
S"    environment['__name__'] = '__restricted__'"
p3395
sI207
S'    try:'
p3396
sI208
S'        if isinstance(code, types.CodeType):'
p3397
sI209
S'            ccode = code'
p3398
sI210
S'        else:'
p3399
sI211
S'            ccode = compile2(code, layer)'
p3400
sI212
S'        exec ccode in environment'
p3401
sI213
S'    except HTTP:'
p3402
sI214
S'        raise'
p3403
sI215
S'    except RestrictedError:'
p3404
ssS'call'
p3405
S"(code='# -*- coding: utf-8 -*-\\n# this file is released ...rud())\\n\\nresponse._vars=response._caller(addpost)\\n', environment={'A': <class 'gluon.html.A'>, 'Auth': <class 'gluon.tools.Auth'>, 'B': <class 'gluon.html.B'>, 'BEAUTIFY': <class 'gluon.html.BEAUTIFY'>, 'BODY': <class 'gluon.html.BODY'>, 'BR': <class 'gluon.html.BR'>, 'BUTTON': <class 'gluon.html.BUTTON'>, 'CAT': <class 'gluon.html.CAT'>, 'CENTER': <class 'gluon.html.CENTER'>, 'CLEANUP': <class 'gluon.validators.CLEANUP'>, ...}, layer='/home/pankaj/web2py/applications/reddit/controllers/default.py')"
p3406
sS'func'
p3407
S'restricted'
p3408
sa(dp3409
g3380
S'/home/pankaj/web2py/gluon/restricted.py'
p3410
sg3382
(dp3411
S'builtincompile'
p3412
S'<built-in function compile>'
p3413
sS'code'
p3414
S"'# -*- coding: utf-8 -*-\\n# this file is released ...rud())\\n\\nresponse._vars=response._caller(addpost)\\n'"
p3415
sS'code.rstrip'
p3416
S'<built-in method rstrip of str object>'
p3417
sS').replace'
p3418
g3391
sS'layer'
p3419
S"'/home/pankaj/web2py/applications/reddit/controllers/default.py'"
p3420
ssg3392
I194
sg3393
(dp3421
I192
S"    The +'\\n' is necessary else compile fails when code ends in a comment."
p3422
sI193
S'    """'
p3423
sI194
S"    return compile(code.rstrip().replace('\\r\\n', '\\n') + '\\n', layer, 'exec')"
p3424
sI195
S''
sI196
S''
sI197
S"def restricted(code, environment=None, layer='Unknown'):"
p3425
sI198
S'    """'
p3426
sI189
S''
sI190
S'def compile2(code, layer):'
p3427
sI191
S'    """'
p3428
ssg3405
S"(code='# -*- coding: utf-8 -*-\\n# this file is released ...rud())\\n\\nresponse._vars=response._caller(addpost)\\n', layer='/home/pankaj/web2py/applications/reddit/controllers/default.py')"
p3429
sg3407
S'compile2'
p3430
sasS'pyver'
p3431
S'Python 2.7.3: /usr/bin/python'
p3432
sS'session'
p3433
g68
(g69
g70
NtRp3434
(dp3435
g73
(dp3436
sg75
(lp3437
g68
(g77
g70
NtRp3438
(dp3439
g73
(dp3440
g81
I5
ssg82
Nsg75
(lp3441
g68
(g84
g70
NtRp3442
(dp3443
g73
(dp3444
sg82
g3438
sg75
(lp3445
g68
(g89
g70
NtRp3446
(dp3447
g73
(dp3448
g93
g94
ssg82
g3442
sg75
(lp3449
S'auth'
p3450
asbag68
(g89
g70
NtRp3451
(dp3452
g73
(dp3453
g100
g101
ssg82
g3442
sg75
(lp3454
S':'
asbag68
(g89
g70
NtRp3455
(dp3456
g73
(dp3457
sg82
g3442
sg75
(lp3458
g68
(g69
g70
NtRp3459
(dp3460
g73
(dp3461
g81
I5
ssg82
g3455
sg75
(lp3462
g68
(g77
g70
NtRp3463
(dp3464
g73
(dp3465
g81
I4
ssg82
Nsg75
(lp3466
g68
(g84
g70
NtRp3467
(dp3468
g73
(dp3469
sg82
g3463
sg75
(lp3470
g68
(g89
g70
NtRp3471
(dp3472
g73
(dp3473
g93
g94
ssg82
g3467
sg75
(lp3474
S'expiration'
p3475
asbag68
(g89
g70
NtRp3476
(dp3477
g73
(dp3478
g100
g101
ssg82
g3467
sg75
(lp3479
S':'
asbag68
(g89
g70
NtRp3480
(dp3481
g73
(dp3482
sg82
g3467
sg75
(lp3483
g68
(g69
g70
NtRp3484
(dp3485
g73
(dp3486
g81
I4
ssg82
g3480
sg75
(lp3487
S'2592000'
p3488
asbasbasbag68
(g84
g70
NtRp3489
(dp3490
g73
(dp3491
sg82
g3463
sg75
(lp3492
g68
(g89
g70
NtRp3493
(dp3494
g73
(dp3495
g93
g94
ssg82
g3489
sg75
(lp3496
S'hmac_key'
p3497
asbag68
(g89
g70
NtRp3498
(dp3499
g73
(dp3500
g100
g101
ssg82
g3489
sg75
(lp3501
S':'
asbag68
(g89
g70
NtRp3502
(dp3503
g73
(dp3504
sg82
g3489
sg75
(lp3505
g68
(g69
g70
NtRp3506
(dp3507
g73
(dp3508
g81
I4
ssg82
g3502
sg75
(lp3509
S'f8ac37ec-2036-4076-bffe-8306279ac35a'
p3510
asbasbasbag68
(g84
g70
NtRp3511
(dp3512
g73
(dp3513
sg82
g3463
sg75
(lp3514
g68
(g89
g70
NtRp3515
(dp3516
g73
(dp3517
g93
g94
ssg82
g3511
sg75
(lp3518
S'last_visit'
p3519
asbag68
(g89
g70
NtRp3520
(dp3521
g73
(dp3522
g100
g101
ssg82
g3511
sg75
(lp3523
S':'
asbag68
(g89
g70
NtRp3524
(dp3525
g73
(dp3526
sg82
g3511
sg75
(lp3527
g68
(g69
g70
NtRp3528
(dp3529
g73
(dp3530
g81
I4
ssg82
g3524
sg75
(lp3531
S'datetime.datetime(2013, 8, 30, 1, 8, 1, 584665)'
p3532
asbasbasbag68
(g84
g70
NtRp3533
(dp3534
g73
(dp3535
sg82
g3463
sg75
(lp3536
g68
(g89
g70
NtRp3537
(dp3538
g73
(dp3539
g93
g94
ssg82
g3533
sg75
(lp3540
S'remember'
p3541
asbag68
(g89
g70
NtRp3542
(dp3543
g73
(dp3544
g100
g101
ssg82
g3533
sg75
(lp3545
S':'
asbag68
(g89
g70
NtRp3546
(dp3547
g73
(dp3548
sg82
g3533
sg75
(lp3549
g68
(g69
g70
NtRp3550
(dp3551
g73
(dp3552
g81
I4
ssg82
g3546
sg75
(lp3553
g1865
asbasbasbag68
(g84
g70
NtRp3554
(dp3555
g73
(dp3556
sg82
g3463
sg75
(lp3557
g68
(g89
g70
NtRp3558
(dp3559
g73
(dp3560
g93
g94
ssg82
g3554
sg75
(lp3561
S'user'
p3562
asbag68
(g89
g70
NtRp3563
(dp3564
g73
(dp3565
g100
g101
ssg82
g3554
sg75
(lp3566
S':'
asbag68
(g89
g70
NtRp3567
(dp3568
g73
(dp3569
sg82
g3554
sg75
(lp3570
g68
(g69
g70
NtRp3571
(dp3572
g73
(dp3573
g81
I4
ssg82
g3567
sg75
(lp3574
g68
(g77
g70
NtRp3575
(dp3576
g73
(dp3577
g81
I3
ssg82
Nsg75
(lp3578
g68
(g84
g70
NtRp3579
(dp3580
g73
(dp3581
sg82
g3575
sg75
(lp3582
g68
(g89
g70
NtRp3583
(dp3584
g73
(dp3585
g93
g94
ssg82
g3579
sg75
(lp3586
S'email'
p3587
asbag68
(g89
g70
NtRp3588
(dp3589
g73
(dp3590
g100
g101
ssg82
g3579
sg75
(lp3591
S':'
asbag68
(g89
g70
NtRp3592
(dp3593
g73
(dp3594
sg82
g3579
sg75
(lp3595
g68
(g69
g70
NtRp3596
(dp3597
g73
(dp3598
g81
I3
ssg82
g3592
sg75
(lp3599
S'pankaj@gmail.com'
p3600
asbasbasbag68
(g84
g70
NtRp3601
(dp3602
g73
(dp3603
sg82
g3575
sg75
(lp3604
g68
(g89
g70
NtRp3605
(dp3606
g73
(dp3607
g93
g94
ssg82
g3601
sg75
(lp3608
S'first_name'
p3609
asbag68
(g89
g70
NtRp3610
(dp3611
g73
(dp3612
g100
g101
ssg82
g3601
sg75
(lp3613
S':'
asbag68
(g89
g70
NtRp3614
(dp3615
g73
(dp3616
sg82
g3601
sg75
(lp3617
g68
(g69
g70
NtRp3618
(dp3619
g73
(dp3620
g81
I3
ssg82
g3614
sg75
(lp3621
S'pankaj'
p3622
asbasbasbag68
(g84
g70
NtRp3623
(dp3624
g73
(dp3625
sg82
g3575
sg75
(lp3626
g68
(g89
g70
NtRp3627
(dp3628
g73
(dp3629
g93
g94
ssg82
g3623
sg75
(lp3630
S'id'
p3631
asbag68
(g89
g70
NtRp3632
(dp3633
g73
(dp3634
g100
g101
ssg82
g3623
sg75
(lp3635
S':'
asbag68
(g89
g70
NtRp3636
(dp3637
g73
(dp3638
sg82
g3623
sg75
(lp3639
g68
(g69
g70
NtRp3640
(dp3641
g73
(dp3642
g81
I3
ssg82
g3636
sg75
(lp3643
S'1'
asbasbasbag68
(g84
g70
NtRp3644
(dp3645
g73
(dp3646
sg82
g3575
sg75
(lp3647
g68
(g89
g70
NtRp3648
(dp3649
g73
(dp3650
g93
g94
ssg82
g3644
sg75
(lp3651
S'last_name'
p3652
asbag68
(g89
g70
NtRp3653
(dp3654
g73
(dp3655
g100
g101
ssg82
g3644
sg75
(lp3656
S':'
asbag68
(g89
g70
NtRp3657
(dp3658
g73
(dp3659
sg82
g3644
sg75
(lp3660
g68
(g69
g70
NtRp3661
(dp3662
g73
(dp3663
g81
I3
ssg82
g3657
sg75
(lp3664
S'malhotra'
p3665
asbasbasbag68
(g84
g70
NtRp3666
(dp3667
g73
(dp3668
sg82
g3575
sg75
(lp3669
g68
(g89
g70
NtRp3670
(dp3671
g73
(dp3672
g93
g94
ssg82
g3666
sg75
(lp3673
S'registration_id'
p3674
asbag68
(g89
g70
NtRp3675
(dp3676
g73
(dp3677
g100
g101
ssg82
g3666
sg75
(lp3678
S':'
asbag68
(g89
g70
NtRp3679
(dp3680
g73
(dp3681
sg82
g3666
sg75
(lp3682
g68
(g69
g70
NtRp3683
(dp3684
g73
(dp3685
g81
I3
ssg82
g3679
sg75
(lp3686
S''
asbasbasbag68
(g84
g70
NtRp3687
(dp3688
g73
(dp3689
sg82
g3575
sg75
(lp3690
g68
(g89
g70
NtRp3691
(dp3692
g73
(dp3693
g93
g94
ssg82
g3687
sg75
(lp3694
S'registration_key'
p3695
asbag68
(g89
g70
NtRp3696
(dp3697
g73
(dp3698
g100
g101
ssg82
g3687
sg75
(lp3699
S':'
asbag68
(g89
g70
NtRp3700
(dp3701
g73
(dp3702
sg82
g3687
sg75
(lp3703
g68
(g69
g70
NtRp3704
(dp3705
g73
(dp3706
g81
I3
ssg82
g3700
sg75
(lp3707
S''
asbasbasbag68
(g84
g70
NtRp3708
(dp3709
g73
(dp3710
sg82
g3575
sg75
(lp3711
g68
(g89
g70
NtRp3712
(dp3713
g73
(dp3714
g93
g94
ssg82
g3708
sg75
(lp3715
S'reset_password_key'
p3716
asbag68
(g89
g70
NtRp3717
(dp3718
g73
(dp3719
g100
g101
ssg82
g3708
sg75
(lp3720
S':'
asbag68
(g89
g70
NtRp3721
(dp3722
g73
(dp3723
sg82
g3708
sg75
(lp3724
g68
(g69
g70
NtRp3725
(dp3726
g73
(dp3727
g81
I3
ssg82
g3721
sg75
(lp3728
S''
asbasbasbasbasbasbasbag68
(g84
g70
NtRp3729
(dp3730
g73
(dp3731
sg82
g3463
sg75
(lp3732
g68
(g89
g70
NtRp3733
(dp3734
g73
(dp3735
g93
g94
ssg82
g3729
sg75
(lp3736
S'user_groups'
p3737
asbag68
(g89
g70
NtRp3738
(dp3739
g73
(dp3740
g100
g101
ssg82
g3729
sg75
(lp3741
S':'
asbag68
(g89
g70
NtRp3742
(dp3743
g73
(dp3744
sg82
g3729
sg75
(lp3745
g68
(g69
g70
NtRp3746
(dp3747
g73
(dp3748
g81
I4
ssg82
g3742
sg75
(lp3749
g68
(g77
g70
NtRp3750
(dp3751
g73
(dp3752
g81
I3
ssg82
Nsg75
(lp3753
g68
(g84
g70
NtRp3754
(dp3755
g73
(dp3756
sg82
g3750
sg75
(lp3757
g68
(g89
g70
NtRp3758
(dp3759
g73
(dp3760
g93
g94
ssg82
g3754
sg75
(lp3761
S'1'
asbag68
(g89
g70
NtRp3762
(dp3763
g73
(dp3764
g100
g101
ssg82
g3754
sg75
(lp3765
S':'
asbag68
(g89
g70
NtRp3766
(dp3767
g73
(dp3768
sg82
g3754
sg75
(lp3769
g68
(g69
g70
NtRp3770
(dp3771
g73
(dp3772
g81
I3
ssg82
g3766
sg75
(lp3773
S'user_1'
p3774
asbasbasbasbasbasbasbasbasbasbasbag68
(g84
g70
NtRp3775
(dp3776
g73
(dp3777
sg82
g3438
sg75
(lp3778
g68
(g89
g70
NtRp3779
(dp3780
g73
(dp3781
g93
g94
ssg82
g3775
sg75
(lp3782
S'flash'
p3783
asbag68
(g89
g70
NtRp3784
(dp3785
g73
(dp3786
g100
g101
ssg82
g3775
sg75
(lp3787
S':'
asbag68
(g89
g70
NtRp3788
(dp3789
g73
(dp3790
sg82
g3775
sg75
(lp3791
g68
(g69
g70
NtRp3792
(dp3793
g73
(dp3794
g81
I5
ssg82
g3788
sg75
(lp3795
S'None'
p3796
asbasbasbag68
(g84
g70
NtRp3797
(dp3798
g73
(dp3799
sg82
g3438
sg75
(lp3800
g68
(g89
g70
NtRp3801
(dp3802
g73
(dp3803
g93
g94
ssg82
g3797
sg75
(lp3804
S'last_orderby'
p3805
asbag68
(g89
g70
NtRp3806
(dp3807
g73
(dp3808
g100
g101
ssg82
g3797
sg75
(lp3809
S':'
asbag68
(g89
g70
NtRp3810
(dp3811
g73
(dp3812
sg82
g3797
sg75
(lp3813
g68
(g69
g70
NtRp3814
(dp3815
g73
(dp3816
g81
I5
ssg82
g3810
sg75
(lp3817
S'None'
p3818
asbasbasbag68
(g84
g70
NtRp3819
(dp3820
g73
(dp3821
sg82
g3438
sg75
(lp3822
g68
(g89
g70
NtRp3823
(dp3824
g73
(dp3825
g93
g94
ssg82
g3819
sg75
(lp3826
S'last_query'
p3827
asbag68
(g89
g70
NtRp3828
(dp3829
g73
(dp3830
g100
g101
ssg82
g3819
sg75
(lp3831
S':'
asbag68
(g89
g70
NtRp3832
(dp3833
g73
(dp3834
sg82
g3819
sg75
(lp3835
g68
(g69
g70
NtRp3836
(dp3837
g73
(dp3838
g81
I5
ssg82
g3832
sg75
(lp3839
S'db.lstate.id>0'
p3840
asbasbasbasbasbsS'etype'
p3841
S"<type 'exceptions.IndentationError'>"
p3842
sS'date'
p3843
S'Sun Sep  1 08:41:46 2013'
p3844
sS'response'
p3845
g68
(g69
g70
NtRp3846
(dp3847
g73
(dp3848
sg75
(lp3849
g68
(g77
g70
NtRp3850
(dp3851
g73
(dp3852
g81
I5
ssg82
Nsg75
(lp3853
g68
(g84
g70
NtRp3854
(dp3855
g73
(dp3856
sg82
g3850
sg75
(lp3857
g68
(g89
g70
NtRp3858
(dp3859
g73
(dp3860
g93
g94
ssg82
g3854
sg75
(lp3861
g166
asbag68
(g89
g70
NtRp3862
(dp3863
g73
(dp3864
g100
g101
ssg82
g3854
sg75
(lp3865
S':'
asbag68
(g89
g70
NtRp3866
(dp3867
g73
(dp3868
sg82
g3854
sg75
(lp3869
g68
(g69
g70
NtRp3870
(dp3871
g73
(dp3872
g81
I5
ssg82
g3866
sg75
(lp3873
S'<cStringIO.StringO object at 0x9966280>'
p3874
asbasbasbag68
(g84
g70
NtRp3875
(dp3876
g73
(dp3877
sg82
g3850
sg75
(lp3878
g68
(g89
g70
NtRp3879
(dp3880
g73
(dp3881
g93
g94
ssg82
g3875
sg75
(lp3882
g254
asbag68
(g89
g70
NtRp3883
(dp3884
g73
(dp3885
g100
g101
ssg82
g3875
sg75
(lp3886
S':'
asbag68
(g89
g70
NtRp3887
(dp3888
g73
(dp3889
sg82
g3875
sg75
(lp3890
g68
(g69
g70
NtRp3891
(dp3892
g73
(dp3893
g81
I5
ssg82
g3887
sg75
(lp3894
g68
(g77
g70
NtRp3895
(dp3896
g73
(dp3897
g81
I4
ssg82
Nsg75
(lp3898
g68
(g84
g70
NtRp3899
(dp3900
g73
(dp3901
sg82
g3895
sg75
(lp3902
g68
(g89
g70
NtRp3903
(dp3904
g73
(dp3905
g93
g94
ssg82
g3899
sg75
(lp3906
S'session_id_reddit'
p3907
asbag68
(g89
g70
NtRp3908
(dp3909
g73
(dp3910
g100
g101
ssg82
g3899
sg75
(lp3911
S':'
asbag68
(g89
g70
NtRp3912
(dp3913
g73
(dp3914
sg82
g3899
sg75
(lp3915
g68
(g69
g70
NtRp3916
(dp3917
g73
(dp3918
g81
I4
ssg82
g3912
sg75
(lp3919
g486
ag68
(g77
g70
NtRp3920
(dp3921
g73
(dp3922
g81
I3
ssg82
Nsg75
(lp3923
g68
(g84
g70
NtRp3924
(dp3925
g73
(dp3926
sg82
g3920
sg75
(lp3927
g68
(g89
g70
NtRp3928
(dp3929
g73
(dp3930
g93
g94
ssg82
g3924
sg75
(lp3931
g305
asbag68
(g89
g70
NtRp3932
(dp3933
g73
(dp3934
g100
g101
ssg82
g3924
sg75
(lp3935
S':'
asbag68
(g89
g70
NtRp3936
(dp3937
g73
(dp3938
sg82
g3924
sg75
(lp3939
g68
(g69
g70
NtRp3940
(dp3941
g73
(dp3942
g81
I3
ssg82
g3936
sg75
(lp3943
S''
asbasbasbag68
(g84
g70
NtRp3944
(dp3945
g73
(dp3946
sg82
g3920
sg75
(lp3947
g68
(g89
g70
NtRp3948
(dp3949
g73
(dp3950
g93
g94
ssg82
g3944
sg75
(lp3951
g326
asbag68
(g89
g70
NtRp3952
(dp3953
g73
(dp3954
g100
g101
ssg82
g3944
sg75
(lp3955
S':'
asbag68
(g89
g70
NtRp3956
(dp3957
g73
(dp3958
sg82
g3944
sg75
(lp3959
g68
(g69
g70
NtRp3960
(dp3961
g73
(dp3962
g81
I3
ssg82
g3956
sg75
(lp3963
S''
asbasbasbag68
(g84
g70
NtRp3964
(dp3965
g73
(dp3966
sg82
g3920
sg75
(lp3967
g68
(g89
g70
NtRp3968
(dp3969
g73
(dp3970
g93
g94
ssg82
g3964
sg75
(lp3971
g347
asbag68
(g89
g70
NtRp3972
(dp3973
g73
(dp3974
g100
g101
ssg82
g3964
sg75
(lp3975
S':'
asbag68
(g89
g70
NtRp3976
(dp3977
g73
(dp3978
sg82
g3964
sg75
(lp3979
g68
(g69
g70
NtRp3980
(dp3981
g73
(dp3982
g81
I3
ssg82
g3976
sg75
(lp3983
S'2592000'
p3984
asbasbasbag68
(g84
g70
NtRp3985
(dp3986
g73
(dp3987
sg82
g3920
sg75
(lp3988
g68
(g89
g70
NtRp3989
(dp3990
g73
(dp3991
g93
g94
ssg82
g3985
sg75
(lp3992
g368
asbag68
(g89
g70
NtRp3993
(dp3994
g73
(dp3995
g100
g101
ssg82
g3985
sg75
(lp3996
S':'
asbag68
(g89
g70
NtRp3997
(dp3998
g73
(dp3999
sg82
g3985
sg75
(lp4000
g68
(g69
g70
NtRp4001
(dp4002
g73
(dp4003
g81
I3
ssg82
g3997
sg75
(lp4004
S''
asbasbasbag68
(g84
g70
NtRp4005
(dp4006
g73
(dp4007
sg82
g3920
sg75
(lp4008
g68
(g89
g70
NtRp4009
(dp4010
g73
(dp4011
g93
g94
ssg82
g4005
sg75
(lp4012
g389
asbag68
(g89
g70
NtRp4013
(dp4014
g73
(dp4015
g100
g101
ssg82
g4005
sg75
(lp4016
S':'
asbag68
(g89
g70
NtRp4017
(dp4018
g73
(dp4019
sg82
g4005
sg75
(lp4020
g68
(g69
g70
NtRp4021
(dp4022
g73
(dp4023
g81
I3
ssg82
g4017
sg75
(lp4024
S''
asbasbasbag68
(g84
g70
NtRp4025
(dp4026
g73
(dp4027
sg82
g3920
sg75
(lp4028
g68
(g89
g70
NtRp4029
(dp4030
g73
(dp4031
g93
g94
ssg82
g4025
sg75
(lp4032
g410
asbag68
(g89
g70
NtRp4033
(dp4034
g73
(dp4035
g100
g101
ssg82
g4025
sg75
(lp4036
S':'
asbag68
(g89
g70
NtRp4037
(dp4038
g73
(dp4039
sg82
g4025
sg75
(lp4040
g68
(g69
g70
NtRp4041
(dp4042
g73
(dp4043
g81
I3
ssg82
g4037
sg75
(lp4044
S'/'
asbasbasbag68
(g84
g70
NtRp4045
(dp4046
g73
(dp4047
sg82
g3920
sg75
(lp4048
g68
(g89
g70
NtRp4049
(dp4050
g73
(dp4051
g93
g94
ssg82
g4045
sg75
(lp4052
g431
asbag68
(g89
g70
NtRp4053
(dp4054
g73
(dp4055
g100
g101
ssg82
g4045
sg75
(lp4056
S':'
asbag68
(g89
g70
NtRp4057
(dp4058
g73
(dp4059
sg82
g4045
sg75
(lp4060
g68
(g69
g70
NtRp4061
(dp4062
g73
(dp4063
g81
I3
ssg82
g4057
sg75
(lp4064
S''
asbasbasbag68
(g84
g70
NtRp4065
(dp4066
g73
(dp4067
sg82
g3920
sg75
(lp4068
g68
(g89
g70
NtRp4069
(dp4070
g73
(dp4071
g93
g94
ssg82
g4065
sg75
(lp4072
g452
asbag68
(g89
g70
NtRp4073
(dp4074
g73
(dp4075
g100
g101
ssg82
g4065
sg75
(lp4076
S':'
asbag68
(g89
g70
NtRp4077
(dp4078
g73
(dp4079
sg82
g4065
sg75
(lp4080
g68
(g69
g70
NtRp4081
(dp4082
g73
(dp4083
g81
I3
ssg82
g4077
sg75
(lp4084
S''
asbasbasbasbasbasbasbasbasbasbasbag68
(g84
g70
NtRp4085
(dp4086
g73
(dp4087
sg82
g3850
sg75
(lp4088
g68
(g89
g70
NtRp4089
(dp4090
g73
(dp4091
g93
g94
ssg82
g4085
sg75
(lp4092
S'delimiters'
p4093
asbag68
(g89
g70
NtRp4094
(dp4095
g73
(dp4096
g100
g101
ssg82
g4085
sg75
(lp4097
S':'
asbag68
(g89
g70
NtRp4098
(dp4099
g73
(dp4100
sg82
g4085
sg75
(lp4101
g68
(g69
g70
NtRp4102
(dp4103
g73
(dp4104
g81
I5
ssg82
g4098
sg75
(lp4105
g68
(g77
g70
NtRp4106
(dp4107
g73
(dp4108
g81
I4
ssg82
Nsg75
(lp4109
g68
(g84
g70
NtRp4110
(dp4111
g73
(dp4112
sg82
g4106
sg75
(lp4113
g68
(g89
g70
NtRp4114
(dp4115
g73
(dp4116
sg82
g4110
sg75
(lp4117
g68
(g69
g70
NtRp4118
(dp4119
g73
(dp4120
g81
I4
ssg82
g4114
sg75
(lp4121
S'{{'
p4122
asbasbasbag68
(g84
g70
NtRp4123
(dp4124
g73
(dp4125
sg82
g4106
sg75
(lp4126
g68
(g89
g70
NtRp4127
(dp4128
g73
(dp4129
sg82
g4123
sg75
(lp4130
g68
(g69
g70
NtRp4131
(dp4132
g73
(dp4133
g81
I4
ssg82
g4127
sg75
(lp4134
S'}}'
p4135
asbasbasbasbasbasbasbag68
(g84
g70
NtRp4136
(dp4137
g73
(dp4138
sg82
g3850
sg75
(lp4139
g68
(g89
g70
NtRp4140
(dp4141
g73
(dp4142
g93
g94
ssg82
g4136
sg75
(lp4143
S'files'
p4144
asbag68
(g89
g70
NtRp4145
(dp4146
g73
(dp4147
g100
g101
ssg82
g4136
sg75
(lp4148
S':'
asbag68
(g89
g70
NtRp4149
(dp4150
g73
(dp4151
sg82
g4136
sg75
(lp4152
g68
(g69
g70
NtRp4153
(dp4154
g73
(dp4155
g81
I5
ssg82
g4149
sg75
(lp4156
g68
(g77
g70
NtRp4157
(dp4158
g73
(dp4159
g81
I4
ssg82
Nsg75
(lp4160
sbasbasbasbag68
(g84
g70
NtRp4161
(dp4162
g73
(dp4163
sg82
g3850
sg75
(lp4164
g68
(g89
g70
NtRp4165
(dp4166
g73
(dp4167
g93
g94
ssg82
g4161
sg75
(lp4168
S'flash'
p4169
asbag68
(g89
g70
NtRp4170
(dp4171
g73
(dp4172
g100
g101
ssg82
g4161
sg75
(lp4173
S':'
asbag68
(g89
g70
NtRp4174
(dp4175
g73
(dp4176
sg82
g4161
sg75
(lp4177
g68
(g69
g70
NtRp4178
(dp4179
g73
(dp4180
g81
I5
ssg82
g4174
sg75
(lp4181
S''
asbasbasbag68
(g84
g70
NtRp4182
(dp4183
g73
(dp4184
sg82
g3850
sg75
(lp4185
g68
(g89
g70
NtRp4186
(dp4187
g73
(dp4188
g93
g94
ssg82
g4182
sg75
(lp4189
S'generic_patterns'
p4190
asbag68
(g89
g70
NtRp4191
(dp4192
g73
(dp4193
g100
g101
ssg82
g4182
sg75
(lp4194
S':'
asbag68
(g89
g70
NtRp4195
(dp4196
g73
(dp4197
sg82
g4182
sg75
(lp4198
g68
(g69
g70
NtRp4199
(dp4200
g73
(dp4201
g81
I5
ssg82
g4195
sg75
(lp4202
g68
(g77
g70
NtRp4203
(dp4204
g73
(dp4205
g81
I4
ssg82
Nsg75
(lp4206
g68
(g84
g70
NtRp4207
(dp4208
g73
(dp4209
sg82
g4203
sg75
(lp4210
g68
(g89
g70
NtRp4211
(dp4212
g73
(dp4213
sg82
g4207
sg75
(lp4214
g68
(g69
g70
NtRp4215
(dp4216
g73
(dp4217
g81
I4
ssg82
g4211
sg75
(lp4218
S'*'
asbasbasbasbasbasbasbag68
(g84
g70
NtRp4219
(dp4220
g73
(dp4221
sg82
g3850
sg75
(lp4222
g68
(g89
g70
NtRp4223
(dp4224
g73
(dp4225
g93
g94
ssg82
g4219
sg75
(lp4226
S'google_analytics_id'
p4227
asbag68
(g89
g70
NtRp4228
(dp4229
g73
(dp4230
g100
g101
ssg82
g4219
sg75
(lp4231
S':'
asbag68
(g89
g70
NtRp4232
(dp4233
g73
(dp4234
sg82
g4219
sg75
(lp4235
g68
(g69
g70
NtRp4236
(dp4237
g73
(dp4238
g81
I5
ssg82
g4232
sg75
(lp4239
S'None'
p4240
asbasbasbag68
(g84
g70
NtRp4241
(dp4242
g73
(dp4243
sg82
g3850
sg75
(lp4244
g68
(g89
g70
NtRp4245
(dp4246
g73
(dp4247
g93
g94
ssg82
g4241
sg75
(lp4248
S'headers'
p4249
asbag68
(g89
g70
NtRp4250
(dp4251
g73
(dp4252
g100
g101
ssg82
g4241
sg75
(lp4253
S':'
asbag68
(g89
g70
NtRp4254
(dp4255
g73
(dp4256
sg82
g4241
sg75
(lp4257
g68
(g69
g70
NtRp4258
(dp4259
g73
(dp4260
g81
I5
ssg82
g4254
sg75
(lp4261
g68
(g77
g70
NtRp4262
(dp4263
g73
(dp4264
g81
I4
ssg82
Nsg75
(lp4265
g68
(g84
g70
NtRp4266
(dp4267
g73
(dp4268
sg82
g4262
sg75
(lp4269
g68
(g89
g70
NtRp4270
(dp4271
g73
(dp4272
g93
g94
ssg82
g4266
sg75
(lp4273
S'X-Powered-By'
p4274
asbag68
(g89
g70
NtRp4275
(dp4276
g73
(dp4277
g100
g101
ssg82
g4266
sg75
(lp4278
S':'
asbag68
(g89
g70
NtRp4279
(dp4280
g73
(dp4281
sg82
g4266
sg75
(lp4282
g68
(g69
g70
NtRp4283
(dp4284
g73
(dp4285
g81
I4
ssg82
g4279
sg75
(lp4286
S'web2py'
p4287
asbasbasbasbasbasbasbag68
(g84
g70
NtRp4288
(dp4289
g73
(dp4290
sg82
g3850
sg75
(lp4291
g68
(g89
g70
NtRp4292
(dp4293
g73
(dp4294
g93
g94
ssg82
g4288
sg75
(lp4295
S'logo'
p4296
asbag68
(g89
g70
NtRp4297
(dp4298
g73
(dp4299
g100
g101
ssg82
g4288
sg75
(lp4300
S':'
asbag68
(g89
g70
NtRp4301
(dp4302
g73
(dp4303
sg82
g4288
sg75
(lp4304
g68
(g69
g70
NtRp4305
(dp4306
g73
(dp4307
g81
I5
ssg82
g4301
sg75
(lp4308
g68
(cgluon.html
A
p4309
g70
NtRp4310
(dp4311
g73
(dp4312
S'_class'
p4313
S'brand'
p4314
sS'_href'
p4315
S'http://www.web2py.com/'
p4316
ssg82
Nsg75
(lp4317
g68
(cgluon.html
B
p4318
g70
NtRp4319
(dp4320
g73
(dp4321
sg82
g4310
sg75
(lp4322
S'web'
p4323
ag68
(cgluon.html
SPAN
p4324
g70
NtRp4325
(dp4326
g73
(dp4327
sg82
g4319
sg75
(lp4328
I2
asbaS'py'
p4329
asbacgluon.html
XML_unpickle
p4330
(S's\r\x00\x00\x00&trade;&nbsp;'
tRp4331
asbasbasbasbag68
(g84
g70
NtRp4332
(dp4333
g73
(dp4334
sg82
g3850
sg75
(lp4335
g68
(g89
g70
NtRp4336
(dp4337
g73
(dp4338
g93
g94
ssg82
g4332
sg75
(lp4339
S'menu'
p4340
asbag68
(g89
g70
NtRp4341
(dp4342
g73
(dp4343
g100
g101
ssg82
g4332
sg75
(lp4344
S':'
asbag68
(g89
g70
NtRp4345
(dp4346
g73
(dp4347
sg82
g4332
sg75
(lp4348
g68
(g69
g70
NtRp4349
(dp4350
g73
(dp4351
g81
I5
ssg82
g4345
sg75
(lp4352
g68
(g77
g70
NtRp4353
(dp4354
g73
(dp4355
g81
I4
ssg82
Nsg75
(lp4356
g68
(g84
g70
NtRp4357
(dp4358
g73
(dp4359
sg82
g4353
sg75
(lp4360
g68
(g89
g70
NtRp4361
(dp4362
g73
(dp4363
sg82
g4357
sg75
(lp4364
g68
(g69
g70
NtRp4365
(dp4366
g73
(dp4367
g81
I4
ssg82
g4361
sg75
(lp4368
g68
(g77
g70
NtRp4369
(dp4370
g73
(dp4371
g81
I3
ssg82
Nsg75
(lp4372
g68
(g84
g70
NtRp4373
(dp4374
g73
(dp4375
sg82
g4369
sg75
(lp4376
g68
(g89
g70
NtRp4377
(dp4378
g73
(dp4379
sg82
g4373
sg75
(lp4380
g68
(g69
g70
NtRp4381
(dp4382
g73
(dp4383
g81
I3
ssg82
g4377
sg75
(lp4384
cgluon.languages
lazyT_unpickle
p4385
(S's\x04\x00\x00\x00Home'
tRp4386
asbasbasbag68
(g84
g70
NtRp4387
(dp4388
g73
(dp4389
sg82
g4369
sg75
(lp4390
g68
(g89
g70
NtRp4391
(dp4392
g73
(dp4393
sg82
g4387
sg75
(lp4394
g68
(g69
g70
NtRp4395
(dp4396
g73
(dp4397
g81
I3
ssg82
g4391
sg75
(lp4398
g111
asbasbasbag68
(g84
g70
NtRp4399
(dp4400
g73
(dp4401
sg82
g4369
sg75
(lp4402
g68
(g89
g70
NtRp4403
(dp4404
g73
(dp4405
sg82
g4399
sg75
(lp4406
g68
(g69
g70
NtRp4407
(dp4408
g73
(dp4409
g81
I3
ssg82
g4403
sg75
(lp4410
S'/reddit/default/index'
p4411
asbasbasbag68
(g84
g70
NtRp4412
(dp4413
g73
(dp4414
sg82
g4369
sg75
(lp4415
g68
(g89
g70
NtRp4416
(dp4417
g73
(dp4418
sg82
g4412
sg75
(lp4419
g68
(g69
g70
NtRp4420
(dp4421
g73
(dp4422
g81
I3
ssg82
g4416
sg75
(lp4423
g68
(g77
g70
NtRp4424
(dp4425
g73
(dp4426
g81
I2
ssg82
Nsg75
(lp4427
sbasbasbasbasbasbasbasbag68
(g84
g70
NtRp4428
(dp4429
g73
(dp4430
sg82
g4353
sg75
(lp4431
g68
(g89
g70
NtRp4432
(dp4433
g73
(dp4434
sg82
g4428
sg75
(lp4435
g68
(g69
g70
NtRp4436
(dp4437
g73
(dp4438
g81
I4
ssg82
g4432
sg75
(lp4439
g68
(g77
g70
NtRp4440
(dp4441
g73
(dp4442
g81
I3
ssg82
Nsg75
(lp4443
g68
(g84
g70
NtRp4444
(dp4445
g73
(dp4446
sg82
g4440
sg75
(lp4447
g68
(g89
g70
NtRp4448
(dp4449
g73
(dp4450
sg82
g4444
sg75
(lp4451
g68
(g69
g70
NtRp4452
(dp4453
g73
(dp4454
g81
I3
ssg82
g4448
sg75
(lp4455
g68
(g4324
g70
NtRp4456
(dp4457
g73
(dp4458
g4313
S'highlighted'
p4459
ssg82
Nsg75
(lp4460
g4287
asbasbasbasbag68
(g84
g70
NtRp4461
(dp4462
g73
(dp4463
sg82
g4440
sg75
(lp4464
g68
(g89
g70
NtRp4465
(dp4466
g73
(dp4467
sg82
g4461
sg75
(lp4468
g68
(g69
g70
NtRp4469
(dp4470
g73
(dp4471
g81
I3
ssg82
g4465
sg75
(lp4472
g111
asbasbasbag68
(g84
g70
NtRp4473
(dp4474
g73
(dp4475
sg82
g4440
sg75
(lp4476
g68
(g89
g70
NtRp4477
(dp4478
g73
(dp4479
sg82
g4473
sg75
(lp4480
g68
(g69
g70
NtRp4481
(dp4482
g73
(dp4483
g81
I3
ssg82
g4477
sg75
(lp4484
S'http://web2py.com'
p4485
asbasbasbag68
(g84
g70
NtRp4486
(dp4487
g73
(dp4488
sg82
g4440
sg75
(lp4489
g68
(g89
g70
NtRp4490
(dp4491
g73
(dp4492
sg82
g4486
sg75
(lp4493
g68
(g69
g70
NtRp4494
(dp4495
g73
(dp4496
g81
I3
ssg82
g4490
sg75
(lp4497
g68
(g77
g70
NtRp4498
(dp4499
g73
(dp4500
g81
I2
ssg82
Nsg75
(lp4501
g68
(g84
g70
NtRp4502
(dp4503
g73
(dp4504
sg82
g4498
sg75
(lp4505
g68
(g89
g70
NtRp4506
(dp4507
g73
(dp4508
sg82
g4502
sg75
(lp4509
g68
(g69
g70
NtRp4510
(dp4511
g73
(dp4512
g81
I2
ssg82
g4506
sg75
(lp4513
g68
(g77
g70
NtRp4514
(dp4515
g73
(dp4516
g81
I1
ssg82
Nsg75
(lp4517
g68
(g84
g70
NtRp4518
(dp4519
g73
(dp4520
sg82
g4514
sg75
(lp4521
g68
(g89
g70
NtRp4522
(dp4523
g73
(dp4524
sg82
g4518
sg75
(lp4525
g68
(g69
g70
NtRp4526
(dp4527
g73
(dp4528
g81
I1
ssg82
g4522
sg75
(lp4529
g4385
(S's\x08\x00\x00\x00My Sites'
tRp4530
asbasbasbag68
(g84
g70
NtRp4531
(dp4532
g73
(dp4533
sg82
g4514
sg75
(lp4534
g68
(g89
g70
NtRp4535
(dp4536
g73
(dp4537
sg82
g4531
sg75
(lp4538
g68
(g69
g70
NtRp4539
(dp4540
g73
(dp4541
g81
I1
ssg82
g4535
sg75
(lp4542
I00
asbasbasbag68
(g84
g70
NtRp4543
(dp4544
g73
(dp4545
sg82
g4514
sg75
(lp4546
g68
(g89
g70
NtRp4547
(dp4548
g73
(dp4549
sg82
g4543
sg75
(lp4550
g68
(g69
g70
NtRp4551
(dp4552
g73
(dp4553
g81
I1
ssg82
g4547
sg75
(lp4554
S'/admin/default/site'
p4555
asbasbasbasbasbasbasbag68
(g84
g70
NtRp4556
(dp4557
g73
(dp4558
sg82
g4498
sg75
(lp4559
g68
(g89
g70
NtRp4560
(dp4561
g73
(dp4562
sg82
g4556
sg75
(lp4563
g68
(g69
g70
NtRp4564
(dp4565
g73
(dp4566
g81
I2
ssg82
g4560
sg75
(lp4567
g68
(g77
g70
NtRp4568
(dp4569
g73
(dp4570
g81
I1
ssg82
Nsg75
(lp4571
g68
(g84
g70
NtRp4572
(dp4573
g73
(dp4574
sg82
g4568
sg75
(lp4575
g68
(g89
g70
NtRp4576
(dp4577
g73
(dp4578
sg82
g4572
sg75
(lp4579
g68
(g69
g70
NtRp4580
(dp4581
g73
(dp4582
g81
I1
ssg82
g4576
sg75
(lp4583
g4385
(S's\x08\x00\x00\x00This App'
tRp4584
asbasbasbag68
(g84
g70
NtRp4585
(dp4586
g73
(dp4587
sg82
g4568
sg75
(lp4588
g68
(g89
g70
NtRp4589
(dp4590
g73
(dp4591
sg82
g4585
sg75
(lp4592
g68
(g69
g70
NtRp4593
(dp4594
g73
(dp4595
g81
I1
ssg82
g4589
sg75
(lp4596
I00
asbasbasbag68
(g84
g70
NtRp4597
(dp4598
g73
(dp4599
sg82
g4568
sg75
(lp4600
g68
(g89
g70
NtRp4601
(dp4602
g73
(dp4603
sg82
g4597
sg75
(lp4604
g68
(g69
g70
NtRp4605
(dp4606
g73
(dp4607
g81
I1
ssg82
g4601
sg75
(lp4608
S'/admin/default/design/reddit'
p4609
asbasbasbag68
(g84
g70
NtRp4610
(dp4611
g73
(dp4612
sg82
g4568
sg75
(lp4613
g68
(g89
g70
NtRp4614
(dp4615
g73
(dp4616
sg82
g4610
sg75
(lp4617
g68
(g69
g70
NtRp4618
(dp4619
g73
(dp4620
g81
I1
ssg82
g4614
sg75
(lp4621
(lp4622
(g4385
(S's\n\x00\x00\x00Controller'
tRp4623
I00
S'/admin/default/edit/reddit/controllers/default.py'
tp4624
a(g4385
(S's\x04\x00\x00\x00View'
tRp4625
I00
S'/admin/default/edit/reddit/views/default/addpost.html'
tp4626
a(g4385
(S's\x06\x00\x00\x00Layout'
tRp4627
I00
S'/admin/default/edit/reddit/views/layout.html'
tp4628
a(g4385
(S's\n\x00\x00\x00Stylesheet'
tRp4629
I00
S'/admin/default/edit/reddit/static/css/web2py.css'
tp4630
a(g4385
(S's\x08\x00\x00\x00DB Model'
tRp4631
I00
S'/admin/default/edit/reddit/models/db.py'
tp4632
a(g4385
(S's\n\x00\x00\x00Menu Model'
tRp4633
I00
S'/admin/default/edit/reddit/models/menu.py'
tp4634
a(g4385
(S's\x08\x00\x00\x00Database'
tRp4635
I00
S'/reddit/appadmin/index'
tp4636
a(g4385
(S's\x06\x00\x00\x00Errors'
tRp4637
I00
S'/admin/default/errors/reddit'
tp4638
a(g4385
(S's\x05\x00\x00\x00About'
tRp4639
I00
S'/admin/default/about/reddit'
tp4640
aasbasbasbasbasbasbasbag68
(g84
g70
NtRp4641
(dp4642
g73
(dp4643
sg82
g4498
sg75
(lp4644
g68
(g89
g70
NtRp4645
(dp4646
g73
(dp4647
sg82
g4641
sg75
(lp4648
g68
(g69
g70
NtRp4649
(dp4650
g73
(dp4651
g81
I2
ssg82
g4645
sg75
(lp4652
g68
(g77
g70
NtRp4653
(dp4654
g73
(dp4655
g81
I1
ssg82
Nsg75
(lp4656
g68
(g84
g70
NtRp4657
(dp4658
g73
(dp4659
sg82
g4653
sg75
(lp4660
g68
(g89
g70
NtRp4661
(dp4662
g73
(dp4663
sg82
g4657
sg75
(lp4664
g68
(g69
g70
NtRp4665
(dp4666
g73
(dp4667
g81
I1
ssg82
g4661
sg75
(lp4668
S'web2py.com'
p4669
asbasbasbag68
(g84
g70
NtRp4670
(dp4671
g73
(dp4672
sg82
g4653
sg75
(lp4673
g68
(g89
g70
NtRp4674
(dp4675
g73
(dp4676
sg82
g4670
sg75
(lp4677
g68
(g69
g70
NtRp4678
(dp4679
g73
(dp4680
g81
I1
ssg82
g4674
sg75
(lp4681
I00
asbasbasbag68
(g84
g70
NtRp4682
(dp4683
g73
(dp4684
sg82
g4653
sg75
(lp4685
g68
(g89
g70
NtRp4686
(dp4687
g73
(dp4688
sg82
g4682
sg75
(lp4689
g68
(g69
g70
NtRp4690
(dp4691
g73
(dp4692
g81
I1
ssg82
g4686
sg75
(lp4693
S'http://www.web2py.com'
p4694
asbasbasbag68
(g84
g70
NtRp4695
(dp4696
g73
(dp4697
sg82
g4653
sg75
(lp4698
g68
(g89
g70
NtRp4699
(dp4700
g73
(dp4701
sg82
g4695
sg75
(lp4702
g68
(g69
g70
NtRp4703
(dp4704
g73
(dp4705
g81
I1
ssg82
g4699
sg75
(lp4706
(lp4707
(g4385
(S's\x08\x00\x00\x00Download'
tRp4708
I00
S'http://www.web2py.com/examples/default/download'
p4709
tp4710
a(g4385
(S's\x07\x00\x00\x00Support'
tRp4711
I00
S'http://www.web2py.com/examples/default/support'
p4712
tp4713
a(g4385
(S's\x04\x00\x00\x00Demo'
tRp4714
I00
S'http://web2py.com/demo_admin'
p4715
tp4716
a(g4385
(S's\x0e\x00\x00\x00Quick Examples'
tRp4717
I00
S'http://web2py.com/examples/default/examples'
p4718
tp4719
a(g4385
(S's\x03\x00\x00\x00FAQ'
tRp4720
I00
S'http://web2py.com/AlterEgo'
p4721
tp4722
a(g4385
(S's\x06\x00\x00\x00Videos'
tRp4723
I00
S'http://www.web2py.com/examples/default/videos/'
p4724
tp4725
a(g4385
(S's\x11\x00\x00\x00Free Applications'
tRp4726
I00
S'http://web2py.com/appliances'
p4727
tp4728
a(g4385
(S's\x07\x00\x00\x00Plugins'
tRp4729
I00
S'http://web2py.com/plugins'
p4730
tp4731
a(g4385
(S's\x07\x00\x00\x00Layouts'
tRp4732
I00
S'http://web2py.com/layouts'
p4733
tp4734
a(g4385
(S's\x07\x00\x00\x00Recipes'
tRp4735
I00
S'http://web2pyslices.com/'
p4736
tp4737
a(g4385
(S's\x08\x00\x00\x00Semantic'
tRp4738
I00
S'http://web2py.com/semantic'
p4739
tp4740
aasbasbasbasbasbasbasbag68
(g84
g70
NtRp4741
(dp4742
g73
(dp4743
sg82
g4498
sg75
(lp4744
g68
(g89
g70
NtRp4745
(dp4746
g73
(dp4747
sg82
g4741
sg75
(lp4748
g68
(g69
g70
NtRp4749
(dp4750
g73
(dp4751
g81
I2
ssg82
g4745
sg75
(lp4752
g68
(g77
g70
NtRp4753
(dp4754
g73
(dp4755
g81
I1
ssg82
Nsg75
(lp4756
g68
(g84
g70
NtRp4757
(dp4758
g73
(dp4759
sg82
g4753
sg75
(lp4760
g68
(g89
g70
NtRp4761
(dp4762
g73
(dp4763
sg82
g4757
sg75
(lp4764
g68
(g69
g70
NtRp4765
(dp4766
g73
(dp4767
g81
I1
ssg82
g4761
sg75
(lp4768
g4385
(S's\r\x00\x00\x00Documentation'
tRp4769
asbasbasbag68
(g84
g70
NtRp4770
(dp4771
g73
(dp4772
sg82
g4753
sg75
(lp4773
g68
(g89
g70
NtRp4774
(dp4775
g73
(dp4776
sg82
g4770
sg75
(lp4777
g68
(g69
g70
NtRp4778
(dp4779
g73
(dp4780
g81
I1
ssg82
g4774
sg75
(lp4781
I00
asbasbasbag68
(g84
g70
NtRp4782
(dp4783
g73
(dp4784
sg82
g4753
sg75
(lp4785
g68
(g89
g70
NtRp4786
(dp4787
g73
(dp4788
sg82
g4782
sg75
(lp4789
g68
(g69
g70
NtRp4790
(dp4791
g73
(dp4792
g81
I1
ssg82
g4786
sg75
(lp4793
S'http://www.web2py.com/book'
p4794
asbasbasbag68
(g84
g70
NtRp4795
(dp4796
g73
(dp4797
sg82
g4753
sg75
(lp4798
g68
(g89
g70
NtRp4799
(dp4800
g73
(dp4801
sg82
g4795
sg75
(lp4802
g68
(g69
g70
NtRp4803
(dp4804
g73
(dp4805
g81
I1
ssg82
g4799
sg75
(lp4806
(lp4807
(g4385
(S's\x07\x00\x00\x00Preface'
tRp4808
I00
S'http://www.web2py.com/book/default/chapter/00'
p4809
tp4810
a(g4385
(S's\x0c\x00\x00\x00Introduction'
tRp4811
I00
S'http://www.web2py.com/book/default/chapter/01'
p4812
tp4813
a(g4385
(S's\x06\x00\x00\x00Python'
tRp4814
I00
S'http://www.web2py.com/book/default/chapter/02'
p4815
tp4816
a(g4385
(S's\x08\x00\x00\x00Overview'
tRp4817
I00
S'http://www.web2py.com/book/default/chapter/03'
p4818
tp4819
a(g4385
(S's\x08\x00\x00\x00The Core'
tRp4820
I00
S'http://www.web2py.com/book/default/chapter/04'
p4821
tp4822
a(g4385
(S's\t\x00\x00\x00The Views'
tRp4823
I00
S'http://www.web2py.com/book/default/chapter/05'
p4824
tp4825
a(g4385
(S's\x08\x00\x00\x00Database'
tRp4826
I00
S'http://www.web2py.com/book/default/chapter/06'
p4827
tp4828
a(g4385
(S's\x14\x00\x00\x00Forms and Validators'
tRp4829
I00
S'http://www.web2py.com/book/default/chapter/07'
p4830
tp4831
a(g4385
(S's\r\x00\x00\x00Email and SMS'
tRp4832
I00
S'http://www.web2py.com/book/default/chapter/08'
p4833
tp4834
a(g4385
(S's\x0e\x00\x00\x00Access Control'
tRp4835
I00
S'http://www.web2py.com/book/default/chapter/09'
p4836
tp4837
a(g4385
(S's\x08\x00\x00\x00Services'
tRp4838
I00
S'http://www.web2py.com/book/default/chapter/10'
p4839
tp4840
a(g4385
(S's\x0c\x00\x00\x00Ajax Recipes'
tRp4841
I00
S'http://www.web2py.com/book/default/chapter/11'
p4842
tp4843
a(g4385
(S's\x16\x00\x00\x00Components and Plugins'
tRp4844
I00
S'http://www.web2py.com/book/default/chapter/12'
p4845
tp4846
a(g4385
(S's\x12\x00\x00\x00Deployment Recipes'
tRp4847
I00
S'http://www.web2py.com/book/default/chapter/13'
p4848
tp4849
a(g4385
(S's\r\x00\x00\x00Other Recipes'
tRp4850
I00
S'http://www.web2py.com/book/default/chapter/14'
p4851
tp4852
a(g4385
(S's\r\x00\x00\x00Buy this book'
tRp4853
I00
S'http://stores.lulu.com/web2py'
p4854
tp4855
aasbasbasbasbasbasbasbag68
(g84
g70
NtRp4856
(dp4857
g73
(dp4858
sg82
g4498
sg75
(lp4859
g68
(g89
g70
NtRp4860
(dp4861
g73
(dp4862
sg82
g4856
sg75
(lp4863
g68
(g69
g70
NtRp4864
(dp4865
g73
(dp4866
g81
I2
ssg82
g4860
sg75
(lp4867
g68
(g77
g70
NtRp4868
(dp4869
g73
(dp4870
g81
I1
ssg82
Nsg75
(lp4871
g68
(g84
g70
NtRp4872
(dp4873
g73
(dp4874
sg82
g4868
sg75
(lp4875
g68
(g89
g70
NtRp4876
(dp4877
g73
(dp4878
sg82
g4872
sg75
(lp4879
g68
(g69
g70
NtRp4880
(dp4881
g73
(dp4882
g81
I1
ssg82
g4876
sg75
(lp4883
g4385
(S's\t\x00\x00\x00Community'
tRp4884
asbasbasbag68
(g84
g70
NtRp4885
(dp4886
g73
(dp4887
sg82
g4868
sg75
(lp4888
g68
(g89
g70
NtRp4889
(dp4890
g73
(dp4891
sg82
g4885
sg75
(lp4892
g68
(g69
g70
NtRp4893
(dp4894
g73
(dp4895
g81
I1
ssg82
g4889
sg75
(lp4896
I00
asbasbasbag68
(g84
g70
NtRp4897
(dp4898
g73
(dp4899
sg82
g4868
sg75
(lp4900
g68
(g89
g70
NtRp4901
(dp4902
g73
(dp4903
sg82
g4897
sg75
(lp4904
g68
(g69
g70
NtRp4905
(dp4906
g73
(dp4907
g81
I1
ssg82
g4901
sg75
(lp4908
Nasbasbasbag68
(g84
g70
NtRp4909
(dp4910
g73
(dp4911
sg82
g4868
sg75
(lp4912
g68
(g89
g70
NtRp4913
(dp4914
g73
(dp4915
sg82
g4909
sg75
(lp4916
g68
(g69
g70
NtRp4917
(dp4918
g73
(dp4919
g81
I1
ssg82
g4913
sg75
(lp4920
(lp4921
(g4385
(S's\x06\x00\x00\x00Groups'
tRp4922
I00
S'http://www.web2py.com/examples/default/usergroups'
p4923
tp4924
a(g4385
(S's\x07\x00\x00\x00Twitter'
tRp4925
I00
S'http://twitter.com/web2py'
p4926
tp4927
a(g4385
(S's\t\x00\x00\x00Live Chat'
tRp4928
I00
S'http://webchat.freenode.net/?channels=web2py'
p4929
tp4930
aasbasbasbasbasbasbasbag68
(g84
g70
NtRp4931
(dp4932
g73
(dp4933
sg82
g4498
sg75
(lp4934
g68
(g89
g70
NtRp4935
(dp4936
g73
(dp4937
sg82
g4931
sg75
(lp4938
g68
(g69
g70
NtRp4939
(dp4940
g73
(dp4941
g81
I2
ssg82
g4935
sg75
(lp4942
g68
(g77
g70
NtRp4943
(dp4944
g73
(dp4945
g81
I1
ssg82
Nsg75
(lp4946
g68
(g84
g70
NtRp4947
(dp4948
g73
(dp4949
sg82
g4943
sg75
(lp4950
g68
(g89
g70
NtRp4951
(dp4952
g73
(dp4953
sg82
g4947
sg75
(lp4954
g68
(g69
g70
NtRp4955
(dp4956
g73
(dp4957
g81
I1
ssg82
g4951
sg75
(lp4958
g4385
(S's\x07\x00\x00\x00Plugins'
tRp4959
asbasbasbag68
(g84
g70
NtRp4960
(dp4961
g73
(dp4962
sg82
g4943
sg75
(lp4963
g68
(g89
g70
NtRp4964
(dp4965
g73
(dp4966
sg82
g4960
sg75
(lp4967
g68
(g69
g70
NtRp4968
(dp4969
g73
(dp4970
g81
I1
ssg82
g4964
sg75
(lp4971
I00
asbasbasbag68
(g84
g70
NtRp4972
(dp4973
g73
(dp4974
sg82
g4943
sg75
(lp4975
g68
(g89
g70
NtRp4976
(dp4977
g73
(dp4978
sg82
g4972
sg75
(lp4979
g68
(g69
g70
NtRp4980
(dp4981
g73
(dp4982
g81
I1
ssg82
g4976
sg75
(lp4983
Nasbasbasbag68
(g84
g70
NtRp4984
(dp4985
g73
(dp4986
sg82
g4943
sg75
(lp4987
g68
(g89
g70
NtRp4988
(dp4989
g73
(dp4990
sg82
g4984
sg75
(lp4991
g68
(g69
g70
NtRp4992
(dp4993
g73
(dp4994
g81
I1
ssg82
g4988
sg75
(lp4995
(lp4996
(S'plugin_wiki'
p4997
I00
S'http://web2py.com/examples/default/download'
p4998
tp4999
a(g4385
(S's\r\x00\x00\x00Other Plugins'
tRp5000
I00
g4730
tp5001
a(g4385
(S's\x0e\x00\x00\x00Layout Plugins'
tRp5002
I00
g4733
tp5003
aasbasbasbasbasbasbasbasbasbasbasbasbasbasbasbasbasbasbasbag68
(g84
g70
NtRp5004
(dp5005
g73
(dp5006
sg82
g3850
sg75
(lp5007
g68
(g89
g70
NtRp5008
(dp5009
g73
(dp5010
g93
g94
ssg82
g5004
sg75
(lp5011
S'meta'
p5012
asbag68
(g89
g70
NtRp5013
(dp5014
g73
(dp5015
g100
g101
ssg82
g5004
sg75
(lp5016
S':'
asbag68
(g89
g70
NtRp5017
(dp5018
g73
(dp5019
sg82
g5004
sg75
(lp5020
g68
(g69
g70
NtRp5021
(dp5022
g73
(dp5023
g81
I5
ssg82
g5017
sg75
(lp5024
g68
(g77
g70
NtRp5025
(dp5026
g73
(dp5027
g81
I4
ssg82
Nsg75
(lp5028
g68
(g84
g70
NtRp5029
(dp5030
g73
(dp5031
sg82
g5025
sg75
(lp5032
g68
(g89
g70
NtRp5033
(dp5034
g73
(dp5035
g93
g94
ssg82
g5029
sg75
(lp5036
S'author'
p5037
asbag68
(g89
g70
NtRp5038
(dp5039
g73
(dp5040
g100
g101
ssg82
g5029
sg75
(lp5041
S':'
asbag68
(g89
g70
NtRp5042
(dp5043
g73
(dp5044
sg82
g5029
sg75
(lp5045
g68
(g69
g70
NtRp5046
(dp5047
g73
(dp5048
g81
I4
ssg82
g5042
sg75
(lp5049
S'Your Name <you@example.com>'
p5050
asbasbasbag68
(g84
g70
NtRp5051
(dp5052
g73
(dp5053
sg82
g5025
sg75
(lp5054
g68
(g89
g70
NtRp5055
(dp5056
g73
(dp5057
g93
g94
ssg82
g5051
sg75
(lp5058
S'description'
p5059
asbag68
(g89
g70
NtRp5060
(dp5061
g73
(dp5062
g100
g101
ssg82
g5051
sg75
(lp5063
S':'
asbag68
(g89
g70
NtRp5064
(dp5065
g73
(dp5066
sg82
g5051
sg75
(lp5067
g68
(g69
g70
NtRp5068
(dp5069
g73
(dp5070
g81
I4
ssg82
g5064
sg75
(lp5071
S'a cool new app'
p5072
asbasbasbag68
(g84
g70
NtRp5073
(dp5074
g73
(dp5075
sg82
g5025
sg75
(lp5076
g68
(g89
g70
NtRp5077
(dp5078
g73
(dp5079
g93
g94
ssg82
g5073
sg75
(lp5080
S'generator'
p5081
asbag68
(g89
g70
NtRp5082
(dp5083
g73
(dp5084
g100
g101
ssg82
g5073
sg75
(lp5085
S':'
asbag68
(g89
g70
NtRp5086
(dp5087
g73
(dp5088
sg82
g5073
sg75
(lp5089
g68
(g69
g70
NtRp5090
(dp5091
g73
(dp5092
g81
I4
ssg82
g5086
sg75
(lp5093
S'Web2py Web Framework'
p5094
asbasbasbag68
(g84
g70
NtRp5095
(dp5096
g73
(dp5097
sg82
g5025
sg75
(lp5098
g68
(g89
g70
NtRp5099
(dp5100
g73
(dp5101
g93
g94
ssg82
g5095
sg75
(lp5102
S'keywords'
p5103
asbag68
(g89
g70
NtRp5104
(dp5105
g73
(dp5106
g100
g101
ssg82
g5095
sg75
(lp5107
S':'
asbag68
(g89
g70
NtRp5108
(dp5109
g73
(dp5110
sg82
g5095
sg75
(lp5111
g68
(g69
g70
NtRp5112
(dp5113
g73
(dp5114
g81
I4
ssg82
g5108
sg75
(lp5115
S'web2py, python, framework'
p5116
asbasbasbasbasbasbasbag68
(g84
g70
NtRp5117
(dp5118
g73
(dp5119
sg82
g3850
sg75
(lp5120
g68
(g89
g70
NtRp5121
(dp5122
g73
(dp5123
g93
g94
ssg82
g5117
sg75
(lp5124
S'models_to_run'
p5125
asbag68
(g89
g70
NtRp5126
(dp5127
g73
(dp5128
g100
g101
ssg82
g5117
sg75
(lp5129
S':'
asbag68
(g89
g70
NtRp5130
(dp5131
g73
(dp5132
sg82
g5117
sg75
(lp5133
g68
(g69
g70
NtRp5134
(dp5135
g73
(dp5136
g81
I5
ssg82
g5130
sg75
(lp5137
g68
(g77
g70
NtRp5138
(dp5139
g73
(dp5140
g81
I4
ssg82
Nsg75
(lp5141
g68
(g84
g70
NtRp5142
(dp5143
g73
(dp5144
sg82
g5138
sg75
(lp5145
g68
(g89
g70
NtRp5146
(dp5147
g73
(dp5148
sg82
g5142
sg75
(lp5149
g68
(g69
g70
NtRp5150
(dp5151
g73
(dp5152
g81
I4
ssg82
g5146
sg75
(lp5153
S'^\\w+\\.py$'
p5154
asbasbasbag68
(g84
g70
NtRp5155
(dp5156
g73
(dp5157
sg82
g5138
sg75
(lp5158
g68
(g89
g70
NtRp5159
(dp5160
g73
(dp5161
sg82
g5155
sg75
(lp5162
g68
(g69
g70
NtRp5163
(dp5164
g73
(dp5165
g81
I4
ssg82
g5159
sg75
(lp5166
S'^default/\\w+\\.py$'
p5167
asbasbasbag68
(g84
g70
NtRp5168
(dp5169
g73
(dp5170
sg82
g5138
sg75
(lp5171
g68
(g89
g70
NtRp5172
(dp5173
g73
(dp5174
sg82
g5168
sg75
(lp5175
g68
(g69
g70
NtRp5176
(dp5177
g73
(dp5178
g81
I4
ssg82
g5172
sg75
(lp5179
S'^default/addpost/\\w+\\.py$'
p5180
asbasbasbasbasbasbasbag68
(g84
g70
NtRp5181
(dp5182
g73
(dp5183
sg82
g3850
sg75
(lp5184
g68
(g89
g70
NtRp5185
(dp5186
g73
(dp5187
g93
g94
ssg82
g5181
sg75
(lp5188
S'postprocessing'
p5189
asbag68
(g89
g70
NtRp5190
(dp5191
g73
(dp5192
g100
g101
ssg82
g5181
sg75
(lp5193
S':'
asbag68
(g89
g70
NtRp5194
(dp5195
g73
(dp5196
sg82
g5181
sg75
(lp5197
g68
(g69
g70
NtRp5198
(dp5199
g73
(dp5200
g81
I5
ssg82
g5194
sg75
(lp5201
g68
(g77
g70
NtRp5202
(dp5203
g73
(dp5204
g81
I4
ssg82
Nsg75
(lp5205
sbasbasbasbag68
(g84
g70
NtRp5206
(dp5207
g73
(dp5208
sg82
g3850
sg75
(lp5209
g68
(g89
g70
NtRp5210
(dp5211
g73
(dp5212
g93
g94
ssg82
g5206
sg75
(lp5213
S'session_cookie_expires'
p5214
asbag68
(g89
g70
NtRp5215
(dp5216
g73
(dp5217
g100
g101
ssg82
g5206
sg75
(lp5218
S':'
asbag68
(g89
g70
NtRp5219
(dp5220
g73
(dp5221
sg82
g5206
sg75
(lp5222
g68
(g69
g70
NtRp5223
(dp5224
g73
(dp5225
g81
I5
ssg82
g5219
sg75
(lp5226
S'None'
p5227
asbasbasbag68
(g84
g70
NtRp5228
(dp5229
g73
(dp5230
sg82
g3850
sg75
(lp5231
g68
(g89
g70
NtRp5232
(dp5233
g73
(dp5234
g93
g94
ssg82
g5228
sg75
(lp5235
S'session_data_name'
p5236
asbag68
(g89
g70
NtRp5237
(dp5238
g73
(dp5239
g100
g101
ssg82
g5228
sg75
(lp5240
S':'
asbag68
(g89
g70
NtRp5241
(dp5242
g73
(dp5243
sg82
g5228
sg75
(lp5244
g68
(g69
g70
NtRp5245
(dp5246
g73
(dp5247
g81
I5
ssg82
g5241
sg75
(lp5248
S'session_data_reddit'
p5249
asbasbasbag68
(g84
g70
NtRp5250
(dp5251
g73
(dp5252
sg82
g3850
sg75
(lp5253
g68
(g89
g70
NtRp5254
(dp5255
g73
(dp5256
g93
g94
ssg82
g5250
sg75
(lp5257
S'session_file'
p5258
asbag68
(g89
g70
NtRp5259
(dp5260
g73
(dp5261
g100
g101
ssg82
g5250
sg75
(lp5262
S':'
asbag68
(g89
g70
NtRp5263
(dp5264
g73
(dp5265
sg82
g5250
sg75
(lp5266
g68
(g69
g70
NtRp5267
(dp5268
g73
(dp5269
g81
I5
ssg82
g5263
sg75
(lp5270
S"<open file '/home/pankaj/web2py/applications/reddit/sessions/127.0.0.1-24289f39-32a1-48fb-a367-22792fb8b813', mode 'rb+' at 0xae78b4f0>"
p5271
asbasbasbag68
(g84
g70
NtRp5272
(dp5273
g73
(dp5274
sg82
g3850
sg75
(lp5275
g68
(g89
g70
NtRp5276
(dp5277
g73
(dp5278
g93
g94
ssg82
g5272
sg75
(lp5279
S'session_filename'
p5280
asbag68
(g89
g70
NtRp5281
(dp5282
g73
(dp5283
g100
g101
ssg82
g5272
sg75
(lp5284
S':'
asbag68
(g89
g70
NtRp5285
(dp5286
g73
(dp5287
sg82
g5272
sg75
(lp5288
g68
(g69
g70
NtRp5289
(dp5290
g73
(dp5291
g81
I5
ssg82
g5285
sg75
(lp5292
S'/home/pankaj/web2py/applications/reddit/sessions/127.0.0.1-24289f39-32a1-48fb-a367-22792fb8b813'
p5293
asbasbasbag68
(g84
g70
NtRp5294
(dp5295
g73
(dp5296
sg82
g3850
sg75
(lp5297
g68
(g89
g70
NtRp5298
(dp5299
g73
(dp5300
g93
g94
ssg82
g5294
sg75
(lp5301
S'session_id'
p5302
asbag68
(g89
g70
NtRp5303
(dp5304
g73
(dp5305
g100
g101
ssg82
g5294
sg75
(lp5306
S':'
asbag68
(g89
g70
NtRp5307
(dp5308
g73
(dp5309
sg82
g5294
sg75
(lp5310
g68
(g69
g70
NtRp5311
(dp5312
g73
(dp5313
g81
I5
ssg82
g5307
sg75
(lp5314
g486
asbasbasbag68
(g84
g70
NtRp5315
(dp5316
g73
(dp5317
sg82
g3850
sg75
(lp5318
g68
(g89
g70
NtRp5319
(dp5320
g73
(dp5321
g93
g94
ssg82
g5315
sg75
(lp5322
S'session_id_name'
p5323
asbag68
(g89
g70
NtRp5324
(dp5325
g73
(dp5326
g100
g101
ssg82
g5315
sg75
(lp5327
S':'
asbag68
(g89
g70
NtRp5328
(dp5329
g73
(dp5330
sg82
g5315
sg75
(lp5331
g68
(g69
g70
NtRp5332
(dp5333
g73
(dp5334
g81
I5
ssg82
g5328
sg75
(lp5335
g3907
asbasbasbag68
(g84
g70
NtRp5336
(dp5337
g73
(dp5338
sg82
g3850
sg75
(lp5339
g68
(g89
g70
NtRp5340
(dp5341
g73
(dp5342
g93
g94
ssg82
g5336
sg75
(lp5343
S'session_locked'
p5344
asbag68
(g89
g70
NtRp5345
(dp5346
g73
(dp5347
g100
g101
ssg82
g5336
sg75
(lp5348
S':'
asbag68
(g89
g70
NtRp5349
(dp5350
g73
(dp5351
sg82
g5336
sg75
(lp5352
g68
(g69
g70
NtRp5353
(dp5354
g73
(dp5355
g81
I5
ssg82
g5349
sg75
(lp5356
g1865
asbasbasbag68
(g84
g70
NtRp5357
(dp5358
g73
(dp5359
sg82
g3850
sg75
(lp5360
g68
(g89
g70
NtRp5361
(dp5362
g73
(dp5363
g93
g94
ssg82
g5357
sg75
(lp5364
S'session_new'
p5365
asbag68
(g89
g70
NtRp5366
(dp5367
g73
(dp5368
g100
g101
ssg82
g5357
sg75
(lp5369
S':'
asbag68
(g89
g70
NtRp5370
(dp5371
g73
(dp5372
sg82
g5357
sg75
(lp5373
g68
(g69
g70
NtRp5374
(dp5375
g73
(dp5376
g81
I5
ssg82
g5370
sg75
(lp5377
g111
asbasbasbag68
(g84
g70
NtRp5378
(dp5379
g73
(dp5380
sg82
g3850
sg75
(lp5381
g68
(g89
g70
NtRp5382
(dp5383
g73
(dp5384
g93
g94
ssg82
g5378
sg75
(lp5385
S'session_storage_type'
p5386
asbag68
(g89
g70
NtRp5387
(dp5388
g73
(dp5389
g100
g101
ssg82
g5378
sg75
(lp5390
S':'
asbag68
(g89
g70
NtRp5391
(dp5392
g73
(dp5393
sg82
g5378
sg75
(lp5394
g68
(g69
g70
NtRp5395
(dp5396
g73
(dp5397
g81
I5
ssg82
g5391
sg75
(lp5398
g3380
asbasbasbag68
(g84
g70
NtRp5399
(dp5400
g73
(dp5401
sg82
g3850
sg75
(lp5402
g68
(g89
g70
NtRp5403
(dp5404
g73
(dp5405
g93
g94
ssg82
g5399
sg75
(lp5406
S'status'
p5407
asbag68
(g89
g70
NtRp5408
(dp5409
g73
(dp5410
g100
g101
ssg82
g5399
sg75
(lp5411
S':'
asbag68
(g89
g70
NtRp5412
(dp5413
g73
(dp5414
sg82
g5399
sg75
(lp5415
g68
(g69
g70
NtRp5416
(dp5417
g73
(dp5418
g81
I5
ssg82
g5412
sg75
(lp5419
S'200'
p5420
asbasbasbag68
(g84
g70
NtRp5421
(dp5422
g73
(dp5423
sg82
g3850
sg75
(lp5424
g68
(g89
g70
NtRp5425
(dp5426
g73
(dp5427
g93
g94
ssg82
g5421
sg75
(lp5428
S'subtitle'
p5429
asbag68
(g89
g70
NtRp5430
(dp5431
g73
(dp5432
g100
g101
ssg82
g5421
sg75
(lp5433
S':'
asbag68
(g89
g70
NtRp5434
(dp5435
g73
(dp5436
sg82
g5421
sg75
(lp5437
g68
(g69
g70
NtRp5438
(dp5439
g73
(dp5440
g81
I5
ssg82
g5434
sg75
(lp5441
g4385
(S's\r\x00\x00\x00customize me!'
tRp5442
asbasbasbag68
(g84
g70
NtRp5443
(dp5444
g73
(dp5445
sg82
g3850
sg75
(lp5446
g68
(g89
g70
NtRp5447
(dp5448
g73
(dp5449
g93
g94
ssg82
g5443
sg75
(lp5450
S'title'
p5451
asbag68
(g89
g70
NtRp5452
(dp5453
g73
(dp5454
g100
g101
ssg82
g5443
sg75
(lp5455
S':'
asbag68
(g89
g70
NtRp5456
(dp5457
g73
(dp5458
sg82
g5443
sg75
(lp5459
g68
(g69
g70
NtRp5460
(dp5461
g73
(dp5462
g81
I5
ssg82
g5456
sg75
(lp5463
S'Reddit'
p5464
asbasbasbag68
(g84
g70
NtRp5465
(dp5466
g73
(dp5467
sg82
g3850
sg75
(lp5468
g68
(g89
g70
NtRp5469
(dp5470
g73
(dp5471
g93
g94
ssg82
g5465
sg75
(lp5472
S'view'
p5473
asbag68
(g89
g70
NtRp5474
(dp5475
g73
(dp5476
g100
g101
ssg82
g5465
sg75
(lp5477
S':'
asbag68
(g89
g70
NtRp5478
(dp5479
g73
(dp5480
sg82
g5465
sg75
(lp5481
g68
(g69
g70
NtRp5482
(dp5483
g73
(dp5484
g81
I5
ssg82
g5478
sg75
(lp5485
S'default/addpost.html'
p5486
asbasbasbasbasbsS'locals'
p5487
(dp5488
g4
S"'/home/pankaj/web2py/applications/reddit/controllers/default.py'"
p5489
sg6
S"'# -*- coding: utf-8 -*-\\n# this file is released ...rud())\\n\\nresponse._vars=response._caller(addpost)\\n'"
p5490
sssS'traceback'
p5491
S'Traceback (most recent call last):\n  File "/home/pankaj/web2py/gluon/restricted.py", line 211, in restricted\n    ccode = compile2(code, layer)\n  File "/home/pankaj/web2py/gluon/restricted.py", line 194, in compile2\n    return compile(code.rstrip().replace(\'\\r\\n\', \'\\n\') + \'\\n\', layer, \'exec\')\n  File "/home/pankaj/web2py/applications/reddit/controllers/default.py", line 40\n    def uplike():\n      ^\nIndentationError: expected an indented block\n'
p5492
s.